(dp1
S'output'
p2
S''
sS'layer'
p3
S'/home/kaique/Projects/web2py/applications/synopsis/controllers/information.py'
p4
sS'code'
p5
S"# -*- coding: utf-8 -*-\nimport functions as f # shorthand function\n\n@auth.requires_membership('admin')\ndef index(): # Show the all content for redirect to profile\n\tsubject = f.get_table(db, 'subject', order='created_on')\n\treturn { 'subject': subject }\n\n@auth.requires_membership('admin')\ndef profile(): # Show the profile of subject\n\targs = request.args # query url's\n\tif args: \n\t\tprofile = f.get_table(db, 'subject', id=args[0]) \n\t\tsession.index = args[0] \n\tif not args or not profile: return redirect( URL('index') )\n\treturn { 'profile': profile }\n\n@auth.requires_membership('admin')\ndef publication(): # Show the publication profile\n\targs = request.args # query url's\n\tif args: publication = f.get_table(db, 'publication', id=args[0]) \n\tif not args or not publication: return redirect( URL('profile') )\n\treturn { 'publication': publication }\n\n@auth.requires_membership('admin')\ndef new(): # Create a new subject\n\targs = request.args\n\t\n\tif not args:\n\t\ttitle = 'Subject'\n\t\tsubject = SQLFORM(db.subject, fields=['name'])\n\t\tsubject.elements(_type='submit')[0]['_value'] = 'Create'\n\t\t\n\t\tif subject.process().accepted:\n\t\t\tresponse.flash = T('{0} {1} {2}'.format('New', title.lower(), 'inserted!'))\n\t\telif subject.errors:\n\t\t\tresponse.flash = T('Sorry, try again!')\n\t\telse:\n\t\t\tresponse.flah = T('Please, fill the field...')\n\t\t\t\n\t\treturn { 'form': subject, \n\t\t\t \t 'title': title }\n\t\n\timport pdb; pdb.set_trace()\t\n\telif args[0] == 'publication':\n\t\ttitle = 'Publication'\n\t\tpublication = SQLFORM.factory(db.publication, fields=['title', 'sub_title'])\n\t\t\n\t\tif publication.process(dbio=False).accepted:\n\t\t\tpublication.vars['subject_id'] = args[1]\n\t\t\tresponse.flash = T(T('{0} {1} {2}'.format('New', title.lower(), 'inserted!')))\n\t\telif publication.errors:\n\t\t\tresponse.flash = T('Sorry, try again!')\n\t\telse:\n\t\t\tresponse.flahs = T('Please, fill the field...')\n\t\n\t\treturn { 'form': publication,\n\t\t\t\t 'title': title }\n\t\t\t \t \n@auth.requires_membership('admin')\ndef edit(): # Edit the subject\n\treturn {}\n\nresponse._vars=response._caller(profile)\n"
p6
sS'snapshot'
p7
(dp8
S'exception'
p9
(dp10
S'__getslice__'
p11
S"<method-wrapper '__getslice__' of exceptions.SyntaxError object>"
p12
sS'text'
p13
S'"\\telif args[0] == \'publication\':\\n"'
p14
sS'__str__'
p15
S"<method-wrapper '__str__' of exceptions.SyntaxError object>"
p16
sS'__reduce__'
p17
S'<built-in method __reduce__ of exceptions.SyntaxError object>'
p18
sS'__dict__'
p19
S'{}'
p20
sS'__sizeof__'
p21
S'<built-in method __sizeof__ of exceptions.SyntaxError object>'
p22
sS'__init__'
p23
S"<method-wrapper '__init__' of exceptions.SyntaxError object>"
p24
sS'__setattr__'
p25
S"<method-wrapper '__setattr__' of exceptions.SyntaxError object>"
p26
sS'__reduce_ex__'
p27
S'<built-in method __reduce_ex__ of exceptions.SyntaxError object>'
p28
sS'__new__'
p29
S'<built-in method __new__ of type object>'
p30
sS'__format__'
p31
S'<built-in method __format__ of exceptions.SyntaxError object>'
p32
sS'__class__'
p33
S"<type 'exceptions.SyntaxError'>"
p34
sS'filename'
p35
S"'/home/kaique/Projects/web2py/applications/synopsis/controllers/information.py'"
p36
sS'lineno'
p37
S'45'
p38
sS'msg'
p39
S"'invalid syntax'"
p40
sS'__doc__'
p41
S"'Invalid syntax.'"
p42
sS'__getitem__'
p43
S"<method-wrapper '__getitem__' of exceptions.SyntaxError object>"
p44
sS'__setstate__'
p45
S'<built-in method __setstate__ of exceptions.SyntaxError object>'
p46
sS'__getattribute__'
p47
S"<method-wrapper '__getattribute__' of exceptions.SyntaxError object>"
p48
sS'print_file_and_line'
p49
S'None'
p50
sS'args'
p51
S'(\'invalid syntax\', (\'/home/kaique/Projects/web2py/applications/synopsis/controllers/information.py\', 45, 5, "\\telif args[0] == \'publication\':\\n"))'
p52
sS'__subclasshook__'
p53
S'<built-in method __subclasshook__ of type object>'
p54
sS'offset'
p55
S'5'
sS'__unicode__'
p56
S'<built-in method __unicode__ of exceptions.SyntaxError object>'
p57
sS'__delattr__'
p58
S"<method-wrapper '__delattr__' of exceptions.SyntaxError object>"
p59
sS'__repr__'
p60
S"<method-wrapper '__repr__' of exceptions.SyntaxError object>"
p61
sS'__hash__'
p62
S"<method-wrapper '__hash__' of exceptions.SyntaxError object>"
p63
ssS'evalue'
p64
S'invalid syntax (information.py, line 45)'
p65
sS'request'
p66
ccopy_reg
_reconstructor
p67
(cgluon.html
BEAUTIFY
p68
c__builtin__
object
p69
NtRp70
(dp71
S'attributes'
p72
(dp73
sS'components'
p74
(lp75
g67
(cgluon.html
TABLE
p76
g69
NtRp77
(dp78
g72
(dp79
S'level'
p80
I5
ssS'parent'
p81
Nsg74
(lp82
g67
(cgluon.html
TR
p83
g69
NtRp84
(dp85
g72
(dp86
sg81
g77
sg74
(lp87
g67
(cgluon.html
TD
p88
g69
NtRp89
(dp90
g72
(dp91
S'_style'
p92
S'font-weight:bold;'
p93
ssg81
g84
sg74
(lp94
S'ajax'
p95
asbag67
(g88
g69
NtRp96
(dp97
g72
(dp98
S'_valign'
p99
S'top'
p100
ssg81
g84
sg74
(lp101
S':'
asbag67
(g88
g69
NtRp102
(dp103
g72
(dp104
sg81
g84
sg74
(lp105
g67
(g68
g69
NtRp106
(dp107
g72
(dp108
g80
I5
ssg81
g102
sg74
(lp109
S'False'
p110
asbasbasbag67
(g83
g69
NtRp111
(dp112
g72
(dp113
sg81
g77
sg74
(lp114
g67
(g88
g69
NtRp115
(dp116
g72
(dp117
g92
g93
ssg81
g111
sg74
(lp118
S'application'
p119
asbag67
(g88
g69
NtRp120
(dp121
g72
(dp122
g99
g100
ssg81
g111
sg74
(lp123
S':'
asbag67
(g88
g69
NtRp124
(dp125
g72
(dp126
sg81
g111
sg74
(lp127
g67
(g68
g69
NtRp128
(dp129
g72
(dp130
g80
I5
ssg81
g124
sg74
(lp131
S'synopsis'
p132
asbasbasbag67
(g83
g69
NtRp133
(dp134
g72
(dp135
sg81
g77
sg74
(lp136
g67
(g88
g69
NtRp137
(dp138
g72
(dp139
g92
g93
ssg81
g133
sg74
(lp140
g51
asbag67
(g88
g69
NtRp141
(dp142
g72
(dp143
g99
g100
ssg81
g133
sg74
(lp144
S':'
asbag67
(g88
g69
NtRp145
(dp146
g72
(dp147
sg81
g133
sg74
(lp148
g67
(g68
g69
NtRp149
(dp150
g72
(dp151
g80
I5
ssg81
g145
sg74
(lp152
g67
(g76
g69
NtRp153
(dp154
g72
(dp155
g80
I4
ssg81
Nsg74
(lp156
g67
(g83
g69
NtRp157
(dp158
g72
(dp159
sg81
g153
sg74
(lp160
g67
(g88
g69
NtRp161
(dp162
g72
(dp163
sg81
g157
sg74
(lp164
g67
(g68
g69
NtRp165
(dp166
g72
(dp167
g80
I4
ssg81
g161
sg74
(lp168
S'2'
asbasbasbasbasbasbasbag67
(g83
g69
NtRp169
(dp170
g72
(dp171
sg81
g77
sg74
(lp172
g67
(g88
g69
NtRp173
(dp174
g72
(dp175
g92
g93
ssg81
g169
sg74
(lp176
S'body'
p177
asbag67
(g88
g69
NtRp178
(dp179
g72
(dp180
g99
g100
ssg81
g169
sg74
(lp181
S':'
asbag67
(g88
g69
NtRp182
(dp183
g72
(dp184
sg81
g169
sg74
(lp185
g67
(g68
g69
NtRp186
(dp187
g72
(dp188
g80
I5
ssg81
g182
sg74
(lp189
S'<cStringIO.StringO object at 0x337d2d0>'
p190
asbasbasbag67
(g83
g69
NtRp191
(dp192
g72
(dp193
sg81
g77
sg74
(lp194
g67
(g88
g69
NtRp195
(dp196
g72
(dp197
g92
g93
ssg81
g191
sg74
(lp198
S'client'
p199
asbag67
(g88
g69
NtRp200
(dp201
g72
(dp202
g99
g100
ssg81
g191
sg74
(lp203
S':'
asbag67
(g88
g69
NtRp204
(dp205
g72
(dp206
sg81
g191
sg74
(lp207
g67
(g68
g69
NtRp208
(dp209
g72
(dp210
g80
I5
ssg81
g204
sg74
(lp211
S'127.0.0.1'
p212
asbasbasbag67
(g83
g69
NtRp213
(dp214
g72
(dp215
sg81
g77
sg74
(lp216
g67
(g88
g69
NtRp217
(dp218
g72
(dp219
g92
g93
ssg81
g213
sg74
(lp220
S'controller'
p221
asbag67
(g88
g69
NtRp222
(dp223
g72
(dp224
g99
g100
ssg81
g213
sg74
(lp225
S':'
asbag67
(g88
g69
NtRp226
(dp227
g72
(dp228
sg81
g213
sg74
(lp229
g67
(g68
g69
NtRp230
(dp231
g72
(dp232
g80
I5
ssg81
g226
sg74
(lp233
S'information'
p234
asbasbasbag67
(g83
g69
NtRp235
(dp236
g72
(dp237
sg81
g77
sg74
(lp238
g67
(g88
g69
NtRp239
(dp240
g72
(dp241
g92
g93
ssg81
g235
sg74
(lp242
S'cookies'
p243
asbag67
(g88
g69
NtRp244
(dp245
g72
(dp246
g99
g100
ssg81
g235
sg74
(lp247
S':'
asbag67
(g88
g69
NtRp248
(dp249
g72
(dp250
sg81
g235
sg74
(lp251
g67
(g68
g69
NtRp252
(dp253
g72
(dp254
g80
I5
ssg81
g248
sg74
(lp255
g67
(g76
g69
NtRp256
(dp257
g72
(dp258
g80
I4
ssg81
Nsg74
(lp259
g67
(g83
g69
NtRp260
(dp261
g72
(dp262
sg81
g256
sg74
(lp263
g67
(g88
g69
NtRp264
(dp265
g72
(dp266
g92
g93
ssg81
g260
sg74
(lp267
S'session_id_admin'
p268
asbag67
(g88
g69
NtRp269
(dp270
g72
(dp271
g99
g100
ssg81
g260
sg74
(lp272
S':'
asbag67
(g88
g69
NtRp273
(dp274
g72
(dp275
sg81
g260
sg74
(lp276
g67
(g68
g69
NtRp277
(dp278
g72
(dp279
g80
I4
ssg81
g273
sg74
(lp280
g67
(g76
g69
NtRp281
(dp282
g72
(dp283
g80
I3
ssg81
Nsg74
(lp284
g67
(g83
g69
NtRp285
(dp286
g72
(dp287
sg81
g281
sg74
(lp288
g67
(g88
g69
NtRp289
(dp290
g72
(dp291
g92
g93
ssg81
g285
sg74
(lp292
S'comment'
p293
asbag67
(g88
g69
NtRp294
(dp295
g72
(dp296
g99
g100
ssg81
g285
sg74
(lp297
S':'
asbag67
(g88
g69
NtRp298
(dp299
g72
(dp300
sg81
g285
sg74
(lp301
g67
(g68
g69
NtRp302
(dp303
g72
(dp304
g80
I3
ssg81
g298
sg74
(lp305
S''
asbasbasbag67
(g83
g69
NtRp306
(dp307
g72
(dp308
sg81
g281
sg74
(lp309
g67
(g88
g69
NtRp310
(dp311
g72
(dp312
g92
g93
ssg81
g306
sg74
(lp313
S'domain'
p314
asbag67
(g88
g69
NtRp315
(dp316
g72
(dp317
g99
g100
ssg81
g306
sg74
(lp318
S':'
asbag67
(g88
g69
NtRp319
(dp320
g72
(dp321
sg81
g306
sg74
(lp322
g67
(g68
g69
NtRp323
(dp324
g72
(dp325
g80
I3
ssg81
g319
sg74
(lp326
S''
asbasbasbag67
(g83
g69
NtRp327
(dp328
g72
(dp329
sg81
g281
sg74
(lp330
g67
(g88
g69
NtRp331
(dp332
g72
(dp333
g92
g93
ssg81
g327
sg74
(lp334
S'expires'
p335
asbag67
(g88
g69
NtRp336
(dp337
g72
(dp338
g99
g100
ssg81
g327
sg74
(lp339
S':'
asbag67
(g88
g69
NtRp340
(dp341
g72
(dp342
sg81
g327
sg74
(lp343
g67
(g68
g69
NtRp344
(dp345
g72
(dp346
g80
I3
ssg81
g340
sg74
(lp347
S''
asbasbasbag67
(g83
g69
NtRp348
(dp349
g72
(dp350
sg81
g281
sg74
(lp351
g67
(g88
g69
NtRp352
(dp353
g72
(dp354
g92
g93
ssg81
g348
sg74
(lp355
S'httponly'
p356
asbag67
(g88
g69
NtRp357
(dp358
g72
(dp359
g99
g100
ssg81
g348
sg74
(lp360
S':'
asbag67
(g88
g69
NtRp361
(dp362
g72
(dp363
sg81
g348
sg74
(lp364
g67
(g68
g69
NtRp365
(dp366
g72
(dp367
g80
I3
ssg81
g361
sg74
(lp368
S''
asbasbasbag67
(g83
g69
NtRp369
(dp370
g72
(dp371
sg81
g281
sg74
(lp372
g67
(g88
g69
NtRp373
(dp374
g72
(dp375
g92
g93
ssg81
g369
sg74
(lp376
S'max-age'
p377
asbag67
(g88
g69
NtRp378
(dp379
g72
(dp380
g99
g100
ssg81
g369
sg74
(lp381
S':'
asbag67
(g88
g69
NtRp382
(dp383
g72
(dp384
sg81
g369
sg74
(lp385
g67
(g68
g69
NtRp386
(dp387
g72
(dp388
g80
I3
ssg81
g382
sg74
(lp389
S''
asbasbasbag67
(g83
g69
NtRp390
(dp391
g72
(dp392
sg81
g281
sg74
(lp393
g67
(g88
g69
NtRp394
(dp395
g72
(dp396
g92
g93
ssg81
g390
sg74
(lp397
S'path'
p398
asbag67
(g88
g69
NtRp399
(dp400
g72
(dp401
g99
g100
ssg81
g390
sg74
(lp402
S':'
asbag67
(g88
g69
NtRp403
(dp404
g72
(dp405
sg81
g390
sg74
(lp406
g67
(g68
g69
NtRp407
(dp408
g72
(dp409
g80
I3
ssg81
g403
sg74
(lp410
S''
asbasbasbag67
(g83
g69
NtRp411
(dp412
g72
(dp413
sg81
g281
sg74
(lp414
g67
(g88
g69
NtRp415
(dp416
g72
(dp417
g92
g93
ssg81
g411
sg74
(lp418
S'secure'
p419
asbag67
(g88
g69
NtRp420
(dp421
g72
(dp422
g99
g100
ssg81
g411
sg74
(lp423
S':'
asbag67
(g88
g69
NtRp424
(dp425
g72
(dp426
sg81
g411
sg74
(lp427
g67
(g68
g69
NtRp428
(dp429
g72
(dp430
g80
I3
ssg81
g424
sg74
(lp431
S''
asbasbasbag67
(g83
g69
NtRp432
(dp433
g72
(dp434
sg81
g281
sg74
(lp435
g67
(g88
g69
NtRp436
(dp437
g72
(dp438
g92
g93
ssg81
g432
sg74
(lp439
S'version'
p440
asbag67
(g88
g69
NtRp441
(dp442
g72
(dp443
g99
g100
ssg81
g432
sg74
(lp444
S':'
asbag67
(g88
g69
NtRp445
(dp446
g72
(dp447
sg81
g432
sg74
(lp448
g67
(g68
g69
NtRp449
(dp450
g72
(dp451
g80
I3
ssg81
g445
sg74
(lp452
S''
asbasbasbasbasbasbasbag67
(g83
g69
NtRp453
(dp454
g72
(dp455
sg81
g256
sg74
(lp456
g67
(g88
g69
NtRp457
(dp458
g72
(dp459
g92
g93
ssg81
g453
sg74
(lp460
S'session_id_synopsis'
p461
asbag67
(g88
g69
NtRp462
(dp463
g72
(dp464
g99
g100
ssg81
g453
sg74
(lp465
S':'
asbag67
(g88
g69
NtRp466
(dp467
g72
(dp468
sg81
g453
sg74
(lp469
g67
(g68
g69
NtRp470
(dp471
g72
(dp472
g80
I4
ssg81
g466
sg74
(lp473
g67
(g76
g69
NtRp474
(dp475
g72
(dp476
g80
I3
ssg81
Nsg74
(lp477
g67
(g83
g69
NtRp478
(dp479
g72
(dp480
sg81
g474
sg74
(lp481
g67
(g88
g69
NtRp482
(dp483
g72
(dp484
g92
g93
ssg81
g478
sg74
(lp485
g293
asbag67
(g88
g69
NtRp486
(dp487
g72
(dp488
g99
g100
ssg81
g478
sg74
(lp489
S':'
asbag67
(g88
g69
NtRp490
(dp491
g72
(dp492
sg81
g478
sg74
(lp493
g67
(g68
g69
NtRp494
(dp495
g72
(dp496
g80
I3
ssg81
g490
sg74
(lp497
S''
asbasbasbag67
(g83
g69
NtRp498
(dp499
g72
(dp500
sg81
g474
sg74
(lp501
g67
(g88
g69
NtRp502
(dp503
g72
(dp504
g92
g93
ssg81
g498
sg74
(lp505
g314
asbag67
(g88
g69
NtRp506
(dp507
g72
(dp508
g99
g100
ssg81
g498
sg74
(lp509
S':'
asbag67
(g88
g69
NtRp510
(dp511
g72
(dp512
sg81
g498
sg74
(lp513
g67
(g68
g69
NtRp514
(dp515
g72
(dp516
g80
I3
ssg81
g510
sg74
(lp517
S''
asbasbasbag67
(g83
g69
NtRp518
(dp519
g72
(dp520
sg81
g474
sg74
(lp521
g67
(g88
g69
NtRp522
(dp523
g72
(dp524
g92
g93
ssg81
g518
sg74
(lp525
g335
asbag67
(g88
g69
NtRp526
(dp527
g72
(dp528
g99
g100
ssg81
g518
sg74
(lp529
S':'
asbag67
(g88
g69
NtRp530
(dp531
g72
(dp532
sg81
g518
sg74
(lp533
g67
(g68
g69
NtRp534
(dp535
g72
(dp536
g80
I3
ssg81
g530
sg74
(lp537
S''
asbasbasbag67
(g83
g69
NtRp538
(dp539
g72
(dp540
sg81
g474
sg74
(lp541
g67
(g88
g69
NtRp542
(dp543
g72
(dp544
g92
g93
ssg81
g538
sg74
(lp545
g356
asbag67
(g88
g69
NtRp546
(dp547
g72
(dp548
g99
g100
ssg81
g538
sg74
(lp549
S':'
asbag67
(g88
g69
NtRp550
(dp551
g72
(dp552
sg81
g538
sg74
(lp553
g67
(g68
g69
NtRp554
(dp555
g72
(dp556
g80
I3
ssg81
g550
sg74
(lp557
S''
asbasbasbag67
(g83
g69
NtRp558
(dp559
g72
(dp560
sg81
g474
sg74
(lp561
g67
(g88
g69
NtRp562
(dp563
g72
(dp564
g92
g93
ssg81
g558
sg74
(lp565
g377
asbag67
(g88
g69
NtRp566
(dp567
g72
(dp568
g99
g100
ssg81
g558
sg74
(lp569
S':'
asbag67
(g88
g69
NtRp570
(dp571
g72
(dp572
sg81
g558
sg74
(lp573
g67
(g68
g69
NtRp574
(dp575
g72
(dp576
g80
I3
ssg81
g570
sg74
(lp577
S''
asbasbasbag67
(g83
g69
NtRp578
(dp579
g72
(dp580
sg81
g474
sg74
(lp581
g67
(g88
g69
NtRp582
(dp583
g72
(dp584
g92
g93
ssg81
g578
sg74
(lp585
g398
asbag67
(g88
g69
NtRp586
(dp587
g72
(dp588
g99
g100
ssg81
g578
sg74
(lp589
S':'
asbag67
(g88
g69
NtRp590
(dp591
g72
(dp592
sg81
g578
sg74
(lp593
g67
(g68
g69
NtRp594
(dp595
g72
(dp596
g80
I3
ssg81
g590
sg74
(lp597
S''
asbasbasbag67
(g83
g69
NtRp598
(dp599
g72
(dp600
sg81
g474
sg74
(lp601
g67
(g88
g69
NtRp602
(dp603
g72
(dp604
g92
g93
ssg81
g598
sg74
(lp605
g419
asbag67
(g88
g69
NtRp606
(dp607
g72
(dp608
g99
g100
ssg81
g598
sg74
(lp609
S':'
asbag67
(g88
g69
NtRp610
(dp611
g72
(dp612
sg81
g598
sg74
(lp613
g67
(g68
g69
NtRp614
(dp615
g72
(dp616
g80
I3
ssg81
g610
sg74
(lp617
S''
asbasbasbag67
(g83
g69
NtRp618
(dp619
g72
(dp620
sg81
g474
sg74
(lp621
g67
(g88
g69
NtRp622
(dp623
g72
(dp624
g92
g93
ssg81
g618
sg74
(lp625
g440
asbag67
(g88
g69
NtRp626
(dp627
g72
(dp628
g99
g100
ssg81
g618
sg74
(lp629
S':'
asbag67
(g88
g69
NtRp630
(dp631
g72
(dp632
sg81
g618
sg74
(lp633
g67
(g68
g69
NtRp634
(dp635
g72
(dp636
g80
I3
ssg81
g630
sg74
(lp637
S''
asbasbasbasbasbasbasbag67
(g83
g69
NtRp638
(dp639
g72
(dp640
sg81
g256
sg74
(lp641
g67
(g88
g69
NtRp642
(dp643
g72
(dp644
g92
g93
ssg81
g638
sg74
(lp645
S'session_id_welcome'
p646
asbag67
(g88
g69
NtRp647
(dp648
g72
(dp649
g99
g100
ssg81
g638
sg74
(lp650
S':'
asbag67
(g88
g69
NtRp651
(dp652
g72
(dp653
sg81
g638
sg74
(lp654
g67
(g68
g69
NtRp655
(dp656
g72
(dp657
g80
I4
ssg81
g651
sg74
(lp658
g67
(g76
g69
NtRp659
(dp660
g72
(dp661
g80
I3
ssg81
Nsg74
(lp662
g67
(g83
g69
NtRp663
(dp664
g72
(dp665
sg81
g659
sg74
(lp666
g67
(g88
g69
NtRp667
(dp668
g72
(dp669
g92
g93
ssg81
g663
sg74
(lp670
g293
asbag67
(g88
g69
NtRp671
(dp672
g72
(dp673
g99
g100
ssg81
g663
sg74
(lp674
S':'
asbag67
(g88
g69
NtRp675
(dp676
g72
(dp677
sg81
g663
sg74
(lp678
g67
(g68
g69
NtRp679
(dp680
g72
(dp681
g80
I3
ssg81
g675
sg74
(lp682
S''
asbasbasbag67
(g83
g69
NtRp683
(dp684
g72
(dp685
sg81
g659
sg74
(lp686
g67
(g88
g69
NtRp687
(dp688
g72
(dp689
g92
g93
ssg81
g683
sg74
(lp690
g314
asbag67
(g88
g69
NtRp691
(dp692
g72
(dp693
g99
g100
ssg81
g683
sg74
(lp694
S':'
asbag67
(g88
g69
NtRp695
(dp696
g72
(dp697
sg81
g683
sg74
(lp698
g67
(g68
g69
NtRp699
(dp700
g72
(dp701
g80
I3
ssg81
g695
sg74
(lp702
S''
asbasbasbag67
(g83
g69
NtRp703
(dp704
g72
(dp705
sg81
g659
sg74
(lp706
g67
(g88
g69
NtRp707
(dp708
g72
(dp709
g92
g93
ssg81
g703
sg74
(lp710
g335
asbag67
(g88
g69
NtRp711
(dp712
g72
(dp713
g99
g100
ssg81
g703
sg74
(lp714
S':'
asbag67
(g88
g69
NtRp715
(dp716
g72
(dp717
sg81
g703
sg74
(lp718
g67
(g68
g69
NtRp719
(dp720
g72
(dp721
g80
I3
ssg81
g715
sg74
(lp722
S''
asbasbasbag67
(g83
g69
NtRp723
(dp724
g72
(dp725
sg81
g659
sg74
(lp726
g67
(g88
g69
NtRp727
(dp728
g72
(dp729
g92
g93
ssg81
g723
sg74
(lp730
g356
asbag67
(g88
g69
NtRp731
(dp732
g72
(dp733
g99
g100
ssg81
g723
sg74
(lp734
S':'
asbag67
(g88
g69
NtRp735
(dp736
g72
(dp737
sg81
g723
sg74
(lp738
g67
(g68
g69
NtRp739
(dp740
g72
(dp741
g80
I3
ssg81
g735
sg74
(lp742
S''
asbasbasbag67
(g83
g69
NtRp743
(dp744
g72
(dp745
sg81
g659
sg74
(lp746
g67
(g88
g69
NtRp747
(dp748
g72
(dp749
g92
g93
ssg81
g743
sg74
(lp750
g377
asbag67
(g88
g69
NtRp751
(dp752
g72
(dp753
g99
g100
ssg81
g743
sg74
(lp754
S':'
asbag67
(g88
g69
NtRp755
(dp756
g72
(dp757
sg81
g743
sg74
(lp758
g67
(g68
g69
NtRp759
(dp760
g72
(dp761
g80
I3
ssg81
g755
sg74
(lp762
S''
asbasbasbag67
(g83
g69
NtRp763
(dp764
g72
(dp765
sg81
g659
sg74
(lp766
g67
(g88
g69
NtRp767
(dp768
g72
(dp769
g92
g93
ssg81
g763
sg74
(lp770
g398
asbag67
(g88
g69
NtRp771
(dp772
g72
(dp773
g99
g100
ssg81
g763
sg74
(lp774
S':'
asbag67
(g88
g69
NtRp775
(dp776
g72
(dp777
sg81
g763
sg74
(lp778
g67
(g68
g69
NtRp779
(dp780
g72
(dp781
g80
I3
ssg81
g775
sg74
(lp782
S''
asbasbasbag67
(g83
g69
NtRp783
(dp784
g72
(dp785
sg81
g659
sg74
(lp786
g67
(g88
g69
NtRp787
(dp788
g72
(dp789
g92
g93
ssg81
g783
sg74
(lp790
g419
asbag67
(g88
g69
NtRp791
(dp792
g72
(dp793
g99
g100
ssg81
g783
sg74
(lp794
S':'
asbag67
(g88
g69
NtRp795
(dp796
g72
(dp797
sg81
g783
sg74
(lp798
g67
(g68
g69
NtRp799
(dp800
g72
(dp801
g80
I3
ssg81
g795
sg74
(lp802
S''
asbasbasbag67
(g83
g69
NtRp803
(dp804
g72
(dp805
sg81
g659
sg74
(lp806
g67
(g88
g69
NtRp807
(dp808
g72
(dp809
g92
g93
ssg81
g803
sg74
(lp810
g440
asbag67
(g88
g69
NtRp811
(dp812
g72
(dp813
g99
g100
ssg81
g803
sg74
(lp814
S':'
asbag67
(g88
g69
NtRp815
(dp816
g72
(dp817
sg81
g803
sg74
(lp818
g67
(g68
g69
NtRp819
(dp820
g72
(dp821
g80
I3
ssg81
g815
sg74
(lp822
S''
asbasbasbasbasbasbasbasbasbasbasbag67
(g83
g69
NtRp823
(dp824
g72
(dp825
sg81
g77
sg74
(lp826
g67
(g88
g69
NtRp827
(dp828
g72
(dp829
g92
g93
ssg81
g823
sg74
(lp830
S'env'
p831
asbag67
(g88
g69
NtRp832
(dp833
g72
(dp834
g99
g100
ssg81
g823
sg74
(lp835
S':'
asbag67
(g88
g69
NtRp836
(dp837
g72
(dp838
sg81
g823
sg74
(lp839
g67
(g68
g69
NtRp840
(dp841
g72
(dp842
g80
I5
ssg81
g836
sg74
(lp843
g67
(g76
g69
NtRp844
(dp845
g72
(dp846
g80
I4
ssg81
Nsg74
(lp847
g67
(g83
g69
NtRp848
(dp849
g72
(dp850
sg81
g844
sg74
(lp851
g67
(g88
g69
NtRp852
(dp853
g72
(dp854
g92
g93
ssg81
g848
sg74
(lp855
S'app_folders'
p856
asbag67
(g88
g69
NtRp857
(dp858
g72
(dp859
g99
g100
ssg81
g848
sg74
(lp860
S':'
asbag67
(g88
g69
NtRp861
(dp862
g72
(dp863
sg81
g848
sg74
(lp864
g67
(g68
g69
NtRp865
(dp866
g72
(dp867
g80
I4
ssg81
g861
sg74
(lp868
S"set(['/home/kaique/Projects/web2py/applications/synopsis/', '/home/kaique/Projects/web2py/applications/admin/'])"
p869
asbasbasbag67
(g83
g69
NtRp870
(dp871
g72
(dp872
sg81
g844
sg74
(lp873
g67
(g88
g69
NtRp874
(dp875
g72
(dp876
g92
g93
ssg81
g870
sg74
(lp877
S'applications_parent'
p878
asbag67
(g88
g69
NtRp879
(dp880
g72
(dp881
g99
g100
ssg81
g870
sg74
(lp882
S':'
asbag67
(g88
g69
NtRp883
(dp884
g72
(dp885
sg81
g870
sg74
(lp886
g67
(g68
g69
NtRp887
(dp888
g72
(dp889
g80
I4
ssg81
g883
sg74
(lp890
S'/home/kaique/Projects/web2py'
p891
asbasbasbag67
(g83
g69
NtRp892
(dp893
g72
(dp894
sg81
g844
sg74
(lp895
g67
(g88
g69
NtRp896
(dp897
g72
(dp898
g92
g93
ssg81
g892
sg74
(lp899
S'cmd_args'
p900
asbag67
(g88
g69
NtRp901
(dp902
g72
(dp903
g99
g100
ssg81
g892
sg74
(lp904
S':'
asbag67
(g88
g69
NtRp905
(dp906
g72
(dp907
sg81
g892
sg74
(lp908
g67
(g68
g69
NtRp909
(dp910
g72
(dp911
g80
I4
ssg81
g905
sg74
(lp912
g67
(g76
g69
NtRp913
(dp914
g72
(dp915
g80
I3
ssg81
Nsg74
(lp916
sbasbasbasbag67
(g83
g69
NtRp917
(dp918
g72
(dp919
sg81
g844
sg74
(lp920
g67
(g88
g69
NtRp921
(dp922
g72
(dp923
g92
g93
ssg81
g917
sg74
(lp924
S'cmd_options'
p925
asbag67
(g88
g69
NtRp926
(dp927
g72
(dp928
g99
g100
ssg81
g917
sg74
(lp929
S':'
asbag67
(g88
g69
NtRp930
(dp931
g72
(dp932
sg81
g917
sg74
(lp933
g67
(g68
g69
NtRp934
(dp935
g72
(dp936
g80
I4
ssg81
g930
sg74
(lp937
S"<Values at 0x2d3b950: {'verbose': False, 'ip': '127.0.0.1', 'shutdown_timeout': 5, 'taskbar': False, 'nocron': False, 'pid_filename': 'httpserver.pid', 'maxthreads': None, 'softcron': False, 'server_name': 'kaique-Pine-Trail-M', 'bpython': False, 'nogui': False, 'port': 8000, 'extcron': False, 'debuglevel': 30, 'test': None, 'folder': '/home/kaique/Projects/web2py', 'config': '', 'import_models': False, 'winservice': '', 'shell': None, 'run': '', 'log_filename': 'httpserver.log', 'args': [''], 'ssl_ca_certificate': None, 'scheduler': None, 'profiler_filename': None, 'ssl_private_key': '', 'password': 'dev', 'request_queue_size': 5, 'ssl_certificate': '', 'cronjob': False, 'plain': False, 'quiet': False, 'interfaces': None, 'minthreads': None, 'timeout': 10, 'numthreads': None, 'nobanner': False}>"
p938
asbasbasbag67
(g83
g69
NtRp939
(dp940
g72
(dp941
sg81
g844
sg74
(lp942
g67
(g88
g69
NtRp943
(dp944
g72
(dp945
g92
g93
ssg81
g939
sg74
(lp946
S'db_sessions'
p947
asbag67
(g88
g69
NtRp948
(dp949
g72
(dp950
g99
g100
ssg81
g939
sg74
(lp951
S':'
asbag67
(g88
g69
NtRp952
(dp953
g72
(dp954
sg81
g939
sg74
(lp955
g67
(g68
g69
NtRp956
(dp957
g72
(dp958
g80
I4
ssg81
g952
sg74
(lp959
S'set([])'
p960
asbasbasbag67
(g83
g69
NtRp961
(dp962
g72
(dp963
sg81
g844
sg74
(lp964
g67
(g88
g69
NtRp965
(dp966
g72
(dp967
g92
g93
ssg81
g961
sg74
(lp968
S'debugging'
p969
asbag67
(g88
g69
NtRp970
(dp971
g72
(dp972
g99
g100
ssg81
g961
sg74
(lp973
S':'
asbag67
(g88
g69
NtRp974
(dp975
g72
(dp976
sg81
g961
sg74
(lp977
g67
(g68
g69
NtRp978
(dp979
g72
(dp980
g80
I4
ssg81
g974
sg74
(lp981
g110
asbasbasbag67
(g83
g69
NtRp982
(dp983
g72
(dp984
sg81
g844
sg74
(lp985
g67
(g88
g69
NtRp986
(dp987
g72
(dp988
g92
g93
ssg81
g982
sg74
(lp989
S'gluon_parent'
p990
asbag67
(g88
g69
NtRp991
(dp992
g72
(dp993
g99
g100
ssg81
g982
sg74
(lp994
S':'
asbag67
(g88
g69
NtRp995
(dp996
g72
(dp997
sg81
g982
sg74
(lp998
g67
(g68
g69
NtRp999
(dp1000
g72
(dp1001
g80
I4
ssg81
g995
sg74
(lp1002
S'/home/kaique/Projects/web2py'
p1003
asbasbasbag67
(g83
g69
NtRp1004
(dp1005
g72
(dp1006
sg81
g844
sg74
(lp1007
g67
(g88
g69
NtRp1008
(dp1009
g72
(dp1010
g92
g93
ssg81
g1004
sg74
(lp1011
S'http_accept'
p1012
asbag67
(g88
g69
NtRp1013
(dp1014
g72
(dp1015
g99
g100
ssg81
g1004
sg74
(lp1016
S':'
asbag67
(g88
g69
NtRp1017
(dp1018
g72
(dp1019
sg81
g1004
sg74
(lp1020
g67
(g68
g69
NtRp1021
(dp1022
g72
(dp1023
g80
I4
ssg81
g1017
sg74
(lp1024
S'text/html,application/xhtml+xml,application/xml;q=0.9,*/*;q=0.8'
p1025
asbasbasbag67
(g83
g69
NtRp1026
(dp1027
g72
(dp1028
sg81
g844
sg74
(lp1029
g67
(g88
g69
NtRp1030
(dp1031
g72
(dp1032
g92
g93
ssg81
g1026
sg74
(lp1033
S'http_accept_charset'
p1034
asbag67
(g88
g69
NtRp1035
(dp1036
g72
(dp1037
g99
g100
ssg81
g1026
sg74
(lp1038
S':'
asbag67
(g88
g69
NtRp1039
(dp1040
g72
(dp1041
sg81
g1026
sg74
(lp1042
g67
(g68
g69
NtRp1043
(dp1044
g72
(dp1045
g80
I4
ssg81
g1039
sg74
(lp1046
S'ISO-8859-1,utf-8;q=0.7,*;q=0.7'
p1047
asbasbasbag67
(g83
g69
NtRp1048
(dp1049
g72
(dp1050
sg81
g844
sg74
(lp1051
g67
(g88
g69
NtRp1052
(dp1053
g72
(dp1054
g92
g93
ssg81
g1048
sg74
(lp1055
S'http_accept_encoding'
p1056
asbag67
(g88
g69
NtRp1057
(dp1058
g72
(dp1059
g99
g100
ssg81
g1048
sg74
(lp1060
S':'
asbag67
(g88
g69
NtRp1061
(dp1062
g72
(dp1063
sg81
g1048
sg74
(lp1064
g67
(g68
g69
NtRp1065
(dp1066
g72
(dp1067
g80
I4
ssg81
g1061
sg74
(lp1068
S'gzip, deflate'
p1069
asbasbasbag67
(g83
g69
NtRp1070
(dp1071
g72
(dp1072
sg81
g844
sg74
(lp1073
g67
(g88
g69
NtRp1074
(dp1075
g72
(dp1076
g92
g93
ssg81
g1070
sg74
(lp1077
S'http_accept_language'
p1078
asbag67
(g88
g69
NtRp1079
(dp1080
g72
(dp1081
g99
g100
ssg81
g1070
sg74
(lp1082
S':'
asbag67
(g88
g69
NtRp1083
(dp1084
g72
(dp1085
sg81
g1070
sg74
(lp1086
g67
(g68
g69
NtRp1087
(dp1088
g72
(dp1089
g80
I4
ssg81
g1083
sg74
(lp1090
S'pt-br,pt;q=0.8,en-us;q=0.5,en;q=0.3'
p1091
asbasbasbag67
(g83
g69
NtRp1092
(dp1093
g72
(dp1094
sg81
g844
sg74
(lp1095
g67
(g88
g69
NtRp1096
(dp1097
g72
(dp1098
g92
g93
ssg81
g1092
sg74
(lp1099
S'http_connection'
p1100
asbag67
(g88
g69
NtRp1101
(dp1102
g72
(dp1103
g99
g100
ssg81
g1092
sg74
(lp1104
S':'
asbag67
(g88
g69
NtRp1105
(dp1106
g72
(dp1107
sg81
g1092
sg74
(lp1108
g67
(g68
g69
NtRp1109
(dp1110
g72
(dp1111
g80
I4
ssg81
g1105
sg74
(lp1112
S'keep-alive'
p1113
asbasbasbag67
(g83
g69
NtRp1114
(dp1115
g72
(dp1116
sg81
g844
sg74
(lp1117
g67
(g88
g69
NtRp1118
(dp1119
g72
(dp1120
g92
g93
ssg81
g1114
sg74
(lp1121
S'http_cookie'
p1122
asbag67
(g88
g69
NtRp1123
(dp1124
g72
(dp1125
g99
g100
ssg81
g1114
sg74
(lp1126
S':'
asbag67
(g88
g69
NtRp1127
(dp1128
g72
(dp1129
sg81
g1114
sg74
(lp1130
g67
(g68
g69
NtRp1131
(dp1132
g72
(dp1133
g80
I4
ssg81
g1127
sg74
(lp1134
S'session_id_welcome=127.0.0.1-5cd27a60-9290-4dfd-905a-2cae79e1b71d; session_id_admin=127.0.0.1-4fcac13e-289c-4471-92ed-6d5dcbf185e6; session_id_synopsis=127.0.0.1-351efa91-66d9-4ca2-9c53-1a2177b18dc7'
p1135
asbasbasbag67
(g83
g69
NtRp1136
(dp1137
g72
(dp1138
sg81
g844
sg74
(lp1139
g67
(g88
g69
NtRp1140
(dp1141
g72
(dp1142
g92
g93
ssg81
g1136
sg74
(lp1143
S'http_host'
p1144
asbag67
(g88
g69
NtRp1145
(dp1146
g72
(dp1147
g99
g100
ssg81
g1136
sg74
(lp1148
S':'
asbag67
(g88
g69
NtRp1149
(dp1150
g72
(dp1151
sg81
g1136
sg74
(lp1152
g67
(g68
g69
NtRp1153
(dp1154
g72
(dp1155
g80
I4
ssg81
g1149
sg74
(lp1156
S'localhost:8000'
p1157
asbasbasbag67
(g83
g69
NtRp1158
(dp1159
g72
(dp1160
sg81
g844
sg74
(lp1161
g67
(g88
g69
NtRp1162
(dp1163
g72
(dp1164
g92
g93
ssg81
g1158
sg74
(lp1165
S'http_referer'
p1166
asbag67
(g88
g69
NtRp1167
(dp1168
g72
(dp1169
g99
g100
ssg81
g1158
sg74
(lp1170
S':'
asbag67
(g88
g69
NtRp1171
(dp1172
g72
(dp1173
sg81
g1158
sg74
(lp1174
g67
(g68
g69
NtRp1175
(dp1176
g72
(dp1177
g80
I4
ssg81
g1171
sg74
(lp1178
S'http://localhost:8000/synopsis/information/publication/3'
p1179
asbasbasbag67
(g83
g69
NtRp1180
(dp1181
g72
(dp1182
sg81
g844
sg74
(lp1183
g67
(g88
g69
NtRp1184
(dp1185
g72
(dp1186
g92
g93
ssg81
g1180
sg74
(lp1187
S'http_user_agent'
p1188
asbag67
(g88
g69
NtRp1189
(dp1190
g72
(dp1191
g99
g100
ssg81
g1180
sg74
(lp1192
S':'
asbag67
(g88
g69
NtRp1193
(dp1194
g72
(dp1195
sg81
g1180
sg74
(lp1196
g67
(g68
g69
NtRp1197
(dp1198
g72
(dp1199
g80
I4
ssg81
g1193
sg74
(lp1200
S'Mozilla/5.0 (Ubuntu; X11; Linux x86_64; rv:9.0.1) Gecko/20100101 Firefox/9.0.1'
p1201
asbasbasbag67
(g83
g69
NtRp1202
(dp1203
g72
(dp1204
sg81
g844
sg74
(lp1205
g67
(g88
g69
NtRp1206
(dp1207
g72
(dp1208
g92
g93
ssg81
g1202
sg74
(lp1209
S'is_jython'
p1210
asbag67
(g88
g69
NtRp1211
(dp1212
g72
(dp1213
g99
g100
ssg81
g1202
sg74
(lp1214
S':'
asbag67
(g88
g69
NtRp1215
(dp1216
g72
(dp1217
sg81
g1202
sg74
(lp1218
g67
(g68
g69
NtRp1219
(dp1220
g72
(dp1221
g80
I4
ssg81
g1215
sg74
(lp1222
g110
asbasbasbag67
(g83
g69
NtRp1223
(dp1224
g72
(dp1225
sg81
g844
sg74
(lp1226
g67
(g88
g69
NtRp1227
(dp1228
g72
(dp1229
g92
g93
ssg81
g1223
sg74
(lp1230
S'path_info'
p1231
asbag67
(g88
g69
NtRp1232
(dp1233
g72
(dp1234
g99
g100
ssg81
g1223
sg74
(lp1235
S':'
asbag67
(g88
g69
NtRp1236
(dp1237
g72
(dp1238
sg81
g1223
sg74
(lp1239
g67
(g68
g69
NtRp1240
(dp1241
g72
(dp1242
g80
I4
ssg81
g1236
sg74
(lp1243
S'/synopsis/information/profile/2'
p1244
asbasbasbag67
(g83
g69
NtRp1245
(dp1246
g72
(dp1247
sg81
g844
sg74
(lp1248
g67
(g88
g69
NtRp1249
(dp1250
g72
(dp1251
g92
g93
ssg81
g1245
sg74
(lp1252
S'query_string'
p1253
asbag67
(g88
g69
NtRp1254
(dp1255
g72
(dp1256
g99
g100
ssg81
g1245
sg74
(lp1257
S':'
asbag67
(g88
g69
NtRp1258
(dp1259
g72
(dp1260
sg81
g1245
sg74
(lp1261
g67
(g68
g69
NtRp1262
(dp1263
g72
(dp1264
g80
I4
ssg81
g1258
sg74
(lp1265
S''
asbasbasbag67
(g83
g69
NtRp1266
(dp1267
g72
(dp1268
sg81
g844
sg74
(lp1269
g67
(g88
g69
NtRp1270
(dp1271
g72
(dp1272
g92
g93
ssg81
g1266
sg74
(lp1273
S'remote_addr'
p1274
asbag67
(g88
g69
NtRp1275
(dp1276
g72
(dp1277
g99
g100
ssg81
g1266
sg74
(lp1278
S':'
asbag67
(g88
g69
NtRp1279
(dp1280
g72
(dp1281
sg81
g1266
sg74
(lp1282
g67
(g68
g69
NtRp1283
(dp1284
g72
(dp1285
g80
I4
ssg81
g1279
sg74
(lp1286
g212
asbasbasbag67
(g83
g69
NtRp1287
(dp1288
g72
(dp1289
sg81
g844
sg74
(lp1290
g67
(g88
g69
NtRp1291
(dp1292
g72
(dp1293
g92
g93
ssg81
g1287
sg74
(lp1294
S'remote_port'
p1295
asbag67
(g88
g69
NtRp1296
(dp1297
g72
(dp1298
g99
g100
ssg81
g1287
sg74
(lp1299
S':'
asbag67
(g88
g69
NtRp1300
(dp1301
g72
(dp1302
sg81
g1287
sg74
(lp1303
g67
(g68
g69
NtRp1304
(dp1305
g72
(dp1306
g80
I4
ssg81
g1300
sg74
(lp1307
S'53328'
p1308
asbasbasbag67
(g83
g69
NtRp1309
(dp1310
g72
(dp1311
sg81
g844
sg74
(lp1312
g67
(g88
g69
NtRp1313
(dp1314
g72
(dp1315
g92
g93
ssg81
g1309
sg74
(lp1316
S'request_method'
p1317
asbag67
(g88
g69
NtRp1318
(dp1319
g72
(dp1320
g99
g100
ssg81
g1309
sg74
(lp1321
S':'
asbag67
(g88
g69
NtRp1322
(dp1323
g72
(dp1324
sg81
g1309
sg74
(lp1325
g67
(g68
g69
NtRp1326
(dp1327
g72
(dp1328
g80
I4
ssg81
g1322
sg74
(lp1329
S'GET'
p1330
asbasbasbag67
(g83
g69
NtRp1331
(dp1332
g72
(dp1333
sg81
g844
sg74
(lp1334
g67
(g88
g69
NtRp1335
(dp1336
g72
(dp1337
g92
g93
ssg81
g1331
sg74
(lp1338
S'script_name'
p1339
asbag67
(g88
g69
NtRp1340
(dp1341
g72
(dp1342
g99
g100
ssg81
g1331
sg74
(lp1343
S':'
asbag67
(g88
g69
NtRp1344
(dp1345
g72
(dp1346
sg81
g1331
sg74
(lp1347
g67
(g68
g69
NtRp1348
(dp1349
g72
(dp1350
g80
I4
ssg81
g1344
sg74
(lp1351
S''
asbasbasbag67
(g83
g69
NtRp1352
(dp1353
g72
(dp1354
sg81
g844
sg74
(lp1355
g67
(g88
g69
NtRp1356
(dp1357
g72
(dp1358
g92
g93
ssg81
g1352
sg74
(lp1359
S'server_name'
p1360
asbag67
(g88
g69
NtRp1361
(dp1362
g72
(dp1363
g99
g100
ssg81
g1352
sg74
(lp1364
S':'
asbag67
(g88
g69
NtRp1365
(dp1366
g72
(dp1367
sg81
g1352
sg74
(lp1368
g67
(g68
g69
NtRp1369
(dp1370
g72
(dp1371
g80
I4
ssg81
g1365
sg74
(lp1372
S'kaique-Pine-Trail-M'
p1373
asbasbasbag67
(g83
g69
NtRp1374
(dp1375
g72
(dp1376
sg81
g844
sg74
(lp1377
g67
(g88
g69
NtRp1378
(dp1379
g72
(dp1380
g92
g93
ssg81
g1374
sg74
(lp1381
S'server_port'
p1382
asbag67
(g88
g69
NtRp1383
(dp1384
g72
(dp1385
g99
g100
ssg81
g1374
sg74
(lp1386
S':'
asbag67
(g88
g69
NtRp1387
(dp1388
g72
(dp1389
sg81
g1374
sg74
(lp1390
g67
(g68
g69
NtRp1391
(dp1392
g72
(dp1393
g80
I4
ssg81
g1387
sg74
(lp1394
S'8000'
p1395
asbasbasbag67
(g83
g69
NtRp1396
(dp1397
g72
(dp1398
sg81
g844
sg74
(lp1399
g67
(g88
g69
NtRp1400
(dp1401
g72
(dp1402
g92
g93
ssg81
g1396
sg74
(lp1403
S'server_protocol'
p1404
asbag67
(g88
g69
NtRp1405
(dp1406
g72
(dp1407
g99
g100
ssg81
g1396
sg74
(lp1408
S':'
asbag67
(g88
g69
NtRp1409
(dp1410
g72
(dp1411
sg81
g1396
sg74
(lp1412
g67
(g68
g69
NtRp1413
(dp1414
g72
(dp1415
g80
I4
ssg81
g1409
sg74
(lp1416
S'HTTP/1.1'
p1417
asbasbasbag67
(g83
g69
NtRp1418
(dp1419
g72
(dp1420
sg81
g844
sg74
(lp1421
g67
(g88
g69
NtRp1422
(dp1423
g72
(dp1424
g92
g93
ssg81
g1418
sg74
(lp1425
S'server_software'
p1426
asbag67
(g88
g69
NtRp1427
(dp1428
g72
(dp1429
g99
g100
ssg81
g1418
sg74
(lp1430
S':'
asbag67
(g88
g69
NtRp1431
(dp1432
g72
(dp1433
sg81
g1418
sg74
(lp1434
g67
(g68
g69
NtRp1435
(dp1436
g72
(dp1437
g80
I4
ssg81
g1431
sg74
(lp1438
S'Rocket 1.2.4'
p1439
asbasbasbag67
(g83
g69
NtRp1440
(dp1441
g72
(dp1442
sg81
g844
sg74
(lp1443
g67
(g88
g69
NtRp1444
(dp1445
g72
(dp1446
g92
g93
ssg81
g1440
sg74
(lp1447
S'web2py_crontype'
p1448
asbag67
(g88
g69
NtRp1449
(dp1450
g72
(dp1451
g99
g100
ssg81
g1440
sg74
(lp1452
S':'
asbag67
(g88
g69
NtRp1453
(dp1454
g72
(dp1455
sg81
g1440
sg74
(lp1456
g67
(g68
g69
NtRp1457
(dp1458
g72
(dp1459
g80
I4
ssg81
g1453
sg74
(lp1460
S'hard'
p1461
asbasbasbag67
(g83
g69
NtRp1462
(dp1463
g72
(dp1464
sg81
g844
sg74
(lp1465
g67
(g88
g69
NtRp1466
(dp1467
g72
(dp1468
g92
g93
ssg81
g1462
sg74
(lp1469
S'web2py_path'
p1470
asbag67
(g88
g69
NtRp1471
(dp1472
g72
(dp1473
g99
g100
ssg81
g1462
sg74
(lp1474
S':'
asbag67
(g88
g69
NtRp1475
(dp1476
g72
(dp1477
sg81
g1462
sg74
(lp1478
g67
(g68
g69
NtRp1479
(dp1480
g72
(dp1481
g80
I4
ssg81
g1475
sg74
(lp1482
g891
asbasbasbag67
(g83
g69
NtRp1483
(dp1484
g72
(dp1485
sg81
g844
sg74
(lp1486
g67
(g88
g69
NtRp1487
(dp1488
g72
(dp1489
g92
g93
ssg81
g1483
sg74
(lp1490
S'web2py_version'
p1491
asbag67
(g88
g69
NtRp1492
(dp1493
g72
(dp1494
g99
g100
ssg81
g1483
sg74
(lp1495
S':'
asbag67
(g88
g69
NtRp1496
(dp1497
g72
(dp1498
sg81
g1483
sg74
(lp1499
g67
(g68
g69
NtRp1500
(dp1501
g72
(dp1502
g80
I4
ssg81
g1496
sg74
(lp1503
g67
(g76
g69
NtRp1504
(dp1505
g72
(dp1506
g80
I3
ssg81
Nsg74
(lp1507
g67
(g83
g69
NtRp1508
(dp1509
g72
(dp1510
sg81
g1504
sg74
(lp1511
g67
(g88
g69
NtRp1512
(dp1513
g72
(dp1514
sg81
g1508
sg74
(lp1515
g67
(g68
g69
NtRp1516
(dp1517
g72
(dp1518
g80
I3
ssg81
g1512
sg74
(lp1519
S'1'
asbasbasbag67
(g83
g69
NtRp1520
(dp1521
g72
(dp1522
sg81
g1504
sg74
(lp1523
g67
(g88
g69
NtRp1524
(dp1525
g72
(dp1526
sg81
g1520
sg74
(lp1527
g67
(g68
g69
NtRp1528
(dp1529
g72
(dp1530
g80
I3
ssg81
g1524
sg74
(lp1531
S'99'
p1532
asbasbasbag67
(g83
g69
NtRp1533
(dp1534
g72
(dp1535
sg81
g1504
sg74
(lp1536
g67
(g88
g69
NtRp1537
(dp1538
g72
(dp1539
sg81
g1533
sg74
(lp1540
g67
(g68
g69
NtRp1541
(dp1542
g72
(dp1543
g80
I3
ssg81
g1537
sg74
(lp1544
S'2'
asbasbasbag67
(g83
g69
NtRp1545
(dp1546
g72
(dp1547
sg81
g1504
sg74
(lp1548
g67
(g88
g69
NtRp1549
(dp1550
g72
(dp1551
sg81
g1545
sg74
(lp1552
g67
(g68
g69
NtRp1553
(dp1554
g72
(dp1555
g80
I3
ssg81
g1549
sg74
(lp1556
S'datetime.datetime(2011, 9, 26, 6, 55, 33)'
p1557
asbasbasbag67
(g83
g69
NtRp1558
(dp1559
g72
(dp1560
sg81
g1504
sg74
(lp1561
g67
(g88
g69
NtRp1562
(dp1563
g72
(dp1564
sg81
g1558
sg74
(lp1565
g67
(g68
g69
NtRp1566
(dp1567
g72
(dp1568
g80
I3
ssg81
g1562
sg74
(lp1569
S'stable'
p1570
asbasbasbasbasbasbasbag67
(g83
g69
NtRp1571
(dp1572
g72
(dp1573
sg81
g844
sg74
(lp1574
g67
(g88
g69
NtRp1575
(dp1576
g72
(dp1577
g92
g93
ssg81
g1571
sg74
(lp1578
S'wsgi_errors'
p1579
asbag67
(g88
g69
NtRp1580
(dp1581
g72
(dp1582
g99
g100
ssg81
g1571
sg74
(lp1583
S':'
asbag67
(g88
g69
NtRp1584
(dp1585
g72
(dp1586
sg81
g1571
sg74
(lp1587
g67
(g68
g69
NtRp1588
(dp1589
g72
(dp1590
g80
I4
ssg81
g1584
sg74
(lp1591
S"<open file '<stderr>', mode 'w' at 0x7f2b12e1a270>"
p1592
asbasbasbag67
(g83
g69
NtRp1593
(dp1594
g72
(dp1595
sg81
g844
sg74
(lp1596
g67
(g88
g69
NtRp1597
(dp1598
g72
(dp1599
g92
g93
ssg81
g1593
sg74
(lp1600
S'wsgi_file_wrapper'
p1601
asbag67
(g88
g69
NtRp1602
(dp1603
g72
(dp1604
g99
g100
ssg81
g1593
sg74
(lp1605
S':'
asbag67
(g88
g69
NtRp1606
(dp1607
g72
(dp1608
sg81
g1593
sg74
(lp1609
g67
(g68
g69
NtRp1610
(dp1611
g72
(dp1612
g80
I4
ssg81
g1606
sg74
(lp1613
S'<class wsgiref.util.FileWrapper at 0x2bf2ef0>'
p1614
asbasbasbag67
(g83
g69
NtRp1615
(dp1616
g72
(dp1617
sg81
g844
sg74
(lp1618
g67
(g88
g69
NtRp1619
(dp1620
g72
(dp1621
g92
g93
ssg81
g1615
sg74
(lp1622
S'wsgi_input'
p1623
asbag67
(g88
g69
NtRp1624
(dp1625
g72
(dp1626
g99
g100
ssg81
g1615
sg74
(lp1627
S':'
asbag67
(g88
g69
NtRp1628
(dp1629
g72
(dp1630
sg81
g1615
sg74
(lp1631
g67
(g68
g69
NtRp1632
(dp1633
g72
(dp1634
g80
I4
ssg81
g1628
sg74
(lp1635
S'<socket._fileobject object at 0x4408dd0>'
p1636
asbasbasbag67
(g83
g69
NtRp1637
(dp1638
g72
(dp1639
sg81
g844
sg74
(lp1640
g67
(g88
g69
NtRp1641
(dp1642
g72
(dp1643
g92
g93
ssg81
g1637
sg74
(lp1644
S'wsgi_multiprocess'
p1645
asbag67
(g88
g69
NtRp1646
(dp1647
g72
(dp1648
g99
g100
ssg81
g1637
sg74
(lp1649
S':'
asbag67
(g88
g69
NtRp1650
(dp1651
g72
(dp1652
sg81
g1637
sg74
(lp1653
g67
(g68
g69
NtRp1654
(dp1655
g72
(dp1656
g80
I4
ssg81
g1650
sg74
(lp1657
g110
asbasbasbag67
(g83
g69
NtRp1658
(dp1659
g72
(dp1660
sg81
g844
sg74
(lp1661
g67
(g88
g69
NtRp1662
(dp1663
g72
(dp1664
g92
g93
ssg81
g1658
sg74
(lp1665
S'wsgi_multithread'
p1666
asbag67
(g88
g69
NtRp1667
(dp1668
g72
(dp1669
g99
g100
ssg81
g1658
sg74
(lp1670
S':'
asbag67
(g88
g69
NtRp1671
(dp1672
g72
(dp1673
sg81
g1658
sg74
(lp1674
g67
(g68
g69
NtRp1675
(dp1676
g72
(dp1677
g80
I4
ssg81
g1671
sg74
(lp1678
S'True'
p1679
asbasbasbag67
(g83
g69
NtRp1680
(dp1681
g72
(dp1682
sg81
g844
sg74
(lp1683
g67
(g88
g69
NtRp1684
(dp1685
g72
(dp1686
g92
g93
ssg81
g1680
sg74
(lp1687
S'wsgi_run_once'
p1688
asbag67
(g88
g69
NtRp1689
(dp1690
g72
(dp1691
g99
g100
ssg81
g1680
sg74
(lp1692
S':'
asbag67
(g88
g69
NtRp1693
(dp1694
g72
(dp1695
sg81
g1680
sg74
(lp1696
g67
(g68
g69
NtRp1697
(dp1698
g72
(dp1699
g80
I4
ssg81
g1693
sg74
(lp1700
g110
asbasbasbag67
(g83
g69
NtRp1701
(dp1702
g72
(dp1703
sg81
g844
sg74
(lp1704
g67
(g88
g69
NtRp1705
(dp1706
g72
(dp1707
g92
g93
ssg81
g1701
sg74
(lp1708
S'wsgi_url_scheme'
p1709
asbag67
(g88
g69
NtRp1710
(dp1711
g72
(dp1712
g99
g100
ssg81
g1701
sg74
(lp1713
S':'
asbag67
(g88
g69
NtRp1714
(dp1715
g72
(dp1716
sg81
g1701
sg74
(lp1717
g67
(g68
g69
NtRp1718
(dp1719
g72
(dp1720
g80
I4
ssg81
g1714
sg74
(lp1721
S'http'
p1722
asbasbasbag67
(g83
g69
NtRp1723
(dp1724
g72
(dp1725
sg81
g844
sg74
(lp1726
g67
(g88
g69
NtRp1727
(dp1728
g72
(dp1729
g92
g93
ssg81
g1723
sg74
(lp1730
S'wsgi_version'
p1731
asbag67
(g88
g69
NtRp1732
(dp1733
g72
(dp1734
g99
g100
ssg81
g1723
sg74
(lp1735
S':'
asbag67
(g88
g69
NtRp1736
(dp1737
g72
(dp1738
sg81
g1723
sg74
(lp1739
g67
(g68
g69
NtRp1740
(dp1741
g72
(dp1742
g80
I4
ssg81
g1736
sg74
(lp1743
g67
(g76
g69
NtRp1744
(dp1745
g72
(dp1746
g80
I3
ssg81
Nsg74
(lp1747
g67
(g83
g69
NtRp1748
(dp1749
g72
(dp1750
sg81
g1744
sg74
(lp1751
g67
(g88
g69
NtRp1752
(dp1753
g72
(dp1754
sg81
g1748
sg74
(lp1755
g67
(g68
g69
NtRp1756
(dp1757
g72
(dp1758
g80
I3
ssg81
g1752
sg74
(lp1759
S'1'
asbasbasbag67
(g83
g69
NtRp1760
(dp1761
g72
(dp1762
sg81
g1744
sg74
(lp1763
g67
(g88
g69
NtRp1764
(dp1765
g72
(dp1766
sg81
g1760
sg74
(lp1767
g67
(g68
g69
NtRp1768
(dp1769
g72
(dp1770
g80
I3
ssg81
g1764
sg74
(lp1771
S'0'
asbasbasbasbasbasbasbasbasbasbasbag67
(g83
g69
NtRp1772
(dp1773
g72
(dp1774
sg81
g77
sg74
(lp1775
g67
(g88
g69
NtRp1776
(dp1777
g72
(dp1778
g92
g93
ssg81
g1772
sg74
(lp1779
S'extension'
p1780
asbag67
(g88
g69
NtRp1781
(dp1782
g72
(dp1783
g99
g100
ssg81
g1772
sg74
(lp1784
S':'
asbag67
(g88
g69
NtRp1785
(dp1786
g72
(dp1787
sg81
g1772
sg74
(lp1788
g67
(g68
g69
NtRp1789
(dp1790
g72
(dp1791
g80
I5
ssg81
g1785
sg74
(lp1792
S'html'
p1793
asbasbasbag67
(g83
g69
NtRp1794
(dp1795
g72
(dp1796
sg81
g77
sg74
(lp1797
g67
(g88
g69
NtRp1798
(dp1799
g72
(dp1800
g92
g93
ssg81
g1794
sg74
(lp1801
S'folder'
p1802
asbag67
(g88
g69
NtRp1803
(dp1804
g72
(dp1805
g99
g100
ssg81
g1794
sg74
(lp1806
S':'
asbag67
(g88
g69
NtRp1807
(dp1808
g72
(dp1809
sg81
g1794
sg74
(lp1810
g67
(g68
g69
NtRp1811
(dp1812
g72
(dp1813
g80
I5
ssg81
g1807
sg74
(lp1814
S'/home/kaique/Projects/web2py/applications/synopsis/'
p1815
asbasbasbag67
(g83
g69
NtRp1816
(dp1817
g72
(dp1818
sg81
g77
sg74
(lp1819
g67
(g88
g69
NtRp1820
(dp1821
g72
(dp1822
g92
g93
ssg81
g1816
sg74
(lp1823
S'function'
p1824
asbag67
(g88
g69
NtRp1825
(dp1826
g72
(dp1827
g99
g100
ssg81
g1816
sg74
(lp1828
S':'
asbag67
(g88
g69
NtRp1829
(dp1830
g72
(dp1831
sg81
g1816
sg74
(lp1832
g67
(g68
g69
NtRp1833
(dp1834
g72
(dp1835
g80
I5
ssg81
g1829
sg74
(lp1836
S'profile'
p1837
asbasbasbag67
(g83
g69
NtRp1838
(dp1839
g72
(dp1840
sg81
g77
sg74
(lp1841
g67
(g88
g69
NtRp1842
(dp1843
g72
(dp1844
g92
g93
ssg81
g1838
sg74
(lp1845
S'get_vars'
p1846
asbag67
(g88
g69
NtRp1847
(dp1848
g72
(dp1849
g99
g100
ssg81
g1838
sg74
(lp1850
S':'
asbag67
(g88
g69
NtRp1851
(dp1852
g72
(dp1853
sg81
g1838
sg74
(lp1854
g67
(g68
g69
NtRp1855
(dp1856
g72
(dp1857
g80
I5
ssg81
g1851
sg74
(lp1858
g67
(g76
g69
NtRp1859
(dp1860
g72
(dp1861
g80
I4
ssg81
Nsg74
(lp1862
sbasbasbasbag67
(g83
g69
NtRp1863
(dp1864
g72
(dp1865
sg81
g77
sg74
(lp1866
g67
(g88
g69
NtRp1867
(dp1868
g72
(dp1869
g92
g93
ssg81
g1863
sg74
(lp1870
S'global_settings'
p1871
asbag67
(g88
g69
NtRp1872
(dp1873
g72
(dp1874
g99
g100
ssg81
g1863
sg74
(lp1875
S':'
asbag67
(g88
g69
NtRp1876
(dp1877
g72
(dp1878
sg81
g1863
sg74
(lp1879
g67
(g68
g69
NtRp1880
(dp1881
g72
(dp1882
g80
I5
ssg81
g1876
sg74
(lp1883
g67
(g76
g69
NtRp1884
(dp1885
g72
(dp1886
g80
I4
ssg81
Nsg74
(lp1887
g67
(g83
g69
NtRp1888
(dp1889
g72
(dp1890
sg81
g1884
sg74
(lp1891
g67
(g88
g69
NtRp1892
(dp1893
g72
(dp1894
g92
g93
ssg81
g1888
sg74
(lp1895
g856
asbag67
(g88
g69
NtRp1896
(dp1897
g72
(dp1898
g99
g100
ssg81
g1888
sg74
(lp1899
S':'
asbag67
(g88
g69
NtRp1900
(dp1901
g72
(dp1902
sg81
g1888
sg74
(lp1903
g67
(g68
g69
NtRp1904
(dp1905
g72
(dp1906
g80
I4
ssg81
g1900
sg74
(lp1907
S"set(['/home/kaique/Projects/web2py/applications/synopsis/', '/home/kaique/Projects/web2py/applications/admin/'])"
p1908
asbasbasbag67
(g83
g69
NtRp1909
(dp1910
g72
(dp1911
sg81
g1884
sg74
(lp1912
g67
(g88
g69
NtRp1913
(dp1914
g72
(dp1915
g92
g93
ssg81
g1909
sg74
(lp1916
g878
asbag67
(g88
g69
NtRp1917
(dp1918
g72
(dp1919
g99
g100
ssg81
g1909
sg74
(lp1920
S':'
asbag67
(g88
g69
NtRp1921
(dp1922
g72
(dp1923
sg81
g1909
sg74
(lp1924
g67
(g68
g69
NtRp1925
(dp1926
g72
(dp1927
g80
I4
ssg81
g1921
sg74
(lp1928
g891
asbasbasbag67
(g83
g69
NtRp1929
(dp1930
g72
(dp1931
sg81
g1884
sg74
(lp1932
g67
(g88
g69
NtRp1933
(dp1934
g72
(dp1935
g92
g93
ssg81
g1929
sg74
(lp1936
g900
asbag67
(g88
g69
NtRp1937
(dp1938
g72
(dp1939
g99
g100
ssg81
g1929
sg74
(lp1940
S':'
asbag67
(g88
g69
NtRp1941
(dp1942
g72
(dp1943
sg81
g1929
sg74
(lp1944
g67
(g68
g69
NtRp1945
(dp1946
g72
(dp1947
g80
I4
ssg81
g1941
sg74
(lp1948
g67
(g76
g69
NtRp1949
(dp1950
g72
(dp1951
g80
I3
ssg81
Nsg74
(lp1952
sbasbasbasbag67
(g83
g69
NtRp1953
(dp1954
g72
(dp1955
sg81
g1884
sg74
(lp1956
g67
(g88
g69
NtRp1957
(dp1958
g72
(dp1959
g92
g93
ssg81
g1953
sg74
(lp1960
g925
asbag67
(g88
g69
NtRp1961
(dp1962
g72
(dp1963
g99
g100
ssg81
g1953
sg74
(lp1964
S':'
asbag67
(g88
g69
NtRp1965
(dp1966
g72
(dp1967
sg81
g1953
sg74
(lp1968
g67
(g68
g69
NtRp1969
(dp1970
g72
(dp1971
g80
I4
ssg81
g1965
sg74
(lp1972
S"<Values at 0x2d3b950: {'verbose': False, 'ip': '127.0.0.1', 'shutdown_timeout': 5, 'taskbar': False, 'nocron': False, 'pid_filename': 'httpserver.pid', 'maxthreads': None, 'softcron': False, 'server_name': 'kaique-Pine-Trail-M', 'bpython': False, 'nogui': False, 'port': 8000, 'extcron': False, 'debuglevel': 30, 'test': None, 'folder': '/home/kaique/Projects/web2py', 'config': '', 'import_models': False, 'winservice': '', 'shell': None, 'run': '', 'log_filename': 'httpserver.log', 'args': [''], 'ssl_ca_certificate': None, 'scheduler': None, 'profiler_filename': None, 'ssl_private_key': '', 'password': 'dev', 'request_queue_size': 5, 'ssl_certificate': '', 'cronjob': False, 'plain': False, 'quiet': False, 'interfaces': None, 'minthreads': None, 'timeout': 10, 'numthreads': None, 'nobanner': False}>"
p1973
asbasbasbag67
(g83
g69
NtRp1974
(dp1975
g72
(dp1976
sg81
g1884
sg74
(lp1977
g67
(g88
g69
NtRp1978
(dp1979
g72
(dp1980
g92
g93
ssg81
g1974
sg74
(lp1981
g947
asbag67
(g88
g69
NtRp1982
(dp1983
g72
(dp1984
g99
g100
ssg81
g1974
sg74
(lp1985
S':'
asbag67
(g88
g69
NtRp1986
(dp1987
g72
(dp1988
sg81
g1974
sg74
(lp1989
g67
(g68
g69
NtRp1990
(dp1991
g72
(dp1992
g80
I4
ssg81
g1986
sg74
(lp1993
S'set([])'
p1994
asbasbasbag67
(g83
g69
NtRp1995
(dp1996
g72
(dp1997
sg81
g1884
sg74
(lp1998
g67
(g88
g69
NtRp1999
(dp2000
g72
(dp2001
g92
g93
ssg81
g1995
sg74
(lp2002
g969
asbag67
(g88
g69
NtRp2003
(dp2004
g72
(dp2005
g99
g100
ssg81
g1995
sg74
(lp2006
S':'
asbag67
(g88
g69
NtRp2007
(dp2008
g72
(dp2009
sg81
g1995
sg74
(lp2010
g67
(g68
g69
NtRp2011
(dp2012
g72
(dp2013
g80
I4
ssg81
g2007
sg74
(lp2014
g110
asbasbasbag67
(g83
g69
NtRp2015
(dp2016
g72
(dp2017
sg81
g1884
sg74
(lp2018
g67
(g88
g69
NtRp2019
(dp2020
g72
(dp2021
g92
g93
ssg81
g2015
sg74
(lp2022
g990
asbag67
(g88
g69
NtRp2023
(dp2024
g72
(dp2025
g99
g100
ssg81
g2015
sg74
(lp2026
S':'
asbag67
(g88
g69
NtRp2027
(dp2028
g72
(dp2029
sg81
g2015
sg74
(lp2030
g67
(g68
g69
NtRp2031
(dp2032
g72
(dp2033
g80
I4
ssg81
g2027
sg74
(lp2034
g1003
asbasbasbag67
(g83
g69
NtRp2035
(dp2036
g72
(dp2037
sg81
g1884
sg74
(lp2038
g67
(g88
g69
NtRp2039
(dp2040
g72
(dp2041
g92
g93
ssg81
g2035
sg74
(lp2042
g1210
asbag67
(g88
g69
NtRp2043
(dp2044
g72
(dp2045
g99
g100
ssg81
g2035
sg74
(lp2046
S':'
asbag67
(g88
g69
NtRp2047
(dp2048
g72
(dp2049
sg81
g2035
sg74
(lp2050
g67
(g68
g69
NtRp2051
(dp2052
g72
(dp2053
g80
I4
ssg81
g2047
sg74
(lp2054
g110
asbasbasbag67
(g83
g69
NtRp2055
(dp2056
g72
(dp2057
sg81
g1884
sg74
(lp2058
g67
(g88
g69
NtRp2059
(dp2060
g72
(dp2061
g92
g93
ssg81
g2055
sg74
(lp2062
g1448
asbag67
(g88
g69
NtRp2063
(dp2064
g72
(dp2065
g99
g100
ssg81
g2055
sg74
(lp2066
S':'
asbag67
(g88
g69
NtRp2067
(dp2068
g72
(dp2069
sg81
g2055
sg74
(lp2070
g67
(g68
g69
NtRp2071
(dp2072
g72
(dp2073
g80
I4
ssg81
g2067
sg74
(lp2074
g1461
asbasbasbag67
(g83
g69
NtRp2075
(dp2076
g72
(dp2077
sg81
g1884
sg74
(lp2078
g67
(g88
g69
NtRp2079
(dp2080
g72
(dp2081
g92
g93
ssg81
g2075
sg74
(lp2082
g1491
asbag67
(g88
g69
NtRp2083
(dp2084
g72
(dp2085
g99
g100
ssg81
g2075
sg74
(lp2086
S':'
asbag67
(g88
g69
NtRp2087
(dp2088
g72
(dp2089
sg81
g2075
sg74
(lp2090
g67
(g68
g69
NtRp2091
(dp2092
g72
(dp2093
g80
I4
ssg81
g2087
sg74
(lp2094
g67
(g76
g69
NtRp2095
(dp2096
g72
(dp2097
g80
I3
ssg81
Nsg74
(lp2098
g67
(g83
g69
NtRp2099
(dp2100
g72
(dp2101
sg81
g2095
sg74
(lp2102
g67
(g88
g69
NtRp2103
(dp2104
g72
(dp2105
sg81
g2099
sg74
(lp2106
g67
(g68
g69
NtRp2107
(dp2108
g72
(dp2109
g80
I3
ssg81
g2103
sg74
(lp2110
S'1'
asbasbasbag67
(g83
g69
NtRp2111
(dp2112
g72
(dp2113
sg81
g2095
sg74
(lp2114
g67
(g88
g69
NtRp2115
(dp2116
g72
(dp2117
sg81
g2111
sg74
(lp2118
g67
(g68
g69
NtRp2119
(dp2120
g72
(dp2121
g80
I3
ssg81
g2115
sg74
(lp2122
S'99'
p2123
asbasbasbag67
(g83
g69
NtRp2124
(dp2125
g72
(dp2126
sg81
g2095
sg74
(lp2127
g67
(g88
g69
NtRp2128
(dp2129
g72
(dp2130
sg81
g2124
sg74
(lp2131
g67
(g68
g69
NtRp2132
(dp2133
g72
(dp2134
g80
I3
ssg81
g2128
sg74
(lp2135
S'2'
asbasbasbag67
(g83
g69
NtRp2136
(dp2137
g72
(dp2138
sg81
g2095
sg74
(lp2139
g67
(g88
g69
NtRp2140
(dp2141
g72
(dp2142
sg81
g2136
sg74
(lp2143
g67
(g68
g69
NtRp2144
(dp2145
g72
(dp2146
g80
I3
ssg81
g2140
sg74
(lp2147
S'datetime.datetime(2011, 9, 26, 6, 55, 33)'
p2148
asbasbasbag67
(g83
g69
NtRp2149
(dp2150
g72
(dp2151
sg81
g2095
sg74
(lp2152
g67
(g88
g69
NtRp2153
(dp2154
g72
(dp2155
sg81
g2149
sg74
(lp2156
g67
(g68
g69
NtRp2157
(dp2158
g72
(dp2159
g80
I3
ssg81
g2153
sg74
(lp2160
g1570
asbasbasbasbasbasbasbasbasbasbasbag67
(g83
g69
NtRp2161
(dp2162
g72
(dp2163
sg81
g77
sg74
(lp2164
g67
(g88
g69
NtRp2165
(dp2166
g72
(dp2167
g92
g93
ssg81
g2161
sg74
(lp2168
S'is_https'
p2169
asbag67
(g88
g69
NtRp2170
(dp2171
g72
(dp2172
g99
g100
ssg81
g2161
sg74
(lp2173
S':'
asbag67
(g88
g69
NtRp2174
(dp2175
g72
(dp2176
sg81
g2161
sg74
(lp2177
g67
(g68
g69
NtRp2178
(dp2179
g72
(dp2180
g80
I5
ssg81
g2174
sg74
(lp2181
g110
asbasbasbag67
(g83
g69
NtRp2182
(dp2183
g72
(dp2184
sg81
g77
sg74
(lp2185
g67
(g88
g69
NtRp2186
(dp2187
g72
(dp2188
g92
g93
ssg81
g2182
sg74
(lp2189
S'is_local'
p2190
asbag67
(g88
g69
NtRp2191
(dp2192
g72
(dp2193
g99
g100
ssg81
g2182
sg74
(lp2194
S':'
asbag67
(g88
g69
NtRp2195
(dp2196
g72
(dp2197
sg81
g2182
sg74
(lp2198
g67
(g68
g69
NtRp2199
(dp2200
g72
(dp2201
g80
I5
ssg81
g2195
sg74
(lp2202
g1679
asbasbasbag67
(g83
g69
NtRp2203
(dp2204
g72
(dp2205
sg81
g77
sg74
(lp2206
g67
(g88
g69
NtRp2207
(dp2208
g72
(dp2209
g92
g93
ssg81
g2203
sg74
(lp2210
S'is_restful'
p2211
asbag67
(g88
g69
NtRp2212
(dp2213
g72
(dp2214
g99
g100
ssg81
g2203
sg74
(lp2215
S':'
asbag67
(g88
g69
NtRp2216
(dp2217
g72
(dp2218
sg81
g2203
sg74
(lp2219
g67
(g68
g69
NtRp2220
(dp2221
g72
(dp2222
g80
I5
ssg81
g2216
sg74
(lp2223
g110
asbasbasbag67
(g83
g69
NtRp2224
(dp2225
g72
(dp2226
sg81
g77
sg74
(lp2227
g67
(g88
g69
NtRp2228
(dp2229
g72
(dp2230
g92
g93
ssg81
g2224
sg74
(lp2231
S'now'
p2232
asbag67
(g88
g69
NtRp2233
(dp2234
g72
(dp2235
g99
g100
ssg81
g2224
sg74
(lp2236
S':'
asbag67
(g88
g69
NtRp2237
(dp2238
g72
(dp2239
sg81
g2224
sg74
(lp2240
g67
(g68
g69
NtRp2241
(dp2242
g72
(dp2243
g80
I5
ssg81
g2237
sg74
(lp2244
S'datetime.datetime(2012, 1, 12, 13, 27, 33, 313913)'
p2245
asbasbasbag67
(g83
g69
NtRp2246
(dp2247
g72
(dp2248
sg81
g77
sg74
(lp2249
g67
(g88
g69
NtRp2250
(dp2251
g72
(dp2252
g92
g93
ssg81
g2246
sg74
(lp2253
S'post_vars'
p2254
asbag67
(g88
g69
NtRp2255
(dp2256
g72
(dp2257
g99
g100
ssg81
g2246
sg74
(lp2258
S':'
asbag67
(g88
g69
NtRp2259
(dp2260
g72
(dp2261
sg81
g2246
sg74
(lp2262
g67
(g68
g69
NtRp2263
(dp2264
g72
(dp2265
g80
I5
ssg81
g2259
sg74
(lp2266
g67
(g76
g69
NtRp2267
(dp2268
g72
(dp2269
g80
I4
ssg81
Nsg74
(lp2270
sbasbasbasbag67
(g83
g69
NtRp2271
(dp2272
g72
(dp2273
sg81
g77
sg74
(lp2274
g67
(g88
g69
NtRp2275
(dp2276
g72
(dp2277
g92
g93
ssg81
g2271
sg74
(lp2278
S'raw_args'
p2279
asbag67
(g88
g69
NtRp2280
(dp2281
g72
(dp2282
g99
g100
ssg81
g2271
sg74
(lp2283
S':'
asbag67
(g88
g69
NtRp2284
(dp2285
g72
(dp2286
sg81
g2271
sg74
(lp2287
g67
(g68
g69
NtRp2288
(dp2289
g72
(dp2290
g80
I5
ssg81
g2284
sg74
(lp2291
S'2'
asbasbasbag67
(g83
g69
NtRp2292
(dp2293
g72
(dp2294
sg81
g77
sg74
(lp2295
g67
(g88
g69
NtRp2296
(dp2297
g72
(dp2298
g92
g93
ssg81
g2292
sg74
(lp2299
S'url'
p2300
asbag67
(g88
g69
NtRp2301
(dp2302
g72
(dp2303
g99
g100
ssg81
g2292
sg74
(lp2304
S':'
asbag67
(g88
g69
NtRp2305
(dp2306
g72
(dp2307
sg81
g2292
sg74
(lp2308
g67
(g68
g69
NtRp2309
(dp2310
g72
(dp2311
g80
I5
ssg81
g2305
sg74
(lp2312
S'/synopsis/information/profile/2'
p2313
asbasbasbag67
(g83
g69
NtRp2314
(dp2315
g72
(dp2316
sg81
g77
sg74
(lp2317
g67
(g88
g69
NtRp2318
(dp2319
g72
(dp2320
g92
g93
ssg81
g2314
sg74
(lp2321
S'utcnow'
p2322
asbag67
(g88
g69
NtRp2323
(dp2324
g72
(dp2325
g99
g100
ssg81
g2314
sg74
(lp2326
S':'
asbag67
(g88
g69
NtRp2327
(dp2328
g72
(dp2329
sg81
g2314
sg74
(lp2330
g67
(g68
g69
NtRp2331
(dp2332
g72
(dp2333
g80
I5
ssg81
g2327
sg74
(lp2334
S'datetime.datetime(2012, 1, 12, 15, 27, 33, 313998)'
p2335
asbasbasbag67
(g83
g69
NtRp2336
(dp2337
g72
(dp2338
sg81
g77
sg74
(lp2339
g67
(g88
g69
NtRp2340
(dp2341
g72
(dp2342
g92
g93
ssg81
g2336
sg74
(lp2343
S'uuid'
p2344
asbag67
(g88
g69
NtRp2345
(dp2346
g72
(dp2347
g99
g100
ssg81
g2336
sg74
(lp2348
S':'
asbag67
(g88
g69
NtRp2349
(dp2350
g72
(dp2351
sg81
g2336
sg74
(lp2352
g67
(g68
g69
NtRp2353
(dp2354
g72
(dp2355
g80
I5
ssg81
g2349
sg74
(lp2356
S'synopsis/127.0.0.1.2012-01-12.13-27-33.d87b7aa6-908a-4539-8e53-693213ef99d3'
p2357
asbasbasbag67
(g83
g69
NtRp2358
(dp2359
g72
(dp2360
sg81
g77
sg74
(lp2361
g67
(g88
g69
NtRp2362
(dp2363
g72
(dp2364
g92
g93
ssg81
g2358
sg74
(lp2365
S'vars'
p2366
asbag67
(g88
g69
NtRp2367
(dp2368
g72
(dp2369
g99
g100
ssg81
g2358
sg74
(lp2370
S':'
asbag67
(g88
g69
NtRp2371
(dp2372
g72
(dp2373
sg81
g2358
sg74
(lp2374
g67
(g68
g69
NtRp2375
(dp2376
g72
(dp2377
g80
I5
ssg81
g2371
sg74
(lp2378
g67
(g76
g69
NtRp2379
(dp2380
g72
(dp2381
g80
I4
ssg81
Nsg74
(lp2382
sbasbasbasbag67
(g83
g69
NtRp2383
(dp2384
g72
(dp2385
sg81
g77
sg74
(lp2386
g67
(g88
g69
NtRp2387
(dp2388
g72
(dp2389
g92
g93
ssg81
g2383
sg74
(lp2390
S'wsgi'
p2391
asbag67
(g88
g69
NtRp2392
(dp2393
g72
(dp2394
g99
g100
ssg81
g2383
sg74
(lp2395
S':'
asbag67
(g88
g69
NtRp2396
(dp2397
g72
(dp2398
sg81
g2383
sg74
(lp2399
g67
(g68
g69
NtRp2400
(dp2401
g72
(dp2402
g80
I5
ssg81
g2396
sg74
(lp2403
g67
(g76
g69
NtRp2404
(dp2405
g72
(dp2406
g80
I4
ssg81
Nsg74
(lp2407
g67
(g83
g69
NtRp2408
(dp2409
g72
(dp2410
sg81
g2404
sg74
(lp2411
g67
(g88
g69
NtRp2412
(dp2413
g72
(dp2414
g92
g93
ssg81
g2408
sg74
(lp2415
S'environ'
p2416
asbag67
(g88
g69
NtRp2417
(dp2418
g72
(dp2419
g99
g100
ssg81
g2408
sg74
(lp2420
S':'
asbag67
(g88
g69
NtRp2421
(dp2422
g72
(dp2423
sg81
g2408
sg74
(lp2424
g67
(g68
g69
NtRp2425
(dp2426
g72
(dp2427
g80
I4
ssg81
g2421
sg74
(lp2428
g67
(g76
g69
NtRp2429
(dp2430
g72
(dp2431
g80
I3
ssg81
Nsg74
(lp2432
g67
(g83
g69
NtRp2433
(dp2434
g72
(dp2435
sg81
g2429
sg74
(lp2436
g67
(g88
g69
NtRp2437
(dp2438
g72
(dp2439
g92
g93
ssg81
g2433
sg74
(lp2440
S'HTTP_ACCEPT'
p2441
asbag67
(g88
g69
NtRp2442
(dp2443
g72
(dp2444
g99
g100
ssg81
g2433
sg74
(lp2445
S':'
asbag67
(g88
g69
NtRp2446
(dp2447
g72
(dp2448
sg81
g2433
sg74
(lp2449
g67
(g68
g69
NtRp2450
(dp2451
g72
(dp2452
g80
I3
ssg81
g2446
sg74
(lp2453
g1025
asbasbasbag67
(g83
g69
NtRp2454
(dp2455
g72
(dp2456
sg81
g2429
sg74
(lp2457
g67
(g88
g69
NtRp2458
(dp2459
g72
(dp2460
g92
g93
ssg81
g2454
sg74
(lp2461
S'HTTP_ACCEPT_CHARSET'
p2462
asbag67
(g88
g69
NtRp2463
(dp2464
g72
(dp2465
g99
g100
ssg81
g2454
sg74
(lp2466
S':'
asbag67
(g88
g69
NtRp2467
(dp2468
g72
(dp2469
sg81
g2454
sg74
(lp2470
g67
(g68
g69
NtRp2471
(dp2472
g72
(dp2473
g80
I3
ssg81
g2467
sg74
(lp2474
g1047
asbasbasbag67
(g83
g69
NtRp2475
(dp2476
g72
(dp2477
sg81
g2429
sg74
(lp2478
g67
(g88
g69
NtRp2479
(dp2480
g72
(dp2481
g92
g93
ssg81
g2475
sg74
(lp2482
S'HTTP_ACCEPT_ENCODING'
p2483
asbag67
(g88
g69
NtRp2484
(dp2485
g72
(dp2486
g99
g100
ssg81
g2475
sg74
(lp2487
S':'
asbag67
(g88
g69
NtRp2488
(dp2489
g72
(dp2490
sg81
g2475
sg74
(lp2491
g67
(g68
g69
NtRp2492
(dp2493
g72
(dp2494
g80
I3
ssg81
g2488
sg74
(lp2495
g1069
asbasbasbag67
(g83
g69
NtRp2496
(dp2497
g72
(dp2498
sg81
g2429
sg74
(lp2499
g67
(g88
g69
NtRp2500
(dp2501
g72
(dp2502
g92
g93
ssg81
g2496
sg74
(lp2503
S'HTTP_ACCEPT_LANGUAGE'
p2504
asbag67
(g88
g69
NtRp2505
(dp2506
g72
(dp2507
g99
g100
ssg81
g2496
sg74
(lp2508
S':'
asbag67
(g88
g69
NtRp2509
(dp2510
g72
(dp2511
sg81
g2496
sg74
(lp2512
g67
(g68
g69
NtRp2513
(dp2514
g72
(dp2515
g80
I3
ssg81
g2509
sg74
(lp2516
g1091
asbasbasbag67
(g83
g69
NtRp2517
(dp2518
g72
(dp2519
sg81
g2429
sg74
(lp2520
g67
(g88
g69
NtRp2521
(dp2522
g72
(dp2523
g92
g93
ssg81
g2517
sg74
(lp2524
S'HTTP_CONNECTION'
p2525
asbag67
(g88
g69
NtRp2526
(dp2527
g72
(dp2528
g99
g100
ssg81
g2517
sg74
(lp2529
S':'
asbag67
(g88
g69
NtRp2530
(dp2531
g72
(dp2532
sg81
g2517
sg74
(lp2533
g67
(g68
g69
NtRp2534
(dp2535
g72
(dp2536
g80
I3
ssg81
g2530
sg74
(lp2537
g1113
asbasbasbag67
(g83
g69
NtRp2538
(dp2539
g72
(dp2540
sg81
g2429
sg74
(lp2541
g67
(g88
g69
NtRp2542
(dp2543
g72
(dp2544
g92
g93
ssg81
g2538
sg74
(lp2545
S'HTTP_COOKIE'
p2546
asbag67
(g88
g69
NtRp2547
(dp2548
g72
(dp2549
g99
g100
ssg81
g2538
sg74
(lp2550
S':'
asbag67
(g88
g69
NtRp2551
(dp2552
g72
(dp2553
sg81
g2538
sg74
(lp2554
g67
(g68
g69
NtRp2555
(dp2556
g72
(dp2557
g80
I3
ssg81
g2551
sg74
(lp2558
g1135
asbasbasbag67
(g83
g69
NtRp2559
(dp2560
g72
(dp2561
sg81
g2429
sg74
(lp2562
g67
(g88
g69
NtRp2563
(dp2564
g72
(dp2565
g92
g93
ssg81
g2559
sg74
(lp2566
S'HTTP_HOST'
p2567
asbag67
(g88
g69
NtRp2568
(dp2569
g72
(dp2570
g99
g100
ssg81
g2559
sg74
(lp2571
S':'
asbag67
(g88
g69
NtRp2572
(dp2573
g72
(dp2574
sg81
g2559
sg74
(lp2575
g67
(g68
g69
NtRp2576
(dp2577
g72
(dp2578
g80
I3
ssg81
g2572
sg74
(lp2579
g1157
asbasbasbag67
(g83
g69
NtRp2580
(dp2581
g72
(dp2582
sg81
g2429
sg74
(lp2583
g67
(g88
g69
NtRp2584
(dp2585
g72
(dp2586
g92
g93
ssg81
g2580
sg74
(lp2587
S'HTTP_REFERER'
p2588
asbag67
(g88
g69
NtRp2589
(dp2590
g72
(dp2591
g99
g100
ssg81
g2580
sg74
(lp2592
S':'
asbag67
(g88
g69
NtRp2593
(dp2594
g72
(dp2595
sg81
g2580
sg74
(lp2596
g67
(g68
g69
NtRp2597
(dp2598
g72
(dp2599
g80
I3
ssg81
g2593
sg74
(lp2600
g1179
asbasbasbag67
(g83
g69
NtRp2601
(dp2602
g72
(dp2603
sg81
g2429
sg74
(lp2604
g67
(g88
g69
NtRp2605
(dp2606
g72
(dp2607
g92
g93
ssg81
g2601
sg74
(lp2608
S'HTTP_USER_AGENT'
p2609
asbag67
(g88
g69
NtRp2610
(dp2611
g72
(dp2612
g99
g100
ssg81
g2601
sg74
(lp2613
S':'
asbag67
(g88
g69
NtRp2614
(dp2615
g72
(dp2616
sg81
g2601
sg74
(lp2617
g67
(g68
g69
NtRp2618
(dp2619
g72
(dp2620
g80
I3
ssg81
g2614
sg74
(lp2621
g1201
asbasbasbag67
(g83
g69
NtRp2622
(dp2623
g72
(dp2624
sg81
g2429
sg74
(lp2625
g67
(g88
g69
NtRp2626
(dp2627
g72
(dp2628
g92
g93
ssg81
g2622
sg74
(lp2629
S'PATH_INFO'
p2630
asbag67
(g88
g69
NtRp2631
(dp2632
g72
(dp2633
g99
g100
ssg81
g2622
sg74
(lp2634
S':'
asbag67
(g88
g69
NtRp2635
(dp2636
g72
(dp2637
sg81
g2622
sg74
(lp2638
g67
(g68
g69
NtRp2639
(dp2640
g72
(dp2641
g80
I3
ssg81
g2635
sg74
(lp2642
g1244
asbasbasbag67
(g83
g69
NtRp2643
(dp2644
g72
(dp2645
sg81
g2429
sg74
(lp2646
g67
(g88
g69
NtRp2647
(dp2648
g72
(dp2649
g92
g93
ssg81
g2643
sg74
(lp2650
S'QUERY_STRING'
p2651
asbag67
(g88
g69
NtRp2652
(dp2653
g72
(dp2654
g99
g100
ssg81
g2643
sg74
(lp2655
S':'
asbag67
(g88
g69
NtRp2656
(dp2657
g72
(dp2658
sg81
g2643
sg74
(lp2659
g67
(g68
g69
NtRp2660
(dp2661
g72
(dp2662
g80
I3
ssg81
g2656
sg74
(lp2663
S''
asbasbasbag67
(g83
g69
NtRp2664
(dp2665
g72
(dp2666
sg81
g2429
sg74
(lp2667
g67
(g88
g69
NtRp2668
(dp2669
g72
(dp2670
g92
g93
ssg81
g2664
sg74
(lp2671
S'REMOTE_ADDR'
p2672
asbag67
(g88
g69
NtRp2673
(dp2674
g72
(dp2675
g99
g100
ssg81
g2664
sg74
(lp2676
S':'
asbag67
(g88
g69
NtRp2677
(dp2678
g72
(dp2679
sg81
g2664
sg74
(lp2680
g67
(g68
g69
NtRp2681
(dp2682
g72
(dp2683
g80
I3
ssg81
g2677
sg74
(lp2684
g212
asbasbasbag67
(g83
g69
NtRp2685
(dp2686
g72
(dp2687
sg81
g2429
sg74
(lp2688
g67
(g88
g69
NtRp2689
(dp2690
g72
(dp2691
g92
g93
ssg81
g2685
sg74
(lp2692
S'REMOTE_PORT'
p2693
asbag67
(g88
g69
NtRp2694
(dp2695
g72
(dp2696
g99
g100
ssg81
g2685
sg74
(lp2697
S':'
asbag67
(g88
g69
NtRp2698
(dp2699
g72
(dp2700
sg81
g2685
sg74
(lp2701
g67
(g68
g69
NtRp2702
(dp2703
g72
(dp2704
g80
I3
ssg81
g2698
sg74
(lp2705
g1308
asbasbasbag67
(g83
g69
NtRp2706
(dp2707
g72
(dp2708
sg81
g2429
sg74
(lp2709
g67
(g88
g69
NtRp2710
(dp2711
g72
(dp2712
g92
g93
ssg81
g2706
sg74
(lp2713
S'REQUEST_METHOD'
p2714
asbag67
(g88
g69
NtRp2715
(dp2716
g72
(dp2717
g99
g100
ssg81
g2706
sg74
(lp2718
S':'
asbag67
(g88
g69
NtRp2719
(dp2720
g72
(dp2721
sg81
g2706
sg74
(lp2722
g67
(g68
g69
NtRp2723
(dp2724
g72
(dp2725
g80
I3
ssg81
g2719
sg74
(lp2726
g1330
asbasbasbag67
(g83
g69
NtRp2727
(dp2728
g72
(dp2729
sg81
g2429
sg74
(lp2730
g67
(g88
g69
NtRp2731
(dp2732
g72
(dp2733
g92
g93
ssg81
g2727
sg74
(lp2734
S'SCRIPT_NAME'
p2735
asbag67
(g88
g69
NtRp2736
(dp2737
g72
(dp2738
g99
g100
ssg81
g2727
sg74
(lp2739
S':'
asbag67
(g88
g69
NtRp2740
(dp2741
g72
(dp2742
sg81
g2727
sg74
(lp2743
g67
(g68
g69
NtRp2744
(dp2745
g72
(dp2746
g80
I3
ssg81
g2740
sg74
(lp2747
S''
asbasbasbag67
(g83
g69
NtRp2748
(dp2749
g72
(dp2750
sg81
g2429
sg74
(lp2751
g67
(g88
g69
NtRp2752
(dp2753
g72
(dp2754
g92
g93
ssg81
g2748
sg74
(lp2755
S'SERVER_NAME'
p2756
asbag67
(g88
g69
NtRp2757
(dp2758
g72
(dp2759
g99
g100
ssg81
g2748
sg74
(lp2760
S':'
asbag67
(g88
g69
NtRp2761
(dp2762
g72
(dp2763
sg81
g2748
sg74
(lp2764
g67
(g68
g69
NtRp2765
(dp2766
g72
(dp2767
g80
I3
ssg81
g2761
sg74
(lp2768
g1373
asbasbasbag67
(g83
g69
NtRp2769
(dp2770
g72
(dp2771
sg81
g2429
sg74
(lp2772
g67
(g88
g69
NtRp2773
(dp2774
g72
(dp2775
g92
g93
ssg81
g2769
sg74
(lp2776
S'SERVER_PORT'
p2777
asbag67
(g88
g69
NtRp2778
(dp2779
g72
(dp2780
g99
g100
ssg81
g2769
sg74
(lp2781
S':'
asbag67
(g88
g69
NtRp2782
(dp2783
g72
(dp2784
sg81
g2769
sg74
(lp2785
g67
(g68
g69
NtRp2786
(dp2787
g72
(dp2788
g80
I3
ssg81
g2782
sg74
(lp2789
g1395
asbasbasbag67
(g83
g69
NtRp2790
(dp2791
g72
(dp2792
sg81
g2429
sg74
(lp2793
g67
(g88
g69
NtRp2794
(dp2795
g72
(dp2796
g92
g93
ssg81
g2790
sg74
(lp2797
S'SERVER_PROTOCOL'
p2798
asbag67
(g88
g69
NtRp2799
(dp2800
g72
(dp2801
g99
g100
ssg81
g2790
sg74
(lp2802
S':'
asbag67
(g88
g69
NtRp2803
(dp2804
g72
(dp2805
sg81
g2790
sg74
(lp2806
g67
(g68
g69
NtRp2807
(dp2808
g72
(dp2809
g80
I3
ssg81
g2803
sg74
(lp2810
g1417
asbasbasbag67
(g83
g69
NtRp2811
(dp2812
g72
(dp2813
sg81
g2429
sg74
(lp2814
g67
(g88
g69
NtRp2815
(dp2816
g72
(dp2817
g92
g93
ssg81
g2811
sg74
(lp2818
S'SERVER_SOFTWARE'
p2819
asbag67
(g88
g69
NtRp2820
(dp2821
g72
(dp2822
g99
g100
ssg81
g2811
sg74
(lp2823
S':'
asbag67
(g88
g69
NtRp2824
(dp2825
g72
(dp2826
sg81
g2811
sg74
(lp2827
g67
(g68
g69
NtRp2828
(dp2829
g72
(dp2830
g80
I3
ssg81
g2824
sg74
(lp2831
g1439
asbasbasbag67
(g83
g69
NtRp2832
(dp2833
g72
(dp2834
sg81
g2429
sg74
(lp2835
g67
(g88
g69
NtRp2836
(dp2837
g72
(dp2838
g92
g93
ssg81
g2832
sg74
(lp2839
S'wsgi.errors'
p2840
asbag67
(g88
g69
NtRp2841
(dp2842
g72
(dp2843
g99
g100
ssg81
g2832
sg74
(lp2844
S':'
asbag67
(g88
g69
NtRp2845
(dp2846
g72
(dp2847
sg81
g2832
sg74
(lp2848
g67
(g68
g69
NtRp2849
(dp2850
g72
(dp2851
g80
I3
ssg81
g2845
sg74
(lp2852
S"<open file '<stderr>', mode 'w' at 0x7f2b12e1a270>"
p2853
asbasbasbag67
(g83
g69
NtRp2854
(dp2855
g72
(dp2856
sg81
g2429
sg74
(lp2857
g67
(g88
g69
NtRp2858
(dp2859
g72
(dp2860
g92
g93
ssg81
g2854
sg74
(lp2861
S'wsgi.file_wrapper'
p2862
asbag67
(g88
g69
NtRp2863
(dp2864
g72
(dp2865
g99
g100
ssg81
g2854
sg74
(lp2866
S':'
asbag67
(g88
g69
NtRp2867
(dp2868
g72
(dp2869
sg81
g2854
sg74
(lp2870
g67
(g68
g69
NtRp2871
(dp2872
g72
(dp2873
g80
I3
ssg81
g2867
sg74
(lp2874
S'<class wsgiref.util.FileWrapper at 0x2bf2ef0>'
p2875
asbasbasbag67
(g83
g69
NtRp2876
(dp2877
g72
(dp2878
sg81
g2429
sg74
(lp2879
g67
(g88
g69
NtRp2880
(dp2881
g72
(dp2882
g92
g93
ssg81
g2876
sg74
(lp2883
S'wsgi.input'
p2884
asbag67
(g88
g69
NtRp2885
(dp2886
g72
(dp2887
g99
g100
ssg81
g2876
sg74
(lp2888
S':'
asbag67
(g88
g69
NtRp2889
(dp2890
g72
(dp2891
sg81
g2876
sg74
(lp2892
g67
(g68
g69
NtRp2893
(dp2894
g72
(dp2895
g80
I3
ssg81
g2889
sg74
(lp2896
S'<cStringIO.StringO object at 0x337d2d0>'
p2897
asbasbasbag67
(g83
g69
NtRp2898
(dp2899
g72
(dp2900
sg81
g2429
sg74
(lp2901
g67
(g88
g69
NtRp2902
(dp2903
g72
(dp2904
g92
g93
ssg81
g2898
sg74
(lp2905
S'wsgi.multiprocess'
p2906
asbag67
(g88
g69
NtRp2907
(dp2908
g72
(dp2909
g99
g100
ssg81
g2898
sg74
(lp2910
S':'
asbag67
(g88
g69
NtRp2911
(dp2912
g72
(dp2913
sg81
g2898
sg74
(lp2914
g67
(g68
g69
NtRp2915
(dp2916
g72
(dp2917
g80
I3
ssg81
g2911
sg74
(lp2918
g110
asbasbasbag67
(g83
g69
NtRp2919
(dp2920
g72
(dp2921
sg81
g2429
sg74
(lp2922
g67
(g88
g69
NtRp2923
(dp2924
g72
(dp2925
g92
g93
ssg81
g2919
sg74
(lp2926
S'wsgi.multithread'
p2927
asbag67
(g88
g69
NtRp2928
(dp2929
g72
(dp2930
g99
g100
ssg81
g2919
sg74
(lp2931
S':'
asbag67
(g88
g69
NtRp2932
(dp2933
g72
(dp2934
sg81
g2919
sg74
(lp2935
g67
(g68
g69
NtRp2936
(dp2937
g72
(dp2938
g80
I3
ssg81
g2932
sg74
(lp2939
g1679
asbasbasbag67
(g83
g69
NtRp2940
(dp2941
g72
(dp2942
sg81
g2429
sg74
(lp2943
g67
(g88
g69
NtRp2944
(dp2945
g72
(dp2946
g92
g93
ssg81
g2940
sg74
(lp2947
S'wsgi.run_once'
p2948
asbag67
(g88
g69
NtRp2949
(dp2950
g72
(dp2951
g99
g100
ssg81
g2940
sg74
(lp2952
S':'
asbag67
(g88
g69
NtRp2953
(dp2954
g72
(dp2955
sg81
g2940
sg74
(lp2956
g67
(g68
g69
NtRp2957
(dp2958
g72
(dp2959
g80
I3
ssg81
g2953
sg74
(lp2960
g110
asbasbasbag67
(g83
g69
NtRp2961
(dp2962
g72
(dp2963
sg81
g2429
sg74
(lp2964
g67
(g88
g69
NtRp2965
(dp2966
g72
(dp2967
g92
g93
ssg81
g2961
sg74
(lp2968
S'wsgi.url_scheme'
p2969
asbag67
(g88
g69
NtRp2970
(dp2971
g72
(dp2972
g99
g100
ssg81
g2961
sg74
(lp2973
S':'
asbag67
(g88
g69
NtRp2974
(dp2975
g72
(dp2976
sg81
g2961
sg74
(lp2977
g67
(g68
g69
NtRp2978
(dp2979
g72
(dp2980
g80
I3
ssg81
g2974
sg74
(lp2981
g1722
asbasbasbag67
(g83
g69
NtRp2982
(dp2983
g72
(dp2984
sg81
g2429
sg74
(lp2985
g67
(g88
g69
NtRp2986
(dp2987
g72
(dp2988
g92
g93
ssg81
g2982
sg74
(lp2989
S'wsgi.version'
p2990
asbag67
(g88
g69
NtRp2991
(dp2992
g72
(dp2993
g99
g100
ssg81
g2982
sg74
(lp2994
S':'
asbag67
(g88
g69
NtRp2995
(dp2996
g72
(dp2997
sg81
g2982
sg74
(lp2998
g67
(g68
g69
NtRp2999
(dp3000
g72
(dp3001
g80
I3
ssg81
g2995
sg74
(lp3002
S'1'
asbasbasbasbasbasbasbasbasbasbasbasbasbsS'frames'
p3003
(lp3004
(dp3005
S'file'
p3006
S'/home/kaique/Projects/web2py/gluon/restricted.py'
p3007
sS'dump'
p3008
(dp3009
S'code'
p3010
S"'# -*- coding: utf-8 -*-\\nimport functions as f # ...urn {}\\n\\nresponse._vars=response._caller(profile)\\n'"
p3011
sS'layer'
p3012
S"'/home/kaique/Projects/web2py/applications/synopsis/controllers/information.py'"
p3013
sS'global compile2'
p3014
S'<function compile2>'
p3015
sS'ccode'
p3016
S'undefined'
p3017
ssS'lnum'
p3018
I193
sS'lines'
p3019
(dp3020
I192
S'        else:'
p3021
sI193
S'            ccode = compile2(code,layer)'
p3022
sI194
S'        exec ccode in environment'
p3023
sI195
S'    except HTTP:'
p3024
sI196
S'        raise'
p3025
sI197
S'    except Exception, error:'
p3026
sI188
S"    environment['__file__'] = layer"
p3027
sI189
S'    try:'
p3028
sI190
S'        if type(code) == types.CodeType:'
p3029
sI191
S'            ccode = code'
p3030
ssS'call'
p3031
S"(code='# -*- coding: utf-8 -*-\\nimport functions as f # ...urn {}\\n\\nresponse._vars=response._caller(profile)\\n', environment={'A': <class 'gluon.html.A'>, 'Auth': <class 'gluon.tools.Auth'>, 'B': <class 'gluon.html.B'>, 'BEAUTIFY': <class 'gluon.html.BEAUTIFY'>, 'BODY': <class 'gluon.html.BODY'>, 'BR': <class 'gluon.html.BR'>, 'BUTTON': <class 'gluon.html.BUTTON'>, 'CAT': <class 'gluon.html.CAT'>, 'CENTER': <class 'gluon.html.CENTER'>, 'CLEANUP': <class 'gluon.validators.CLEANUP'>, ...}, layer='/home/kaique/Projects/web2py/applications/synopsis/controllers/information.py')"
p3032
sS'func'
p3033
S'restricted'
p3034
sa(dp3035
g3006
S'/home/kaique/Projects/web2py/gluon/restricted.py'
p3036
sg3008
(dp3037
S'builtincompile'
p3038
S'<built-in function compile>'
p3039
sS'code'
p3040
S"'# -*- coding: utf-8 -*-\\nimport functions as f # ...urn {}\\n\\nresponse._vars=response._caller(profile)\\n'"
p3041
sS'code.rstrip'
p3042
S'<built-in method rstrip of str object>'
p3043
sS').replace'
p3044
g3017
sS'layer'
p3045
S"'/home/kaique/Projects/web2py/applications/synopsis/controllers/information.py'"
p3046
ssg3018
I179
sg3019
(dp3047
I174
S''
sI175
S'def compile2(code,layer):'
p3048
sI176
S'    """'
p3049
sI177
S"    The +'\\n' is necessary else compile fails when code ends in a comment."
p3050
sI178
S'    """'
p3051
sI179
S"    return compile(code.rstrip().replace('\\r\\n','\\n')+'\\n', layer, 'exec')"
p3052
sI180
S''
sI181
S"def restricted(code, environment=None, layer='Unknown'):"
p3053
sI182
S'    """'
p3054
sI183
S'    runs code in environment and returns the output. if an exception occurs'
p3055
ssg3031
S"(code='# -*- coding: utf-8 -*-\\nimport functions as f # ...urn {}\\n\\nresponse._vars=response._caller(profile)\\n', layer='/home/kaique/Projects/web2py/applications/synopsis/controllers/information.py')"
p3056
sg3033
S'compile2'
p3057
sasS'pyver'
p3058
S'Python 2.7.2+: /usr/bin/python'
p3059
sS'session'
p3060
g67
(g68
g69
NtRp3061
(dp3062
g72
(dp3063
sg74
(lp3064
g67
(g76
g69
NtRp3065
(dp3066
g72
(dp3067
g80
I5
ssg81
Nsg74
(lp3068
g67
(g83
g69
NtRp3069
(dp3070
g72
(dp3071
sg81
g3065
sg74
(lp3072
g67
(g88
g69
NtRp3073
(dp3074
g72
(dp3075
g92
g93
ssg81
g3069
sg74
(lp3076
S'auth'
p3077
asbag67
(g88
g69
NtRp3078
(dp3079
g72
(dp3080
g99
g100
ssg81
g3069
sg74
(lp3081
S':'
asbag67
(g88
g69
NtRp3082
(dp3083
g72
(dp3084
sg81
g3069
sg74
(lp3085
g67
(g68
g69
NtRp3086
(dp3087
g72
(dp3088
g80
I5
ssg81
g3082
sg74
(lp3089
g67
(g76
g69
NtRp3090
(dp3091
g72
(dp3092
g80
I4
ssg81
Nsg74
(lp3093
g67
(g83
g69
NtRp3094
(dp3095
g72
(dp3096
sg81
g3090
sg74
(lp3097
g67
(g88
g69
NtRp3098
(dp3099
g72
(dp3100
g92
g93
ssg81
g3094
sg74
(lp3101
S'expiration'
p3102
asbag67
(g88
g69
NtRp3103
(dp3104
g72
(dp3105
g99
g100
ssg81
g3094
sg74
(lp3106
S':'
asbag67
(g88
g69
NtRp3107
(dp3108
g72
(dp3109
sg81
g3094
sg74
(lp3110
g67
(g68
g69
NtRp3111
(dp3112
g72
(dp3113
g80
I4
ssg81
g3107
sg74
(lp3114
S'2592000'
p3115
asbasbasbag67
(g83
g69
NtRp3116
(dp3117
g72
(dp3118
sg81
g3090
sg74
(lp3119
g67
(g88
g69
NtRp3120
(dp3121
g72
(dp3122
g92
g93
ssg81
g3116
sg74
(lp3123
S'hmac_key'
p3124
asbag67
(g88
g69
NtRp3125
(dp3126
g72
(dp3127
g99
g100
ssg81
g3116
sg74
(lp3128
S':'
asbag67
(g88
g69
NtRp3129
(dp3130
g72
(dp3131
sg81
g3116
sg74
(lp3132
g67
(g68
g69
NtRp3133
(dp3134
g72
(dp3135
g80
I4
ssg81
g3129
sg74
(lp3136
S'4c32a183-7118-47f6-ab0b-21a33c2fc6ab'
p3137
asbasbasbag67
(g83
g69
NtRp3138
(dp3139
g72
(dp3140
sg81
g3090
sg74
(lp3141
g67
(g88
g69
NtRp3142
(dp3143
g72
(dp3144
g92
g93
ssg81
g3138
sg74
(lp3145
S'last_visit'
p3146
asbag67
(g88
g69
NtRp3147
(dp3148
g72
(dp3149
g99
g100
ssg81
g3138
sg74
(lp3150
S':'
asbag67
(g88
g69
NtRp3151
(dp3152
g72
(dp3153
sg81
g3138
sg74
(lp3154
g67
(g68
g69
NtRp3155
(dp3156
g72
(dp3157
g80
I4
ssg81
g3151
sg74
(lp3158
S'datetime.datetime(2012, 1, 11, 22, 1, 29, 654193)'
p3159
asbasbasbag67
(g83
g69
NtRp3160
(dp3161
g72
(dp3162
sg81
g3090
sg74
(lp3163
g67
(g88
g69
NtRp3164
(dp3165
g72
(dp3166
g92
g93
ssg81
g3160
sg74
(lp3167
S'remember'
p3168
asbag67
(g88
g69
NtRp3169
(dp3170
g72
(dp3171
g99
g100
ssg81
g3160
sg74
(lp3172
S':'
asbag67
(g88
g69
NtRp3173
(dp3174
g72
(dp3175
sg81
g3160
sg74
(lp3176
g67
(g68
g69
NtRp3177
(dp3178
g72
(dp3179
g80
I4
ssg81
g3173
sg74
(lp3180
g110
asbasbasbag67
(g83
g69
NtRp3181
(dp3182
g72
(dp3183
sg81
g3090
sg74
(lp3184
g67
(g88
g69
NtRp3185
(dp3186
g72
(dp3187
g92
g93
ssg81
g3181
sg74
(lp3188
S'user'
p3189
asbag67
(g88
g69
NtRp3190
(dp3191
g72
(dp3192
g99
g100
ssg81
g3181
sg74
(lp3193
S':'
asbag67
(g88
g69
NtRp3194
(dp3195
g72
(dp3196
sg81
g3181
sg74
(lp3197
g67
(g68
g69
NtRp3198
(dp3199
g72
(dp3200
g80
I4
ssg81
g3194
sg74
(lp3201
g67
(g76
g69
NtRp3202
(dp3203
g72
(dp3204
g80
I3
ssg81
Nsg74
(lp3205
g67
(g83
g69
NtRp3206
(dp3207
g72
(dp3208
sg81
g3202
sg74
(lp3209
g67
(g88
g69
NtRp3210
(dp3211
g72
(dp3212
g92
g93
ssg81
g3206
sg74
(lp3213
S'email'
p3214
asbag67
(g88
g69
NtRp3215
(dp3216
g72
(dp3217
g99
g100
ssg81
g3206
sg74
(lp3218
S':'
asbag67
(g88
g69
NtRp3219
(dp3220
g72
(dp3221
sg81
g3206
sg74
(lp3222
g67
(g68
g69
NtRp3223
(dp3224
g72
(dp3225
g80
I3
ssg81
g3219
sg74
(lp3226
S'kaique.developer@gmail.com'
p3227
asbasbasbag67
(g83
g69
NtRp3228
(dp3229
g72
(dp3230
sg81
g3202
sg74
(lp3231
g67
(g88
g69
NtRp3232
(dp3233
g72
(dp3234
g92
g93
ssg81
g3228
sg74
(lp3235
S'first_name'
p3236
asbag67
(g88
g69
NtRp3237
(dp3238
g72
(dp3239
g99
g100
ssg81
g3228
sg74
(lp3240
S':'
asbag67
(g88
g69
NtRp3241
(dp3242
g72
(dp3243
sg81
g3228
sg74
(lp3244
g67
(g68
g69
NtRp3245
(dp3246
g72
(dp3247
g80
I3
ssg81
g3241
sg74
(lp3248
S'kaique'
p3249
asbasbasbag67
(g83
g69
NtRp3250
(dp3251
g72
(dp3252
sg81
g3202
sg74
(lp3253
g67
(g88
g69
NtRp3254
(dp3255
g72
(dp3256
g92
g93
ssg81
g3250
sg74
(lp3257
S'id'
p3258
asbag67
(g88
g69
NtRp3259
(dp3260
g72
(dp3261
g99
g100
ssg81
g3250
sg74
(lp3262
S':'
asbag67
(g88
g69
NtRp3263
(dp3264
g72
(dp3265
sg81
g3250
sg74
(lp3266
g67
(g68
g69
NtRp3267
(dp3268
g72
(dp3269
g80
I3
ssg81
g3263
sg74
(lp3270
S'1'
asbasbasbag67
(g83
g69
NtRp3271
(dp3272
g72
(dp3273
sg81
g3202
sg74
(lp3274
g67
(g88
g69
NtRp3275
(dp3276
g72
(dp3277
g92
g93
ssg81
g3271
sg74
(lp3278
S'last_name'
p3279
asbag67
(g88
g69
NtRp3280
(dp3281
g72
(dp3282
g99
g100
ssg81
g3271
sg74
(lp3283
S':'
asbag67
(g88
g69
NtRp3284
(dp3285
g72
(dp3286
sg81
g3271
sg74
(lp3287
g67
(g68
g69
NtRp3288
(dp3289
g72
(dp3290
g80
I3
ssg81
g3284
sg74
(lp3291
S'silva'
p3292
asbasbasbag67
(g83
g69
NtRp3293
(dp3294
g72
(dp3295
sg81
g3202
sg74
(lp3296
g67
(g88
g69
NtRp3297
(dp3298
g72
(dp3299
g92
g93
ssg81
g3293
sg74
(lp3300
S'password'
p3301
asbag67
(g88
g69
NtRp3302
(dp3303
g72
(dp3304
g99
g100
ssg81
g3293
sg74
(lp3305
S':'
asbag67
(g88
g69
NtRp3306
(dp3307
g72
(dp3308
sg81
g3293
sg74
(lp3309
g67
(g68
g69
NtRp3310
(dp3311
g72
(dp3312
g80
I3
ssg81
g3306
sg74
(lp3313
S'72c6a018d62d3fb47d95389e4a062cd2'
p3314
asbasbasbag67
(g83
g69
NtRp3315
(dp3316
g72
(dp3317
sg81
g3202
sg74
(lp3318
g67
(g88
g69
NtRp3319
(dp3320
g72
(dp3321
g92
g93
ssg81
g3315
sg74
(lp3322
S'registration_key'
p3323
asbag67
(g88
g69
NtRp3324
(dp3325
g72
(dp3326
g99
g100
ssg81
g3315
sg74
(lp3327
S':'
asbag67
(g88
g69
NtRp3328
(dp3329
g72
(dp3330
sg81
g3315
sg74
(lp3331
g67
(g68
g69
NtRp3332
(dp3333
g72
(dp3334
g80
I3
ssg81
g3328
sg74
(lp3335
S''
asbasbasbag67
(g83
g69
NtRp3336
(dp3337
g72
(dp3338
sg81
g3202
sg74
(lp3339
g67
(g88
g69
NtRp3340
(dp3341
g72
(dp3342
g92
g93
ssg81
g3336
sg74
(lp3343
S'reset_password_key'
p3344
asbag67
(g88
g69
NtRp3345
(dp3346
g72
(dp3347
g99
g100
ssg81
g3336
sg74
(lp3348
S':'
asbag67
(g88
g69
NtRp3349
(dp3350
g72
(dp3351
sg81
g3336
sg74
(lp3352
g67
(g68
g69
NtRp3353
(dp3354
g72
(dp3355
g80
I3
ssg81
g3349
sg74
(lp3356
S''
asbasbasbasbasbasbasbasbasbasbasbag67
(g83
g69
NtRp3357
(dp3358
g72
(dp3359
sg81
g3065
sg74
(lp3360
g67
(g88
g69
NtRp3361
(dp3362
g72
(dp3363
g92
g93
ssg81
g3357
sg74
(lp3364
S'index'
p3365
asbag67
(g88
g69
NtRp3366
(dp3367
g72
(dp3368
g99
g100
ssg81
g3357
sg74
(lp3369
S':'
asbag67
(g88
g69
NtRp3370
(dp3371
g72
(dp3372
sg81
g3357
sg74
(lp3373
g67
(g68
g69
NtRp3374
(dp3375
g72
(dp3376
g80
I5
ssg81
g3370
sg74
(lp3377
S'2'
asbasbasbag67
(g83
g69
NtRp3378
(dp3379
g72
(dp3380
sg81
g3065
sg74
(lp3381
g67
(g88
g69
NtRp3382
(dp3383
g72
(dp3384
g92
g93
ssg81
g3378
sg74
(lp3385
S'last_query'
p3386
asbag67
(g88
g69
NtRp3387
(dp3388
g72
(dp3389
g99
g100
ssg81
g3378
sg74
(lp3390
S':'
asbag67
(g88
g69
NtRp3391
(dp3392
g72
(dp3393
sg81
g3378
sg74
(lp3394
g67
(g68
g69
NtRp3395
(dp3396
g72
(dp3397
g80
I5
ssg81
g3391
sg74
(lp3398
S'db.publication.id>1'
p3399
asbasbasbasbasbsS'etype'
p3400
S"<type 'exceptions.SyntaxError'>"
p3401
sS'date'
p3402
S'Thu Jan 12 13:27:33 2012'
p3403
sS'response'
p3404
g67
(g68
g69
NtRp3405
(dp3406
g72
(dp3407
sg74
(lp3408
g67
(g76
g69
NtRp3409
(dp3410
g72
(dp3411
g80
I5
ssg81
Nsg74
(lp3412
g67
(g83
g69
NtRp3413
(dp3414
g72
(dp3415
sg81
g3409
sg74
(lp3416
g67
(g88
g69
NtRp3417
(dp3418
g72
(dp3419
g92
g93
ssg81
g3413
sg74
(lp3420
g177
asbag67
(g88
g69
NtRp3421
(dp3422
g72
(dp3423
g99
g100
ssg81
g3413
sg74
(lp3424
S':'
asbag67
(g88
g69
NtRp3425
(dp3426
g72
(dp3427
sg81
g3413
sg74
(lp3428
g67
(g68
g69
NtRp3429
(dp3430
g72
(dp3431
g80
I5
ssg81
g3425
sg74
(lp3432
S'<cStringIO.StringO object at 0x337d6f8>'
p3433
asbasbasbag67
(g83
g69
NtRp3434
(dp3435
g72
(dp3436
sg81
g3409
sg74
(lp3437
g67
(g88
g69
NtRp3438
(dp3439
g72
(dp3440
g92
g93
ssg81
g3434
sg74
(lp3441
g243
asbag67
(g88
g69
NtRp3442
(dp3443
g72
(dp3444
g99
g100
ssg81
g3434
sg74
(lp3445
S':'
asbag67
(g88
g69
NtRp3446
(dp3447
g72
(dp3448
sg81
g3434
sg74
(lp3449
g67
(g68
g69
NtRp3450
(dp3451
g72
(dp3452
g80
I5
ssg81
g3446
sg74
(lp3453
g67
(g76
g69
NtRp3454
(dp3455
g72
(dp3456
g80
I4
ssg81
Nsg74
(lp3457
g67
(g83
g69
NtRp3458
(dp3459
g72
(dp3460
sg81
g3454
sg74
(lp3461
g67
(g88
g69
NtRp3462
(dp3463
g72
(dp3464
g92
g93
ssg81
g3458
sg74
(lp3465
S'session_id_synopsis'
p3466
asbag67
(g88
g69
NtRp3467
(dp3468
g72
(dp3469
g99
g100
ssg81
g3458
sg74
(lp3470
S':'
asbag67
(g88
g69
NtRp3471
(dp3472
g72
(dp3473
sg81
g3458
sg74
(lp3474
g67
(g68
g69
NtRp3475
(dp3476
g72
(dp3477
g80
I4
ssg81
g3471
sg74
(lp3478
g67
(g76
g69
NtRp3479
(dp3480
g72
(dp3481
g80
I3
ssg81
Nsg74
(lp3482
g67
(g83
g69
NtRp3483
(dp3484
g72
(dp3485
sg81
g3479
sg74
(lp3486
g67
(g88
g69
NtRp3487
(dp3488
g72
(dp3489
g92
g93
ssg81
g3483
sg74
(lp3490
g293
asbag67
(g88
g69
NtRp3491
(dp3492
g72
(dp3493
g99
g100
ssg81
g3483
sg74
(lp3494
S':'
asbag67
(g88
g69
NtRp3495
(dp3496
g72
(dp3497
sg81
g3483
sg74
(lp3498
g67
(g68
g69
NtRp3499
(dp3500
g72
(dp3501
g80
I3
ssg81
g3495
sg74
(lp3502
S''
asbasbasbag67
(g83
g69
NtRp3503
(dp3504
g72
(dp3505
sg81
g3479
sg74
(lp3506
g67
(g88
g69
NtRp3507
(dp3508
g72
(dp3509
g92
g93
ssg81
g3503
sg74
(lp3510
g314
asbag67
(g88
g69
NtRp3511
(dp3512
g72
(dp3513
g99
g100
ssg81
g3503
sg74
(lp3514
S':'
asbag67
(g88
g69
NtRp3515
(dp3516
g72
(dp3517
sg81
g3503
sg74
(lp3518
g67
(g68
g69
NtRp3519
(dp3520
g72
(dp3521
g80
I3
ssg81
g3515
sg74
(lp3522
S''
asbasbasbag67
(g83
g69
NtRp3523
(dp3524
g72
(dp3525
sg81
g3479
sg74
(lp3526
g67
(g88
g69
NtRp3527
(dp3528
g72
(dp3529
g92
g93
ssg81
g3523
sg74
(lp3530
g335
asbag67
(g88
g69
NtRp3531
(dp3532
g72
(dp3533
g99
g100
ssg81
g3523
sg74
(lp3534
S':'
asbag67
(g88
g69
NtRp3535
(dp3536
g72
(dp3537
sg81
g3523
sg74
(lp3538
g67
(g68
g69
NtRp3539
(dp3540
g72
(dp3541
g80
I3
ssg81
g3535
sg74
(lp3542
S''
asbasbasbag67
(g83
g69
NtRp3543
(dp3544
g72
(dp3545
sg81
g3479
sg74
(lp3546
g67
(g88
g69
NtRp3547
(dp3548
g72
(dp3549
g92
g93
ssg81
g3543
sg74
(lp3550
g356
asbag67
(g88
g69
NtRp3551
(dp3552
g72
(dp3553
g99
g100
ssg81
g3543
sg74
(lp3554
S':'
asbag67
(g88
g69
NtRp3555
(dp3556
g72
(dp3557
sg81
g3543
sg74
(lp3558
g67
(g68
g69
NtRp3559
(dp3560
g72
(dp3561
g80
I3
ssg81
g3555
sg74
(lp3562
S''
asbasbasbag67
(g83
g69
NtRp3563
(dp3564
g72
(dp3565
sg81
g3479
sg74
(lp3566
g67
(g88
g69
NtRp3567
(dp3568
g72
(dp3569
g92
g93
ssg81
g3563
sg74
(lp3570
g377
asbag67
(g88
g69
NtRp3571
(dp3572
g72
(dp3573
g99
g100
ssg81
g3563
sg74
(lp3574
S':'
asbag67
(g88
g69
NtRp3575
(dp3576
g72
(dp3577
sg81
g3563
sg74
(lp3578
g67
(g68
g69
NtRp3579
(dp3580
g72
(dp3581
g80
I3
ssg81
g3575
sg74
(lp3582
S''
asbasbasbag67
(g83
g69
NtRp3583
(dp3584
g72
(dp3585
sg81
g3479
sg74
(lp3586
g67
(g88
g69
NtRp3587
(dp3588
g72
(dp3589
g92
g93
ssg81
g3583
sg74
(lp3590
g398
asbag67
(g88
g69
NtRp3591
(dp3592
g72
(dp3593
g99
g100
ssg81
g3583
sg74
(lp3594
S':'
asbag67
(g88
g69
NtRp3595
(dp3596
g72
(dp3597
sg81
g3583
sg74
(lp3598
g67
(g68
g69
NtRp3599
(dp3600
g72
(dp3601
g80
I3
ssg81
g3595
sg74
(lp3602
S'/'
asbasbasbag67
(g83
g69
NtRp3603
(dp3604
g72
(dp3605
sg81
g3479
sg74
(lp3606
g67
(g88
g69
NtRp3607
(dp3608
g72
(dp3609
g92
g93
ssg81
g3603
sg74
(lp3610
g419
asbag67
(g88
g69
NtRp3611
(dp3612
g72
(dp3613
g99
g100
ssg81
g3603
sg74
(lp3614
S':'
asbag67
(g88
g69
NtRp3615
(dp3616
g72
(dp3617
sg81
g3603
sg74
(lp3618
g67
(g68
g69
NtRp3619
(dp3620
g72
(dp3621
g80
I3
ssg81
g3615
sg74
(lp3622
S''
asbasbasbag67
(g83
g69
NtRp3623
(dp3624
g72
(dp3625
sg81
g3479
sg74
(lp3626
g67
(g88
g69
NtRp3627
(dp3628
g72
(dp3629
g92
g93
ssg81
g3623
sg74
(lp3630
g440
asbag67
(g88
g69
NtRp3631
(dp3632
g72
(dp3633
g99
g100
ssg81
g3623
sg74
(lp3634
S':'
asbag67
(g88
g69
NtRp3635
(dp3636
g72
(dp3637
sg81
g3623
sg74
(lp3638
g67
(g68
g69
NtRp3639
(dp3640
g72
(dp3641
g80
I3
ssg81
g3635
sg74
(lp3642
S''
asbasbasbasbasbasbasbasbasbasbasbag67
(g83
g69
NtRp3643
(dp3644
g72
(dp3645
sg81
g3409
sg74
(lp3646
g67
(g88
g69
NtRp3647
(dp3648
g72
(dp3649
g92
g93
ssg81
g3643
sg74
(lp3650
S'files'
p3651
asbag67
(g88
g69
NtRp3652
(dp3653
g72
(dp3654
g99
g100
ssg81
g3643
sg74
(lp3655
S':'
asbag67
(g88
g69
NtRp3656
(dp3657
g72
(dp3658
sg81
g3643
sg74
(lp3659
g67
(g68
g69
NtRp3660
(dp3661
g72
(dp3662
g80
I5
ssg81
g3656
sg74
(lp3663
g67
(g76
g69
NtRp3664
(dp3665
g72
(dp3666
g80
I4
ssg81
Nsg74
(lp3667
sbasbasbasbag67
(g83
g69
NtRp3668
(dp3669
g72
(dp3670
sg81
g3409
sg74
(lp3671
g67
(g88
g69
NtRp3672
(dp3673
g72
(dp3674
g92
g93
ssg81
g3668
sg74
(lp3675
S'flash'
p3676
asbag67
(g88
g69
NtRp3677
(dp3678
g72
(dp3679
g99
g100
ssg81
g3668
sg74
(lp3680
S':'
asbag67
(g88
g69
NtRp3681
(dp3682
g72
(dp3683
sg81
g3668
sg74
(lp3684
g67
(g68
g69
NtRp3685
(dp3686
g72
(dp3687
g80
I5
ssg81
g3681
sg74
(lp3688
S''
asbasbasbag67
(g83
g69
NtRp3689
(dp3690
g72
(dp3691
sg81
g3409
sg74
(lp3692
g67
(g88
g69
NtRp3693
(dp3694
g72
(dp3695
g92
g93
ssg81
g3689
sg74
(lp3696
S'generic_patterns'
p3697
asbag67
(g88
g69
NtRp3698
(dp3699
g72
(dp3700
g99
g100
ssg81
g3689
sg74
(lp3701
S':'
asbag67
(g88
g69
NtRp3702
(dp3703
g72
(dp3704
sg81
g3689
sg74
(lp3705
g67
(g68
g69
NtRp3706
(dp3707
g72
(dp3708
g80
I5
ssg81
g3702
sg74
(lp3709
g67
(g76
g69
NtRp3710
(dp3711
g72
(dp3712
g80
I4
ssg81
Nsg74
(lp3713
g67
(g83
g69
NtRp3714
(dp3715
g72
(dp3716
sg81
g3710
sg74
(lp3717
g67
(g88
g69
NtRp3718
(dp3719
g72
(dp3720
sg81
g3714
sg74
(lp3721
g67
(g68
g69
NtRp3722
(dp3723
g72
(dp3724
g80
I4
ssg81
g3718
sg74
(lp3725
S'*'
asbasbasbasbasbasbasbag67
(g83
g69
NtRp3726
(dp3727
g72
(dp3728
sg81
g3409
sg74
(lp3729
g67
(g88
g69
NtRp3730
(dp3731
g72
(dp3732
g92
g93
ssg81
g3726
sg74
(lp3733
S'headers'
p3734
asbag67
(g88
g69
NtRp3735
(dp3736
g72
(dp3737
g99
g100
ssg81
g3726
sg74
(lp3738
S':'
asbag67
(g88
g69
NtRp3739
(dp3740
g72
(dp3741
sg81
g3726
sg74
(lp3742
g67
(g68
g69
NtRp3743
(dp3744
g72
(dp3745
g80
I5
ssg81
g3739
sg74
(lp3746
g67
(g76
g69
NtRp3747
(dp3748
g72
(dp3749
g80
I4
ssg81
Nsg74
(lp3750
g67
(g83
g69
NtRp3751
(dp3752
g72
(dp3753
sg81
g3747
sg74
(lp3754
g67
(g88
g69
NtRp3755
(dp3756
g72
(dp3757
g92
g93
ssg81
g3751
sg74
(lp3758
S'Cache-Control'
p3759
asbag67
(g88
g69
NtRp3760
(dp3761
g72
(dp3762
g99
g100
ssg81
g3751
sg74
(lp3763
S':'
asbag67
(g88
g69
NtRp3764
(dp3765
g72
(dp3766
sg81
g3751
sg74
(lp3767
g67
(g68
g69
NtRp3768
(dp3769
g72
(dp3770
g80
I4
ssg81
g3764
sg74
(lp3771
S'no-store, no-cache, must-revalidate, post-check=0, pre-check=0'
p3772
asbasbasbag67
(g83
g69
NtRp3773
(dp3774
g72
(dp3775
sg81
g3747
sg74
(lp3776
g67
(g88
g69
NtRp3777
(dp3778
g72
(dp3779
g92
g93
ssg81
g3773
sg74
(lp3780
S'Content-Type'
p3781
asbag67
(g88
g69
NtRp3782
(dp3783
g72
(dp3784
g99
g100
ssg81
g3773
sg74
(lp3785
S':'
asbag67
(g88
g69
NtRp3786
(dp3787
g72
(dp3788
sg81
g3773
sg74
(lp3789
g67
(g68
g69
NtRp3790
(dp3791
g72
(dp3792
g80
I4
ssg81
g3786
sg74
(lp3793
S'text/html; charset=utf-8'
p3794
asbasbasbag67
(g83
g69
NtRp3795
(dp3796
g72
(dp3797
sg81
g3747
sg74
(lp3798
g67
(g88
g69
NtRp3799
(dp3800
g72
(dp3801
g92
g93
ssg81
g3795
sg74
(lp3802
S'Expires'
p3803
asbag67
(g88
g69
NtRp3804
(dp3805
g72
(dp3806
g99
g100
ssg81
g3795
sg74
(lp3807
S':'
asbag67
(g88
g69
NtRp3808
(dp3809
g72
(dp3810
sg81
g3795
sg74
(lp3811
g67
(g68
g69
NtRp3812
(dp3813
g72
(dp3814
g80
I4
ssg81
g3808
sg74
(lp3815
S'Thu, 12 Jan 2012 15:27:33 GMT'
p3816
asbasbasbag67
(g83
g69
NtRp3817
(dp3818
g72
(dp3819
sg81
g3747
sg74
(lp3820
g67
(g88
g69
NtRp3821
(dp3822
g72
(dp3823
g92
g93
ssg81
g3817
sg74
(lp3824
S'Pragma'
p3825
asbag67
(g88
g69
NtRp3826
(dp3827
g72
(dp3828
g99
g100
ssg81
g3817
sg74
(lp3829
S':'
asbag67
(g88
g69
NtRp3830
(dp3831
g72
(dp3832
sg81
g3817
sg74
(lp3833
g67
(g68
g69
NtRp3834
(dp3835
g72
(dp3836
g80
I4
ssg81
g3830
sg74
(lp3837
S'no-cache'
p3838
asbasbasbag67
(g83
g69
NtRp3839
(dp3840
g72
(dp3841
sg81
g3747
sg74
(lp3842
g67
(g88
g69
NtRp3843
(dp3844
g72
(dp3845
g92
g93
ssg81
g3839
sg74
(lp3846
S'X-Powered-By'
p3847
asbag67
(g88
g69
NtRp3848
(dp3849
g72
(dp3850
g99
g100
ssg81
g3839
sg74
(lp3851
S':'
asbag67
(g88
g69
NtRp3852
(dp3853
g72
(dp3854
sg81
g3839
sg74
(lp3855
g67
(g68
g69
NtRp3856
(dp3857
g72
(dp3858
g80
I4
ssg81
g3852
sg74
(lp3859
S'web2py'
p3860
asbasbasbasbasbasbasbag67
(g83
g69
NtRp3861
(dp3862
g72
(dp3863
sg81
g3409
sg74
(lp3864
g67
(g88
g69
NtRp3865
(dp3866
g72
(dp3867
g92
g93
ssg81
g3861
sg74
(lp3868
S'menu'
p3869
asbag67
(g88
g69
NtRp3870
(dp3871
g72
(dp3872
g99
g100
ssg81
g3861
sg74
(lp3873
S':'
asbag67
(g88
g69
NtRp3874
(dp3875
g72
(dp3876
sg81
g3861
sg74
(lp3877
g67
(g68
g69
NtRp3878
(dp3879
g72
(dp3880
g80
I5
ssg81
g3874
sg74
(lp3881
g67
(g76
g69
NtRp3882
(dp3883
g72
(dp3884
g80
I4
ssg81
Nsg74
(lp3885
g67
(g83
g69
NtRp3886
(dp3887
g72
(dp3888
sg81
g3882
sg74
(lp3889
g67
(g88
g69
NtRp3890
(dp3891
g72
(dp3892
sg81
g3886
sg74
(lp3893
g67
(g68
g69
NtRp3894
(dp3895
g72
(dp3896
g80
I4
ssg81
g3890
sg74
(lp3897
g67
(g76
g69
NtRp3898
(dp3899
g72
(dp3900
g80
I3
ssg81
Nsg74
(lp3901
g67
(g83
g69
NtRp3902
(dp3903
g72
(dp3904
sg81
g3898
sg74
(lp3905
g67
(g88
g69
NtRp3906
(dp3907
g72
(dp3908
sg81
g3902
sg74
(lp3909
g67
(g68
g69
NtRp3910
(dp3911
g72
(dp3912
g80
I3
ssg81
g3906
sg74
(lp3913
cgluon.languages
lazyT_unpickle
p3914
(S't\x04\x00\x00\x00Home'
tRp3915
asbasbasbag67
(g83
g69
NtRp3916
(dp3917
g72
(dp3918
sg81
g3898
sg74
(lp3919
g67
(g88
g69
NtRp3920
(dp3921
g72
(dp3922
sg81
g3916
sg74
(lp3923
g67
(g68
g69
NtRp3924
(dp3925
g72
(dp3926
g80
I3
ssg81
g3920
sg74
(lp3927
g110
asbasbasbag67
(g83
g69
NtRp3928
(dp3929
g72
(dp3930
sg81
g3898
sg74
(lp3931
g67
(g88
g69
NtRp3932
(dp3933
g72
(dp3934
sg81
g3928
sg74
(lp3935
g67
(g68
g69
NtRp3936
(dp3937
g72
(dp3938
g80
I3
ssg81
g3932
sg74
(lp3939
S'/synopsis/default/index'
p3940
asbasbasbag67
(g83
g69
NtRp3941
(dp3942
g72
(dp3943
sg81
g3898
sg74
(lp3944
g67
(g88
g69
NtRp3945
(dp3946
g72
(dp3947
sg81
g3941
sg74
(lp3948
g67
(g68
g69
NtRp3949
(dp3950
g72
(dp3951
g80
I3
ssg81
g3945
sg74
(lp3952
g67
(g76
g69
NtRp3953
(dp3954
g72
(dp3955
g80
I2
ssg81
Nsg74
(lp3956
sbasbasbasbasbasbasbasbag67
(g83
g69
NtRp3957
(dp3958
g72
(dp3959
sg81
g3882
sg74
(lp3960
g67
(g88
g69
NtRp3961
(dp3962
g72
(dp3963
sg81
g3957
sg74
(lp3964
g67
(g68
g69
NtRp3965
(dp3966
g72
(dp3967
g80
I4
ssg81
g3961
sg74
(lp3968
g67
(g76
g69
NtRp3969
(dp3970
g72
(dp3971
g80
I3
ssg81
Nsg74
(lp3972
g67
(g83
g69
NtRp3973
(dp3974
g72
(dp3975
sg81
g3969
sg74
(lp3976
g67
(g88
g69
NtRp3977
(dp3978
g72
(dp3979
sg81
g3973
sg74
(lp3980
g67
(g68
g69
NtRp3981
(dp3982
g72
(dp3983
g80
I3
ssg81
g3977
sg74
(lp3984
g3914
(S't\x0b\x00\x00\x00Information'
tRp3985
asbasbasbag67
(g83
g69
NtRp3986
(dp3987
g72
(dp3988
sg81
g3969
sg74
(lp3989
g67
(g88
g69
NtRp3990
(dp3991
g72
(dp3992
sg81
g3986
sg74
(lp3993
g67
(g68
g69
NtRp3994
(dp3995
g72
(dp3996
g80
I3
ssg81
g3990
sg74
(lp3997
g110
asbasbasbag67
(g83
g69
NtRp3998
(dp3999
g72
(dp4000
sg81
g3969
sg74
(lp4001
g67
(g88
g69
NtRp4002
(dp4003
g72
(dp4004
sg81
g3998
sg74
(lp4005
g67
(g68
g69
NtRp4006
(dp4007
g72
(dp4008
g80
I3
ssg81
g4002
sg74
(lp4009
S'/synopsis/information/index'
p4010
asbasbasbag67
(g83
g69
NtRp4011
(dp4012
g72
(dp4013
sg81
g3969
sg74
(lp4014
g67
(g88
g69
NtRp4015
(dp4016
g72
(dp4017
sg81
g4011
sg74
(lp4018
g67
(g68
g69
NtRp4019
(dp4020
g72
(dp4021
g80
I3
ssg81
g4015
sg74
(lp4022
g67
(g76
g69
NtRp4023
(dp4024
g72
(dp4025
g80
I2
ssg81
Nsg74
(lp4026
sbasbasbasbasbasbasbasbag67
(g83
g69
NtRp4027
(dp4028
g72
(dp4029
sg81
g3882
sg74
(lp4030
g67
(g88
g69
NtRp4031
(dp4032
g72
(dp4033
sg81
g4027
sg74
(lp4034
g67
(g68
g69
NtRp4035
(dp4036
g72
(dp4037
g80
I4
ssg81
g4031
sg74
(lp4038
g67
(g76
g69
NtRp4039
(dp4040
g72
(dp4041
g80
I3
ssg81
Nsg74
(lp4042
g67
(g83
g69
NtRp4043
(dp4044
g72
(dp4045
sg81
g4039
sg74
(lp4046
g67
(g88
g69
NtRp4047
(dp4048
g72
(dp4049
sg81
g4043
sg74
(lp4050
g67
(g68
g69
NtRp4051
(dp4052
g72
(dp4053
g80
I3
ssg81
g4047
sg74
(lp4054
g3914
(S't\x05\x00\x00\x00About'
tRp4055
asbasbasbag67
(g83
g69
NtRp4056
(dp4057
g72
(dp4058
sg81
g4039
sg74
(lp4059
g67
(g88
g69
NtRp4060
(dp4061
g72
(dp4062
sg81
g4056
sg74
(lp4063
g67
(g68
g69
NtRp4064
(dp4065
g72
(dp4066
g80
I3
ssg81
g4060
sg74
(lp4067
g110
asbasbasbag67
(g83
g69
NtRp4068
(dp4069
g72
(dp4070
sg81
g4039
sg74
(lp4071
g67
(g88
g69
NtRp4072
(dp4073
g72
(dp4074
sg81
g4068
sg74
(lp4075
g67
(g68
g69
NtRp4076
(dp4077
g72
(dp4078
g80
I3
ssg81
g4072
sg74
(lp4079
S'/synopsis/about/index'
p4080
asbasbasbag67
(g83
g69
NtRp4081
(dp4082
g72
(dp4083
sg81
g4039
sg74
(lp4084
g67
(g88
g69
NtRp4085
(dp4086
g72
(dp4087
sg81
g4081
sg74
(lp4088
g67
(g68
g69
NtRp4089
(dp4090
g72
(dp4091
g80
I3
ssg81
g4085
sg74
(lp4092
g67
(g76
g69
NtRp4093
(dp4094
g72
(dp4095
g80
I2
ssg81
Nsg74
(lp4096
sbasbasbasbasbasbasbasbasbasbasbasbag67
(g83
g69
NtRp4097
(dp4098
g72
(dp4099
sg81
g3409
sg74
(lp4100
g67
(g88
g69
NtRp4101
(dp4102
g72
(dp4103
g92
g93
ssg81
g4097
sg74
(lp4104
S'meta'
p4105
asbag67
(g88
g69
NtRp4106
(dp4107
g72
(dp4108
g99
g100
ssg81
g4097
sg74
(lp4109
S':'
asbag67
(g88
g69
NtRp4110
(dp4111
g72
(dp4112
sg81
g4097
sg74
(lp4113
g67
(g68
g69
NtRp4114
(dp4115
g72
(dp4116
g80
I5
ssg81
g4110
sg74
(lp4117
g67
(g76
g69
NtRp4118
(dp4119
g72
(dp4120
g80
I4
ssg81
Nsg74
(lp4121
g67
(g83
g69
NtRp4122
(dp4123
g72
(dp4124
sg81
g4118
sg74
(lp4125
g67
(g88
g69
NtRp4126
(dp4127
g72
(dp4128
g92
g93
ssg81
g4122
sg74
(lp4129
S'author'
p4130
asbag67
(g88
g69
NtRp4131
(dp4132
g72
(dp4133
g99
g100
ssg81
g4122
sg74
(lp4134
S':'
asbag67
(g88
g69
NtRp4135
(dp4136
g72
(dp4137
sg81
g4122
sg74
(lp4138
g67
(g68
g69
NtRp4139
(dp4140
g72
(dp4141
g80
I4
ssg81
g4135
sg74
(lp4142
S'Your Name <you@example.com>'
p4143
asbasbasbag67
(g83
g69
NtRp4144
(dp4145
g72
(dp4146
sg81
g4118
sg74
(lp4147
g67
(g88
g69
NtRp4148
(dp4149
g72
(dp4150
g92
g93
ssg81
g4144
sg74
(lp4151
S'copyright'
p4152
asbag67
(g88
g69
NtRp4153
(dp4154
g72
(dp4155
g99
g100
ssg81
g4144
sg74
(lp4156
S':'
asbag67
(g88
g69
NtRp4157
(dp4158
g72
(dp4159
sg81
g4144
sg74
(lp4160
g67
(g68
g69
NtRp4161
(dp4162
g72
(dp4163
g80
I4
ssg81
g4157
sg74
(lp4164
S'Copyright 2011'
p4165
asbasbasbag67
(g83
g69
NtRp4166
(dp4167
g72
(dp4168
sg81
g4118
sg74
(lp4169
g67
(g88
g69
NtRp4170
(dp4171
g72
(dp4172
g92
g93
ssg81
g4166
sg74
(lp4173
S'description'
p4174
asbag67
(g88
g69
NtRp4175
(dp4176
g72
(dp4177
g99
g100
ssg81
g4166
sg74
(lp4178
S':'
asbag67
(g88
g69
NtRp4179
(dp4180
g72
(dp4181
sg81
g4166
sg74
(lp4182
g67
(g68
g69
NtRp4183
(dp4184
g72
(dp4185
g80
I4
ssg81
g4179
sg74
(lp4186
S'a cool new app'
p4187
asbasbasbag67
(g83
g69
NtRp4188
(dp4189
g72
(dp4190
sg81
g4118
sg74
(lp4191
g67
(g88
g69
NtRp4192
(dp4193
g72
(dp4194
g92
g93
ssg81
g4188
sg74
(lp4195
S'generator'
p4196
asbag67
(g88
g69
NtRp4197
(dp4198
g72
(dp4199
g99
g100
ssg81
g4188
sg74
(lp4200
S':'
asbag67
(g88
g69
NtRp4201
(dp4202
g72
(dp4203
sg81
g4188
sg74
(lp4204
g67
(g68
g69
NtRp4205
(dp4206
g72
(dp4207
g80
I4
ssg81
g4201
sg74
(lp4208
S'Web2py Web Framework'
p4209
asbasbasbag67
(g83
g69
NtRp4210
(dp4211
g72
(dp4212
sg81
g4118
sg74
(lp4213
g67
(g88
g69
NtRp4214
(dp4215
g72
(dp4216
g92
g93
ssg81
g4210
sg74
(lp4217
S'keywords'
p4218
asbag67
(g88
g69
NtRp4219
(dp4220
g72
(dp4221
g99
g100
ssg81
g4210
sg74
(lp4222
S':'
asbag67
(g88
g69
NtRp4223
(dp4224
g72
(dp4225
sg81
g4210
sg74
(lp4226
g67
(g68
g69
NtRp4227
(dp4228
g72
(dp4229
g80
I4
ssg81
g4223
sg74
(lp4230
S'web2py, python, framework'
p4231
asbasbasbasbasbasbasbag67
(g83
g69
NtRp4232
(dp4233
g72
(dp4234
sg81
g3409
sg74
(lp4235
g67
(g88
g69
NtRp4236
(dp4237
g72
(dp4238
g92
g93
ssg81
g4232
sg74
(lp4239
S'postprocessing'
p4240
asbag67
(g88
g69
NtRp4241
(dp4242
g72
(dp4243
g99
g100
ssg81
g4232
sg74
(lp4244
S':'
asbag67
(g88
g69
NtRp4245
(dp4246
g72
(dp4247
sg81
g4232
sg74
(lp4248
g67
(g68
g69
NtRp4249
(dp4250
g72
(dp4251
g80
I5
ssg81
g4245
sg74
(lp4252
g67
(g76
g69
NtRp4253
(dp4254
g72
(dp4255
g80
I4
ssg81
Nsg74
(lp4256
sbasbasbasbag67
(g83
g69
NtRp4257
(dp4258
g72
(dp4259
sg81
g3409
sg74
(lp4260
g67
(g88
g69
NtRp4261
(dp4262
g72
(dp4263
g92
g93
ssg81
g4257
sg74
(lp4264
S'session_file'
p4265
asbag67
(g88
g69
NtRp4266
(dp4267
g72
(dp4268
g99
g100
ssg81
g4257
sg74
(lp4269
S':'
asbag67
(g88
g69
NtRp4270
(dp4271
g72
(dp4272
sg81
g4257
sg74
(lp4273
g67
(g68
g69
NtRp4274
(dp4275
g72
(dp4276
g80
I5
ssg81
g4270
sg74
(lp4277
S"<open file '/home/kaique/Projects/web2py/applications/synopsis/sessions/127.0.0.1-351efa91-66d9-4ca2-9c53-1a2177b18dc7', mode 'rb+' at 0x36ca6f0>"
p4278
asbasbasbag67
(g83
g69
NtRp4279
(dp4280
g72
(dp4281
sg81
g3409
sg74
(lp4282
g67
(g88
g69
NtRp4283
(dp4284
g72
(dp4285
g92
g93
ssg81
g4279
sg74
(lp4286
S'session_filename'
p4287
asbag67
(g88
g69
NtRp4288
(dp4289
g72
(dp4290
g99
g100
ssg81
g4279
sg74
(lp4291
S':'
asbag67
(g88
g69
NtRp4292
(dp4293
g72
(dp4294
sg81
g4279
sg74
(lp4295
g67
(g68
g69
NtRp4296
(dp4297
g72
(dp4298
g80
I5
ssg81
g4292
sg74
(lp4299
S'/home/kaique/Projects/web2py/applications/synopsis/sessions/127.0.0.1-351efa91-66d9-4ca2-9c53-1a2177b18dc7'
p4300
asbasbasbag67
(g83
g69
NtRp4301
(dp4302
g72
(dp4303
sg81
g3409
sg74
(lp4304
g67
(g88
g69
NtRp4305
(dp4306
g72
(dp4307
g92
g93
ssg81
g4301
sg74
(lp4308
S'session_id'
p4309
asbag67
(g88
g69
NtRp4310
(dp4311
g72
(dp4312
g99
g100
ssg81
g4301
sg74
(lp4313
S':'
asbag67
(g88
g69
NtRp4314
(dp4315
g72
(dp4316
sg81
g4301
sg74
(lp4317
g67
(g68
g69
NtRp4318
(dp4319
g72
(dp4320
g80
I5
ssg81
g4314
sg74
(lp4321
S'127.0.0.1-351efa91-66d9-4ca2-9c53-1a2177b18dc7'
p4322
asbasbasbag67
(g83
g69
NtRp4323
(dp4324
g72
(dp4325
sg81
g3409
sg74
(lp4326
g67
(g88
g69
NtRp4327
(dp4328
g72
(dp4329
g92
g93
ssg81
g4323
sg74
(lp4330
S'session_id_name'
p4331
asbag67
(g88
g69
NtRp4332
(dp4333
g72
(dp4334
g99
g100
ssg81
g4323
sg74
(lp4335
S':'
asbag67
(g88
g69
NtRp4336
(dp4337
g72
(dp4338
sg81
g4323
sg74
(lp4339
g67
(g68
g69
NtRp4340
(dp4341
g72
(dp4342
g80
I5
ssg81
g4336
sg74
(lp4343
g3466
asbasbasbag67
(g83
g69
NtRp4344
(dp4345
g72
(dp4346
sg81
g3409
sg74
(lp4347
g67
(g88
g69
NtRp4348
(dp4349
g72
(dp4350
g92
g93
ssg81
g4344
sg74
(lp4351
S'session_locked'
p4352
asbag67
(g88
g69
NtRp4353
(dp4354
g72
(dp4355
g99
g100
ssg81
g4344
sg74
(lp4356
S':'
asbag67
(g88
g69
NtRp4357
(dp4358
g72
(dp4359
sg81
g4344
sg74
(lp4360
g67
(g68
g69
NtRp4361
(dp4362
g72
(dp4363
g80
I5
ssg81
g4357
sg74
(lp4364
g1679
asbasbasbag67
(g83
g69
NtRp4365
(dp4366
g72
(dp4367
sg81
g3409
sg74
(lp4368
g67
(g88
g69
NtRp4369
(dp4370
g72
(dp4371
g92
g93
ssg81
g4365
sg74
(lp4372
S'session_new'
p4373
asbag67
(g88
g69
NtRp4374
(dp4375
g72
(dp4376
g99
g100
ssg81
g4365
sg74
(lp4377
S':'
asbag67
(g88
g69
NtRp4378
(dp4379
g72
(dp4380
sg81
g4365
sg74
(lp4381
g67
(g68
g69
NtRp4382
(dp4383
g72
(dp4384
g80
I5
ssg81
g4378
sg74
(lp4385
g110
asbasbasbag67
(g83
g69
NtRp4386
(dp4387
g72
(dp4388
sg81
g3409
sg74
(lp4389
g67
(g88
g69
NtRp4390
(dp4391
g72
(dp4392
g92
g93
ssg81
g4386
sg74
(lp4393
S'status'
p4394
asbag67
(g88
g69
NtRp4395
(dp4396
g72
(dp4397
g99
g100
ssg81
g4386
sg74
(lp4398
S':'
asbag67
(g88
g69
NtRp4399
(dp4400
g72
(dp4401
sg81
g4386
sg74
(lp4402
g67
(g68
g69
NtRp4403
(dp4404
g72
(dp4405
g80
I5
ssg81
g4399
sg74
(lp4406
S'200'
p4407
asbasbasbag67
(g83
g69
NtRp4408
(dp4409
g72
(dp4410
sg81
g3409
sg74
(lp4411
g67
(g88
g69
NtRp4412
(dp4413
g72
(dp4414
g92
g93
ssg81
g4408
sg74
(lp4415
S'subtitle'
p4416
asbag67
(g88
g69
NtRp4417
(dp4418
g72
(dp4419
g99
g100
ssg81
g4408
sg74
(lp4420
S':'
asbag67
(g88
g69
NtRp4421
(dp4422
g72
(dp4423
sg81
g4408
sg74
(lp4424
g67
(g68
g69
NtRp4425
(dp4426
g72
(dp4427
g80
I5
ssg81
g4421
sg74
(lp4428
g3914
(S's\x0f\x00\x00\x00Personalize-me!'
tRp4429
asbasbasbag67
(g83
g69
NtRp4430
(dp4431
g72
(dp4432
sg81
g3409
sg74
(lp4433
g67
(g88
g69
NtRp4434
(dp4435
g72
(dp4436
g92
g93
ssg81
g4430
sg74
(lp4437
S'title'
p4438
asbag67
(g88
g69
NtRp4439
(dp4440
g72
(dp4441
g99
g100
ssg81
g4430
sg74
(lp4442
S':'
asbag67
(g88
g69
NtRp4443
(dp4444
g72
(dp4445
sg81
g4430
sg74
(lp4446
g67
(g68
g69
NtRp4447
(dp4448
g72
(dp4449
g80
I5
ssg81
g4443
sg74
(lp4450
g132
asbasbasbag67
(g83
g69
NtRp4451
(dp4452
g72
(dp4453
sg81
g3409
sg74
(lp4454
g67
(g88
g69
NtRp4455
(dp4456
g72
(dp4457
g92
g93
ssg81
g4451
sg74
(lp4458
g2344
asbag67
(g88
g69
NtRp4459
(dp4460
g72
(dp4461
g99
g100
ssg81
g4451
sg74
(lp4462
S':'
asbag67
(g88
g69
NtRp4463
(dp4464
g72
(dp4465
sg81
g4451
sg74
(lp4466
g67
(g68
g69
NtRp4467
(dp4468
g72
(dp4469
g80
I5
ssg81
g4463
sg74
(lp4470
g2357
asbasbasbag67
(g83
g69
NtRp4471
(dp4472
g72
(dp4473
sg81
g3409
sg74
(lp4474
g67
(g88
g69
NtRp4475
(dp4476
g72
(dp4477
g92
g93
ssg81
g4471
sg74
(lp4478
S'view'
p4479
asbag67
(g88
g69
NtRp4480
(dp4481
g72
(dp4482
g99
g100
ssg81
g4471
sg74
(lp4483
S':'
asbag67
(g88
g69
NtRp4484
(dp4485
g72
(dp4486
sg81
g4471
sg74
(lp4487
g67
(g68
g69
NtRp4488
(dp4489
g72
(dp4490
g80
I5
ssg81
g4484
sg74
(lp4491
S'information/profile.html'
p4492
asbasbasbasbasbsS'locals'
p4493
(dp4494
g3
S"'/home/kaique/Projects/web2py/applications/synopsis/controllers/information.py'"
p4495
sg5
S"'# -*- coding: utf-8 -*-\\nimport functions as f # ...urn {}\\n\\nresponse._vars=response._caller(profile)\\n'"
p4496
sssS'traceback'
p4497
S'Traceback (most recent call last):\n  File "/home/kaique/Projects/web2py/gluon/restricted.py", line 193, in restricted\n    ccode = compile2(code,layer)\n  File "/home/kaique/Projects/web2py/gluon/restricted.py", line 179, in compile2\n    return compile(code.rstrip().replace(\'\\r\\n\',\'\\n\')+\'\\n\', layer, \'exec\')\n  File "/home/kaique/Projects/web2py/applications/synopsis/controllers/information.py", line 45\n    elif args[0] == \'publication\':\n       ^\nSyntaxError: invalid syntax\n'
p4498
s.