(dp1
S'output'
p2
S''
sS'layer'
p3
S'/home/kaique/Projects/web2py/applications/synopsis/controllers/information.py'
p4
sS'code'
p5
S"# -*- coding: utf-8 -*-\nimport functions as f # shorthand function\n\n@auth.requires_login()\ndef index(): # Show the all content for redirect to profile\n\tsubject = f.get_table(db, 'subject', order='created_on')\n\treturn { 'subject': subject }\n\n@auth.requires_login()\ndef profile(): # Show the profile of subject\n\targs = request.args # query url's\n\tif args: \n\t\tprofile = f.get_table(db, 'subject', id=args[0]) \n\t\tsession.index = args[0] \n\tif not args or not profile: return redirect( URL('index') )\n\treturn { 'profile': profile }\n\n@auth.requires_login()\ndef publication(): # Show the publication profile\n\targs = request.args # query url's\n\tcount_equals = f.count_equals\n\tif args: \n\t\tpublication = f.get_table(db, 'publication', id=args[0])\n\t\tsession.back = args[0] \n\tif not args or not publication: return redirect( URL('profile') )\n\treturn { 'publication': publication, \n\t\t\t 'count_equals': count_equals }\n\n@auth.requires_login()\ndef new(): # Create a new subject\n\targs = request.args\n\t\n\tif not args: # New Subject\n\t\ttitle = 'Subject'\n\t\tsubject = SQLFORM(db.subject, fields=['name'])\n\t\tsubject.elements(_type='submit')[0]['_value'] = 'Create'\n\t\t\n\t\tif subject.process().accepted:\n\t\t\tresponse.flash = T(\n                                    '{0} {1} {2}'\n                                    .format('New', title.lower(), 'inserted!')\n                                )\n\t\telif subject.errors:\n\t\t\tresponse.flash = T('Sorry, try again!')\n\t\telse:\n\t\t\tresponse.flah = T('Please, fill the field...')\n\t\t\t\n\t\treturn { 'form': subject, \n\t\t\t \t 'title': title }\n\t\n\telif args[0] == 'publication': # New publication\n\t\ttitle = 'Publication'\n\t\tpublication = SQLFORM(db.publication, fields=['title', 'sub_title'])\n\t\tpublication.vars.subject_id = args[1]\n\t\tif publication.process().accepted:\n\t\t\tresponse.flash = T(T('{0} {1} {2}'.format('New', title.lower(), 'inserted!')))\n\t\telif publication.errors:\n\t\t\tresponse.flash = T('Sorry, try again!')\n\t\telse:\n\t\t\tresponse.flahs = T('Please, fill the field...')\n\t\n\t\treturn { 'form': publication,\n\t\t\t\t 'title': title }\n\t\t\t\t \n\telif args[0] == 'quote': # New quote\n\t\ttitle = 'Quote'\n\t\tquote = SQLFORM(db.quote, fields=['content'])\n\t\tquote.vars.publication_id = args[1]\n\t\tif quote.process().accepted:\n\t\t\tresponse.flash = T(T('{0} {1} {2}'.format('New', title.lower(), 'inserted!')))\n\t\telif quote.errors:\n\t\t\tresponse.flash = T('Sorry, try again!')\n\t\telse:\n\t\t\tresponse.flahs = T('Please, fill the field...')\n\t\n\t\treturn { 'form': quote,\n\t\t\t\t 'title': title }\n\t\t\t\t \n\telif args[0] == 'column': # New column\n\t\ttitle = 'Topic'\n\t\tcolumn = SQLFORM(db.column, fields=['title'])\n\t\tcolumn.vars.publication_id = args[1]\n\t\tif column.process().accepted:\n\t\t\tresponse.flash = T(T('{0} {1} {2}'.format('New', title.lower(), 'inserted!')))\n\t\telif column.errors:\n\t\t\tresponse.flash = T('Sorry, try again!')\n\t\telse:\n\t\t\tresponse.flahs = T('Please, fill the field...')\n\t\n\t\treturn { 'form': column,\n\t\t\t\t 'title': title }\n\t\n\telif args[0] == 'line': # New line\n\t\ttitle = 'Line'\n\t\tline = FORM()\n\t\t\n\t\tfor publication in f.get_table(db, 'publication', id= args[1]):\n\t\t\tfor column in publication.column.select():\t\t\t\t\t\n\t\t\t\tline.append(LABEL('{0}{1}'.format(column.title, ':')))\n\t\t\t\tline.append(BR())\n\t\t\t\tline.append(INPUT(_name=column.id, _type='text', requires=[IS_NOT_EMPTY()]))\n\t\t\t\tline.append(BR())\n\t\t\n\t\tline.append(INPUT(_type='submit', _value=T('Create')))\n\t\t\n\t\tif line.process(formname='new_line').accepted:\n\t\t\tfor l in line.vars:\n\t\t\t\tdb.row.insert(content= line.vars[l], column_id= l)\n\t\t\t\n\t\t\tresponse.flash = T('New line was created!')\n\t\telif line.errors:\n\t\t\tresponse.flash = T('Try the fill inputs again!')\n\t\telse:\n\t\t\tresponse.flash = T('Please, fill all inputs...')\n\t\t\t\t\t\n\t\treturn { 'form': line,\n\t\t\t\t 'title': title }\n\t\t\t\t \n\telif args[0] == 'row': # New row (Remove this part)\n\t\ttitle = 'Row for {0}'.format(db.column(args[1])['title'])\n\t\trow = SQLFORM(db.row, fields=['content'])\n\t\trow.vars.column_id = args[1]\n\t\tif row.process().accepted:\n\t\t\tresponse.flash = T(T('{0} {1} {2}'.format('New', title.lower(), 'inserted!')))\n\t\telif row.errors:\n\t\t\tresponse.flash = T('Sorry, try again!')\n\t\telse:\n\t\t\tresponse.flahs = T('Please, fill the field...')\n\t\n\t\treturn { 'form': row,\n\t\t\t\t 'title': title }\n\t\t\t \t \n@auth.requires_login()\ndef edit(): # Edit the subject\n\treturn {}\n\nresponse._vars=response._caller(new)\n"
p6
sS'snapshot'
p7
(dp8
S'exception'
p9
(dp10
S'__module__'
p11
S"'sqlite3'"
p12
sS'__getslice__'
p13
S"<method-wrapper '__getslice__' of OperationalError object>"
p14
sS'__str__'
p15
S"<method-wrapper '__str__' of OperationalError object>"
p16
sS'__reduce__'
p17
S'<built-in method __reduce__ of OperationalError object>'
p18
sS'__dict__'
p19
S'{}'
p20
sS'__sizeof__'
p21
S'<built-in method __sizeof__ of OperationalError object>'
p22
sS'__weakref__'
p23
S'None'
p24
sS'__init__'
p25
S"<method-wrapper '__init__' of OperationalError object>"
p26
sS'__setattr__'
p27
S"<method-wrapper '__setattr__' of OperationalError object>"
p28
sS'__reduce_ex__'
p29
S'<built-in method __reduce_ex__ of OperationalError object>'
p30
sS'__new__'
p31
S'<built-in method __new__ of type object>'
p32
sS'__format__'
p33
S'<built-in method __format__ of OperationalError object>'
p34
sS'__class__'
p35
S"<class 'sqlite3.OperationalError'>"
p36
sS'__doc__'
p37
S'None'
p38
sS'__getitem__'
p39
S"<method-wrapper '__getitem__' of OperationalError object>"
p40
sS'__setstate__'
p41
S'<built-in method __setstate__ of OperationalError object>'
p42
sS'__getattribute__'
p43
S"<method-wrapper '__getattribute__' of OperationalError object>"
p44
sS'args'
p45
S"('database is locked',)"
p46
sS'__subclasshook__'
p47
S'<built-in method __subclasshook__ of type object>'
p48
sS'__unicode__'
p49
S'<built-in method __unicode__ of OperationalError object>'
p50
sS'__delattr__'
p51
S"<method-wrapper '__delattr__' of OperationalError object>"
p52
sS'__repr__'
p53
S"<method-wrapper '__repr__' of OperationalError object>"
p54
sS'__hash__'
p55
S"<method-wrapper '__hash__' of OperationalError object>"
p56
ssS'evalue'
p57
S'database is locked'
p58
sS'request'
p59
ccopy_reg
_reconstructor
p60
(cgluon.html
BEAUTIFY
p61
c__builtin__
object
p62
NtRp63
(dp64
S'attributes'
p65
(dp66
sS'components'
p67
(lp68
g60
(cgluon.html
TABLE
p69
g62
NtRp70
(dp71
g65
(dp72
S'level'
p73
I5
ssS'parent'
p74
Nsg67
(lp75
g60
(cgluon.html
TR
p76
g62
NtRp77
(dp78
g65
(dp79
sg74
g70
sg67
(lp80
g60
(cgluon.html
TD
p81
g62
NtRp82
(dp83
g65
(dp84
S'_style'
p85
S'font-weight:bold;'
p86
ssg74
g77
sg67
(lp87
S'ajax'
p88
asbag60
(g81
g62
NtRp89
(dp90
g65
(dp91
S'_valign'
p92
S'top'
p93
ssg74
g77
sg67
(lp94
S':'
asbag60
(g81
g62
NtRp95
(dp96
g65
(dp97
sg74
g77
sg67
(lp98
g60
(g61
g62
NtRp99
(dp100
g65
(dp101
g73
I5
ssg74
g95
sg67
(lp102
S'False'
p103
asbasbasbag60
(g76
g62
NtRp104
(dp105
g65
(dp106
sg74
g70
sg67
(lp107
g60
(g81
g62
NtRp108
(dp109
g65
(dp110
g85
g86
ssg74
g104
sg67
(lp111
S'application'
p112
asbag60
(g81
g62
NtRp113
(dp114
g65
(dp115
g92
g93
ssg74
g104
sg67
(lp116
S':'
asbag60
(g81
g62
NtRp117
(dp118
g65
(dp119
sg74
g104
sg67
(lp120
g60
(g61
g62
NtRp121
(dp122
g65
(dp123
g73
I5
ssg74
g117
sg67
(lp124
S'synopsis'
p125
asbasbasbag60
(g76
g62
NtRp126
(dp127
g65
(dp128
sg74
g70
sg67
(lp129
g60
(g81
g62
NtRp130
(dp131
g65
(dp132
g85
g86
ssg74
g126
sg67
(lp133
g45
asbag60
(g81
g62
NtRp134
(dp135
g65
(dp136
g92
g93
ssg74
g126
sg67
(lp137
S':'
asbag60
(g81
g62
NtRp138
(dp139
g65
(dp140
sg74
g126
sg67
(lp141
g60
(g61
g62
NtRp142
(dp143
g65
(dp144
g73
I5
ssg74
g138
sg67
(lp145
g60
(g69
g62
NtRp146
(dp147
g65
(dp148
g73
I4
ssg74
Nsg67
(lp149
g60
(g76
g62
NtRp150
(dp151
g65
(dp152
sg74
g146
sg67
(lp153
g60
(g81
g62
NtRp154
(dp155
g65
(dp156
sg74
g150
sg67
(lp157
g60
(g61
g62
NtRp158
(dp159
g65
(dp160
g73
I4
ssg74
g154
sg67
(lp161
S'line'
p162
asbasbasbag60
(g76
g62
NtRp163
(dp164
g65
(dp165
sg74
g146
sg67
(lp166
g60
(g81
g62
NtRp167
(dp168
g65
(dp169
sg74
g163
sg67
(lp170
g60
(g61
g62
NtRp171
(dp172
g65
(dp173
g73
I4
ssg74
g167
sg67
(lp174
S'9'
asbasbasbasbasbasbasbag60
(g76
g62
NtRp175
(dp176
g65
(dp177
sg74
g70
sg67
(lp178
g60
(g81
g62
NtRp179
(dp180
g65
(dp181
g85
g86
ssg74
g175
sg67
(lp182
S'body'
p183
asbag60
(g81
g62
NtRp184
(dp185
g65
(dp186
g92
g93
ssg74
g175
sg67
(lp187
S':'
asbag60
(g81
g62
NtRp188
(dp189
g65
(dp190
sg74
g175
sg67
(lp191
g60
(g61
g62
NtRp192
(dp193
g65
(dp194
g73
I5
ssg74
g188
sg67
(lp195
S"<open file '<fdopen>', mode 'w+b' at 0x3453780>"
p196
asbasbasbag60
(g76
g62
NtRp197
(dp198
g65
(dp199
sg74
g70
sg67
(lp200
g60
(g81
g62
NtRp201
(dp202
g65
(dp203
g85
g86
ssg74
g197
sg67
(lp204
S'client'
p205
asbag60
(g81
g62
NtRp206
(dp207
g65
(dp208
g92
g93
ssg74
g197
sg67
(lp209
S':'
asbag60
(g81
g62
NtRp210
(dp211
g65
(dp212
sg74
g197
sg67
(lp213
g60
(g61
g62
NtRp214
(dp215
g65
(dp216
g73
I5
ssg74
g210
sg67
(lp217
S'127.0.0.1'
p218
asbasbasbag60
(g76
g62
NtRp219
(dp220
g65
(dp221
sg74
g70
sg67
(lp222
g60
(g81
g62
NtRp223
(dp224
g65
(dp225
g85
g86
ssg74
g219
sg67
(lp226
S'controller'
p227
asbag60
(g81
g62
NtRp228
(dp229
g65
(dp230
g92
g93
ssg74
g219
sg67
(lp231
S':'
asbag60
(g81
g62
NtRp232
(dp233
g65
(dp234
sg74
g219
sg67
(lp235
g60
(g61
g62
NtRp236
(dp237
g65
(dp238
g73
I5
ssg74
g232
sg67
(lp239
S'information'
p240
asbasbasbag60
(g76
g62
NtRp241
(dp242
g65
(dp243
sg74
g70
sg67
(lp244
g60
(g81
g62
NtRp245
(dp246
g65
(dp247
g85
g86
ssg74
g241
sg67
(lp248
S'cookies'
p249
asbag60
(g81
g62
NtRp250
(dp251
g65
(dp252
g92
g93
ssg74
g241
sg67
(lp253
S':'
asbag60
(g81
g62
NtRp254
(dp255
g65
(dp256
sg74
g241
sg67
(lp257
g60
(g61
g62
NtRp258
(dp259
g65
(dp260
g73
I5
ssg74
g254
sg67
(lp261
g60
(g69
g62
NtRp262
(dp263
g65
(dp264
g73
I4
ssg74
Nsg67
(lp265
g60
(g76
g62
NtRp266
(dp267
g65
(dp268
sg74
g262
sg67
(lp269
g60
(g81
g62
NtRp270
(dp271
g65
(dp272
g85
g86
ssg74
g266
sg67
(lp273
S'currency'
p274
asbag60
(g81
g62
NtRp275
(dp276
g65
(dp277
g92
g93
ssg74
g266
sg67
(lp278
S':'
asbag60
(g81
g62
NtRp279
(dp280
g65
(dp281
sg74
g266
sg67
(lp282
g60
(g61
g62
NtRp283
(dp284
g65
(dp285
g73
I4
ssg74
g279
sg67
(lp286
g60
(g69
g62
NtRp287
(dp288
g65
(dp289
g73
I3
ssg74
Nsg67
(lp290
g60
(g76
g62
NtRp291
(dp292
g65
(dp293
sg74
g287
sg67
(lp294
g60
(g81
g62
NtRp295
(dp296
g65
(dp297
g85
g86
ssg74
g291
sg67
(lp298
S'comment'
p299
asbag60
(g81
g62
NtRp300
(dp301
g65
(dp302
g92
g93
ssg74
g291
sg67
(lp303
S':'
asbag60
(g81
g62
NtRp304
(dp305
g65
(dp306
sg74
g291
sg67
(lp307
g60
(g61
g62
NtRp308
(dp309
g65
(dp310
g73
I3
ssg74
g304
sg67
(lp311
S''
asbasbasbag60
(g76
g62
NtRp312
(dp313
g65
(dp314
sg74
g287
sg67
(lp315
g60
(g81
g62
NtRp316
(dp317
g65
(dp318
g85
g86
ssg74
g312
sg67
(lp319
S'domain'
p320
asbag60
(g81
g62
NtRp321
(dp322
g65
(dp323
g92
g93
ssg74
g312
sg67
(lp324
S':'
asbag60
(g81
g62
NtRp325
(dp326
g65
(dp327
sg74
g312
sg67
(lp328
g60
(g61
g62
NtRp329
(dp330
g65
(dp331
g73
I3
ssg74
g325
sg67
(lp332
S''
asbasbasbag60
(g76
g62
NtRp333
(dp334
g65
(dp335
sg74
g287
sg67
(lp336
g60
(g81
g62
NtRp337
(dp338
g65
(dp339
g85
g86
ssg74
g333
sg67
(lp340
S'expires'
p341
asbag60
(g81
g62
NtRp342
(dp343
g65
(dp344
g92
g93
ssg74
g333
sg67
(lp345
S':'
asbag60
(g81
g62
NtRp346
(dp347
g65
(dp348
sg74
g333
sg67
(lp349
g60
(g61
g62
NtRp350
(dp351
g65
(dp352
g73
I3
ssg74
g346
sg67
(lp353
S''
asbasbasbag60
(g76
g62
NtRp354
(dp355
g65
(dp356
sg74
g287
sg67
(lp357
g60
(g81
g62
NtRp358
(dp359
g65
(dp360
g85
g86
ssg74
g354
sg67
(lp361
S'httponly'
p362
asbag60
(g81
g62
NtRp363
(dp364
g65
(dp365
g92
g93
ssg74
g354
sg67
(lp366
S':'
asbag60
(g81
g62
NtRp367
(dp368
g65
(dp369
sg74
g354
sg67
(lp370
g60
(g61
g62
NtRp371
(dp372
g65
(dp373
g73
I3
ssg74
g367
sg67
(lp374
S''
asbasbasbag60
(g76
g62
NtRp375
(dp376
g65
(dp377
sg74
g287
sg67
(lp378
g60
(g81
g62
NtRp379
(dp380
g65
(dp381
g85
g86
ssg74
g375
sg67
(lp382
S'max-age'
p383
asbag60
(g81
g62
NtRp384
(dp385
g65
(dp386
g92
g93
ssg74
g375
sg67
(lp387
S':'
asbag60
(g81
g62
NtRp388
(dp389
g65
(dp390
sg74
g375
sg67
(lp391
g60
(g61
g62
NtRp392
(dp393
g65
(dp394
g73
I3
ssg74
g388
sg67
(lp395
S''
asbasbasbag60
(g76
g62
NtRp396
(dp397
g65
(dp398
sg74
g287
sg67
(lp399
g60
(g81
g62
NtRp400
(dp401
g65
(dp402
g85
g86
ssg74
g396
sg67
(lp403
S'path'
p404
asbag60
(g81
g62
NtRp405
(dp406
g65
(dp407
g92
g93
ssg74
g396
sg67
(lp408
S':'
asbag60
(g81
g62
NtRp409
(dp410
g65
(dp411
sg74
g396
sg67
(lp412
g60
(g61
g62
NtRp413
(dp414
g65
(dp415
g73
I3
ssg74
g409
sg67
(lp416
S''
asbasbasbag60
(g76
g62
NtRp417
(dp418
g65
(dp419
sg74
g287
sg67
(lp420
g60
(g81
g62
NtRp421
(dp422
g65
(dp423
g85
g86
ssg74
g417
sg67
(lp424
S'secure'
p425
asbag60
(g81
g62
NtRp426
(dp427
g65
(dp428
g92
g93
ssg74
g417
sg67
(lp429
S':'
asbag60
(g81
g62
NtRp430
(dp431
g65
(dp432
sg74
g417
sg67
(lp433
g60
(g61
g62
NtRp434
(dp435
g65
(dp436
g73
I3
ssg74
g430
sg67
(lp437
S''
asbasbasbag60
(g76
g62
NtRp438
(dp439
g65
(dp440
sg74
g287
sg67
(lp441
g60
(g81
g62
NtRp442
(dp443
g65
(dp444
g85
g86
ssg74
g438
sg67
(lp445
S'version'
p446
asbag60
(g81
g62
NtRp447
(dp448
g65
(dp449
g92
g93
ssg74
g438
sg67
(lp450
S':'
asbag60
(g81
g62
NtRp451
(dp452
g65
(dp453
sg74
g438
sg67
(lp454
g60
(g61
g62
NtRp455
(dp456
g65
(dp457
g73
I3
ssg74
g451
sg67
(lp458
S''
asbasbasbasbasbasbasbag60
(g76
g62
NtRp459
(dp460
g65
(dp461
sg74
g262
sg67
(lp462
g60
(g81
g62
NtRp463
(dp464
g65
(dp465
g85
g86
ssg74
g459
sg67
(lp466
S'session_id_synopsis'
p467
asbag60
(g81
g62
NtRp468
(dp469
g65
(dp470
g92
g93
ssg74
g459
sg67
(lp471
S':'
asbag60
(g81
g62
NtRp472
(dp473
g65
(dp474
sg74
g459
sg67
(lp475
g60
(g61
g62
NtRp476
(dp477
g65
(dp478
g73
I4
ssg74
g472
sg67
(lp479
g60
(g69
g62
NtRp480
(dp481
g65
(dp482
g73
I3
ssg74
Nsg67
(lp483
g60
(g76
g62
NtRp484
(dp485
g65
(dp486
sg74
g480
sg67
(lp487
g60
(g81
g62
NtRp488
(dp489
g65
(dp490
g85
g86
ssg74
g484
sg67
(lp491
g299
asbag60
(g81
g62
NtRp492
(dp493
g65
(dp494
g92
g93
ssg74
g484
sg67
(lp495
S':'
asbag60
(g81
g62
NtRp496
(dp497
g65
(dp498
sg74
g484
sg67
(lp499
g60
(g61
g62
NtRp500
(dp501
g65
(dp502
g73
I3
ssg74
g496
sg67
(lp503
S''
asbasbasbag60
(g76
g62
NtRp504
(dp505
g65
(dp506
sg74
g480
sg67
(lp507
g60
(g81
g62
NtRp508
(dp509
g65
(dp510
g85
g86
ssg74
g504
sg67
(lp511
g320
asbag60
(g81
g62
NtRp512
(dp513
g65
(dp514
g92
g93
ssg74
g504
sg67
(lp515
S':'
asbag60
(g81
g62
NtRp516
(dp517
g65
(dp518
sg74
g504
sg67
(lp519
g60
(g61
g62
NtRp520
(dp521
g65
(dp522
g73
I3
ssg74
g516
sg67
(lp523
S''
asbasbasbag60
(g76
g62
NtRp524
(dp525
g65
(dp526
sg74
g480
sg67
(lp527
g60
(g81
g62
NtRp528
(dp529
g65
(dp530
g85
g86
ssg74
g524
sg67
(lp531
g341
asbag60
(g81
g62
NtRp532
(dp533
g65
(dp534
g92
g93
ssg74
g524
sg67
(lp535
S':'
asbag60
(g81
g62
NtRp536
(dp537
g65
(dp538
sg74
g524
sg67
(lp539
g60
(g61
g62
NtRp540
(dp541
g65
(dp542
g73
I3
ssg74
g536
sg67
(lp543
S''
asbasbasbag60
(g76
g62
NtRp544
(dp545
g65
(dp546
sg74
g480
sg67
(lp547
g60
(g81
g62
NtRp548
(dp549
g65
(dp550
g85
g86
ssg74
g544
sg67
(lp551
g362
asbag60
(g81
g62
NtRp552
(dp553
g65
(dp554
g92
g93
ssg74
g544
sg67
(lp555
S':'
asbag60
(g81
g62
NtRp556
(dp557
g65
(dp558
sg74
g544
sg67
(lp559
g60
(g61
g62
NtRp560
(dp561
g65
(dp562
g73
I3
ssg74
g556
sg67
(lp563
S''
asbasbasbag60
(g76
g62
NtRp564
(dp565
g65
(dp566
sg74
g480
sg67
(lp567
g60
(g81
g62
NtRp568
(dp569
g65
(dp570
g85
g86
ssg74
g564
sg67
(lp571
g383
asbag60
(g81
g62
NtRp572
(dp573
g65
(dp574
g92
g93
ssg74
g564
sg67
(lp575
S':'
asbag60
(g81
g62
NtRp576
(dp577
g65
(dp578
sg74
g564
sg67
(lp579
g60
(g61
g62
NtRp580
(dp581
g65
(dp582
g73
I3
ssg74
g576
sg67
(lp583
S''
asbasbasbag60
(g76
g62
NtRp584
(dp585
g65
(dp586
sg74
g480
sg67
(lp587
g60
(g81
g62
NtRp588
(dp589
g65
(dp590
g85
g86
ssg74
g584
sg67
(lp591
g404
asbag60
(g81
g62
NtRp592
(dp593
g65
(dp594
g92
g93
ssg74
g584
sg67
(lp595
S':'
asbag60
(g81
g62
NtRp596
(dp597
g65
(dp598
sg74
g584
sg67
(lp599
g60
(g61
g62
NtRp600
(dp601
g65
(dp602
g73
I3
ssg74
g596
sg67
(lp603
S''
asbasbasbag60
(g76
g62
NtRp604
(dp605
g65
(dp606
sg74
g480
sg67
(lp607
g60
(g81
g62
NtRp608
(dp609
g65
(dp610
g85
g86
ssg74
g604
sg67
(lp611
g425
asbag60
(g81
g62
NtRp612
(dp613
g65
(dp614
g92
g93
ssg74
g604
sg67
(lp615
S':'
asbag60
(g81
g62
NtRp616
(dp617
g65
(dp618
sg74
g604
sg67
(lp619
g60
(g61
g62
NtRp620
(dp621
g65
(dp622
g73
I3
ssg74
g616
sg67
(lp623
S''
asbasbasbag60
(g76
g62
NtRp624
(dp625
g65
(dp626
sg74
g480
sg67
(lp627
g60
(g81
g62
NtRp628
(dp629
g65
(dp630
g85
g86
ssg74
g624
sg67
(lp631
g446
asbag60
(g81
g62
NtRp632
(dp633
g65
(dp634
g92
g93
ssg74
g624
sg67
(lp635
S':'
asbag60
(g81
g62
NtRp636
(dp637
g65
(dp638
sg74
g624
sg67
(lp639
g60
(g61
g62
NtRp640
(dp641
g65
(dp642
g73
I3
ssg74
g636
sg67
(lp643
S''
asbasbasbasbasbasbasbasbasbasbasbag60
(g76
g62
NtRp644
(dp645
g65
(dp646
sg74
g70
sg67
(lp647
g60
(g81
g62
NtRp648
(dp649
g65
(dp650
g85
g86
ssg74
g644
sg67
(lp651
S'env'
p652
asbag60
(g81
g62
NtRp653
(dp654
g65
(dp655
g92
g93
ssg74
g644
sg67
(lp656
S':'
asbag60
(g81
g62
NtRp657
(dp658
g65
(dp659
sg74
g644
sg67
(lp660
g60
(g61
g62
NtRp661
(dp662
g65
(dp663
g73
I5
ssg74
g657
sg67
(lp664
g60
(g69
g62
NtRp665
(dp666
g65
(dp667
g73
I4
ssg74
Nsg67
(lp668
g60
(g76
g62
NtRp669
(dp670
g65
(dp671
sg74
g665
sg67
(lp672
g60
(g81
g62
NtRp673
(dp674
g65
(dp675
g85
g86
ssg74
g669
sg67
(lp676
S'app_folders'
p677
asbag60
(g81
g62
NtRp678
(dp679
g65
(dp680
g92
g93
ssg74
g669
sg67
(lp681
S':'
asbag60
(g81
g62
NtRp682
(dp683
g65
(dp684
sg74
g669
sg67
(lp685
g60
(g61
g62
NtRp686
(dp687
g65
(dp688
g73
I4
ssg74
g682
sg67
(lp689
S"set(['/home/kaique/Projects/web2py/applications/synopsis/'])"
p690
asbasbasbag60
(g76
g62
NtRp691
(dp692
g65
(dp693
sg74
g665
sg67
(lp694
g60
(g81
g62
NtRp695
(dp696
g65
(dp697
g85
g86
ssg74
g691
sg67
(lp698
S'applications_parent'
p699
asbag60
(g81
g62
NtRp700
(dp701
g65
(dp702
g92
g93
ssg74
g691
sg67
(lp703
S':'
asbag60
(g81
g62
NtRp704
(dp705
g65
(dp706
sg74
g691
sg67
(lp707
g60
(g61
g62
NtRp708
(dp709
g65
(dp710
g73
I4
ssg74
g704
sg67
(lp711
S'/home/kaique/Projects/web2py'
p712
asbasbasbag60
(g76
g62
NtRp713
(dp714
g65
(dp715
sg74
g665
sg67
(lp716
g60
(g81
g62
NtRp717
(dp718
g65
(dp719
g85
g86
ssg74
g713
sg67
(lp720
S'cmd_args'
p721
asbag60
(g81
g62
NtRp722
(dp723
g65
(dp724
g92
g93
ssg74
g713
sg67
(lp725
S':'
asbag60
(g81
g62
NtRp726
(dp727
g65
(dp728
sg74
g713
sg67
(lp729
g60
(g61
g62
NtRp730
(dp731
g65
(dp732
g73
I4
ssg74
g726
sg67
(lp733
g60
(g69
g62
NtRp734
(dp735
g65
(dp736
g73
I3
ssg74
Nsg67
(lp737
sbasbasbasbag60
(g76
g62
NtRp738
(dp739
g65
(dp740
sg74
g665
sg67
(lp741
g60
(g81
g62
NtRp742
(dp743
g65
(dp744
g85
g86
ssg74
g738
sg67
(lp745
S'cmd_options'
p746
asbag60
(g81
g62
NtRp747
(dp748
g65
(dp749
g92
g93
ssg74
g738
sg67
(lp750
S':'
asbag60
(g81
g62
NtRp751
(dp752
g65
(dp753
sg74
g738
sg67
(lp754
g60
(g61
g62
NtRp755
(dp756
g65
(dp757
g73
I4
ssg74
g751
sg67
(lp758
S"<Values at 0x316d998: {'verbose': False, 'ip': '127.0.0.1', 'shutdown_timeout': 5, 'taskbar': False, 'nocron': False, 'pid_filename': 'httpserver.pid', 'maxthreads': None, 'softcron': False, 'server_name': 'kaique-Pine-Trail-M', 'bpython': False, 'nogui': False, 'port': 8000, 'extcron': False, 'debuglevel': 30, 'test': None, 'folder': '/home/kaique/Projects/web2py', 'config': '', 'import_models': False, 'winservice': '', 'shell': None, 'run': '', 'log_filename': 'httpserver.log', 'args': [''], 'ssl_ca_certificate': None, 'scheduler': None, 'profiler_filename': None, 'ssl_private_key': '', 'password': 'dev', 'request_queue_size': 5, 'ssl_certificate': '', 'cronjob': False, 'plain': False, 'quiet': False, 'interfaces': None, 'minthreads': None, 'timeout': 10, 'numthreads': None, 'nobanner': False}>"
p759
asbasbasbag60
(g76
g62
NtRp760
(dp761
g65
(dp762
sg74
g665
sg67
(lp763
g60
(g81
g62
NtRp764
(dp765
g65
(dp766
g85
g86
ssg74
g760
sg67
(lp767
S'content_length'
p768
asbag60
(g81
g62
NtRp769
(dp770
g65
(dp771
g92
g93
ssg74
g760
sg67
(lp772
S':'
asbag60
(g81
g62
NtRp773
(dp774
g65
(dp775
sg74
g760
sg67
(lp776
g60
(g61
g62
NtRp777
(dp778
g65
(dp779
g73
I4
ssg74
g773
sg67
(lp780
S'712'
p781
asbasbasbag60
(g76
g62
NtRp782
(dp783
g65
(dp784
sg74
g665
sg67
(lp785
g60
(g81
g62
NtRp786
(dp787
g65
(dp788
g85
g86
ssg74
g782
sg67
(lp789
S'content_type'
p790
asbag60
(g81
g62
NtRp791
(dp792
g65
(dp793
g92
g93
ssg74
g782
sg67
(lp794
S':'
asbag60
(g81
g62
NtRp795
(dp796
g65
(dp797
sg74
g782
sg67
(lp798
g60
(g61
g62
NtRp799
(dp800
g65
(dp801
g73
I4
ssg74
g795
sg67
(lp802
S'multipart/form-data; boundary=---------------------------6219590181961326626310170828'
p803
asbasbasbag60
(g76
g62
NtRp804
(dp805
g65
(dp806
sg74
g665
sg67
(lp807
g60
(g81
g62
NtRp808
(dp809
g65
(dp810
g85
g86
ssg74
g804
sg67
(lp811
S'db_sessions'
p812
asbag60
(g81
g62
NtRp813
(dp814
g65
(dp815
g92
g93
ssg74
g804
sg67
(lp816
S':'
asbag60
(g81
g62
NtRp817
(dp818
g65
(dp819
sg74
g804
sg67
(lp820
g60
(g61
g62
NtRp821
(dp822
g65
(dp823
g73
I4
ssg74
g817
sg67
(lp824
S'set([])'
p825
asbasbasbag60
(g76
g62
NtRp826
(dp827
g65
(dp828
sg74
g665
sg67
(lp829
g60
(g81
g62
NtRp830
(dp831
g65
(dp832
g85
g86
ssg74
g826
sg67
(lp833
S'debugging'
p834
asbag60
(g81
g62
NtRp835
(dp836
g65
(dp837
g92
g93
ssg74
g826
sg67
(lp838
S':'
asbag60
(g81
g62
NtRp839
(dp840
g65
(dp841
sg74
g826
sg67
(lp842
g60
(g61
g62
NtRp843
(dp844
g65
(dp845
g73
I4
ssg74
g839
sg67
(lp846
g103
asbasbasbag60
(g76
g62
NtRp847
(dp848
g65
(dp849
sg74
g665
sg67
(lp850
g60
(g81
g62
NtRp851
(dp852
g65
(dp853
g85
g86
ssg74
g847
sg67
(lp854
S'gluon_parent'
p855
asbag60
(g81
g62
NtRp856
(dp857
g65
(dp858
g92
g93
ssg74
g847
sg67
(lp859
S':'
asbag60
(g81
g62
NtRp860
(dp861
g65
(dp862
sg74
g847
sg67
(lp863
g60
(g61
g62
NtRp864
(dp865
g65
(dp866
g73
I4
ssg74
g860
sg67
(lp867
S'/home/kaique/Projects/web2py'
p868
asbasbasbag60
(g76
g62
NtRp869
(dp870
g65
(dp871
sg74
g665
sg67
(lp872
g60
(g81
g62
NtRp873
(dp874
g65
(dp875
g85
g86
ssg74
g869
sg67
(lp876
S'http_accept'
p877
asbag60
(g81
g62
NtRp878
(dp879
g65
(dp880
g92
g93
ssg74
g869
sg67
(lp881
S':'
asbag60
(g81
g62
NtRp882
(dp883
g65
(dp884
sg74
g869
sg67
(lp885
g60
(g61
g62
NtRp886
(dp887
g65
(dp888
g73
I4
ssg74
g882
sg67
(lp889
S'text/html,application/xhtml+xml,application/xml;q=0.9,*/*;q=0.8'
p890
asbasbasbag60
(g76
g62
NtRp891
(dp892
g65
(dp893
sg74
g665
sg67
(lp894
g60
(g81
g62
NtRp895
(dp896
g65
(dp897
g85
g86
ssg74
g891
sg67
(lp898
S'http_accept_charset'
p899
asbag60
(g81
g62
NtRp900
(dp901
g65
(dp902
g92
g93
ssg74
g891
sg67
(lp903
S':'
asbag60
(g81
g62
NtRp904
(dp905
g65
(dp906
sg74
g891
sg67
(lp907
g60
(g61
g62
NtRp908
(dp909
g65
(dp910
g73
I4
ssg74
g904
sg67
(lp911
S'ISO-8859-1,utf-8;q=0.7,*;q=0.7'
p912
asbasbasbag60
(g76
g62
NtRp913
(dp914
g65
(dp915
sg74
g665
sg67
(lp916
g60
(g81
g62
NtRp917
(dp918
g65
(dp919
g85
g86
ssg74
g913
sg67
(lp920
S'http_accept_encoding'
p921
asbag60
(g81
g62
NtRp922
(dp923
g65
(dp924
g92
g93
ssg74
g913
sg67
(lp925
S':'
asbag60
(g81
g62
NtRp926
(dp927
g65
(dp928
sg74
g913
sg67
(lp929
g60
(g61
g62
NtRp930
(dp931
g65
(dp932
g73
I4
ssg74
g926
sg67
(lp933
S'gzip, deflate'
p934
asbasbasbag60
(g76
g62
NtRp935
(dp936
g65
(dp937
sg74
g665
sg67
(lp938
g60
(g81
g62
NtRp939
(dp940
g65
(dp941
g85
g86
ssg74
g935
sg67
(lp942
S'http_accept_language'
p943
asbag60
(g81
g62
NtRp944
(dp945
g65
(dp946
g92
g93
ssg74
g935
sg67
(lp947
S':'
asbag60
(g81
g62
NtRp948
(dp949
g65
(dp950
sg74
g935
sg67
(lp951
g60
(g61
g62
NtRp952
(dp953
g65
(dp954
g73
I4
ssg74
g948
sg67
(lp955
S'pt-br,pt;q=0.8,en-us;q=0.5,en;q=0.3'
p956
asbasbasbag60
(g76
g62
NtRp957
(dp958
g65
(dp959
sg74
g665
sg67
(lp960
g60
(g81
g62
NtRp961
(dp962
g65
(dp963
g85
g86
ssg74
g957
sg67
(lp964
S'http_connection'
p965
asbag60
(g81
g62
NtRp966
(dp967
g65
(dp968
g92
g93
ssg74
g957
sg67
(lp969
S':'
asbag60
(g81
g62
NtRp970
(dp971
g65
(dp972
sg74
g957
sg67
(lp973
g60
(g61
g62
NtRp974
(dp975
g65
(dp976
g73
I4
ssg74
g970
sg67
(lp977
S'keep-alive'
p978
asbasbasbag60
(g76
g62
NtRp979
(dp980
g65
(dp981
sg74
g665
sg67
(lp982
g60
(g81
g62
NtRp983
(dp984
g65
(dp985
g85
g86
ssg74
g979
sg67
(lp986
S'http_content_length'
p987
asbag60
(g81
g62
NtRp988
(dp989
g65
(dp990
g92
g93
ssg74
g979
sg67
(lp991
S':'
asbag60
(g81
g62
NtRp992
(dp993
g65
(dp994
sg74
g979
sg67
(lp995
g60
(g61
g62
NtRp996
(dp997
g65
(dp998
g73
I4
ssg74
g992
sg67
(lp999
g781
asbasbasbag60
(g76
g62
NtRp1000
(dp1001
g65
(dp1002
sg74
g665
sg67
(lp1003
g60
(g81
g62
NtRp1004
(dp1005
g65
(dp1006
g85
g86
ssg74
g1000
sg67
(lp1007
S'http_content_type'
p1008
asbag60
(g81
g62
NtRp1009
(dp1010
g65
(dp1011
g92
g93
ssg74
g1000
sg67
(lp1012
S':'
asbag60
(g81
g62
NtRp1013
(dp1014
g65
(dp1015
sg74
g1000
sg67
(lp1016
g60
(g61
g62
NtRp1017
(dp1018
g65
(dp1019
g73
I4
ssg74
g1013
sg67
(lp1020
g803
asbasbasbag60
(g76
g62
NtRp1021
(dp1022
g65
(dp1023
sg74
g665
sg67
(lp1024
g60
(g81
g62
NtRp1025
(dp1026
g65
(dp1027
g85
g86
ssg74
g1021
sg67
(lp1028
S'http_cookie'
p1029
asbag60
(g81
g62
NtRp1030
(dp1031
g65
(dp1032
g92
g93
ssg74
g1021
sg67
(lp1033
S':'
asbag60
(g81
g62
NtRp1034
(dp1035
g65
(dp1036
sg74
g1021
sg67
(lp1037
g60
(g61
g62
NtRp1038
(dp1039
g65
(dp1040
g73
I4
ssg74
g1034
sg67
(lp1041
S'currency=GBP; session_id_synopsis=127.0.0.1-939daf95-14ab-422d-8204-c5411c18373a'
p1042
asbasbasbag60
(g76
g62
NtRp1043
(dp1044
g65
(dp1045
sg74
g665
sg67
(lp1046
g60
(g81
g62
NtRp1047
(dp1048
g65
(dp1049
g85
g86
ssg74
g1043
sg67
(lp1050
S'http_host'
p1051
asbag60
(g81
g62
NtRp1052
(dp1053
g65
(dp1054
g92
g93
ssg74
g1043
sg67
(lp1055
S':'
asbag60
(g81
g62
NtRp1056
(dp1057
g65
(dp1058
sg74
g1043
sg67
(lp1059
g60
(g61
g62
NtRp1060
(dp1061
g65
(dp1062
g73
I4
ssg74
g1056
sg67
(lp1063
S'localhost:8000'
p1064
asbasbasbag60
(g76
g62
NtRp1065
(dp1066
g65
(dp1067
sg74
g665
sg67
(lp1068
g60
(g81
g62
NtRp1069
(dp1070
g65
(dp1071
g85
g86
ssg74
g1065
sg67
(lp1072
S'http_referer'
p1073
asbag60
(g81
g62
NtRp1074
(dp1075
g65
(dp1076
g92
g93
ssg74
g1065
sg67
(lp1077
S':'
asbag60
(g81
g62
NtRp1078
(dp1079
g65
(dp1080
sg74
g1065
sg67
(lp1081
g60
(g61
g62
NtRp1082
(dp1083
g65
(dp1084
g73
I4
ssg74
g1078
sg67
(lp1085
S'http://localhost:8000/synopsis/information/new/line/9'
p1086
asbasbasbag60
(g76
g62
NtRp1087
(dp1088
g65
(dp1089
sg74
g665
sg67
(lp1090
g60
(g81
g62
NtRp1091
(dp1092
g65
(dp1093
g85
g86
ssg74
g1087
sg67
(lp1094
S'http_user_agent'
p1095
asbag60
(g81
g62
NtRp1096
(dp1097
g65
(dp1098
g92
g93
ssg74
g1087
sg67
(lp1099
S':'
asbag60
(g81
g62
NtRp1100
(dp1101
g65
(dp1102
sg74
g1087
sg67
(lp1103
g60
(g61
g62
NtRp1104
(dp1105
g65
(dp1106
g73
I4
ssg74
g1100
sg67
(lp1107
S'Mozilla/5.0 (Ubuntu; X11; Linux x86_64; rv:9.0.1) Gecko/20100101 Firefox/9.0.1'
p1108
asbasbasbag60
(g76
g62
NtRp1109
(dp1110
g65
(dp1111
sg74
g665
sg67
(lp1112
g60
(g81
g62
NtRp1113
(dp1114
g65
(dp1115
g85
g86
ssg74
g1109
sg67
(lp1116
S'is_jython'
p1117
asbag60
(g81
g62
NtRp1118
(dp1119
g65
(dp1120
g92
g93
ssg74
g1109
sg67
(lp1121
S':'
asbag60
(g81
g62
NtRp1122
(dp1123
g65
(dp1124
sg74
g1109
sg67
(lp1125
g60
(g61
g62
NtRp1126
(dp1127
g65
(dp1128
g73
I4
ssg74
g1122
sg67
(lp1129
g103
asbasbasbag60
(g76
g62
NtRp1130
(dp1131
g65
(dp1132
sg74
g665
sg67
(lp1133
g60
(g81
g62
NtRp1134
(dp1135
g65
(dp1136
g85
g86
ssg74
g1130
sg67
(lp1137
S'path_info'
p1138
asbag60
(g81
g62
NtRp1139
(dp1140
g65
(dp1141
g92
g93
ssg74
g1130
sg67
(lp1142
S':'
asbag60
(g81
g62
NtRp1143
(dp1144
g65
(dp1145
sg74
g1130
sg67
(lp1146
g60
(g61
g62
NtRp1147
(dp1148
g65
(dp1149
g73
I4
ssg74
g1143
sg67
(lp1150
S'/synopsis/information/new/line/9'
p1151
asbasbasbag60
(g76
g62
NtRp1152
(dp1153
g65
(dp1154
sg74
g665
sg67
(lp1155
g60
(g81
g62
NtRp1156
(dp1157
g65
(dp1158
g85
g86
ssg74
g1152
sg67
(lp1159
S'query_string'
p1160
asbag60
(g81
g62
NtRp1161
(dp1162
g65
(dp1163
g92
g93
ssg74
g1152
sg67
(lp1164
S':'
asbag60
(g81
g62
NtRp1165
(dp1166
g65
(dp1167
sg74
g1152
sg67
(lp1168
g60
(g61
g62
NtRp1169
(dp1170
g65
(dp1171
g73
I4
ssg74
g1165
sg67
(lp1172
S''
asbasbasbag60
(g76
g62
NtRp1173
(dp1174
g65
(dp1175
sg74
g665
sg67
(lp1176
g60
(g81
g62
NtRp1177
(dp1178
g65
(dp1179
g85
g86
ssg74
g1173
sg67
(lp1180
S'remote_addr'
p1181
asbag60
(g81
g62
NtRp1182
(dp1183
g65
(dp1184
g92
g93
ssg74
g1173
sg67
(lp1185
S':'
asbag60
(g81
g62
NtRp1186
(dp1187
g65
(dp1188
sg74
g1173
sg67
(lp1189
g60
(g61
g62
NtRp1190
(dp1191
g65
(dp1192
g73
I4
ssg74
g1186
sg67
(lp1193
g218
asbasbasbag60
(g76
g62
NtRp1194
(dp1195
g65
(dp1196
sg74
g665
sg67
(lp1197
g60
(g81
g62
NtRp1198
(dp1199
g65
(dp1200
g85
g86
ssg74
g1194
sg67
(lp1201
S'remote_port'
p1202
asbag60
(g81
g62
NtRp1203
(dp1204
g65
(dp1205
g92
g93
ssg74
g1194
sg67
(lp1206
S':'
asbag60
(g81
g62
NtRp1207
(dp1208
g65
(dp1209
sg74
g1194
sg67
(lp1210
g60
(g61
g62
NtRp1211
(dp1212
g65
(dp1213
g73
I4
ssg74
g1207
sg67
(lp1214
S'42101'
p1215
asbasbasbag60
(g76
g62
NtRp1216
(dp1217
g65
(dp1218
sg74
g665
sg67
(lp1219
g60
(g81
g62
NtRp1220
(dp1221
g65
(dp1222
g85
g86
ssg74
g1216
sg67
(lp1223
S'request_method'
p1224
asbag60
(g81
g62
NtRp1225
(dp1226
g65
(dp1227
g92
g93
ssg74
g1216
sg67
(lp1228
S':'
asbag60
(g81
g62
NtRp1229
(dp1230
g65
(dp1231
sg74
g1216
sg67
(lp1232
g60
(g61
g62
NtRp1233
(dp1234
g65
(dp1235
g73
I4
ssg74
g1229
sg67
(lp1236
S'POST'
p1237
asbasbasbag60
(g76
g62
NtRp1238
(dp1239
g65
(dp1240
sg74
g665
sg67
(lp1241
g60
(g81
g62
NtRp1242
(dp1243
g65
(dp1244
g85
g86
ssg74
g1238
sg67
(lp1245
S'script_name'
p1246
asbag60
(g81
g62
NtRp1247
(dp1248
g65
(dp1249
g92
g93
ssg74
g1238
sg67
(lp1250
S':'
asbag60
(g81
g62
NtRp1251
(dp1252
g65
(dp1253
sg74
g1238
sg67
(lp1254
g60
(g61
g62
NtRp1255
(dp1256
g65
(dp1257
g73
I4
ssg74
g1251
sg67
(lp1258
S''
asbasbasbag60
(g76
g62
NtRp1259
(dp1260
g65
(dp1261
sg74
g665
sg67
(lp1262
g60
(g81
g62
NtRp1263
(dp1264
g65
(dp1265
g85
g86
ssg74
g1259
sg67
(lp1266
S'server_name'
p1267
asbag60
(g81
g62
NtRp1268
(dp1269
g65
(dp1270
g92
g93
ssg74
g1259
sg67
(lp1271
S':'
asbag60
(g81
g62
NtRp1272
(dp1273
g65
(dp1274
sg74
g1259
sg67
(lp1275
g60
(g61
g62
NtRp1276
(dp1277
g65
(dp1278
g73
I4
ssg74
g1272
sg67
(lp1279
S'kaique-Pine-Trail-M'
p1280
asbasbasbag60
(g76
g62
NtRp1281
(dp1282
g65
(dp1283
sg74
g665
sg67
(lp1284
g60
(g81
g62
NtRp1285
(dp1286
g65
(dp1287
g85
g86
ssg74
g1281
sg67
(lp1288
S'server_port'
p1289
asbag60
(g81
g62
NtRp1290
(dp1291
g65
(dp1292
g92
g93
ssg74
g1281
sg67
(lp1293
S':'
asbag60
(g81
g62
NtRp1294
(dp1295
g65
(dp1296
sg74
g1281
sg67
(lp1297
g60
(g61
g62
NtRp1298
(dp1299
g65
(dp1300
g73
I4
ssg74
g1294
sg67
(lp1301
S'8000'
p1302
asbasbasbag60
(g76
g62
NtRp1303
(dp1304
g65
(dp1305
sg74
g665
sg67
(lp1306
g60
(g81
g62
NtRp1307
(dp1308
g65
(dp1309
g85
g86
ssg74
g1303
sg67
(lp1310
S'server_protocol'
p1311
asbag60
(g81
g62
NtRp1312
(dp1313
g65
(dp1314
g92
g93
ssg74
g1303
sg67
(lp1315
S':'
asbag60
(g81
g62
NtRp1316
(dp1317
g65
(dp1318
sg74
g1303
sg67
(lp1319
g60
(g61
g62
NtRp1320
(dp1321
g65
(dp1322
g73
I4
ssg74
g1316
sg67
(lp1323
S'HTTP/1.1'
p1324
asbasbasbag60
(g76
g62
NtRp1325
(dp1326
g65
(dp1327
sg74
g665
sg67
(lp1328
g60
(g81
g62
NtRp1329
(dp1330
g65
(dp1331
g85
g86
ssg74
g1325
sg67
(lp1332
S'server_software'
p1333
asbag60
(g81
g62
NtRp1334
(dp1335
g65
(dp1336
g92
g93
ssg74
g1325
sg67
(lp1337
S':'
asbag60
(g81
g62
NtRp1338
(dp1339
g65
(dp1340
sg74
g1325
sg67
(lp1341
g60
(g61
g62
NtRp1342
(dp1343
g65
(dp1344
g73
I4
ssg74
g1338
sg67
(lp1345
S'Rocket 1.2.4'
p1346
asbasbasbag60
(g76
g62
NtRp1347
(dp1348
g65
(dp1349
sg74
g665
sg67
(lp1350
g60
(g81
g62
NtRp1351
(dp1352
g65
(dp1353
g85
g86
ssg74
g1347
sg67
(lp1354
S'web2py_crontype'
p1355
asbag60
(g81
g62
NtRp1356
(dp1357
g65
(dp1358
g92
g93
ssg74
g1347
sg67
(lp1359
S':'
asbag60
(g81
g62
NtRp1360
(dp1361
g65
(dp1362
sg74
g1347
sg67
(lp1363
g60
(g61
g62
NtRp1364
(dp1365
g65
(dp1366
g73
I4
ssg74
g1360
sg67
(lp1367
S'hard'
p1368
asbasbasbag60
(g76
g62
NtRp1369
(dp1370
g65
(dp1371
sg74
g665
sg67
(lp1372
g60
(g81
g62
NtRp1373
(dp1374
g65
(dp1375
g85
g86
ssg74
g1369
sg67
(lp1376
S'web2py_path'
p1377
asbag60
(g81
g62
NtRp1378
(dp1379
g65
(dp1380
g92
g93
ssg74
g1369
sg67
(lp1381
S':'
asbag60
(g81
g62
NtRp1382
(dp1383
g65
(dp1384
sg74
g1369
sg67
(lp1385
g60
(g61
g62
NtRp1386
(dp1387
g65
(dp1388
g73
I4
ssg74
g1382
sg67
(lp1389
g712
asbasbasbag60
(g76
g62
NtRp1390
(dp1391
g65
(dp1392
sg74
g665
sg67
(lp1393
g60
(g81
g62
NtRp1394
(dp1395
g65
(dp1396
g85
g86
ssg74
g1390
sg67
(lp1397
S'web2py_version'
p1398
asbag60
(g81
g62
NtRp1399
(dp1400
g65
(dp1401
g92
g93
ssg74
g1390
sg67
(lp1402
S':'
asbag60
(g81
g62
NtRp1403
(dp1404
g65
(dp1405
sg74
g1390
sg67
(lp1406
g60
(g61
g62
NtRp1407
(dp1408
g65
(dp1409
g73
I4
ssg74
g1403
sg67
(lp1410
g60
(g69
g62
NtRp1411
(dp1412
g65
(dp1413
g73
I3
ssg74
Nsg67
(lp1414
g60
(g76
g62
NtRp1415
(dp1416
g65
(dp1417
sg74
g1411
sg67
(lp1418
g60
(g81
g62
NtRp1419
(dp1420
g65
(dp1421
sg74
g1415
sg67
(lp1422
g60
(g61
g62
NtRp1423
(dp1424
g65
(dp1425
g73
I3
ssg74
g1419
sg67
(lp1426
S'1'
asbasbasbag60
(g76
g62
NtRp1427
(dp1428
g65
(dp1429
sg74
g1411
sg67
(lp1430
g60
(g81
g62
NtRp1431
(dp1432
g65
(dp1433
sg74
g1427
sg67
(lp1434
g60
(g61
g62
NtRp1435
(dp1436
g65
(dp1437
g73
I3
ssg74
g1431
sg67
(lp1438
S'99'
p1439
asbasbasbag60
(g76
g62
NtRp1440
(dp1441
g65
(dp1442
sg74
g1411
sg67
(lp1443
g60
(g81
g62
NtRp1444
(dp1445
g65
(dp1446
sg74
g1440
sg67
(lp1447
g60
(g61
g62
NtRp1448
(dp1449
g65
(dp1450
g73
I3
ssg74
g1444
sg67
(lp1451
S'2'
asbasbasbag60
(g76
g62
NtRp1452
(dp1453
g65
(dp1454
sg74
g1411
sg67
(lp1455
g60
(g81
g62
NtRp1456
(dp1457
g65
(dp1458
sg74
g1452
sg67
(lp1459
g60
(g61
g62
NtRp1460
(dp1461
g65
(dp1462
g73
I3
ssg74
g1456
sg67
(lp1463
S'datetime.datetime(2011, 9, 26, 6, 55, 33)'
p1464
asbasbasbag60
(g76
g62
NtRp1465
(dp1466
g65
(dp1467
sg74
g1411
sg67
(lp1468
g60
(g81
g62
NtRp1469
(dp1470
g65
(dp1471
sg74
g1465
sg67
(lp1472
g60
(g61
g62
NtRp1473
(dp1474
g65
(dp1475
g73
I3
ssg74
g1469
sg67
(lp1476
S'stable'
p1477
asbasbasbasbasbasbasbag60
(g76
g62
NtRp1478
(dp1479
g65
(dp1480
sg74
g665
sg67
(lp1481
g60
(g81
g62
NtRp1482
(dp1483
g65
(dp1484
g85
g86
ssg74
g1478
sg67
(lp1485
S'wsgi_errors'
p1486
asbag60
(g81
g62
NtRp1487
(dp1488
g65
(dp1489
g92
g93
ssg74
g1478
sg67
(lp1490
S':'
asbag60
(g81
g62
NtRp1491
(dp1492
g65
(dp1493
sg74
g1478
sg67
(lp1494
g60
(g61
g62
NtRp1495
(dp1496
g65
(dp1497
g73
I4
ssg74
g1491
sg67
(lp1498
S"<open file '<stderr>', mode 'w' at 0x7fbae51fa270>"
p1499
asbasbasbag60
(g76
g62
NtRp1500
(dp1501
g65
(dp1502
sg74
g665
sg67
(lp1503
g60
(g81
g62
NtRp1504
(dp1505
g65
(dp1506
g85
g86
ssg74
g1500
sg67
(lp1507
S'wsgi_file_wrapper'
p1508
asbag60
(g81
g62
NtRp1509
(dp1510
g65
(dp1511
g92
g93
ssg74
g1500
sg67
(lp1512
S':'
asbag60
(g81
g62
NtRp1513
(dp1514
g65
(dp1515
sg74
g1500
sg67
(lp1516
g60
(g61
g62
NtRp1517
(dp1518
g65
(dp1519
g73
I4
ssg74
g1513
sg67
(lp1520
S'<class wsgiref.util.FileWrapper at 0x3024ef0>'
p1521
asbasbasbag60
(g76
g62
NtRp1522
(dp1523
g65
(dp1524
sg74
g665
sg67
(lp1525
g60
(g81
g62
NtRp1526
(dp1527
g65
(dp1528
g85
g86
ssg74
g1522
sg67
(lp1529
S'wsgi_input'
p1530
asbag60
(g81
g62
NtRp1531
(dp1532
g65
(dp1533
g92
g93
ssg74
g1522
sg67
(lp1534
S':'
asbag60
(g81
g62
NtRp1535
(dp1536
g65
(dp1537
sg74
g1522
sg67
(lp1538
g60
(g61
g62
NtRp1539
(dp1540
g65
(dp1541
g73
I4
ssg74
g1535
sg67
(lp1542
S'<socket._fileobject object at 0x33330d0>'
p1543
asbasbasbag60
(g76
g62
NtRp1544
(dp1545
g65
(dp1546
sg74
g665
sg67
(lp1547
g60
(g81
g62
NtRp1548
(dp1549
g65
(dp1550
g85
g86
ssg74
g1544
sg67
(lp1551
S'wsgi_multiprocess'
p1552
asbag60
(g81
g62
NtRp1553
(dp1554
g65
(dp1555
g92
g93
ssg74
g1544
sg67
(lp1556
S':'
asbag60
(g81
g62
NtRp1557
(dp1558
g65
(dp1559
sg74
g1544
sg67
(lp1560
g60
(g61
g62
NtRp1561
(dp1562
g65
(dp1563
g73
I4
ssg74
g1557
sg67
(lp1564
g103
asbasbasbag60
(g76
g62
NtRp1565
(dp1566
g65
(dp1567
sg74
g665
sg67
(lp1568
g60
(g81
g62
NtRp1569
(dp1570
g65
(dp1571
g85
g86
ssg74
g1565
sg67
(lp1572
S'wsgi_multithread'
p1573
asbag60
(g81
g62
NtRp1574
(dp1575
g65
(dp1576
g92
g93
ssg74
g1565
sg67
(lp1577
S':'
asbag60
(g81
g62
NtRp1578
(dp1579
g65
(dp1580
sg74
g1565
sg67
(lp1581
g60
(g61
g62
NtRp1582
(dp1583
g65
(dp1584
g73
I4
ssg74
g1578
sg67
(lp1585
S'True'
p1586
asbasbasbag60
(g76
g62
NtRp1587
(dp1588
g65
(dp1589
sg74
g665
sg67
(lp1590
g60
(g81
g62
NtRp1591
(dp1592
g65
(dp1593
g85
g86
ssg74
g1587
sg67
(lp1594
S'wsgi_run_once'
p1595
asbag60
(g81
g62
NtRp1596
(dp1597
g65
(dp1598
g92
g93
ssg74
g1587
sg67
(lp1599
S':'
asbag60
(g81
g62
NtRp1600
(dp1601
g65
(dp1602
sg74
g1587
sg67
(lp1603
g60
(g61
g62
NtRp1604
(dp1605
g65
(dp1606
g73
I4
ssg74
g1600
sg67
(lp1607
g103
asbasbasbag60
(g76
g62
NtRp1608
(dp1609
g65
(dp1610
sg74
g665
sg67
(lp1611
g60
(g81
g62
NtRp1612
(dp1613
g65
(dp1614
g85
g86
ssg74
g1608
sg67
(lp1615
S'wsgi_url_scheme'
p1616
asbag60
(g81
g62
NtRp1617
(dp1618
g65
(dp1619
g92
g93
ssg74
g1608
sg67
(lp1620
S':'
asbag60
(g81
g62
NtRp1621
(dp1622
g65
(dp1623
sg74
g1608
sg67
(lp1624
g60
(g61
g62
NtRp1625
(dp1626
g65
(dp1627
g73
I4
ssg74
g1621
sg67
(lp1628
S'http'
p1629
asbasbasbag60
(g76
g62
NtRp1630
(dp1631
g65
(dp1632
sg74
g665
sg67
(lp1633
g60
(g81
g62
NtRp1634
(dp1635
g65
(dp1636
g85
g86
ssg74
g1630
sg67
(lp1637
S'wsgi_version'
p1638
asbag60
(g81
g62
NtRp1639
(dp1640
g65
(dp1641
g92
g93
ssg74
g1630
sg67
(lp1642
S':'
asbag60
(g81
g62
NtRp1643
(dp1644
g65
(dp1645
sg74
g1630
sg67
(lp1646
g60
(g61
g62
NtRp1647
(dp1648
g65
(dp1649
g73
I4
ssg74
g1643
sg67
(lp1650
g60
(g69
g62
NtRp1651
(dp1652
g65
(dp1653
g73
I3
ssg74
Nsg67
(lp1654
g60
(g76
g62
NtRp1655
(dp1656
g65
(dp1657
sg74
g1651
sg67
(lp1658
g60
(g81
g62
NtRp1659
(dp1660
g65
(dp1661
sg74
g1655
sg67
(lp1662
g60
(g61
g62
NtRp1663
(dp1664
g65
(dp1665
g73
I3
ssg74
g1659
sg67
(lp1666
S'1'
asbasbasbag60
(g76
g62
NtRp1667
(dp1668
g65
(dp1669
sg74
g1651
sg67
(lp1670
g60
(g81
g62
NtRp1671
(dp1672
g65
(dp1673
sg74
g1667
sg67
(lp1674
g60
(g61
g62
NtRp1675
(dp1676
g65
(dp1677
g73
I3
ssg74
g1671
sg67
(lp1678
S'0'
asbasbasbasbasbasbasbasbasbasbasbag60
(g76
g62
NtRp1679
(dp1680
g65
(dp1681
sg74
g70
sg67
(lp1682
g60
(g81
g62
NtRp1683
(dp1684
g65
(dp1685
g85
g86
ssg74
g1679
sg67
(lp1686
S'extension'
p1687
asbag60
(g81
g62
NtRp1688
(dp1689
g65
(dp1690
g92
g93
ssg74
g1679
sg67
(lp1691
S':'
asbag60
(g81
g62
NtRp1692
(dp1693
g65
(dp1694
sg74
g1679
sg67
(lp1695
g60
(g61
g62
NtRp1696
(dp1697
g65
(dp1698
g73
I5
ssg74
g1692
sg67
(lp1699
S'html'
p1700
asbasbasbag60
(g76
g62
NtRp1701
(dp1702
g65
(dp1703
sg74
g70
sg67
(lp1704
g60
(g81
g62
NtRp1705
(dp1706
g65
(dp1707
g85
g86
ssg74
g1701
sg67
(lp1708
S'folder'
p1709
asbag60
(g81
g62
NtRp1710
(dp1711
g65
(dp1712
g92
g93
ssg74
g1701
sg67
(lp1713
S':'
asbag60
(g81
g62
NtRp1714
(dp1715
g65
(dp1716
sg74
g1701
sg67
(lp1717
g60
(g61
g62
NtRp1718
(dp1719
g65
(dp1720
g73
I5
ssg74
g1714
sg67
(lp1721
S'/home/kaique/Projects/web2py/applications/synopsis/'
p1722
asbasbasbag60
(g76
g62
NtRp1723
(dp1724
g65
(dp1725
sg74
g70
sg67
(lp1726
g60
(g81
g62
NtRp1727
(dp1728
g65
(dp1729
g85
g86
ssg74
g1723
sg67
(lp1730
S'function'
p1731
asbag60
(g81
g62
NtRp1732
(dp1733
g65
(dp1734
g92
g93
ssg74
g1723
sg67
(lp1735
S':'
asbag60
(g81
g62
NtRp1736
(dp1737
g65
(dp1738
sg74
g1723
sg67
(lp1739
g60
(g61
g62
NtRp1740
(dp1741
g65
(dp1742
g73
I5
ssg74
g1736
sg67
(lp1743
S'new'
p1744
asbasbasbag60
(g76
g62
NtRp1745
(dp1746
g65
(dp1747
sg74
g70
sg67
(lp1748
g60
(g81
g62
NtRp1749
(dp1750
g65
(dp1751
g85
g86
ssg74
g1745
sg67
(lp1752
S'get_vars'
p1753
asbag60
(g81
g62
NtRp1754
(dp1755
g65
(dp1756
g92
g93
ssg74
g1745
sg67
(lp1757
S':'
asbag60
(g81
g62
NtRp1758
(dp1759
g65
(dp1760
sg74
g1745
sg67
(lp1761
g60
(g61
g62
NtRp1762
(dp1763
g65
(dp1764
g73
I5
ssg74
g1758
sg67
(lp1765
g60
(g69
g62
NtRp1766
(dp1767
g65
(dp1768
g73
I4
ssg74
Nsg67
(lp1769
sbasbasbasbag60
(g76
g62
NtRp1770
(dp1771
g65
(dp1772
sg74
g70
sg67
(lp1773
g60
(g81
g62
NtRp1774
(dp1775
g65
(dp1776
g85
g86
ssg74
g1770
sg67
(lp1777
S'global_settings'
p1778
asbag60
(g81
g62
NtRp1779
(dp1780
g65
(dp1781
g92
g93
ssg74
g1770
sg67
(lp1782
S':'
asbag60
(g81
g62
NtRp1783
(dp1784
g65
(dp1785
sg74
g1770
sg67
(lp1786
g60
(g61
g62
NtRp1787
(dp1788
g65
(dp1789
g73
I5
ssg74
g1783
sg67
(lp1790
g60
(g69
g62
NtRp1791
(dp1792
g65
(dp1793
g73
I4
ssg74
Nsg67
(lp1794
g60
(g76
g62
NtRp1795
(dp1796
g65
(dp1797
sg74
g1791
sg67
(lp1798
g60
(g81
g62
NtRp1799
(dp1800
g65
(dp1801
g85
g86
ssg74
g1795
sg67
(lp1802
g677
asbag60
(g81
g62
NtRp1803
(dp1804
g65
(dp1805
g92
g93
ssg74
g1795
sg67
(lp1806
S':'
asbag60
(g81
g62
NtRp1807
(dp1808
g65
(dp1809
sg74
g1795
sg67
(lp1810
g60
(g61
g62
NtRp1811
(dp1812
g65
(dp1813
g73
I4
ssg74
g1807
sg67
(lp1814
S"set(['/home/kaique/Projects/web2py/applications/synopsis/'])"
p1815
asbasbasbag60
(g76
g62
NtRp1816
(dp1817
g65
(dp1818
sg74
g1791
sg67
(lp1819
g60
(g81
g62
NtRp1820
(dp1821
g65
(dp1822
g85
g86
ssg74
g1816
sg67
(lp1823
g699
asbag60
(g81
g62
NtRp1824
(dp1825
g65
(dp1826
g92
g93
ssg74
g1816
sg67
(lp1827
S':'
asbag60
(g81
g62
NtRp1828
(dp1829
g65
(dp1830
sg74
g1816
sg67
(lp1831
g60
(g61
g62
NtRp1832
(dp1833
g65
(dp1834
g73
I4
ssg74
g1828
sg67
(lp1835
g712
asbasbasbag60
(g76
g62
NtRp1836
(dp1837
g65
(dp1838
sg74
g1791
sg67
(lp1839
g60
(g81
g62
NtRp1840
(dp1841
g65
(dp1842
g85
g86
ssg74
g1836
sg67
(lp1843
g721
asbag60
(g81
g62
NtRp1844
(dp1845
g65
(dp1846
g92
g93
ssg74
g1836
sg67
(lp1847
S':'
asbag60
(g81
g62
NtRp1848
(dp1849
g65
(dp1850
sg74
g1836
sg67
(lp1851
g60
(g61
g62
NtRp1852
(dp1853
g65
(dp1854
g73
I4
ssg74
g1848
sg67
(lp1855
g60
(g69
g62
NtRp1856
(dp1857
g65
(dp1858
g73
I3
ssg74
Nsg67
(lp1859
sbasbasbasbag60
(g76
g62
NtRp1860
(dp1861
g65
(dp1862
sg74
g1791
sg67
(lp1863
g60
(g81
g62
NtRp1864
(dp1865
g65
(dp1866
g85
g86
ssg74
g1860
sg67
(lp1867
g746
asbag60
(g81
g62
NtRp1868
(dp1869
g65
(dp1870
g92
g93
ssg74
g1860
sg67
(lp1871
S':'
asbag60
(g81
g62
NtRp1872
(dp1873
g65
(dp1874
sg74
g1860
sg67
(lp1875
g60
(g61
g62
NtRp1876
(dp1877
g65
(dp1878
g73
I4
ssg74
g1872
sg67
(lp1879
S"<Values at 0x316d998: {'verbose': False, 'ip': '127.0.0.1', 'shutdown_timeout': 5, 'taskbar': False, 'nocron': False, 'pid_filename': 'httpserver.pid', 'maxthreads': None, 'softcron': False, 'server_name': 'kaique-Pine-Trail-M', 'bpython': False, 'nogui': False, 'port': 8000, 'extcron': False, 'debuglevel': 30, 'test': None, 'folder': '/home/kaique/Projects/web2py', 'config': '', 'import_models': False, 'winservice': '', 'shell': None, 'run': '', 'log_filename': 'httpserver.log', 'args': [''], 'ssl_ca_certificate': None, 'scheduler': None, 'profiler_filename': None, 'ssl_private_key': '', 'password': 'dev', 'request_queue_size': 5, 'ssl_certificate': '', 'cronjob': False, 'plain': False, 'quiet': False, 'interfaces': None, 'minthreads': None, 'timeout': 10, 'numthreads': None, 'nobanner': False}>"
p1880
asbasbasbag60
(g76
g62
NtRp1881
(dp1882
g65
(dp1883
sg74
g1791
sg67
(lp1884
g60
(g81
g62
NtRp1885
(dp1886
g65
(dp1887
g85
g86
ssg74
g1881
sg67
(lp1888
g812
asbag60
(g81
g62
NtRp1889
(dp1890
g65
(dp1891
g92
g93
ssg74
g1881
sg67
(lp1892
S':'
asbag60
(g81
g62
NtRp1893
(dp1894
g65
(dp1895
sg74
g1881
sg67
(lp1896
g60
(g61
g62
NtRp1897
(dp1898
g65
(dp1899
g73
I4
ssg74
g1893
sg67
(lp1900
S'set([])'
p1901
asbasbasbag60
(g76
g62
NtRp1902
(dp1903
g65
(dp1904
sg74
g1791
sg67
(lp1905
g60
(g81
g62
NtRp1906
(dp1907
g65
(dp1908
g85
g86
ssg74
g1902
sg67
(lp1909
g834
asbag60
(g81
g62
NtRp1910
(dp1911
g65
(dp1912
g92
g93
ssg74
g1902
sg67
(lp1913
S':'
asbag60
(g81
g62
NtRp1914
(dp1915
g65
(dp1916
sg74
g1902
sg67
(lp1917
g60
(g61
g62
NtRp1918
(dp1919
g65
(dp1920
g73
I4
ssg74
g1914
sg67
(lp1921
g103
asbasbasbag60
(g76
g62
NtRp1922
(dp1923
g65
(dp1924
sg74
g1791
sg67
(lp1925
g60
(g81
g62
NtRp1926
(dp1927
g65
(dp1928
g85
g86
ssg74
g1922
sg67
(lp1929
g855
asbag60
(g81
g62
NtRp1930
(dp1931
g65
(dp1932
g92
g93
ssg74
g1922
sg67
(lp1933
S':'
asbag60
(g81
g62
NtRp1934
(dp1935
g65
(dp1936
sg74
g1922
sg67
(lp1937
g60
(g61
g62
NtRp1938
(dp1939
g65
(dp1940
g73
I4
ssg74
g1934
sg67
(lp1941
g868
asbasbasbag60
(g76
g62
NtRp1942
(dp1943
g65
(dp1944
sg74
g1791
sg67
(lp1945
g60
(g81
g62
NtRp1946
(dp1947
g65
(dp1948
g85
g86
ssg74
g1942
sg67
(lp1949
g1117
asbag60
(g81
g62
NtRp1950
(dp1951
g65
(dp1952
g92
g93
ssg74
g1942
sg67
(lp1953
S':'
asbag60
(g81
g62
NtRp1954
(dp1955
g65
(dp1956
sg74
g1942
sg67
(lp1957
g60
(g61
g62
NtRp1958
(dp1959
g65
(dp1960
g73
I4
ssg74
g1954
sg67
(lp1961
g103
asbasbasbag60
(g76
g62
NtRp1962
(dp1963
g65
(dp1964
sg74
g1791
sg67
(lp1965
g60
(g81
g62
NtRp1966
(dp1967
g65
(dp1968
g85
g86
ssg74
g1962
sg67
(lp1969
g1355
asbag60
(g81
g62
NtRp1970
(dp1971
g65
(dp1972
g92
g93
ssg74
g1962
sg67
(lp1973
S':'
asbag60
(g81
g62
NtRp1974
(dp1975
g65
(dp1976
sg74
g1962
sg67
(lp1977
g60
(g61
g62
NtRp1978
(dp1979
g65
(dp1980
g73
I4
ssg74
g1974
sg67
(lp1981
g1368
asbasbasbag60
(g76
g62
NtRp1982
(dp1983
g65
(dp1984
sg74
g1791
sg67
(lp1985
g60
(g81
g62
NtRp1986
(dp1987
g65
(dp1988
g85
g86
ssg74
g1982
sg67
(lp1989
g1398
asbag60
(g81
g62
NtRp1990
(dp1991
g65
(dp1992
g92
g93
ssg74
g1982
sg67
(lp1993
S':'
asbag60
(g81
g62
NtRp1994
(dp1995
g65
(dp1996
sg74
g1982
sg67
(lp1997
g60
(g61
g62
NtRp1998
(dp1999
g65
(dp2000
g73
I4
ssg74
g1994
sg67
(lp2001
g60
(g69
g62
NtRp2002
(dp2003
g65
(dp2004
g73
I3
ssg74
Nsg67
(lp2005
g60
(g76
g62
NtRp2006
(dp2007
g65
(dp2008
sg74
g2002
sg67
(lp2009
g60
(g81
g62
NtRp2010
(dp2011
g65
(dp2012
sg74
g2006
sg67
(lp2013
g60
(g61
g62
NtRp2014
(dp2015
g65
(dp2016
g73
I3
ssg74
g2010
sg67
(lp2017
S'1'
asbasbasbag60
(g76
g62
NtRp2018
(dp2019
g65
(dp2020
sg74
g2002
sg67
(lp2021
g60
(g81
g62
NtRp2022
(dp2023
g65
(dp2024
sg74
g2018
sg67
(lp2025
g60
(g61
g62
NtRp2026
(dp2027
g65
(dp2028
g73
I3
ssg74
g2022
sg67
(lp2029
S'99'
p2030
asbasbasbag60
(g76
g62
NtRp2031
(dp2032
g65
(dp2033
sg74
g2002
sg67
(lp2034
g60
(g81
g62
NtRp2035
(dp2036
g65
(dp2037
sg74
g2031
sg67
(lp2038
g60
(g61
g62
NtRp2039
(dp2040
g65
(dp2041
g73
I3
ssg74
g2035
sg67
(lp2042
S'2'
asbasbasbag60
(g76
g62
NtRp2043
(dp2044
g65
(dp2045
sg74
g2002
sg67
(lp2046
g60
(g81
g62
NtRp2047
(dp2048
g65
(dp2049
sg74
g2043
sg67
(lp2050
g60
(g61
g62
NtRp2051
(dp2052
g65
(dp2053
g73
I3
ssg74
g2047
sg67
(lp2054
S'datetime.datetime(2011, 9, 26, 6, 55, 33)'
p2055
asbasbasbag60
(g76
g62
NtRp2056
(dp2057
g65
(dp2058
sg74
g2002
sg67
(lp2059
g60
(g81
g62
NtRp2060
(dp2061
g65
(dp2062
sg74
g2056
sg67
(lp2063
g60
(g61
g62
NtRp2064
(dp2065
g65
(dp2066
g73
I3
ssg74
g2060
sg67
(lp2067
g1477
asbasbasbasbasbasbasbasbasbasbasbag60
(g76
g62
NtRp2068
(dp2069
g65
(dp2070
sg74
g70
sg67
(lp2071
g60
(g81
g62
NtRp2072
(dp2073
g65
(dp2074
g85
g86
ssg74
g2068
sg67
(lp2075
S'is_https'
p2076
asbag60
(g81
g62
NtRp2077
(dp2078
g65
(dp2079
g92
g93
ssg74
g2068
sg67
(lp2080
S':'
asbag60
(g81
g62
NtRp2081
(dp2082
g65
(dp2083
sg74
g2068
sg67
(lp2084
g60
(g61
g62
NtRp2085
(dp2086
g65
(dp2087
g73
I5
ssg74
g2081
sg67
(lp2088
g103
asbasbasbag60
(g76
g62
NtRp2089
(dp2090
g65
(dp2091
sg74
g70
sg67
(lp2092
g60
(g81
g62
NtRp2093
(dp2094
g65
(dp2095
g85
g86
ssg74
g2089
sg67
(lp2096
S'is_local'
p2097
asbag60
(g81
g62
NtRp2098
(dp2099
g65
(dp2100
g92
g93
ssg74
g2089
sg67
(lp2101
S':'
asbag60
(g81
g62
NtRp2102
(dp2103
g65
(dp2104
sg74
g2089
sg67
(lp2105
g60
(g61
g62
NtRp2106
(dp2107
g65
(dp2108
g73
I5
ssg74
g2102
sg67
(lp2109
g1586
asbasbasbag60
(g76
g62
NtRp2110
(dp2111
g65
(dp2112
sg74
g70
sg67
(lp2113
g60
(g81
g62
NtRp2114
(dp2115
g65
(dp2116
g85
g86
ssg74
g2110
sg67
(lp2117
S'is_restful'
p2118
asbag60
(g81
g62
NtRp2119
(dp2120
g65
(dp2121
g92
g93
ssg74
g2110
sg67
(lp2122
S':'
asbag60
(g81
g62
NtRp2123
(dp2124
g65
(dp2125
sg74
g2110
sg67
(lp2126
g60
(g61
g62
NtRp2127
(dp2128
g65
(dp2129
g73
I5
ssg74
g2123
sg67
(lp2130
g103
asbasbasbag60
(g76
g62
NtRp2131
(dp2132
g65
(dp2133
sg74
g70
sg67
(lp2134
g60
(g81
g62
NtRp2135
(dp2136
g65
(dp2137
g85
g86
ssg74
g2131
sg67
(lp2138
S'now'
p2139
asbag60
(g81
g62
NtRp2140
(dp2141
g65
(dp2142
g92
g93
ssg74
g2131
sg67
(lp2143
S':'
asbag60
(g81
g62
NtRp2144
(dp2145
g65
(dp2146
sg74
g2131
sg67
(lp2147
g60
(g61
g62
NtRp2148
(dp2149
g65
(dp2150
g73
I5
ssg74
g2144
sg67
(lp2151
S'datetime.datetime(2012, 1, 17, 9, 13, 31, 346167)'
p2152
asbasbasbag60
(g76
g62
NtRp2153
(dp2154
g65
(dp2155
sg74
g70
sg67
(lp2156
g60
(g81
g62
NtRp2157
(dp2158
g65
(dp2159
g85
g86
ssg74
g2153
sg67
(lp2160
S'post_vars'
p2161
asbag60
(g81
g62
NtRp2162
(dp2163
g65
(dp2164
g92
g93
ssg74
g2153
sg67
(lp2165
S':'
asbag60
(g81
g62
NtRp2166
(dp2167
g65
(dp2168
sg74
g2153
sg67
(lp2169
g60
(g61
g62
NtRp2170
(dp2171
g65
(dp2172
g73
I5
ssg74
g2166
sg67
(lp2173
g60
(g69
g62
NtRp2174
(dp2175
g65
(dp2176
g73
I4
ssg74
Nsg67
(lp2177
g60
(g76
g62
NtRp2178
(dp2179
g65
(dp2180
sg74
g2174
sg67
(lp2181
g60
(g81
g62
NtRp2182
(dp2183
g65
(dp2184
g85
g86
ssg74
g2178
sg67
(lp2185
S'6'
asbag60
(g81
g62
NtRp2186
(dp2187
g65
(dp2188
g92
g93
ssg74
g2178
sg67
(lp2189
S':'
asbag60
(g81
g62
NtRp2190
(dp2191
g65
(dp2192
sg74
g2178
sg67
(lp2193
g60
(g61
g62
NtRp2194
(dp2195
g65
(dp2196
g73
I4
ssg74
g2190
sg67
(lp2197
S'My new test for title1'
p2198
asbasbasbag60
(g76
g62
NtRp2199
(dp2200
g65
(dp2201
sg74
g2174
sg67
(lp2202
g60
(g81
g62
NtRp2203
(dp2204
g65
(dp2205
g85
g86
ssg74
g2199
sg67
(lp2206
S'7'
asbag60
(g81
g62
NtRp2207
(dp2208
g65
(dp2209
g92
g93
ssg74
g2199
sg67
(lp2210
S':'
asbag60
(g81
g62
NtRp2211
(dp2212
g65
(dp2213
sg74
g2199
sg67
(lp2214
g60
(g61
g62
NtRp2215
(dp2216
g65
(dp2217
g73
I4
ssg74
g2211
sg67
(lp2218
S'My new test for title2'
p2219
asbasbasbag60
(g76
g62
NtRp2220
(dp2221
g65
(dp2222
sg74
g2174
sg67
(lp2223
g60
(g81
g62
NtRp2224
(dp2225
g65
(dp2226
g85
g86
ssg74
g2220
sg67
(lp2227
S'9'
asbag60
(g81
g62
NtRp2228
(dp2229
g65
(dp2230
g92
g93
ssg74
g2220
sg67
(lp2231
S':'
asbag60
(g81
g62
NtRp2232
(dp2233
g65
(dp2234
sg74
g2220
sg67
(lp2235
g60
(g61
g62
NtRp2236
(dp2237
g65
(dp2238
g73
I4
ssg74
g2232
sg67
(lp2239
S'My new test for column3'
p2240
asbasbasbasbasbasbasbag60
(g76
g62
NtRp2241
(dp2242
g65
(dp2243
sg74
g70
sg67
(lp2244
g60
(g81
g62
NtRp2245
(dp2246
g65
(dp2247
g85
g86
ssg74
g2241
sg67
(lp2248
S'raw_args'
p2249
asbag60
(g81
g62
NtRp2250
(dp2251
g65
(dp2252
g92
g93
ssg74
g2241
sg67
(lp2253
S':'
asbag60
(g81
g62
NtRp2254
(dp2255
g65
(dp2256
sg74
g2241
sg67
(lp2257
g60
(g61
g62
NtRp2258
(dp2259
g65
(dp2260
g73
I5
ssg74
g2254
sg67
(lp2261
S'line/9'
p2262
asbasbasbag60
(g76
g62
NtRp2263
(dp2264
g65
(dp2265
sg74
g70
sg67
(lp2266
g60
(g81
g62
NtRp2267
(dp2268
g65
(dp2269
g85
g86
ssg74
g2263
sg67
(lp2270
S'url'
p2271
asbag60
(g81
g62
NtRp2272
(dp2273
g65
(dp2274
g92
g93
ssg74
g2263
sg67
(lp2275
S':'
asbag60
(g81
g62
NtRp2276
(dp2277
g65
(dp2278
sg74
g2263
sg67
(lp2279
g60
(g61
g62
NtRp2280
(dp2281
g65
(dp2282
g73
I5
ssg74
g2276
sg67
(lp2283
S'/synopsis/information/new/line/9'
p2284
asbasbasbag60
(g76
g62
NtRp2285
(dp2286
g65
(dp2287
sg74
g70
sg67
(lp2288
g60
(g81
g62
NtRp2289
(dp2290
g65
(dp2291
g85
g86
ssg74
g2285
sg67
(lp2292
S'utcnow'
p2293
asbag60
(g81
g62
NtRp2294
(dp2295
g65
(dp2296
g92
g93
ssg74
g2285
sg67
(lp2297
S':'
asbag60
(g81
g62
NtRp2298
(dp2299
g65
(dp2300
sg74
g2285
sg67
(lp2301
g60
(g61
g62
NtRp2302
(dp2303
g65
(dp2304
g73
I5
ssg74
g2298
sg67
(lp2305
S'datetime.datetime(2012, 1, 17, 11, 13, 31, 346241)'
p2306
asbasbasbag60
(g76
g62
NtRp2307
(dp2308
g65
(dp2309
sg74
g70
sg67
(lp2310
g60
(g81
g62
NtRp2311
(dp2312
g65
(dp2313
g85
g86
ssg74
g2307
sg67
(lp2314
S'uuid'
p2315
asbag60
(g81
g62
NtRp2316
(dp2317
g65
(dp2318
g92
g93
ssg74
g2307
sg67
(lp2319
S':'
asbag60
(g81
g62
NtRp2320
(dp2321
g65
(dp2322
sg74
g2307
sg67
(lp2323
g60
(g61
g62
NtRp2324
(dp2325
g65
(dp2326
g73
I5
ssg74
g2320
sg67
(lp2327
S'synopsis/127.0.0.1.2012-01-17.09-13-31.55fa51a3-0cc6-4c8d-926d-df9842fb926a'
p2328
asbasbasbag60
(g76
g62
NtRp2329
(dp2330
g65
(dp2331
sg74
g70
sg67
(lp2332
g60
(g81
g62
NtRp2333
(dp2334
g65
(dp2335
g85
g86
ssg74
g2329
sg67
(lp2336
S'vars'
p2337
asbag60
(g81
g62
NtRp2338
(dp2339
g65
(dp2340
g92
g93
ssg74
g2329
sg67
(lp2341
S':'
asbag60
(g81
g62
NtRp2342
(dp2343
g65
(dp2344
sg74
g2329
sg67
(lp2345
g60
(g61
g62
NtRp2346
(dp2347
g65
(dp2348
g73
I5
ssg74
g2342
sg67
(lp2349
g60
(g69
g62
NtRp2350
(dp2351
g65
(dp2352
g73
I4
ssg74
Nsg67
(lp2353
g60
(g76
g62
NtRp2354
(dp2355
g65
(dp2356
sg74
g2350
sg67
(lp2357
g60
(g81
g62
NtRp2358
(dp2359
g65
(dp2360
g85
g86
ssg74
g2354
sg67
(lp2361
S'6'
asbag60
(g81
g62
NtRp2362
(dp2363
g65
(dp2364
g92
g93
ssg74
g2354
sg67
(lp2365
S':'
asbag60
(g81
g62
NtRp2366
(dp2367
g65
(dp2368
sg74
g2354
sg67
(lp2369
g60
(g61
g62
NtRp2370
(dp2371
g65
(dp2372
g73
I4
ssg74
g2366
sg67
(lp2373
g2198
asbasbasbag60
(g76
g62
NtRp2374
(dp2375
g65
(dp2376
sg74
g2350
sg67
(lp2377
g60
(g81
g62
NtRp2378
(dp2379
g65
(dp2380
g85
g86
ssg74
g2374
sg67
(lp2381
S'7'
asbag60
(g81
g62
NtRp2382
(dp2383
g65
(dp2384
g92
g93
ssg74
g2374
sg67
(lp2385
S':'
asbag60
(g81
g62
NtRp2386
(dp2387
g65
(dp2388
sg74
g2374
sg67
(lp2389
g60
(g61
g62
NtRp2390
(dp2391
g65
(dp2392
g73
I4
ssg74
g2386
sg67
(lp2393
g2219
asbasbasbag60
(g76
g62
NtRp2394
(dp2395
g65
(dp2396
sg74
g2350
sg67
(lp2397
g60
(g81
g62
NtRp2398
(dp2399
g65
(dp2400
g85
g86
ssg74
g2394
sg67
(lp2401
S'9'
asbag60
(g81
g62
NtRp2402
(dp2403
g65
(dp2404
g92
g93
ssg74
g2394
sg67
(lp2405
S':'
asbag60
(g81
g62
NtRp2406
(dp2407
g65
(dp2408
sg74
g2394
sg67
(lp2409
g60
(g61
g62
NtRp2410
(dp2411
g65
(dp2412
g73
I4
ssg74
g2406
sg67
(lp2413
g2240
asbasbasbasbasbasbasbag60
(g76
g62
NtRp2414
(dp2415
g65
(dp2416
sg74
g70
sg67
(lp2417
g60
(g81
g62
NtRp2418
(dp2419
g65
(dp2420
g85
g86
ssg74
g2414
sg67
(lp2421
S'wsgi'
p2422
asbag60
(g81
g62
NtRp2423
(dp2424
g65
(dp2425
g92
g93
ssg74
g2414
sg67
(lp2426
S':'
asbag60
(g81
g62
NtRp2427
(dp2428
g65
(dp2429
sg74
g2414
sg67
(lp2430
g60
(g61
g62
NtRp2431
(dp2432
g65
(dp2433
g73
I5
ssg74
g2427
sg67
(lp2434
g60
(g69
g62
NtRp2435
(dp2436
g65
(dp2437
g73
I4
ssg74
Nsg67
(lp2438
g60
(g76
g62
NtRp2439
(dp2440
g65
(dp2441
sg74
g2435
sg67
(lp2442
g60
(g81
g62
NtRp2443
(dp2444
g65
(dp2445
g85
g86
ssg74
g2439
sg67
(lp2446
S'environ'
p2447
asbag60
(g81
g62
NtRp2448
(dp2449
g65
(dp2450
g92
g93
ssg74
g2439
sg67
(lp2451
S':'
asbag60
(g81
g62
NtRp2452
(dp2453
g65
(dp2454
sg74
g2439
sg67
(lp2455
g60
(g61
g62
NtRp2456
(dp2457
g65
(dp2458
g73
I4
ssg74
g2452
sg67
(lp2459
g60
(g69
g62
NtRp2460
(dp2461
g65
(dp2462
g73
I3
ssg74
Nsg67
(lp2463
g60
(g76
g62
NtRp2464
(dp2465
g65
(dp2466
sg74
g2460
sg67
(lp2467
g60
(g81
g62
NtRp2468
(dp2469
g65
(dp2470
g85
g86
ssg74
g2464
sg67
(lp2471
S'CONTENT_LENGTH'
p2472
asbag60
(g81
g62
NtRp2473
(dp2474
g65
(dp2475
g92
g93
ssg74
g2464
sg67
(lp2476
S':'
asbag60
(g81
g62
NtRp2477
(dp2478
g65
(dp2479
sg74
g2464
sg67
(lp2480
g60
(g61
g62
NtRp2481
(dp2482
g65
(dp2483
g73
I3
ssg74
g2477
sg67
(lp2484
g781
asbasbasbag60
(g76
g62
NtRp2485
(dp2486
g65
(dp2487
sg74
g2460
sg67
(lp2488
g60
(g81
g62
NtRp2489
(dp2490
g65
(dp2491
g85
g86
ssg74
g2485
sg67
(lp2492
S'CONTENT_TYPE'
p2493
asbag60
(g81
g62
NtRp2494
(dp2495
g65
(dp2496
g92
g93
ssg74
g2485
sg67
(lp2497
S':'
asbag60
(g81
g62
NtRp2498
(dp2499
g65
(dp2500
sg74
g2485
sg67
(lp2501
g60
(g61
g62
NtRp2502
(dp2503
g65
(dp2504
g73
I3
ssg74
g2498
sg67
(lp2505
g803
asbasbasbag60
(g76
g62
NtRp2506
(dp2507
g65
(dp2508
sg74
g2460
sg67
(lp2509
g60
(g81
g62
NtRp2510
(dp2511
g65
(dp2512
g85
g86
ssg74
g2506
sg67
(lp2513
S'HTTP_ACCEPT'
p2514
asbag60
(g81
g62
NtRp2515
(dp2516
g65
(dp2517
g92
g93
ssg74
g2506
sg67
(lp2518
S':'
asbag60
(g81
g62
NtRp2519
(dp2520
g65
(dp2521
sg74
g2506
sg67
(lp2522
g60
(g61
g62
NtRp2523
(dp2524
g65
(dp2525
g73
I3
ssg74
g2519
sg67
(lp2526
g890
asbasbasbag60
(g76
g62
NtRp2527
(dp2528
g65
(dp2529
sg74
g2460
sg67
(lp2530
g60
(g81
g62
NtRp2531
(dp2532
g65
(dp2533
g85
g86
ssg74
g2527
sg67
(lp2534
S'HTTP_ACCEPT_CHARSET'
p2535
asbag60
(g81
g62
NtRp2536
(dp2537
g65
(dp2538
g92
g93
ssg74
g2527
sg67
(lp2539
S':'
asbag60
(g81
g62
NtRp2540
(dp2541
g65
(dp2542
sg74
g2527
sg67
(lp2543
g60
(g61
g62
NtRp2544
(dp2545
g65
(dp2546
g73
I3
ssg74
g2540
sg67
(lp2547
g912
asbasbasbag60
(g76
g62
NtRp2548
(dp2549
g65
(dp2550
sg74
g2460
sg67
(lp2551
g60
(g81
g62
NtRp2552
(dp2553
g65
(dp2554
g85
g86
ssg74
g2548
sg67
(lp2555
S'HTTP_ACCEPT_ENCODING'
p2556
asbag60
(g81
g62
NtRp2557
(dp2558
g65
(dp2559
g92
g93
ssg74
g2548
sg67
(lp2560
S':'
asbag60
(g81
g62
NtRp2561
(dp2562
g65
(dp2563
sg74
g2548
sg67
(lp2564
g60
(g61
g62
NtRp2565
(dp2566
g65
(dp2567
g73
I3
ssg74
g2561
sg67
(lp2568
g934
asbasbasbag60
(g76
g62
NtRp2569
(dp2570
g65
(dp2571
sg74
g2460
sg67
(lp2572
g60
(g81
g62
NtRp2573
(dp2574
g65
(dp2575
g85
g86
ssg74
g2569
sg67
(lp2576
S'HTTP_ACCEPT_LANGUAGE'
p2577
asbag60
(g81
g62
NtRp2578
(dp2579
g65
(dp2580
g92
g93
ssg74
g2569
sg67
(lp2581
S':'
asbag60
(g81
g62
NtRp2582
(dp2583
g65
(dp2584
sg74
g2569
sg67
(lp2585
g60
(g61
g62
NtRp2586
(dp2587
g65
(dp2588
g73
I3
ssg74
g2582
sg67
(lp2589
g956
asbasbasbag60
(g76
g62
NtRp2590
(dp2591
g65
(dp2592
sg74
g2460
sg67
(lp2593
g60
(g81
g62
NtRp2594
(dp2595
g65
(dp2596
g85
g86
ssg74
g2590
sg67
(lp2597
S'HTTP_CONNECTION'
p2598
asbag60
(g81
g62
NtRp2599
(dp2600
g65
(dp2601
g92
g93
ssg74
g2590
sg67
(lp2602
S':'
asbag60
(g81
g62
NtRp2603
(dp2604
g65
(dp2605
sg74
g2590
sg67
(lp2606
g60
(g61
g62
NtRp2607
(dp2608
g65
(dp2609
g73
I3
ssg74
g2603
sg67
(lp2610
g978
asbasbasbag60
(g76
g62
NtRp2611
(dp2612
g65
(dp2613
sg74
g2460
sg67
(lp2614
g60
(g81
g62
NtRp2615
(dp2616
g65
(dp2617
g85
g86
ssg74
g2611
sg67
(lp2618
S'HTTP_CONTENT_LENGTH'
p2619
asbag60
(g81
g62
NtRp2620
(dp2621
g65
(dp2622
g92
g93
ssg74
g2611
sg67
(lp2623
S':'
asbag60
(g81
g62
NtRp2624
(dp2625
g65
(dp2626
sg74
g2611
sg67
(lp2627
g60
(g61
g62
NtRp2628
(dp2629
g65
(dp2630
g73
I3
ssg74
g2624
sg67
(lp2631
g781
asbasbasbag60
(g76
g62
NtRp2632
(dp2633
g65
(dp2634
sg74
g2460
sg67
(lp2635
g60
(g81
g62
NtRp2636
(dp2637
g65
(dp2638
g85
g86
ssg74
g2632
sg67
(lp2639
S'HTTP_CONTENT_TYPE'
p2640
asbag60
(g81
g62
NtRp2641
(dp2642
g65
(dp2643
g92
g93
ssg74
g2632
sg67
(lp2644
S':'
asbag60
(g81
g62
NtRp2645
(dp2646
g65
(dp2647
sg74
g2632
sg67
(lp2648
g60
(g61
g62
NtRp2649
(dp2650
g65
(dp2651
g73
I3
ssg74
g2645
sg67
(lp2652
g803
asbasbasbag60
(g76
g62
NtRp2653
(dp2654
g65
(dp2655
sg74
g2460
sg67
(lp2656
g60
(g81
g62
NtRp2657
(dp2658
g65
(dp2659
g85
g86
ssg74
g2653
sg67
(lp2660
S'HTTP_COOKIE'
p2661
asbag60
(g81
g62
NtRp2662
(dp2663
g65
(dp2664
g92
g93
ssg74
g2653
sg67
(lp2665
S':'
asbag60
(g81
g62
NtRp2666
(dp2667
g65
(dp2668
sg74
g2653
sg67
(lp2669
g60
(g61
g62
NtRp2670
(dp2671
g65
(dp2672
g73
I3
ssg74
g2666
sg67
(lp2673
g1042
asbasbasbag60
(g76
g62
NtRp2674
(dp2675
g65
(dp2676
sg74
g2460
sg67
(lp2677
g60
(g81
g62
NtRp2678
(dp2679
g65
(dp2680
g85
g86
ssg74
g2674
sg67
(lp2681
S'HTTP_HOST'
p2682
asbag60
(g81
g62
NtRp2683
(dp2684
g65
(dp2685
g92
g93
ssg74
g2674
sg67
(lp2686
S':'
asbag60
(g81
g62
NtRp2687
(dp2688
g65
(dp2689
sg74
g2674
sg67
(lp2690
g60
(g61
g62
NtRp2691
(dp2692
g65
(dp2693
g73
I3
ssg74
g2687
sg67
(lp2694
g1064
asbasbasbag60
(g76
g62
NtRp2695
(dp2696
g65
(dp2697
sg74
g2460
sg67
(lp2698
g60
(g81
g62
NtRp2699
(dp2700
g65
(dp2701
g85
g86
ssg74
g2695
sg67
(lp2702
S'HTTP_REFERER'
p2703
asbag60
(g81
g62
NtRp2704
(dp2705
g65
(dp2706
g92
g93
ssg74
g2695
sg67
(lp2707
S':'
asbag60
(g81
g62
NtRp2708
(dp2709
g65
(dp2710
sg74
g2695
sg67
(lp2711
g60
(g61
g62
NtRp2712
(dp2713
g65
(dp2714
g73
I3
ssg74
g2708
sg67
(lp2715
g1086
asbasbasbag60
(g76
g62
NtRp2716
(dp2717
g65
(dp2718
sg74
g2460
sg67
(lp2719
g60
(g81
g62
NtRp2720
(dp2721
g65
(dp2722
g85
g86
ssg74
g2716
sg67
(lp2723
S'HTTP_USER_AGENT'
p2724
asbag60
(g81
g62
NtRp2725
(dp2726
g65
(dp2727
g92
g93
ssg74
g2716
sg67
(lp2728
S':'
asbag60
(g81
g62
NtRp2729
(dp2730
g65
(dp2731
sg74
g2716
sg67
(lp2732
g60
(g61
g62
NtRp2733
(dp2734
g65
(dp2735
g73
I3
ssg74
g2729
sg67
(lp2736
g1108
asbasbasbag60
(g76
g62
NtRp2737
(dp2738
g65
(dp2739
sg74
g2460
sg67
(lp2740
g60
(g81
g62
NtRp2741
(dp2742
g65
(dp2743
g85
g86
ssg74
g2737
sg67
(lp2744
S'PATH_INFO'
p2745
asbag60
(g81
g62
NtRp2746
(dp2747
g65
(dp2748
g92
g93
ssg74
g2737
sg67
(lp2749
S':'
asbag60
(g81
g62
NtRp2750
(dp2751
g65
(dp2752
sg74
g2737
sg67
(lp2753
g60
(g61
g62
NtRp2754
(dp2755
g65
(dp2756
g73
I3
ssg74
g2750
sg67
(lp2757
g1151
asbasbasbag60
(g76
g62
NtRp2758
(dp2759
g65
(dp2760
sg74
g2460
sg67
(lp2761
g60
(g81
g62
NtRp2762
(dp2763
g65
(dp2764
g85
g86
ssg74
g2758
sg67
(lp2765
S'QUERY_STRING'
p2766
asbag60
(g81
g62
NtRp2767
(dp2768
g65
(dp2769
g92
g93
ssg74
g2758
sg67
(lp2770
S':'
asbag60
(g81
g62
NtRp2771
(dp2772
g65
(dp2773
sg74
g2758
sg67
(lp2774
g60
(g61
g62
NtRp2775
(dp2776
g65
(dp2777
g73
I3
ssg74
g2771
sg67
(lp2778
S''
asbasbasbag60
(g76
g62
NtRp2779
(dp2780
g65
(dp2781
sg74
g2460
sg67
(lp2782
g60
(g81
g62
NtRp2783
(dp2784
g65
(dp2785
g85
g86
ssg74
g2779
sg67
(lp2786
S'REMOTE_ADDR'
p2787
asbag60
(g81
g62
NtRp2788
(dp2789
g65
(dp2790
g92
g93
ssg74
g2779
sg67
(lp2791
S':'
asbag60
(g81
g62
NtRp2792
(dp2793
g65
(dp2794
sg74
g2779
sg67
(lp2795
g60
(g61
g62
NtRp2796
(dp2797
g65
(dp2798
g73
I3
ssg74
g2792
sg67
(lp2799
g218
asbasbasbag60
(g76
g62
NtRp2800
(dp2801
g65
(dp2802
sg74
g2460
sg67
(lp2803
g60
(g81
g62
NtRp2804
(dp2805
g65
(dp2806
g85
g86
ssg74
g2800
sg67
(lp2807
S'REMOTE_PORT'
p2808
asbag60
(g81
g62
NtRp2809
(dp2810
g65
(dp2811
g92
g93
ssg74
g2800
sg67
(lp2812
S':'
asbag60
(g81
g62
NtRp2813
(dp2814
g65
(dp2815
sg74
g2800
sg67
(lp2816
g60
(g61
g62
NtRp2817
(dp2818
g65
(dp2819
g73
I3
ssg74
g2813
sg67
(lp2820
g1215
asbasbasbag60
(g76
g62
NtRp2821
(dp2822
g65
(dp2823
sg74
g2460
sg67
(lp2824
g60
(g81
g62
NtRp2825
(dp2826
g65
(dp2827
g85
g86
ssg74
g2821
sg67
(lp2828
S'REQUEST_METHOD'
p2829
asbag60
(g81
g62
NtRp2830
(dp2831
g65
(dp2832
g92
g93
ssg74
g2821
sg67
(lp2833
S':'
asbag60
(g81
g62
NtRp2834
(dp2835
g65
(dp2836
sg74
g2821
sg67
(lp2837
g60
(g61
g62
NtRp2838
(dp2839
g65
(dp2840
g73
I3
ssg74
g2834
sg67
(lp2841
g1237
asbasbasbag60
(g76
g62
NtRp2842
(dp2843
g65
(dp2844
sg74
g2460
sg67
(lp2845
g60
(g81
g62
NtRp2846
(dp2847
g65
(dp2848
g85
g86
ssg74
g2842
sg67
(lp2849
S'SCRIPT_NAME'
p2850
asbag60
(g81
g62
NtRp2851
(dp2852
g65
(dp2853
g92
g93
ssg74
g2842
sg67
(lp2854
S':'
asbag60
(g81
g62
NtRp2855
(dp2856
g65
(dp2857
sg74
g2842
sg67
(lp2858
g60
(g61
g62
NtRp2859
(dp2860
g65
(dp2861
g73
I3
ssg74
g2855
sg67
(lp2862
S''
asbasbasbag60
(g76
g62
NtRp2863
(dp2864
g65
(dp2865
sg74
g2460
sg67
(lp2866
g60
(g81
g62
NtRp2867
(dp2868
g65
(dp2869
g85
g86
ssg74
g2863
sg67
(lp2870
S'SERVER_NAME'
p2871
asbag60
(g81
g62
NtRp2872
(dp2873
g65
(dp2874
g92
g93
ssg74
g2863
sg67
(lp2875
S':'
asbag60
(g81
g62
NtRp2876
(dp2877
g65
(dp2878
sg74
g2863
sg67
(lp2879
g60
(g61
g62
NtRp2880
(dp2881
g65
(dp2882
g73
I3
ssg74
g2876
sg67
(lp2883
g1280
asbasbasbag60
(g76
g62
NtRp2884
(dp2885
g65
(dp2886
sg74
g2460
sg67
(lp2887
g60
(g81
g62
NtRp2888
(dp2889
g65
(dp2890
g85
g86
ssg74
g2884
sg67
(lp2891
S'SERVER_PORT'
p2892
asbag60
(g81
g62
NtRp2893
(dp2894
g65
(dp2895
g92
g93
ssg74
g2884
sg67
(lp2896
S':'
asbag60
(g81
g62
NtRp2897
(dp2898
g65
(dp2899
sg74
g2884
sg67
(lp2900
g60
(g61
g62
NtRp2901
(dp2902
g65
(dp2903
g73
I3
ssg74
g2897
sg67
(lp2904
g1302
asbasbasbag60
(g76
g62
NtRp2905
(dp2906
g65
(dp2907
sg74
g2460
sg67
(lp2908
g60
(g81
g62
NtRp2909
(dp2910
g65
(dp2911
g85
g86
ssg74
g2905
sg67
(lp2912
S'SERVER_PROTOCOL'
p2913
asbag60
(g81
g62
NtRp2914
(dp2915
g65
(dp2916
g92
g93
ssg74
g2905
sg67
(lp2917
S':'
asbag60
(g81
g62
NtRp2918
(dp2919
g65
(dp2920
sg74
g2905
sg67
(lp2921
g60
(g61
g62
NtRp2922
(dp2923
g65
(dp2924
g73
I3
ssg74
g2918
sg67
(lp2925
g1324
asbasbasbag60
(g76
g62
NtRp2926
(dp2927
g65
(dp2928
sg74
g2460
sg67
(lp2929
g60
(g81
g62
NtRp2930
(dp2931
g65
(dp2932
g85
g86
ssg74
g2926
sg67
(lp2933
S'SERVER_SOFTWARE'
p2934
asbag60
(g81
g62
NtRp2935
(dp2936
g65
(dp2937
g92
g93
ssg74
g2926
sg67
(lp2938
S':'
asbag60
(g81
g62
NtRp2939
(dp2940
g65
(dp2941
sg74
g2926
sg67
(lp2942
g60
(g61
g62
NtRp2943
(dp2944
g65
(dp2945
g73
I3
ssg74
g2939
sg67
(lp2946
g1346
asbasbasbag60
(g76
g62
NtRp2947
(dp2948
g65
(dp2949
sg74
g2460
sg67
(lp2950
g60
(g81
g62
NtRp2951
(dp2952
g65
(dp2953
g85
g86
ssg74
g2947
sg67
(lp2954
S'wsgi.errors'
p2955
asbag60
(g81
g62
NtRp2956
(dp2957
g65
(dp2958
g92
g93
ssg74
g2947
sg67
(lp2959
S':'
asbag60
(g81
g62
NtRp2960
(dp2961
g65
(dp2962
sg74
g2947
sg67
(lp2963
g60
(g61
g62
NtRp2964
(dp2965
g65
(dp2966
g73
I3
ssg74
g2960
sg67
(lp2967
S"<open file '<stderr>', mode 'w' at 0x7fbae51fa270>"
p2968
asbasbasbag60
(g76
g62
NtRp2969
(dp2970
g65
(dp2971
sg74
g2460
sg67
(lp2972
g60
(g81
g62
NtRp2973
(dp2974
g65
(dp2975
g85
g86
ssg74
g2969
sg67
(lp2976
S'wsgi.file_wrapper'
p2977
asbag60
(g81
g62
NtRp2978
(dp2979
g65
(dp2980
g92
g93
ssg74
g2969
sg67
(lp2981
S':'
asbag60
(g81
g62
NtRp2982
(dp2983
g65
(dp2984
sg74
g2969
sg67
(lp2985
g60
(g61
g62
NtRp2986
(dp2987
g65
(dp2988
g73
I3
ssg74
g2982
sg67
(lp2989
S'<class wsgiref.util.FileWrapper at 0x3024ef0>'
p2990
asbasbasbag60
(g76
g62
NtRp2991
(dp2992
g65
(dp2993
sg74
g2460
sg67
(lp2994
g60
(g81
g62
NtRp2995
(dp2996
g65
(dp2997
g85
g86
ssg74
g2991
sg67
(lp2998
S'wsgi.input'
p2999
asbag60
(g81
g62
NtRp3000
(dp3001
g65
(dp3002
g92
g93
ssg74
g2991
sg67
(lp3003
S':'
asbag60
(g81
g62
NtRp3004
(dp3005
g65
(dp3006
sg74
g2991
sg67
(lp3007
g60
(g61
g62
NtRp3008
(dp3009
g65
(dp3010
g73
I3
ssg74
g3004
sg67
(lp3011
S"<open file '<fdopen>', mode 'w+b' at 0x3453780>"
p3012
asbasbasbag60
(g76
g62
NtRp3013
(dp3014
g65
(dp3015
sg74
g2460
sg67
(lp3016
g60
(g81
g62
NtRp3017
(dp3018
g65
(dp3019
g85
g86
ssg74
g3013
sg67
(lp3020
S'wsgi.multiprocess'
p3021
asbag60
(g81
g62
NtRp3022
(dp3023
g65
(dp3024
g92
g93
ssg74
g3013
sg67
(lp3025
S':'
asbag60
(g81
g62
NtRp3026
(dp3027
g65
(dp3028
sg74
g3013
sg67
(lp3029
g60
(g61
g62
NtRp3030
(dp3031
g65
(dp3032
g73
I3
ssg74
g3026
sg67
(lp3033
g103
asbasbasbag60
(g76
g62
NtRp3034
(dp3035
g65
(dp3036
sg74
g2460
sg67
(lp3037
g60
(g81
g62
NtRp3038
(dp3039
g65
(dp3040
g85
g86
ssg74
g3034
sg67
(lp3041
S'wsgi.multithread'
p3042
asbag60
(g81
g62
NtRp3043
(dp3044
g65
(dp3045
g92
g93
ssg74
g3034
sg67
(lp3046
S':'
asbag60
(g81
g62
NtRp3047
(dp3048
g65
(dp3049
sg74
g3034
sg67
(lp3050
g60
(g61
g62
NtRp3051
(dp3052
g65
(dp3053
g73
I3
ssg74
g3047
sg67
(lp3054
g1586
asbasbasbag60
(g76
g62
NtRp3055
(dp3056
g65
(dp3057
sg74
g2460
sg67
(lp3058
g60
(g81
g62
NtRp3059
(dp3060
g65
(dp3061
g85
g86
ssg74
g3055
sg67
(lp3062
S'wsgi.run_once'
p3063
asbag60
(g81
g62
NtRp3064
(dp3065
g65
(dp3066
g92
g93
ssg74
g3055
sg67
(lp3067
S':'
asbag60
(g81
g62
NtRp3068
(dp3069
g65
(dp3070
sg74
g3055
sg67
(lp3071
g60
(g61
g62
NtRp3072
(dp3073
g65
(dp3074
g73
I3
ssg74
g3068
sg67
(lp3075
g103
asbasbasbag60
(g76
g62
NtRp3076
(dp3077
g65
(dp3078
sg74
g2460
sg67
(lp3079
g60
(g81
g62
NtRp3080
(dp3081
g65
(dp3082
g85
g86
ssg74
g3076
sg67
(lp3083
S'wsgi.url_scheme'
p3084
asbag60
(g81
g62
NtRp3085
(dp3086
g65
(dp3087
g92
g93
ssg74
g3076
sg67
(lp3088
S':'
asbag60
(g81
g62
NtRp3089
(dp3090
g65
(dp3091
sg74
g3076
sg67
(lp3092
g60
(g61
g62
NtRp3093
(dp3094
g65
(dp3095
g73
I3
ssg74
g3089
sg67
(lp3096
g1629
asbasbasbag60
(g76
g62
NtRp3097
(dp3098
g65
(dp3099
sg74
g2460
sg67
(lp3100
g60
(g81
g62
NtRp3101
(dp3102
g65
(dp3103
g85
g86
ssg74
g3097
sg67
(lp3104
S'wsgi.version'
p3105
asbag60
(g81
g62
NtRp3106
(dp3107
g65
(dp3108
g92
g93
ssg74
g3097
sg67
(lp3109
S':'
asbag60
(g81
g62
NtRp3110
(dp3111
g65
(dp3112
sg74
g3097
sg67
(lp3113
g60
(g61
g62
NtRp3114
(dp3115
g65
(dp3116
g73
I3
ssg74
g3110
sg67
(lp3117
S'1'
asbasbasbasbasbasbasbasbasbasbasbasbasbsS'frames'
p3118
(lp3119
(dp3120
S'file'
p3121
S'/home/kaique/Projects/web2py/gluon/restricted.py'
p3122
sS'dump'
p3123
(dp3124
S'environment'
p3125
S"{'A': <class 'gluon.html.A'>, 'Auth': <class 'gluon.tools.Auth'>, 'B': <class 'gluon.html.B'>, 'BEAUTIFY': <class 'gluon.html.BEAUTIFY'>, 'BODY': <class 'gluon.html.BODY'>, 'BR': <class 'gluon.html.BR'>, 'BUTTON': <class 'gluon.html.BUTTON'>, 'CAT': <class 'gluon.html.CAT'>, 'CENTER': <class 'gluon.html.CENTER'>, 'CLEANUP': <class 'gluon.validators.CLEANUP'>, ...}"
p3126
sS'ccode'
p3127
S'<code object <module> at 0x36323b0, file "/home/...ons/synopsis/controllers/information.py", line 2>'
p3128
ssS'lnum'
p3129
I194
sS'lines'
p3130
(dp3131
I192
S'        else:'
p3132
sI193
S'            ccode = compile2(code,layer)'
p3133
sI194
S'        exec ccode in environment'
p3134
sI195
S'    except HTTP:'
p3135
sI196
S'        raise'
p3136
sI197
S'    except Exception, error:'
p3137
sI198
S'        # XXX Show exception in Wing IDE if running in debugger'
p3138
sI189
S'    try:'
p3139
sI190
S'        if type(code) == types.CodeType:'
p3140
sI191
S'            ccode = code'
p3141
ssS'call'
p3142
S"(code='# -*- coding: utf-8 -*-\\nimport functions as f # ...\\treturn {}\\n\\nresponse._vars=response._caller(new)\\n', environment={'A': <class 'gluon.html.A'>, 'Auth': <class 'gluon.tools.Auth'>, 'B': <class 'gluon.html.B'>, 'BEAUTIFY': <class 'gluon.html.BEAUTIFY'>, 'BODY': <class 'gluon.html.BODY'>, 'BR': <class 'gluon.html.BR'>, 'BUTTON': <class 'gluon.html.BUTTON'>, 'CAT': <class 'gluon.html.CAT'>, 'CENTER': <class 'gluon.html.CENTER'>, 'CLEANUP': <class 'gluon.validators.CLEANUP'>, ...}, layer='/home/kaique/Projects/web2py/applications/synopsis/controllers/information.py')"
p3143
sS'func'
p3144
S'restricted'
p3145
sa(dp3146
g3121
S'/home/kaique/Projects/web2py/applications/synopsis/controllers/information.py'
p3147
sg3123
(dp3148
sg3129
I137
sg3130
(dp3149
I128
S"\t\t\tresponse.flahs = T('Please, fill the field...')"
p3150
sI129
S''
sI130
S"\t\treturn { 'form': row,"
p3151
sI131
S"\t\t\t\t 'title': title }"
p3152
sI132
S''
sI133
S'@auth.requires_login()'
p3153
sI134
S'def edit(): # Edit the subject'
p3154
sI135
S'\treturn {}'
p3155
sI126
S"\t\t\tresponse.flash = T('Sorry, try again!')"
p3156
sI127
S'\t\telse:'
p3157
ssg3142
S'()'
p3158
sg3144
S'<module>'
p3159
sa(dp3160
g3121
S'/home/kaique/Projects/web2py/gluon/globals.py'
p3161
sg3123
(dp3162
S'self'
p3163
S'undefined'
p3164
sS'f'
S'<function new>'
p3165
ssg3129
I149
sg3130
(dp3166
I144
S'        self.meta = Storage()      # used by web2py_ajax.html'
p3167
sI145
S'        self.menu = []             # used by the default view layout'
p3168
sI146
S'        self.files = []            # used by web2py_ajax.html'
p3169
sI147
S'        self.generic_patterns = [] # patterns to allow generic views'
p3170
sI148
S'        self._vars = None'
p3171
sI149
S'        self._caller = lambda f: f()'
p3172
sI150
S'        self._view_environment = None'
p3173
sI151
S'        self._custom_commit = None'
p3174
sI152
S'        self._custom_rollback = None'
p3175
sI153
S''
ssg3142
S'(f=<function new>)'
p3176
sg3144
S'<lambda>'
p3177
sa(dp3178
g3121
S'/home/kaique/Projects/web2py/gluon/tools.py'
p3179
sg3123
(dp3180
S'action'
p3181
S'<function new>'
p3182
sS'a'
S'()'
p3183
sS'b'
g20
ssg3129
I2456
sg3130
(dp3184
I2451
S"                            '?_next='+urllib.quote(next))"
p3185
sI2452
S'                if not condition:'
p3186
sI2453
S'                    current.session.flash = self.messages.access_denied'
p3187
sI2454
S'                    return call_or_redirect('
p3188
sI2455
S'                        self.settings.on_failed_authorization)'
p3189
sI2456
S'                return action(*a, **b)'
p3190
sI2457
S'            f.__doc__ = action.__doc__'
p3191
sI2458
S'            f.__name__ = action.__name__'
p3192
sI2459
S'            f.__dict__.update(action.__dict__)'
p3193
sI2460
S'            return f'
p3194
ssg3142
S'(*a=(), **b={})'
p3195
sg3144
S'f'
sa(dp3196
g3121
S'/home/kaique/Projects/web2py/applications/synopsis/controllers/information.py'
p3197
sg3123
(dp3198
S'l'
S"'9'"
p3199
sS'db.row'
p3200
S"<Table {'content': <gluon.dal.Field object at 0x...0>, 'id': <gluon.dal.Field object at 0x361c190>}>"
p3201
sS'column_id'
p3202
g3164
sS'content'
p3203
g3164
sS'db.row.insert'
p3204
S"<bound method Table.insert of <Table {'content':...>, 'id': <gluon.dal.Field object at 0x361c190>}>>"
p3205
sS'line.vars'
p3206
S"<Storage {'9': 'My new test for column3', '7': '...test for title2', '6': 'My new test for title1'}>"
p3207
sS'global db'
p3208
S"<DAL {'auth_event': <Table {'origin': <gluon.dal..., 'id': <gluon.dal.Field object at 0x3336310>}>}>"
p3209
sS'line'
p3210
S'<gluon.html.FORM object>'
p3211
ssg3129
I108
sg3130
(dp3212
I103
S''
sI104
S"\t\tline.append(INPUT(_type='submit', _value=T('Create')))"
p3213
sI105
S''
sI106
S"\t\tif line.process(formname='new_line').accepted:"
p3214
sI107
S'\t\t\tfor l in line.vars:'
p3215
sI108
S'\t\t\t\tdb.row.insert(content= line.vars[l], column_id= l)'
p3216
sI109
S''
sI110
S"\t\t\tresponse.flash = T('New line was created!')"
p3217
sI111
S'\t\telif line.errors:'
p3218
sI112
S"\t\t\tresponse.flash = T('Try the fill inputs again!')"
p3219
ssg3142
S'()'
p3220
sg3144
S'new'
p3221
sa(dp3222
g3121
S'/home/kaique/Projects/web2py/gluon/dal.py'
p3223
sg3123
(dp3224
S'self._listify'
p3225
S"<bound method Table._listify of <Table {'content...>, 'id': <gluon.dal.Field object at 0x361c190>}>>"
p3226
sS'fields'
p3227
S"{'column_id': '9', 'content': 'My new test for column3'}"
p3228
sS'self'
p3229
S"<Table {'content': <gluon.dal.Field object at 0x...0>, 'id': <gluon.dal.Field object at 0x361c190>}>"
p3230
sS'self._db._adapter'
p3231
S'<gluon.dal.SQLiteAdapter object>'
p3232
sS'self._db._adapter.insert'
p3233
S'<bound method SQLiteAdapter.insert of <gluon.dal.SQLiteAdapter object>>'
p3234
sS'self._db'
p3235
S"<DAL {'auth_event': <Table {'origin': <gluon.dal..., 'id': <gluon.dal.Field object at 0x3336310>}>}>"
p3236
ssg3129
I4976
sg3130
(dp3237
I4971
S''
sI4972
S'    def _insert(self, **fields):'
p3238
sI4973
S'        return self._db._adapter._insert(self,self._listify(fields))'
p3239
sI4974
S''
sI4975
S'    def insert(self, **fields):'
p3240
sI4976
S'        return self._db._adapter.insert(self,self._listify(fields))'
p3241
sI4977
S''
sI4978
S'    def validate_and_insert(self,**fields):'
p3242
sI4979
S'        response = Row()'
p3243
sI4980
S'        response.errors = self._validate(**fields)'
p3244
ssg3142
S"(self=<Table {'content': <gluon.dal.Field object at 0x...0>, 'id': <gluon.dal.Field object at 0x361c190>}>, **fields={'column_id': '9', 'content': 'My new test for column3'})"
p3245
sg3144
S'insert'
p3246
sa(dp3247
g3121
S'/home/kaique/Projects/web2py/gluon/dal.py'
p3248
sg3123
(dp3249
S'e'
S"OperationalError('database is locked',)"
p3250
ssg3129
I886
sg3130
(dp3251
I881
S'        try:'
p3252
sI882
S'            self.execute(query)'
p3253
sI883
S'        except Exception, e:'
p3254
sI884
S'            if isinstance(e,self.integrity_error_class()):'
p3255
sI885
S'                return None'
p3256
sI886
S'            raise e'
p3257
sI887
S"        if hasattr(table,'_primarykey'):"
p3258
sI888
S'            return dict([(k[0].name, k[1]) for k in fields \\'
p3259
sI889
S'                             if k[0].name in table._primarykey])'
p3260
sI890
S'        id = self.lastrowid(table)'
p3261
ssg3142
S"(self=<gluon.dal.SQLiteAdapter object>, table=<Table {'content': <gluon.dal.Field object at 0x...0>, 'id': <gluon.dal.Field object at 0x361c190>}>, fields=[(<gluon.dal.Field object>, 'My new test for column3'), (<gluon.dal.Field object>, '9'), (<gluon.dal.Field object>, datetime.datetime(2012, 1, 17, 9, 13, 31, 346167)), (<gluon.dal.Field object>, 1), (<gluon.dal.Field object>, datetime.datetime(2012, 1, 17, 9, 13, 31, 346167)), (<gluon.dal.Field object>, 1)])"
p3262
sg3144
g3246
sasS'pyver'
p3263
S'Python 2.7.2+: /usr/bin/python'
p3264
sS'session'
p3265
g60
(g61
g62
NtRp3266
(dp3267
g65
(dp3268
sg67
(lp3269
g60
(g69
g62
NtRp3270
(dp3271
g65
(dp3272
g73
I5
ssg74
Nsg67
(lp3273
g60
(g76
g62
NtRp3274
(dp3275
g65
(dp3276
sg74
g3270
sg67
(lp3277
g60
(g81
g62
NtRp3278
(dp3279
g65
(dp3280
g85
g86
ssg74
g3274
sg67
(lp3281
S'auth'
p3282
asbag60
(g81
g62
NtRp3283
(dp3284
g65
(dp3285
g92
g93
ssg74
g3274
sg67
(lp3286
S':'
asbag60
(g81
g62
NtRp3287
(dp3288
g65
(dp3289
sg74
g3274
sg67
(lp3290
g60
(g61
g62
NtRp3291
(dp3292
g65
(dp3293
g73
I5
ssg74
g3287
sg67
(lp3294
g60
(g69
g62
NtRp3295
(dp3296
g65
(dp3297
g73
I4
ssg74
Nsg67
(lp3298
g60
(g76
g62
NtRp3299
(dp3300
g65
(dp3301
sg74
g3295
sg67
(lp3302
g60
(g81
g62
NtRp3303
(dp3304
g65
(dp3305
g85
g86
ssg74
g3299
sg67
(lp3306
S'expiration'
p3307
asbag60
(g81
g62
NtRp3308
(dp3309
g65
(dp3310
g92
g93
ssg74
g3299
sg67
(lp3311
S':'
asbag60
(g81
g62
NtRp3312
(dp3313
g65
(dp3314
sg74
g3299
sg67
(lp3315
g60
(g61
g62
NtRp3316
(dp3317
g65
(dp3318
g73
I4
ssg74
g3312
sg67
(lp3319
S'2592000'
p3320
asbasbasbag60
(g76
g62
NtRp3321
(dp3322
g65
(dp3323
sg74
g3295
sg67
(lp3324
g60
(g81
g62
NtRp3325
(dp3326
g65
(dp3327
g85
g86
ssg74
g3321
sg67
(lp3328
S'hmac_key'
p3329
asbag60
(g81
g62
NtRp3330
(dp3331
g65
(dp3332
g92
g93
ssg74
g3321
sg67
(lp3333
S':'
asbag60
(g81
g62
NtRp3334
(dp3335
g65
(dp3336
sg74
g3321
sg67
(lp3337
g60
(g61
g62
NtRp3338
(dp3339
g65
(dp3340
g73
I4
ssg74
g3334
sg67
(lp3341
S'eeb302cc-2736-437e-a66e-358ba65bbfc1'
p3342
asbasbasbag60
(g76
g62
NtRp3343
(dp3344
g65
(dp3345
sg74
g3295
sg67
(lp3346
g60
(g81
g62
NtRp3347
(dp3348
g65
(dp3349
g85
g86
ssg74
g3343
sg67
(lp3350
S'last_visit'
p3351
asbag60
(g81
g62
NtRp3352
(dp3353
g65
(dp3354
g92
g93
ssg74
g3343
sg67
(lp3355
S':'
asbag60
(g81
g62
NtRp3356
(dp3357
g65
(dp3358
sg74
g3343
sg67
(lp3359
g60
(g61
g62
NtRp3360
(dp3361
g65
(dp3362
g73
I4
ssg74
g3356
sg67
(lp3363
S'datetime.datetime(2012, 1, 17, 8, 50, 18, 73373)'
p3364
asbasbasbag60
(g76
g62
NtRp3365
(dp3366
g65
(dp3367
sg74
g3295
sg67
(lp3368
g60
(g81
g62
NtRp3369
(dp3370
g65
(dp3371
g85
g86
ssg74
g3365
sg67
(lp3372
S'remember'
p3373
asbag60
(g81
g62
NtRp3374
(dp3375
g65
(dp3376
g92
g93
ssg74
g3365
sg67
(lp3377
S':'
asbag60
(g81
g62
NtRp3378
(dp3379
g65
(dp3380
sg74
g3365
sg67
(lp3381
g60
(g61
g62
NtRp3382
(dp3383
g65
(dp3384
g73
I4
ssg74
g3378
sg67
(lp3385
g103
asbasbasbag60
(g76
g62
NtRp3386
(dp3387
g65
(dp3388
sg74
g3295
sg67
(lp3389
g60
(g81
g62
NtRp3390
(dp3391
g65
(dp3392
g85
g86
ssg74
g3386
sg67
(lp3393
S'user'
p3394
asbag60
(g81
g62
NtRp3395
(dp3396
g65
(dp3397
g92
g93
ssg74
g3386
sg67
(lp3398
S':'
asbag60
(g81
g62
NtRp3399
(dp3400
g65
(dp3401
sg74
g3386
sg67
(lp3402
g60
(g61
g62
NtRp3403
(dp3404
g65
(dp3405
g73
I4
ssg74
g3399
sg67
(lp3406
g60
(g69
g62
NtRp3407
(dp3408
g65
(dp3409
g73
I3
ssg74
Nsg67
(lp3410
g60
(g76
g62
NtRp3411
(dp3412
g65
(dp3413
sg74
g3407
sg67
(lp3414
g60
(g81
g62
NtRp3415
(dp3416
g65
(dp3417
g85
g86
ssg74
g3411
sg67
(lp3418
S'email'
p3419
asbag60
(g81
g62
NtRp3420
(dp3421
g65
(dp3422
g92
g93
ssg74
g3411
sg67
(lp3423
S':'
asbag60
(g81
g62
NtRp3424
(dp3425
g65
(dp3426
sg74
g3411
sg67
(lp3427
g60
(g61
g62
NtRp3428
(dp3429
g65
(dp3430
g73
I3
ssg74
g3424
sg67
(lp3431
S'kaique.developer@gmail.com'
p3432
asbasbasbag60
(g76
g62
NtRp3433
(dp3434
g65
(dp3435
sg74
g3407
sg67
(lp3436
g60
(g81
g62
NtRp3437
(dp3438
g65
(dp3439
g85
g86
ssg74
g3433
sg67
(lp3440
S'first_name'
p3441
asbag60
(g81
g62
NtRp3442
(dp3443
g65
(dp3444
g92
g93
ssg74
g3433
sg67
(lp3445
S':'
asbag60
(g81
g62
NtRp3446
(dp3447
g65
(dp3448
sg74
g3433
sg67
(lp3449
g60
(g61
g62
NtRp3450
(dp3451
g65
(dp3452
g73
I3
ssg74
g3446
sg67
(lp3453
S'kaique'
p3454
asbasbasbag60
(g76
g62
NtRp3455
(dp3456
g65
(dp3457
sg74
g3407
sg67
(lp3458
g60
(g81
g62
NtRp3459
(dp3460
g65
(dp3461
g85
g86
ssg74
g3455
sg67
(lp3462
S'id'
p3463
asbag60
(g81
g62
NtRp3464
(dp3465
g65
(dp3466
g92
g93
ssg74
g3455
sg67
(lp3467
S':'
asbag60
(g81
g62
NtRp3468
(dp3469
g65
(dp3470
sg74
g3455
sg67
(lp3471
g60
(g61
g62
NtRp3472
(dp3473
g65
(dp3474
g73
I3
ssg74
g3468
sg67
(lp3475
S'1'
asbasbasbag60
(g76
g62
NtRp3476
(dp3477
g65
(dp3478
sg74
g3407
sg67
(lp3479
g60
(g81
g62
NtRp3480
(dp3481
g65
(dp3482
g85
g86
ssg74
g3476
sg67
(lp3483
S'last_name'
p3484
asbag60
(g81
g62
NtRp3485
(dp3486
g65
(dp3487
g92
g93
ssg74
g3476
sg67
(lp3488
S':'
asbag60
(g81
g62
NtRp3489
(dp3490
g65
(dp3491
sg74
g3476
sg67
(lp3492
g60
(g61
g62
NtRp3493
(dp3494
g65
(dp3495
g73
I3
ssg74
g3489
sg67
(lp3496
S'silva'
p3497
asbasbasbag60
(g76
g62
NtRp3498
(dp3499
g65
(dp3500
sg74
g3407
sg67
(lp3501
g60
(g81
g62
NtRp3502
(dp3503
g65
(dp3504
g85
g86
ssg74
g3498
sg67
(lp3505
S'password'
p3506
asbag60
(g81
g62
NtRp3507
(dp3508
g65
(dp3509
g92
g93
ssg74
g3498
sg67
(lp3510
S':'
asbag60
(g81
g62
NtRp3511
(dp3512
g65
(dp3513
sg74
g3498
sg67
(lp3514
g60
(g61
g62
NtRp3515
(dp3516
g65
(dp3517
g73
I3
ssg74
g3511
sg67
(lp3518
S'72c6a018d62d3fb47d95389e4a062cd2'
p3519
asbasbasbag60
(g76
g62
NtRp3520
(dp3521
g65
(dp3522
sg74
g3407
sg67
(lp3523
g60
(g81
g62
NtRp3524
(dp3525
g65
(dp3526
g85
g86
ssg74
g3520
sg67
(lp3527
S'registration_key'
p3528
asbag60
(g81
g62
NtRp3529
(dp3530
g65
(dp3531
g92
g93
ssg74
g3520
sg67
(lp3532
S':'
asbag60
(g81
g62
NtRp3533
(dp3534
g65
(dp3535
sg74
g3520
sg67
(lp3536
g60
(g61
g62
NtRp3537
(dp3538
g65
(dp3539
g73
I3
ssg74
g3533
sg67
(lp3540
S''
asbasbasbag60
(g76
g62
NtRp3541
(dp3542
g65
(dp3543
sg74
g3407
sg67
(lp3544
g60
(g81
g62
NtRp3545
(dp3546
g65
(dp3547
g85
g86
ssg74
g3541
sg67
(lp3548
S'reset_password_key'
p3549
asbag60
(g81
g62
NtRp3550
(dp3551
g65
(dp3552
g92
g93
ssg74
g3541
sg67
(lp3553
S':'
asbag60
(g81
g62
NtRp3554
(dp3555
g65
(dp3556
sg74
g3541
sg67
(lp3557
g60
(g61
g62
NtRp3558
(dp3559
g65
(dp3560
g73
I3
ssg74
g3554
sg67
(lp3561
S''
asbasbasbasbasbasbasbasbasbasbasbag60
(g76
g62
NtRp3562
(dp3563
g65
(dp3564
sg74
g3270
sg67
(lp3565
g60
(g81
g62
NtRp3566
(dp3567
g65
(dp3568
g85
g86
ssg74
g3562
sg67
(lp3569
S'back'
p3570
asbag60
(g81
g62
NtRp3571
(dp3572
g65
(dp3573
g92
g93
ssg74
g3562
sg67
(lp3574
S':'
asbag60
(g81
g62
NtRp3575
(dp3576
g65
(dp3577
sg74
g3562
sg67
(lp3578
g60
(g61
g62
NtRp3579
(dp3580
g65
(dp3581
g73
I5
ssg74
g3575
sg67
(lp3582
S'9'
asbasbasbag60
(g76
g62
NtRp3583
(dp3584
g65
(dp3585
sg74
g3270
sg67
(lp3586
g60
(g81
g62
NtRp3587
(dp3588
g65
(dp3589
g85
g86
ssg74
g3583
sg67
(lp3590
S'index'
p3591
asbag60
(g81
g62
NtRp3592
(dp3593
g65
(dp3594
g92
g93
ssg74
g3583
sg67
(lp3595
S':'
asbag60
(g81
g62
NtRp3596
(dp3597
g65
(dp3598
sg74
g3583
sg67
(lp3599
g60
(g61
g62
NtRp3600
(dp3601
g65
(dp3602
g73
I5
ssg74
g3596
sg67
(lp3603
S'1'
asbasbasbasbasbsS'etype'
p3604
S"<class 'sqlite3.OperationalError'>"
p3605
sS'date'
p3606
S'Tue Jan 17 09:13:36 2012'
p3607
sS'response'
p3608
g60
(g61
g62
NtRp3609
(dp3610
g65
(dp3611
sg67
(lp3612
g60
(g69
g62
NtRp3613
(dp3614
g65
(dp3615
g73
I5
ssg74
Nsg67
(lp3616
g60
(g76
g62
NtRp3617
(dp3618
g65
(dp3619
sg74
g3613
sg67
(lp3620
g60
(g81
g62
NtRp3621
(dp3622
g65
(dp3623
g85
g86
ssg74
g3617
sg67
(lp3624
g183
asbag60
(g81
g62
NtRp3625
(dp3626
g65
(dp3627
g92
g93
ssg74
g3617
sg67
(lp3628
S':'
asbag60
(g81
g62
NtRp3629
(dp3630
g65
(dp3631
sg74
g3617
sg67
(lp3632
g60
(g61
g62
NtRp3633
(dp3634
g65
(dp3635
g73
I5
ssg74
g3629
sg67
(lp3636
S'<cStringIO.StringO object at 0x362aed8>'
p3637
asbasbasbag60
(g76
g62
NtRp3638
(dp3639
g65
(dp3640
sg74
g3613
sg67
(lp3641
g60
(g81
g62
NtRp3642
(dp3643
g65
(dp3644
g85
g86
ssg74
g3638
sg67
(lp3645
g249
asbag60
(g81
g62
NtRp3646
(dp3647
g65
(dp3648
g92
g93
ssg74
g3638
sg67
(lp3649
S':'
asbag60
(g81
g62
NtRp3650
(dp3651
g65
(dp3652
sg74
g3638
sg67
(lp3653
g60
(g61
g62
NtRp3654
(dp3655
g65
(dp3656
g73
I5
ssg74
g3650
sg67
(lp3657
g60
(g69
g62
NtRp3658
(dp3659
g65
(dp3660
g73
I4
ssg74
Nsg67
(lp3661
g60
(g76
g62
NtRp3662
(dp3663
g65
(dp3664
sg74
g3658
sg67
(lp3665
g60
(g81
g62
NtRp3666
(dp3667
g65
(dp3668
g85
g86
ssg74
g3662
sg67
(lp3669
S'session_id_synopsis'
p3670
asbag60
(g81
g62
NtRp3671
(dp3672
g65
(dp3673
g92
g93
ssg74
g3662
sg67
(lp3674
S':'
asbag60
(g81
g62
NtRp3675
(dp3676
g65
(dp3677
sg74
g3662
sg67
(lp3678
g60
(g61
g62
NtRp3679
(dp3680
g65
(dp3681
g73
I4
ssg74
g3675
sg67
(lp3682
g60
(g69
g62
NtRp3683
(dp3684
g65
(dp3685
g73
I3
ssg74
Nsg67
(lp3686
g60
(g76
g62
NtRp3687
(dp3688
g65
(dp3689
sg74
g3683
sg67
(lp3690
g60
(g81
g62
NtRp3691
(dp3692
g65
(dp3693
g85
g86
ssg74
g3687
sg67
(lp3694
g299
asbag60
(g81
g62
NtRp3695
(dp3696
g65
(dp3697
g92
g93
ssg74
g3687
sg67
(lp3698
S':'
asbag60
(g81
g62
NtRp3699
(dp3700
g65
(dp3701
sg74
g3687
sg67
(lp3702
g60
(g61
g62
NtRp3703
(dp3704
g65
(dp3705
g73
I3
ssg74
g3699
sg67
(lp3706
S''
asbasbasbag60
(g76
g62
NtRp3707
(dp3708
g65
(dp3709
sg74
g3683
sg67
(lp3710
g60
(g81
g62
NtRp3711
(dp3712
g65
(dp3713
g85
g86
ssg74
g3707
sg67
(lp3714
g320
asbag60
(g81
g62
NtRp3715
(dp3716
g65
(dp3717
g92
g93
ssg74
g3707
sg67
(lp3718
S':'
asbag60
(g81
g62
NtRp3719
(dp3720
g65
(dp3721
sg74
g3707
sg67
(lp3722
g60
(g61
g62
NtRp3723
(dp3724
g65
(dp3725
g73
I3
ssg74
g3719
sg67
(lp3726
S''
asbasbasbag60
(g76
g62
NtRp3727
(dp3728
g65
(dp3729
sg74
g3683
sg67
(lp3730
g60
(g81
g62
NtRp3731
(dp3732
g65
(dp3733
g85
g86
ssg74
g3727
sg67
(lp3734
g341
asbag60
(g81
g62
NtRp3735
(dp3736
g65
(dp3737
g92
g93
ssg74
g3727
sg67
(lp3738
S':'
asbag60
(g81
g62
NtRp3739
(dp3740
g65
(dp3741
sg74
g3727
sg67
(lp3742
g60
(g61
g62
NtRp3743
(dp3744
g65
(dp3745
g73
I3
ssg74
g3739
sg67
(lp3746
S''
asbasbasbag60
(g76
g62
NtRp3747
(dp3748
g65
(dp3749
sg74
g3683
sg67
(lp3750
g60
(g81
g62
NtRp3751
(dp3752
g65
(dp3753
g85
g86
ssg74
g3747
sg67
(lp3754
g362
asbag60
(g81
g62
NtRp3755
(dp3756
g65
(dp3757
g92
g93
ssg74
g3747
sg67
(lp3758
S':'
asbag60
(g81
g62
NtRp3759
(dp3760
g65
(dp3761
sg74
g3747
sg67
(lp3762
g60
(g61
g62
NtRp3763
(dp3764
g65
(dp3765
g73
I3
ssg74
g3759
sg67
(lp3766
S''
asbasbasbag60
(g76
g62
NtRp3767
(dp3768
g65
(dp3769
sg74
g3683
sg67
(lp3770
g60
(g81
g62
NtRp3771
(dp3772
g65
(dp3773
g85
g86
ssg74
g3767
sg67
(lp3774
g383
asbag60
(g81
g62
NtRp3775
(dp3776
g65
(dp3777
g92
g93
ssg74
g3767
sg67
(lp3778
S':'
asbag60
(g81
g62
NtRp3779
(dp3780
g65
(dp3781
sg74
g3767
sg67
(lp3782
g60
(g61
g62
NtRp3783
(dp3784
g65
(dp3785
g73
I3
ssg74
g3779
sg67
(lp3786
S''
asbasbasbag60
(g76
g62
NtRp3787
(dp3788
g65
(dp3789
sg74
g3683
sg67
(lp3790
g60
(g81
g62
NtRp3791
(dp3792
g65
(dp3793
g85
g86
ssg74
g3787
sg67
(lp3794
g404
asbag60
(g81
g62
NtRp3795
(dp3796
g65
(dp3797
g92
g93
ssg74
g3787
sg67
(lp3798
S':'
asbag60
(g81
g62
NtRp3799
(dp3800
g65
(dp3801
sg74
g3787
sg67
(lp3802
g60
(g61
g62
NtRp3803
(dp3804
g65
(dp3805
g73
I3
ssg74
g3799
sg67
(lp3806
S'/'
asbasbasbag60
(g76
g62
NtRp3807
(dp3808
g65
(dp3809
sg74
g3683
sg67
(lp3810
g60
(g81
g62
NtRp3811
(dp3812
g65
(dp3813
g85
g86
ssg74
g3807
sg67
(lp3814
g425
asbag60
(g81
g62
NtRp3815
(dp3816
g65
(dp3817
g92
g93
ssg74
g3807
sg67
(lp3818
S':'
asbag60
(g81
g62
NtRp3819
(dp3820
g65
(dp3821
sg74
g3807
sg67
(lp3822
g60
(g61
g62
NtRp3823
(dp3824
g65
(dp3825
g73
I3
ssg74
g3819
sg67
(lp3826
S''
asbasbasbag60
(g76
g62
NtRp3827
(dp3828
g65
(dp3829
sg74
g3683
sg67
(lp3830
g60
(g81
g62
NtRp3831
(dp3832
g65
(dp3833
g85
g86
ssg74
g3827
sg67
(lp3834
g446
asbag60
(g81
g62
NtRp3835
(dp3836
g65
(dp3837
g92
g93
ssg74
g3827
sg67
(lp3838
S':'
asbag60
(g81
g62
NtRp3839
(dp3840
g65
(dp3841
sg74
g3827
sg67
(lp3842
g60
(g61
g62
NtRp3843
(dp3844
g65
(dp3845
g73
I3
ssg74
g3839
sg67
(lp3846
S''
asbasbasbasbasbasbasbasbasbasbasbag60
(g76
g62
NtRp3847
(dp3848
g65
(dp3849
sg74
g3613
sg67
(lp3850
g60
(g81
g62
NtRp3851
(dp3852
g65
(dp3853
g85
g86
ssg74
g3847
sg67
(lp3854
S'files'
p3855
asbag60
(g81
g62
NtRp3856
(dp3857
g65
(dp3858
g92
g93
ssg74
g3847
sg67
(lp3859
S':'
asbag60
(g81
g62
NtRp3860
(dp3861
g65
(dp3862
sg74
g3847
sg67
(lp3863
g60
(g61
g62
NtRp3864
(dp3865
g65
(dp3866
g73
I5
ssg74
g3860
sg67
(lp3867
g60
(g69
g62
NtRp3868
(dp3869
g65
(dp3870
g73
I4
ssg74
Nsg67
(lp3871
sbasbasbasbag60
(g76
g62
NtRp3872
(dp3873
g65
(dp3874
sg74
g3613
sg67
(lp3875
g60
(g81
g62
NtRp3876
(dp3877
g65
(dp3878
g85
g86
ssg74
g3872
sg67
(lp3879
S'flash'
p3880
asbag60
(g81
g62
NtRp3881
(dp3882
g65
(dp3883
g92
g93
ssg74
g3872
sg67
(lp3884
S':'
asbag60
(g81
g62
NtRp3885
(dp3886
g65
(dp3887
sg74
g3872
sg67
(lp3888
g60
(g61
g62
NtRp3889
(dp3890
g65
(dp3891
g73
I5
ssg74
g3885
sg67
(lp3892
cgluon.languages
lazyT_unpickle
p3893
(S's\x08\x00\x00\x00Success!'
tRp3894
asbasbasbag60
(g76
g62
NtRp3895
(dp3896
g65
(dp3897
sg74
g3613
sg67
(lp3898
g60
(g81
g62
NtRp3899
(dp3900
g65
(dp3901
g85
g86
ssg74
g3895
sg67
(lp3902
S'generic_patterns'
p3903
asbag60
(g81
g62
NtRp3904
(dp3905
g65
(dp3906
g92
g93
ssg74
g3895
sg67
(lp3907
S':'
asbag60
(g81
g62
NtRp3908
(dp3909
g65
(dp3910
sg74
g3895
sg67
(lp3911
g60
(g61
g62
NtRp3912
(dp3913
g65
(dp3914
g73
I5
ssg74
g3908
sg67
(lp3915
g60
(g69
g62
NtRp3916
(dp3917
g65
(dp3918
g73
I4
ssg74
Nsg67
(lp3919
g60
(g76
g62
NtRp3920
(dp3921
g65
(dp3922
sg74
g3916
sg67
(lp3923
g60
(g81
g62
NtRp3924
(dp3925
g65
(dp3926
sg74
g3920
sg67
(lp3927
g60
(g61
g62
NtRp3928
(dp3929
g65
(dp3930
g73
I4
ssg74
g3924
sg67
(lp3931
S'*'
asbasbasbasbasbasbasbag60
(g76
g62
NtRp3932
(dp3933
g65
(dp3934
sg74
g3613
sg67
(lp3935
g60
(g81
g62
NtRp3936
(dp3937
g65
(dp3938
g85
g86
ssg74
g3932
sg67
(lp3939
S'headers'
p3940
asbag60
(g81
g62
NtRp3941
(dp3942
g65
(dp3943
g92
g93
ssg74
g3932
sg67
(lp3944
S':'
asbag60
(g81
g62
NtRp3945
(dp3946
g65
(dp3947
sg74
g3932
sg67
(lp3948
g60
(g61
g62
NtRp3949
(dp3950
g65
(dp3951
g73
I5
ssg74
g3945
sg67
(lp3952
g60
(g69
g62
NtRp3953
(dp3954
g65
(dp3955
g73
I4
ssg74
Nsg67
(lp3956
g60
(g76
g62
NtRp3957
(dp3958
g65
(dp3959
sg74
g3953
sg67
(lp3960
g60
(g81
g62
NtRp3961
(dp3962
g65
(dp3963
g85
g86
ssg74
g3957
sg67
(lp3964
S'Cache-Control'
p3965
asbag60
(g81
g62
NtRp3966
(dp3967
g65
(dp3968
g92
g93
ssg74
g3957
sg67
(lp3969
S':'
asbag60
(g81
g62
NtRp3970
(dp3971
g65
(dp3972
sg74
g3957
sg67
(lp3973
g60
(g61
g62
NtRp3974
(dp3975
g65
(dp3976
g73
I4
ssg74
g3970
sg67
(lp3977
S'no-store, no-cache, must-revalidate, post-check=0, pre-check=0'
p3978
asbasbasbag60
(g76
g62
NtRp3979
(dp3980
g65
(dp3981
sg74
g3953
sg67
(lp3982
g60
(g81
g62
NtRp3983
(dp3984
g65
(dp3985
g85
g86
ssg74
g3979
sg67
(lp3986
S'Content-Type'
p3987
asbag60
(g81
g62
NtRp3988
(dp3989
g65
(dp3990
g92
g93
ssg74
g3979
sg67
(lp3991
S':'
asbag60
(g81
g62
NtRp3992
(dp3993
g65
(dp3994
sg74
g3979
sg67
(lp3995
g60
(g61
g62
NtRp3996
(dp3997
g65
(dp3998
g73
I4
ssg74
g3992
sg67
(lp3999
S'text/html; charset=utf-8'
p4000
asbasbasbag60
(g76
g62
NtRp4001
(dp4002
g65
(dp4003
sg74
g3953
sg67
(lp4004
g60
(g81
g62
NtRp4005
(dp4006
g65
(dp4007
g85
g86
ssg74
g4001
sg67
(lp4008
S'Expires'
p4009
asbag60
(g81
g62
NtRp4010
(dp4011
g65
(dp4012
g92
g93
ssg74
g4001
sg67
(lp4013
S':'
asbag60
(g81
g62
NtRp4014
(dp4015
g65
(dp4016
sg74
g4001
sg67
(lp4017
g60
(g61
g62
NtRp4018
(dp4019
g65
(dp4020
g73
I4
ssg74
g4014
sg67
(lp4021
S'Tue, 17 Jan 2012 11:13:31 GMT'
p4022
asbasbasbag60
(g76
g62
NtRp4023
(dp4024
g65
(dp4025
sg74
g3953
sg67
(lp4026
g60
(g81
g62
NtRp4027
(dp4028
g65
(dp4029
g85
g86
ssg74
g4023
sg67
(lp4030
S'Pragma'
p4031
asbag60
(g81
g62
NtRp4032
(dp4033
g65
(dp4034
g92
g93
ssg74
g4023
sg67
(lp4035
S':'
asbag60
(g81
g62
NtRp4036
(dp4037
g65
(dp4038
sg74
g4023
sg67
(lp4039
g60
(g61
g62
NtRp4040
(dp4041
g65
(dp4042
g73
I4
ssg74
g4036
sg67
(lp4043
S'no-cache'
p4044
asbasbasbag60
(g76
g62
NtRp4045
(dp4046
g65
(dp4047
sg74
g3953
sg67
(lp4048
g60
(g81
g62
NtRp4049
(dp4050
g65
(dp4051
g85
g86
ssg74
g4045
sg67
(lp4052
S'X-Powered-By'
p4053
asbag60
(g81
g62
NtRp4054
(dp4055
g65
(dp4056
g92
g93
ssg74
g4045
sg67
(lp4057
S':'
asbag60
(g81
g62
NtRp4058
(dp4059
g65
(dp4060
sg74
g4045
sg67
(lp4061
g60
(g61
g62
NtRp4062
(dp4063
g65
(dp4064
g73
I4
ssg74
g4058
sg67
(lp4065
S'web2py'
p4066
asbasbasbasbasbasbasbag60
(g76
g62
NtRp4067
(dp4068
g65
(dp4069
sg74
g3613
sg67
(lp4070
g60
(g81
g62
NtRp4071
(dp4072
g65
(dp4073
g85
g86
ssg74
g4067
sg67
(lp4074
S'menu'
p4075
asbag60
(g81
g62
NtRp4076
(dp4077
g65
(dp4078
g92
g93
ssg74
g4067
sg67
(lp4079
S':'
asbag60
(g81
g62
NtRp4080
(dp4081
g65
(dp4082
sg74
g4067
sg67
(lp4083
g60
(g61
g62
NtRp4084
(dp4085
g65
(dp4086
g73
I5
ssg74
g4080
sg67
(lp4087
g60
(g69
g62
NtRp4088
(dp4089
g65
(dp4090
g73
I4
ssg74
Nsg67
(lp4091
g60
(g76
g62
NtRp4092
(dp4093
g65
(dp4094
sg74
g4088
sg67
(lp4095
g60
(g81
g62
NtRp4096
(dp4097
g65
(dp4098
sg74
g4092
sg67
(lp4099
g60
(g61
g62
NtRp4100
(dp4101
g65
(dp4102
g73
I4
ssg74
g4096
sg67
(lp4103
g60
(g69
g62
NtRp4104
(dp4105
g65
(dp4106
g73
I3
ssg74
Nsg67
(lp4107
g60
(g76
g62
NtRp4108
(dp4109
g65
(dp4110
sg74
g4104
sg67
(lp4111
g60
(g81
g62
NtRp4112
(dp4113
g65
(dp4114
sg74
g4108
sg67
(lp4115
g60
(g61
g62
NtRp4116
(dp4117
g65
(dp4118
g73
I3
ssg74
g4112
sg67
(lp4119
g3893
(S't\x06\x00\x00\x00Inicio'
tRp4120
asbasbasbag60
(g76
g62
NtRp4121
(dp4122
g65
(dp4123
sg74
g4104
sg67
(lp4124
g60
(g81
g62
NtRp4125
(dp4126
g65
(dp4127
sg74
g4121
sg67
(lp4128
g60
(g61
g62
NtRp4129
(dp4130
g65
(dp4131
g73
I3
ssg74
g4125
sg67
(lp4132
g103
asbasbasbag60
(g76
g62
NtRp4133
(dp4134
g65
(dp4135
sg74
g4104
sg67
(lp4136
g60
(g81
g62
NtRp4137
(dp4138
g65
(dp4139
sg74
g4133
sg67
(lp4140
g60
(g61
g62
NtRp4141
(dp4142
g65
(dp4143
g73
I3
ssg74
g4137
sg67
(lp4144
S'/synopsis/default/index'
p4145
asbasbasbag60
(g76
g62
NtRp4146
(dp4147
g65
(dp4148
sg74
g4104
sg67
(lp4149
g60
(g81
g62
NtRp4150
(dp4151
g65
(dp4152
sg74
g4146
sg67
(lp4153
g60
(g61
g62
NtRp4154
(dp4155
g65
(dp4156
g73
I3
ssg74
g4150
sg67
(lp4157
g60
(g69
g62
NtRp4158
(dp4159
g65
(dp4160
g73
I2
ssg74
Nsg67
(lp4161
sbasbasbasbasbasbasbasbag60
(g76
g62
NtRp4162
(dp4163
g65
(dp4164
sg74
g4088
sg67
(lp4165
g60
(g81
g62
NtRp4166
(dp4167
g65
(dp4168
sg74
g4162
sg67
(lp4169
g60
(g61
g62
NtRp4170
(dp4171
g65
(dp4172
g73
I4
ssg74
g4166
sg67
(lp4173
g60
(g69
g62
NtRp4174
(dp4175
g65
(dp4176
g73
I3
ssg74
Nsg67
(lp4177
g60
(g76
g62
NtRp4178
(dp4179
g65
(dp4180
sg74
g4174
sg67
(lp4181
g60
(g81
g62
NtRp4182
(dp4183
g65
(dp4184
sg74
g4178
sg67
(lp4185
g60
(g61
g62
NtRp4186
(dp4187
g65
(dp4188
g73
I3
ssg74
g4182
sg67
(lp4189
g3893
(S's\r\x00\x00\x00Informa\xc3\xa7\xc3\xb5es'
tRp4190
asbasbasbag60
(g76
g62
NtRp4191
(dp4192
g65
(dp4193
sg74
g4174
sg67
(lp4194
g60
(g81
g62
NtRp4195
(dp4196
g65
(dp4197
sg74
g4191
sg67
(lp4198
g60
(g61
g62
NtRp4199
(dp4200
g65
(dp4201
g73
I3
ssg74
g4195
sg67
(lp4202
g103
asbasbasbag60
(g76
g62
NtRp4203
(dp4204
g65
(dp4205
sg74
g4174
sg67
(lp4206
g60
(g81
g62
NtRp4207
(dp4208
g65
(dp4209
sg74
g4203
sg67
(lp4210
g60
(g61
g62
NtRp4211
(dp4212
g65
(dp4213
g73
I3
ssg74
g4207
sg67
(lp4214
S'/synopsis/information/index'
p4215
asbasbasbag60
(g76
g62
NtRp4216
(dp4217
g65
(dp4218
sg74
g4174
sg67
(lp4219
g60
(g81
g62
NtRp4220
(dp4221
g65
(dp4222
sg74
g4216
sg67
(lp4223
g60
(g61
g62
NtRp4224
(dp4225
g65
(dp4226
g73
I3
ssg74
g4220
sg67
(lp4227
g60
(g69
g62
NtRp4228
(dp4229
g65
(dp4230
g73
I2
ssg74
Nsg67
(lp4231
sbasbasbasbasbasbasbasbag60
(g76
g62
NtRp4232
(dp4233
g65
(dp4234
sg74
g4088
sg67
(lp4235
g60
(g81
g62
NtRp4236
(dp4237
g65
(dp4238
sg74
g4232
sg67
(lp4239
g60
(g61
g62
NtRp4240
(dp4241
g65
(dp4242
g73
I4
ssg74
g4236
sg67
(lp4243
g60
(g69
g62
NtRp4244
(dp4245
g65
(dp4246
g73
I3
ssg74
Nsg67
(lp4247
g60
(g76
g62
NtRp4248
(dp4249
g65
(dp4250
sg74
g4244
sg67
(lp4251
g60
(g81
g62
NtRp4252
(dp4253
g65
(dp4254
sg74
g4248
sg67
(lp4255
g60
(g61
g62
NtRp4256
(dp4257
g65
(dp4258
g73
I3
ssg74
g4252
sg67
(lp4259
g3893
(S't\x05\x00\x00\x00Sobre'
tRp4260
asbasbasbag60
(g76
g62
NtRp4261
(dp4262
g65
(dp4263
sg74
g4244
sg67
(lp4264
g60
(g81
g62
NtRp4265
(dp4266
g65
(dp4267
sg74
g4261
sg67
(lp4268
g60
(g61
g62
NtRp4269
(dp4270
g65
(dp4271
g73
I3
ssg74
g4265
sg67
(lp4272
g103
asbasbasbag60
(g76
g62
NtRp4273
(dp4274
g65
(dp4275
sg74
g4244
sg67
(lp4276
g60
(g81
g62
NtRp4277
(dp4278
g65
(dp4279
sg74
g4273
sg67
(lp4280
g60
(g61
g62
NtRp4281
(dp4282
g65
(dp4283
g73
I3
ssg74
g4277
sg67
(lp4284
S'/synopsis/default/about'
p4285
asbasbasbag60
(g76
g62
NtRp4286
(dp4287
g65
(dp4288
sg74
g4244
sg67
(lp4289
g60
(g81
g62
NtRp4290
(dp4291
g65
(dp4292
sg74
g4286
sg67
(lp4293
g60
(g61
g62
NtRp4294
(dp4295
g65
(dp4296
g73
I3
ssg74
g4290
sg67
(lp4297
g60
(g69
g62
NtRp4298
(dp4299
g65
(dp4300
g73
I2
ssg74
Nsg67
(lp4301
sbasbasbasbasbasbasbasbasbasbasbasbag60
(g76
g62
NtRp4302
(dp4303
g65
(dp4304
sg74
g3613
sg67
(lp4305
g60
(g81
g62
NtRp4306
(dp4307
g65
(dp4308
g85
g86
ssg74
g4302
sg67
(lp4309
S'meta'
p4310
asbag60
(g81
g62
NtRp4311
(dp4312
g65
(dp4313
g92
g93
ssg74
g4302
sg67
(lp4314
S':'
asbag60
(g81
g62
NtRp4315
(dp4316
g65
(dp4317
sg74
g4302
sg67
(lp4318
g60
(g61
g62
NtRp4319
(dp4320
g65
(dp4321
g73
I5
ssg74
g4315
sg67
(lp4322
g60
(g69
g62
NtRp4323
(dp4324
g65
(dp4325
g73
I4
ssg74
Nsg67
(lp4326
g60
(g76
g62
NtRp4327
(dp4328
g65
(dp4329
sg74
g4323
sg67
(lp4330
g60
(g81
g62
NtRp4331
(dp4332
g65
(dp4333
g85
g86
ssg74
g4327
sg67
(lp4334
S'author'
p4335
asbag60
(g81
g62
NtRp4336
(dp4337
g65
(dp4338
g92
g93
ssg74
g4327
sg67
(lp4339
S':'
asbag60
(g81
g62
NtRp4340
(dp4341
g65
(dp4342
sg74
g4327
sg67
(lp4343
g60
(g61
g62
NtRp4344
(dp4345
g65
(dp4346
g73
I4
ssg74
g4340
sg67
(lp4347
S'Your Name <you@example.com>'
p4348
asbasbasbag60
(g76
g62
NtRp4349
(dp4350
g65
(dp4351
sg74
g4323
sg67
(lp4352
g60
(g81
g62
NtRp4353
(dp4354
g65
(dp4355
g85
g86
ssg74
g4349
sg67
(lp4356
S'copyright'
p4357
asbag60
(g81
g62
NtRp4358
(dp4359
g65
(dp4360
g92
g93
ssg74
g4349
sg67
(lp4361
S':'
asbag60
(g81
g62
NtRp4362
(dp4363
g65
(dp4364
sg74
g4349
sg67
(lp4365
g60
(g61
g62
NtRp4366
(dp4367
g65
(dp4368
g73
I4
ssg74
g4362
sg67
(lp4369
S'Copyright 2011'
p4370
asbasbasbag60
(g76
g62
NtRp4371
(dp4372
g65
(dp4373
sg74
g4323
sg67
(lp4374
g60
(g81
g62
NtRp4375
(dp4376
g65
(dp4377
g85
g86
ssg74
g4371
sg67
(lp4378
S'description'
p4379
asbag60
(g81
g62
NtRp4380
(dp4381
g65
(dp4382
g92
g93
ssg74
g4371
sg67
(lp4383
S':'
asbag60
(g81
g62
NtRp4384
(dp4385
g65
(dp4386
sg74
g4371
sg67
(lp4387
g60
(g61
g62
NtRp4388
(dp4389
g65
(dp4390
g73
I4
ssg74
g4384
sg67
(lp4391
S'a cool new app'
p4392
asbasbasbag60
(g76
g62
NtRp4393
(dp4394
g65
(dp4395
sg74
g4323
sg67
(lp4396
g60
(g81
g62
NtRp4397
(dp4398
g65
(dp4399
g85
g86
ssg74
g4393
sg67
(lp4400
S'generator'
p4401
asbag60
(g81
g62
NtRp4402
(dp4403
g65
(dp4404
g92
g93
ssg74
g4393
sg67
(lp4405
S':'
asbag60
(g81
g62
NtRp4406
(dp4407
g65
(dp4408
sg74
g4393
sg67
(lp4409
g60
(g61
g62
NtRp4410
(dp4411
g65
(dp4412
g73
I4
ssg74
g4406
sg67
(lp4413
S'Web2py Web Framework'
p4414
asbasbasbag60
(g76
g62
NtRp4415
(dp4416
g65
(dp4417
sg74
g4323
sg67
(lp4418
g60
(g81
g62
NtRp4419
(dp4420
g65
(dp4421
g85
g86
ssg74
g4415
sg67
(lp4422
S'keywords'
p4423
asbag60
(g81
g62
NtRp4424
(dp4425
g65
(dp4426
g92
g93
ssg74
g4415
sg67
(lp4427
S':'
asbag60
(g81
g62
NtRp4428
(dp4429
g65
(dp4430
sg74
g4415
sg67
(lp4431
g60
(g61
g62
NtRp4432
(dp4433
g65
(dp4434
g73
I4
ssg74
g4428
sg67
(lp4435
S'web2py, python, framework'
p4436
asbasbasbasbasbasbasbag60
(g76
g62
NtRp4437
(dp4438
g65
(dp4439
sg74
g3613
sg67
(lp4440
g60
(g81
g62
NtRp4441
(dp4442
g65
(dp4443
g85
g86
ssg74
g4437
sg67
(lp4444
S'postprocessing'
p4445
asbag60
(g81
g62
NtRp4446
(dp4447
g65
(dp4448
g92
g93
ssg74
g4437
sg67
(lp4449
S':'
asbag60
(g81
g62
NtRp4450
(dp4451
g65
(dp4452
sg74
g4437
sg67
(lp4453
g60
(g61
g62
NtRp4454
(dp4455
g65
(dp4456
g73
I5
ssg74
g4450
sg67
(lp4457
g60
(g69
g62
NtRp4458
(dp4459
g65
(dp4460
g73
I4
ssg74
Nsg67
(lp4461
sbasbasbasbag60
(g76
g62
NtRp4462
(dp4463
g65
(dp4464
sg74
g3613
sg67
(lp4465
g60
(g81
g62
NtRp4466
(dp4467
g65
(dp4468
g85
g86
ssg74
g4462
sg67
(lp4469
S'session_file'
p4470
asbag60
(g81
g62
NtRp4471
(dp4472
g65
(dp4473
g92
g93
ssg74
g4462
sg67
(lp4474
S':'
asbag60
(g81
g62
NtRp4475
(dp4476
g65
(dp4477
sg74
g4462
sg67
(lp4478
g60
(g61
g62
NtRp4479
(dp4480
g65
(dp4481
g73
I5
ssg74
g4475
sg67
(lp4482
S"<open file '/home/kaique/Projects/web2py/applications/synopsis/sessions/127.0.0.1-939daf95-14ab-422d-8204-c5411c18373a', mode 'rb+' at 0x34538a0>"
p4483
asbasbasbag60
(g76
g62
NtRp4484
(dp4485
g65
(dp4486
sg74
g3613
sg67
(lp4487
g60
(g81
g62
NtRp4488
(dp4489
g65
(dp4490
g85
g86
ssg74
g4484
sg67
(lp4491
S'session_filename'
p4492
asbag60
(g81
g62
NtRp4493
(dp4494
g65
(dp4495
g92
g93
ssg74
g4484
sg67
(lp4496
S':'
asbag60
(g81
g62
NtRp4497
(dp4498
g65
(dp4499
sg74
g4484
sg67
(lp4500
g60
(g61
g62
NtRp4501
(dp4502
g65
(dp4503
g73
I5
ssg74
g4497
sg67
(lp4504
S'/home/kaique/Projects/web2py/applications/synopsis/sessions/127.0.0.1-939daf95-14ab-422d-8204-c5411c18373a'
p4505
asbasbasbag60
(g76
g62
NtRp4506
(dp4507
g65
(dp4508
sg74
g3613
sg67
(lp4509
g60
(g81
g62
NtRp4510
(dp4511
g65
(dp4512
g85
g86
ssg74
g4506
sg67
(lp4513
S'session_id'
p4514
asbag60
(g81
g62
NtRp4515
(dp4516
g65
(dp4517
g92
g93
ssg74
g4506
sg67
(lp4518
S':'
asbag60
(g81
g62
NtRp4519
(dp4520
g65
(dp4521
sg74
g4506
sg67
(lp4522
g60
(g61
g62
NtRp4523
(dp4524
g65
(dp4525
g73
I5
ssg74
g4519
sg67
(lp4526
S'127.0.0.1-939daf95-14ab-422d-8204-c5411c18373a'
p4527
asbasbasbag60
(g76
g62
NtRp4528
(dp4529
g65
(dp4530
sg74
g3613
sg67
(lp4531
g60
(g81
g62
NtRp4532
(dp4533
g65
(dp4534
g85
g86
ssg74
g4528
sg67
(lp4535
S'session_id_name'
p4536
asbag60
(g81
g62
NtRp4537
(dp4538
g65
(dp4539
g92
g93
ssg74
g4528
sg67
(lp4540
S':'
asbag60
(g81
g62
NtRp4541
(dp4542
g65
(dp4543
sg74
g4528
sg67
(lp4544
g60
(g61
g62
NtRp4545
(dp4546
g65
(dp4547
g73
I5
ssg74
g4541
sg67
(lp4548
g3670
asbasbasbag60
(g76
g62
NtRp4549
(dp4550
g65
(dp4551
sg74
g3613
sg67
(lp4552
g60
(g81
g62
NtRp4553
(dp4554
g65
(dp4555
g85
g86
ssg74
g4549
sg67
(lp4556
S'session_locked'
p4557
asbag60
(g81
g62
NtRp4558
(dp4559
g65
(dp4560
g92
g93
ssg74
g4549
sg67
(lp4561
S':'
asbag60
(g81
g62
NtRp4562
(dp4563
g65
(dp4564
sg74
g4549
sg67
(lp4565
g60
(g61
g62
NtRp4566
(dp4567
g65
(dp4568
g73
I5
ssg74
g4562
sg67
(lp4569
g1586
asbasbasbag60
(g76
g62
NtRp4570
(dp4571
g65
(dp4572
sg74
g3613
sg67
(lp4573
g60
(g81
g62
NtRp4574
(dp4575
g65
(dp4576
g85
g86
ssg74
g4570
sg67
(lp4577
S'session_new'
p4578
asbag60
(g81
g62
NtRp4579
(dp4580
g65
(dp4581
g92
g93
ssg74
g4570
sg67
(lp4582
S':'
asbag60
(g81
g62
NtRp4583
(dp4584
g65
(dp4585
sg74
g4570
sg67
(lp4586
g60
(g61
g62
NtRp4587
(dp4588
g65
(dp4589
g73
I5
ssg74
g4583
sg67
(lp4590
g103
asbasbasbag60
(g76
g62
NtRp4591
(dp4592
g65
(dp4593
sg74
g3613
sg67
(lp4594
g60
(g81
g62
NtRp4595
(dp4596
g65
(dp4597
g85
g86
ssg74
g4591
sg67
(lp4598
S'status'
p4599
asbag60
(g81
g62
NtRp4600
(dp4601
g65
(dp4602
g92
g93
ssg74
g4591
sg67
(lp4603
S':'
asbag60
(g81
g62
NtRp4604
(dp4605
g65
(dp4606
sg74
g4591
sg67
(lp4607
g60
(g61
g62
NtRp4608
(dp4609
g65
(dp4610
g73
I5
ssg74
g4604
sg67
(lp4611
S'200'
p4612
asbasbasbag60
(g76
g62
NtRp4613
(dp4614
g65
(dp4615
sg74
g3613
sg67
(lp4616
g60
(g81
g62
NtRp4617
(dp4618
g65
(dp4619
g85
g86
ssg74
g4613
sg67
(lp4620
S'subtitle'
p4621
asbag60
(g81
g62
NtRp4622
(dp4623
g65
(dp4624
g92
g93
ssg74
g4613
sg67
(lp4625
S':'
asbag60
(g81
g62
NtRp4626
(dp4627
g65
(dp4628
sg74
g4613
sg67
(lp4629
g60
(g61
g62
NtRp4630
(dp4631
g65
(dp4632
g73
I5
ssg74
g4626
sg67
(lp4633
g3893
(S's\x0f\x00\x00\x00Personalize-me!'
tRp4634
asbasbasbag60
(g76
g62
NtRp4635
(dp4636
g65
(dp4637
sg74
g3613
sg67
(lp4638
g60
(g81
g62
NtRp4639
(dp4640
g65
(dp4641
g85
g86
ssg74
g4635
sg67
(lp4642
S'title'
p4643
asbag60
(g81
g62
NtRp4644
(dp4645
g65
(dp4646
g92
g93
ssg74
g4635
sg67
(lp4647
S':'
asbag60
(g81
g62
NtRp4648
(dp4649
g65
(dp4650
sg74
g4635
sg67
(lp4651
g60
(g61
g62
NtRp4652
(dp4653
g65
(dp4654
g73
I5
ssg74
g4648
sg67
(lp4655
g125
asbasbasbag60
(g76
g62
NtRp4656
(dp4657
g65
(dp4658
sg74
g3613
sg67
(lp4659
g60
(g81
g62
NtRp4660
(dp4661
g65
(dp4662
g85
g86
ssg74
g4656
sg67
(lp4663
g2315
asbag60
(g81
g62
NtRp4664
(dp4665
g65
(dp4666
g92
g93
ssg74
g4656
sg67
(lp4667
S':'
asbag60
(g81
g62
NtRp4668
(dp4669
g65
(dp4670
sg74
g4656
sg67
(lp4671
g60
(g61
g62
NtRp4672
(dp4673
g65
(dp4674
g73
I5
ssg74
g4668
sg67
(lp4675
g2328
asbasbasbag60
(g76
g62
NtRp4676
(dp4677
g65
(dp4678
sg74
g3613
sg67
(lp4679
g60
(g81
g62
NtRp4680
(dp4681
g65
(dp4682
g85
g86
ssg74
g4676
sg67
(lp4683
S'view'
p4684
asbag60
(g81
g62
NtRp4685
(dp4686
g65
(dp4687
g92
g93
ssg74
g4676
sg67
(lp4688
S':'
asbag60
(g81
g62
NtRp4689
(dp4690
g65
(dp4691
sg74
g4676
sg67
(lp4692
g60
(g61
g62
NtRp4693
(dp4694
g65
(dp4695
g73
I5
ssg74
g4689
sg67
(lp4696
S'information/new.html'
p4697
asbasbasbasbasbsS'locals'
p4698
(dp4699
S'query'
p4700
S'"INSERT INTO row(content,column_id,created_on,cre...\'2012-01-17 09:13:31\',1,\'2012-01-17 09:13:31\',1);"'
p4701
sS'self'
p4702
S'<gluon.dal.SQLiteAdapter object>'
p4703
sS'e'
S"OperationalError('database is locked',)"
p4704
sS'fields'
p4705
S"[(<gluon.dal.Field object>, 'My new test for column3'), (<gluon.dal.Field object>, '9'), (<gluon.dal.Field object>, datetime.datetime(2012, 1, 17, 9, 13, 31, 346167)), (<gluon.dal.Field object>, 1), (<gluon.dal.Field object>, datetime.datetime(2012, 1, 17, 9, 13, 31, 346167)), (<gluon.dal.Field object>, 1)]"
p4706
sS'table'
p4707
S"<Table {'content': <gluon.dal.Field object at 0x...0>, 'id': <gluon.dal.Field object at 0x361c190>}>"
p4708
sssS'traceback'
p4709
S'Traceback (most recent call last):\n  File "/home/kaique/Projects/web2py/gluon/restricted.py", line 194, in restricted\n    exec ccode in environment\n  File "/home/kaique/Projects/web2py/applications/synopsis/controllers/information.py", line 137, in <module>\n  File "/home/kaique/Projects/web2py/gluon/globals.py", line 149, in <lambda>\n    self._caller = lambda f: f()\n  File "/home/kaique/Projects/web2py/gluon/tools.py", line 2456, in f\n    return action(*a, **b)\n  File "/home/kaique/Projects/web2py/applications/synopsis/controllers/information.py", line 108, in new\n    db.row.insert(content= line.vars[l], column_id= l)\n  File "/home/kaique/Projects/web2py/gluon/dal.py", line 4976, in insert\n    return self._db._adapter.insert(self,self._listify(fields))\n  File "/home/kaique/Projects/web2py/gluon/dal.py", line 886, in insert\n    raise e\nOperationalError: database is locked\n'
p4710
s.