(dp1
S'output'
p2
S''
sS'layer'
p3
S'/home/kaique/Projects/web2py/applications/synopsis/controllers/information.py'
p4
sS'code'
p5
S"# -*- coding: utf-8 -*-\nimport functions as f # shorthand function\n\n@auth.requires_membership('admin')\ndef index(): # Show the all content for redirect to profile\n\tsubject = f.get_table(db, 'subject', order='created_on')\n\treturn { 'subject': subject }\n\n@auth.requires_membership('admin')\ndef profile(): # Show the profile of subject\n\targs = request.args # query url's\n\tif args: \n\t\tprofile = f.get_table(db, 'subject', id=args[0]) \n\t\tsession.index = args[0] \n\tif not args or not profile: return redirect( URL('index') )\n\treturn { 'profile': profile }\n\n@auth.requires_membership('admin')\ndef publication(): # Show the publication profile\n\targs = request.args # query url's\n\tcount_equals = f.count_equals\n\tif args: \n\t\tpublication = f.get_table(db, 'publication', id=args[0])\n\t\tsession.back = args[0] \n\tif not args or not publication: return redirect( URL('profile') )\n\treturn { 'publication': publication, \n\t\t\t 'count_equals': count_equals }\n\n@auth.requires_membership('admin')\ndef new(): # Create a new subject\n\targs = request.args\n\t\n\tif not args:\n\t\ttitle = 'Subject'\n\t\tsubject = SQLFORM(db.subject, fields=['name'])\n\t\tsubject.elements(_type='submit')[0]['_value'] = 'Create'\n\t\t\n\t\tif subject.process().accepted:\n\t\t\tresponse.flash = T('{0} {1} {2}'.format('New', title.lower(), 'inserted!'))\n\t\telif subject.errors:\n\t\t\tresponse.flash = T('Sorry, try again!')\n\t\telse:\n\t\t\tresponse.flah = T('Please, fill the field...')\n\t\t\t\n\t\treturn { 'form': subject, \n\t\t\t \t 'title': title }\n\t\n\telif args[0] == 'publication':\n\t\ttitle = 'Publication'\n\t\tpublication = SQLFORM(db.publication, fields=['title', 'sub_title'])\n\t\tpublication.vars.subject_id = args[1]\n\t\tif publication.process().accepted:\n\t\t\tresponse.flash = T(T('{0} {1} {2}'.format('New', title.lower(), 'inserted!')))\n\t\telif publication.errors:\n\t\t\tresponse.flash = T('Sorry, try again!')\n\t\telse:\n\t\t\tresponse.flahs = T('Please, fill the field...')\n\t\n\t\treturn { 'form': publication,\n\t\t\t\t 'title': title }\n\t\t\t\t \n\telif args[0] == 'quote':\n\t\ttitle = 'Quote'\n\t\tquote = SQLFORM(db.quote, fields=['content'])\n\t\tquote.vars.publication_id = args[1]\n\t\tif quote.process().accepted:\n\t\t\tresponse.flash = T(T('{0} {1} {2}'.format('New', title.lower(), 'inserted!')))\n\t\telif quote.errors:\n\t\t\tresponse.flash = T('Sorry, try again!')\n\t\telse:\n\t\t\tresponse.flahs = T('Please, fill the field...')\n\t\n\t\treturn { 'form': quote,\n\t\t\t\t 'title': title }\n\t\t\t\t \n\telif args[0] == 'column':\n\t\ttitle = 'Topic'\n\t\tcolumn = SQLFORM(db.column, fields=['title'])\n\t\tcolumn.vars.publication_id = args[1]\n\t\tif column.process().accepted:\n\t\t\tresponse.flash = T(T('{0} {1} {2}'.format('New', title.lower(), 'inserted!')))\n\t\telif column.errors:\n\t\t\tresponse.flash = T('Sorry, try again!')\n\t\telse:\n\t\t\tresponse.flahs = T('Please, fill the field...')\n\t\n\t\treturn { 'form': column,\n\t\t\t\t 'title': title }\n\t\t\t\t \n\telif args[0] == 'row':\n\t\ttitle = 'Row for {0}'.format(db.column(args[1])['title'])\n\t\trow = SQLFORM(db.row, fields=['content'])\n\t\trow.vars.column_id = args[1]\n\t\tif row.process().accepted:\n\t\t\tresponse.flash = T(T('{0} {1} {2}'.format('New', title.lower(), 'inserted!')))\n\t\telif row.errors:\n\t\t\tresponse.flash = T('Sorry, try again!')\n\t\telse:\n\t\t\tresponse.flahs = T('Please, fill the field...')\n\t\n\t\treturn { 'form': row,\n\t\t\t\t 'title': title }\n\t\t\t \t \n@auth.requires_membership('admin')\ndef edit(): # Edit the subject\n\treturn {}\n\nresponse._vars=response._caller(new)\n"
p6
sS'snapshot'
p7
(dp8
S'exception'
p9
(dp10
S'__getslice__'
p11
S"<method-wrapper '__getslice__' of exceptions.SyntaxError object>"
p12
sS'text'
p13
S'None'
p14
sS'__str__'
p15
S"<method-wrapper '__str__' of exceptions.SyntaxError object>"
p16
sS'__reduce__'
p17
S'<built-in method __reduce__ of exceptions.SyntaxError object>'
p18
sS'__dict__'
p19
S'{}'
p20
sS'__sizeof__'
p21
S'<built-in method __sizeof__ of exceptions.SyntaxError object>'
p22
sS'__init__'
p23
S"<method-wrapper '__init__' of exceptions.SyntaxError object>"
p24
sS'__setattr__'
p25
S"<method-wrapper '__setattr__' of exceptions.SyntaxError object>"
p26
sS'__reduce_ex__'
p27
S'<built-in method __reduce_ex__ of exceptions.SyntaxError object>'
p28
sS'__new__'
p29
S'<built-in method __new__ of type object>'
p30
sS'__format__'
p31
S'<built-in method __format__ of exceptions.SyntaxError object>'
p32
sS'__class__'
p33
S"<type 'exceptions.SyntaxError'>"
p34
sS'filename'
p35
S'None'
p36
sS'lineno'
p37
S'None'
p38
sS'msg'
p39
S"'Field publication_id does not belong to the table'"
p40
sS'__doc__'
p41
S"'Invalid syntax.'"
p42
sS'__getitem__'
p43
S"<method-wrapper '__getitem__' of exceptions.SyntaxError object>"
p44
sS'__setstate__'
p45
S'<built-in method __setstate__ of exceptions.SyntaxError object>'
p46
sS'__getattribute__'
p47
S"<method-wrapper '__getattribute__' of exceptions.SyntaxError object>"
p48
sS'print_file_and_line'
p49
S'None'
p50
sS'args'
p51
S"('Field publication_id does not belong to the table',)"
p52
sS'__subclasshook__'
p53
S'<built-in method __subclasshook__ of type object>'
p54
sS'offset'
p55
S'None'
p56
sS'__unicode__'
p57
S'<built-in method __unicode__ of exceptions.SyntaxError object>'
p58
sS'__delattr__'
p59
S"<method-wrapper '__delattr__' of exceptions.SyntaxError object>"
p60
sS'__repr__'
p61
S"<method-wrapper '__repr__' of exceptions.SyntaxError object>"
p62
sS'__hash__'
p63
S"<method-wrapper '__hash__' of exceptions.SyntaxError object>"
p64
ssS'evalue'
p65
S'Field publication_id does not belong to the table'
p66
sS'request'
p67
ccopy_reg
_reconstructor
p68
(cgluon.html
BEAUTIFY
p69
c__builtin__
object
p70
NtRp71
(dp72
S'attributes'
p73
(dp74
sS'components'
p75
(lp76
g68
(cgluon.html
TABLE
p77
g70
NtRp78
(dp79
g73
(dp80
S'level'
p81
I5
ssS'parent'
p82
Nsg75
(lp83
g68
(cgluon.html
TR
p84
g70
NtRp85
(dp86
g73
(dp87
sg82
g78
sg75
(lp88
g68
(cgluon.html
TD
p89
g70
NtRp90
(dp91
g73
(dp92
S'_style'
p93
S'font-weight:bold;'
p94
ssg82
g85
sg75
(lp95
S'ajax'
p96
asbag68
(g89
g70
NtRp97
(dp98
g73
(dp99
S'_valign'
p100
S'top'
p101
ssg82
g85
sg75
(lp102
S':'
asbag68
(g89
g70
NtRp103
(dp104
g73
(dp105
sg82
g85
sg75
(lp106
g68
(g69
g70
NtRp107
(dp108
g73
(dp109
g81
I5
ssg82
g103
sg75
(lp110
S'False'
p111
asbasbasbag68
(g84
g70
NtRp112
(dp113
g73
(dp114
sg82
g78
sg75
(lp115
g68
(g89
g70
NtRp116
(dp117
g73
(dp118
g93
g94
ssg82
g112
sg75
(lp119
S'application'
p120
asbag68
(g89
g70
NtRp121
(dp122
g73
(dp123
g100
g101
ssg82
g112
sg75
(lp124
S':'
asbag68
(g89
g70
NtRp125
(dp126
g73
(dp127
sg82
g112
sg75
(lp128
g68
(g69
g70
NtRp129
(dp130
g73
(dp131
g81
I5
ssg82
g125
sg75
(lp132
S'synopsis'
p133
asbasbasbag68
(g84
g70
NtRp134
(dp135
g73
(dp136
sg82
g78
sg75
(lp137
g68
(g89
g70
NtRp138
(dp139
g73
(dp140
g93
g94
ssg82
g134
sg75
(lp141
g51
asbag68
(g89
g70
NtRp142
(dp143
g73
(dp144
g100
g101
ssg82
g134
sg75
(lp145
S':'
asbag68
(g89
g70
NtRp146
(dp147
g73
(dp148
sg82
g134
sg75
(lp149
g68
(g69
g70
NtRp150
(dp151
g73
(dp152
g81
I5
ssg82
g146
sg75
(lp153
g68
(g77
g70
NtRp154
(dp155
g73
(dp156
g81
I4
ssg82
Nsg75
(lp157
g68
(g84
g70
NtRp158
(dp159
g73
(dp160
sg82
g154
sg75
(lp161
g68
(g89
g70
NtRp162
(dp163
g73
(dp164
sg82
g158
sg75
(lp165
g68
(g69
g70
NtRp166
(dp167
g73
(dp168
g81
I4
ssg82
g162
sg75
(lp169
S'quote'
p170
asbasbasbag68
(g84
g70
NtRp171
(dp172
g73
(dp173
sg82
g154
sg75
(lp174
g68
(g89
g70
NtRp175
(dp176
g73
(dp177
sg82
g171
sg75
(lp178
g68
(g69
g70
NtRp179
(dp180
g73
(dp181
g81
I4
ssg82
g175
sg75
(lp182
S'1'
asbasbasbasbasbasbasbag68
(g84
g70
NtRp183
(dp184
g73
(dp185
sg82
g78
sg75
(lp186
g68
(g89
g70
NtRp187
(dp188
g73
(dp189
g93
g94
ssg82
g183
sg75
(lp190
S'body'
p191
asbag68
(g89
g70
NtRp192
(dp193
g73
(dp194
g100
g101
ssg82
g183
sg75
(lp195
S':'
asbag68
(g89
g70
NtRp196
(dp197
g73
(dp198
sg82
g183
sg75
(lp199
g68
(g69
g70
NtRp200
(dp201
g73
(dp202
g81
I5
ssg82
g196
sg75
(lp203
S"<open file '<fdopen>', mode 'w+b' at 0x3565660>"
p204
asbasbasbag68
(g84
g70
NtRp205
(dp206
g73
(dp207
sg82
g78
sg75
(lp208
g68
(g89
g70
NtRp209
(dp210
g73
(dp211
g93
g94
ssg82
g205
sg75
(lp212
S'client'
p213
asbag68
(g89
g70
NtRp214
(dp215
g73
(dp216
g100
g101
ssg82
g205
sg75
(lp217
S':'
asbag68
(g89
g70
NtRp218
(dp219
g73
(dp220
sg82
g205
sg75
(lp221
g68
(g69
g70
NtRp222
(dp223
g73
(dp224
g81
I5
ssg82
g218
sg75
(lp225
S'127.0.0.1'
p226
asbasbasbag68
(g84
g70
NtRp227
(dp228
g73
(dp229
sg82
g78
sg75
(lp230
g68
(g89
g70
NtRp231
(dp232
g73
(dp233
g93
g94
ssg82
g227
sg75
(lp234
S'controller'
p235
asbag68
(g89
g70
NtRp236
(dp237
g73
(dp238
g100
g101
ssg82
g227
sg75
(lp239
S':'
asbag68
(g89
g70
NtRp240
(dp241
g73
(dp242
sg82
g227
sg75
(lp243
g68
(g69
g70
NtRp244
(dp245
g73
(dp246
g81
I5
ssg82
g240
sg75
(lp247
S'information'
p248
asbasbasbag68
(g84
g70
NtRp249
(dp250
g73
(dp251
sg82
g78
sg75
(lp252
g68
(g89
g70
NtRp253
(dp254
g73
(dp255
g93
g94
ssg82
g249
sg75
(lp256
S'cookies'
p257
asbag68
(g89
g70
NtRp258
(dp259
g73
(dp260
g100
g101
ssg82
g249
sg75
(lp261
S':'
asbag68
(g89
g70
NtRp262
(dp263
g73
(dp264
sg82
g249
sg75
(lp265
g68
(g69
g70
NtRp266
(dp267
g73
(dp268
g81
I5
ssg82
g262
sg75
(lp269
g68
(g77
g70
NtRp270
(dp271
g73
(dp272
g81
I4
ssg82
Nsg75
(lp273
g68
(g84
g70
NtRp274
(dp275
g73
(dp276
sg82
g270
sg75
(lp277
g68
(g89
g70
NtRp278
(dp279
g73
(dp280
g93
g94
ssg82
g274
sg75
(lp281
S'PHPSESSID'
p282
asbag68
(g89
g70
NtRp283
(dp284
g73
(dp285
g100
g101
ssg82
g274
sg75
(lp286
S':'
asbag68
(g89
g70
NtRp287
(dp288
g73
(dp289
sg82
g274
sg75
(lp290
g68
(g69
g70
NtRp291
(dp292
g73
(dp293
g81
I4
ssg82
g287
sg75
(lp294
g68
(g77
g70
NtRp295
(dp296
g73
(dp297
g81
I3
ssg82
Nsg75
(lp298
g68
(g84
g70
NtRp299
(dp300
g73
(dp301
sg82
g295
sg75
(lp302
g68
(g89
g70
NtRp303
(dp304
g73
(dp305
g93
g94
ssg82
g299
sg75
(lp306
S'comment'
p307
asbag68
(g89
g70
NtRp308
(dp309
g73
(dp310
g100
g101
ssg82
g299
sg75
(lp311
S':'
asbag68
(g89
g70
NtRp312
(dp313
g73
(dp314
sg82
g299
sg75
(lp315
g68
(g69
g70
NtRp316
(dp317
g73
(dp318
g81
I3
ssg82
g312
sg75
(lp319
S''
asbasbasbag68
(g84
g70
NtRp320
(dp321
g73
(dp322
sg82
g295
sg75
(lp323
g68
(g89
g70
NtRp324
(dp325
g73
(dp326
g93
g94
ssg82
g320
sg75
(lp327
S'domain'
p328
asbag68
(g89
g70
NtRp329
(dp330
g73
(dp331
g100
g101
ssg82
g320
sg75
(lp332
S':'
asbag68
(g89
g70
NtRp333
(dp334
g73
(dp335
sg82
g320
sg75
(lp336
g68
(g69
g70
NtRp337
(dp338
g73
(dp339
g81
I3
ssg82
g333
sg75
(lp340
S''
asbasbasbag68
(g84
g70
NtRp341
(dp342
g73
(dp343
sg82
g295
sg75
(lp344
g68
(g89
g70
NtRp345
(dp346
g73
(dp347
g93
g94
ssg82
g341
sg75
(lp348
S'expires'
p349
asbag68
(g89
g70
NtRp350
(dp351
g73
(dp352
g100
g101
ssg82
g341
sg75
(lp353
S':'
asbag68
(g89
g70
NtRp354
(dp355
g73
(dp356
sg82
g341
sg75
(lp357
g68
(g69
g70
NtRp358
(dp359
g73
(dp360
g81
I3
ssg82
g354
sg75
(lp361
S''
asbasbasbag68
(g84
g70
NtRp362
(dp363
g73
(dp364
sg82
g295
sg75
(lp365
g68
(g89
g70
NtRp366
(dp367
g73
(dp368
g93
g94
ssg82
g362
sg75
(lp369
S'httponly'
p370
asbag68
(g89
g70
NtRp371
(dp372
g73
(dp373
g100
g101
ssg82
g362
sg75
(lp374
S':'
asbag68
(g89
g70
NtRp375
(dp376
g73
(dp377
sg82
g362
sg75
(lp378
g68
(g69
g70
NtRp379
(dp380
g73
(dp381
g81
I3
ssg82
g375
sg75
(lp382
S''
asbasbasbag68
(g84
g70
NtRp383
(dp384
g73
(dp385
sg82
g295
sg75
(lp386
g68
(g89
g70
NtRp387
(dp388
g73
(dp389
g93
g94
ssg82
g383
sg75
(lp390
S'max-age'
p391
asbag68
(g89
g70
NtRp392
(dp393
g73
(dp394
g100
g101
ssg82
g383
sg75
(lp395
S':'
asbag68
(g89
g70
NtRp396
(dp397
g73
(dp398
sg82
g383
sg75
(lp399
g68
(g69
g70
NtRp400
(dp401
g73
(dp402
g81
I3
ssg82
g396
sg75
(lp403
S''
asbasbasbag68
(g84
g70
NtRp404
(dp405
g73
(dp406
sg82
g295
sg75
(lp407
g68
(g89
g70
NtRp408
(dp409
g73
(dp410
g93
g94
ssg82
g404
sg75
(lp411
S'path'
p412
asbag68
(g89
g70
NtRp413
(dp414
g73
(dp415
g100
g101
ssg82
g404
sg75
(lp416
S':'
asbag68
(g89
g70
NtRp417
(dp418
g73
(dp419
sg82
g404
sg75
(lp420
g68
(g69
g70
NtRp421
(dp422
g73
(dp423
g81
I3
ssg82
g417
sg75
(lp424
S''
asbasbasbag68
(g84
g70
NtRp425
(dp426
g73
(dp427
sg82
g295
sg75
(lp428
g68
(g89
g70
NtRp429
(dp430
g73
(dp431
g93
g94
ssg82
g425
sg75
(lp432
S'secure'
p433
asbag68
(g89
g70
NtRp434
(dp435
g73
(dp436
g100
g101
ssg82
g425
sg75
(lp437
S':'
asbag68
(g89
g70
NtRp438
(dp439
g73
(dp440
sg82
g425
sg75
(lp441
g68
(g69
g70
NtRp442
(dp443
g73
(dp444
g81
I3
ssg82
g438
sg75
(lp445
S''
asbasbasbag68
(g84
g70
NtRp446
(dp447
g73
(dp448
sg82
g295
sg75
(lp449
g68
(g89
g70
NtRp450
(dp451
g73
(dp452
g93
g94
ssg82
g446
sg75
(lp453
S'version'
p454
asbag68
(g89
g70
NtRp455
(dp456
g73
(dp457
g100
g101
ssg82
g446
sg75
(lp458
S':'
asbag68
(g89
g70
NtRp459
(dp460
g73
(dp461
sg82
g446
sg75
(lp462
g68
(g69
g70
NtRp463
(dp464
g73
(dp465
g81
I3
ssg82
g459
sg75
(lp466
S''
asbasbasbasbasbasbasbag68
(g84
g70
NtRp467
(dp468
g73
(dp469
sg82
g270
sg75
(lp470
g68
(g89
g70
NtRp471
(dp472
g73
(dp473
g93
g94
ssg82
g467
sg75
(lp474
S'currency'
p475
asbag68
(g89
g70
NtRp476
(dp477
g73
(dp478
g100
g101
ssg82
g467
sg75
(lp479
S':'
asbag68
(g89
g70
NtRp480
(dp481
g73
(dp482
sg82
g467
sg75
(lp483
g68
(g69
g70
NtRp484
(dp485
g73
(dp486
g81
I4
ssg82
g480
sg75
(lp487
g68
(g77
g70
NtRp488
(dp489
g73
(dp490
g81
I3
ssg82
Nsg75
(lp491
g68
(g84
g70
NtRp492
(dp493
g73
(dp494
sg82
g488
sg75
(lp495
g68
(g89
g70
NtRp496
(dp497
g73
(dp498
g93
g94
ssg82
g492
sg75
(lp499
g307
asbag68
(g89
g70
NtRp500
(dp501
g73
(dp502
g100
g101
ssg82
g492
sg75
(lp503
S':'
asbag68
(g89
g70
NtRp504
(dp505
g73
(dp506
sg82
g492
sg75
(lp507
g68
(g69
g70
NtRp508
(dp509
g73
(dp510
g81
I3
ssg82
g504
sg75
(lp511
S''
asbasbasbag68
(g84
g70
NtRp512
(dp513
g73
(dp514
sg82
g488
sg75
(lp515
g68
(g89
g70
NtRp516
(dp517
g73
(dp518
g93
g94
ssg82
g512
sg75
(lp519
g328
asbag68
(g89
g70
NtRp520
(dp521
g73
(dp522
g100
g101
ssg82
g512
sg75
(lp523
S':'
asbag68
(g89
g70
NtRp524
(dp525
g73
(dp526
sg82
g512
sg75
(lp527
g68
(g69
g70
NtRp528
(dp529
g73
(dp530
g81
I3
ssg82
g524
sg75
(lp531
S''
asbasbasbag68
(g84
g70
NtRp532
(dp533
g73
(dp534
sg82
g488
sg75
(lp535
g68
(g89
g70
NtRp536
(dp537
g73
(dp538
g93
g94
ssg82
g532
sg75
(lp539
g349
asbag68
(g89
g70
NtRp540
(dp541
g73
(dp542
g100
g101
ssg82
g532
sg75
(lp543
S':'
asbag68
(g89
g70
NtRp544
(dp545
g73
(dp546
sg82
g532
sg75
(lp547
g68
(g69
g70
NtRp548
(dp549
g73
(dp550
g81
I3
ssg82
g544
sg75
(lp551
S''
asbasbasbag68
(g84
g70
NtRp552
(dp553
g73
(dp554
sg82
g488
sg75
(lp555
g68
(g89
g70
NtRp556
(dp557
g73
(dp558
g93
g94
ssg82
g552
sg75
(lp559
g370
asbag68
(g89
g70
NtRp560
(dp561
g73
(dp562
g100
g101
ssg82
g552
sg75
(lp563
S':'
asbag68
(g89
g70
NtRp564
(dp565
g73
(dp566
sg82
g552
sg75
(lp567
g68
(g69
g70
NtRp568
(dp569
g73
(dp570
g81
I3
ssg82
g564
sg75
(lp571
S''
asbasbasbag68
(g84
g70
NtRp572
(dp573
g73
(dp574
sg82
g488
sg75
(lp575
g68
(g89
g70
NtRp576
(dp577
g73
(dp578
g93
g94
ssg82
g572
sg75
(lp579
g391
asbag68
(g89
g70
NtRp580
(dp581
g73
(dp582
g100
g101
ssg82
g572
sg75
(lp583
S':'
asbag68
(g89
g70
NtRp584
(dp585
g73
(dp586
sg82
g572
sg75
(lp587
g68
(g69
g70
NtRp588
(dp589
g73
(dp590
g81
I3
ssg82
g584
sg75
(lp591
S''
asbasbasbag68
(g84
g70
NtRp592
(dp593
g73
(dp594
sg82
g488
sg75
(lp595
g68
(g89
g70
NtRp596
(dp597
g73
(dp598
g93
g94
ssg82
g592
sg75
(lp599
g412
asbag68
(g89
g70
NtRp600
(dp601
g73
(dp602
g100
g101
ssg82
g592
sg75
(lp603
S':'
asbag68
(g89
g70
NtRp604
(dp605
g73
(dp606
sg82
g592
sg75
(lp607
g68
(g69
g70
NtRp608
(dp609
g73
(dp610
g81
I3
ssg82
g604
sg75
(lp611
S''
asbasbasbag68
(g84
g70
NtRp612
(dp613
g73
(dp614
sg82
g488
sg75
(lp615
g68
(g89
g70
NtRp616
(dp617
g73
(dp618
g93
g94
ssg82
g612
sg75
(lp619
g433
asbag68
(g89
g70
NtRp620
(dp621
g73
(dp622
g100
g101
ssg82
g612
sg75
(lp623
S':'
asbag68
(g89
g70
NtRp624
(dp625
g73
(dp626
sg82
g612
sg75
(lp627
g68
(g69
g70
NtRp628
(dp629
g73
(dp630
g81
I3
ssg82
g624
sg75
(lp631
S''
asbasbasbag68
(g84
g70
NtRp632
(dp633
g73
(dp634
sg82
g488
sg75
(lp635
g68
(g89
g70
NtRp636
(dp637
g73
(dp638
g93
g94
ssg82
g632
sg75
(lp639
g454
asbag68
(g89
g70
NtRp640
(dp641
g73
(dp642
g100
g101
ssg82
g632
sg75
(lp643
S':'
asbag68
(g89
g70
NtRp644
(dp645
g73
(dp646
sg82
g632
sg75
(lp647
g68
(g69
g70
NtRp648
(dp649
g73
(dp650
g81
I3
ssg82
g644
sg75
(lp651
S''
asbasbasbasbasbasbasbag68
(g84
g70
NtRp652
(dp653
g73
(dp654
sg82
g270
sg75
(lp655
g68
(g89
g70
NtRp656
(dp657
g73
(dp658
g93
g94
ssg82
g652
sg75
(lp659
S'session_id_admin'
p660
asbag68
(g89
g70
NtRp661
(dp662
g73
(dp663
g100
g101
ssg82
g652
sg75
(lp664
S':'
asbag68
(g89
g70
NtRp665
(dp666
g73
(dp667
sg82
g652
sg75
(lp668
g68
(g69
g70
NtRp669
(dp670
g73
(dp671
g81
I4
ssg82
g665
sg75
(lp672
g68
(g77
g70
NtRp673
(dp674
g73
(dp675
g81
I3
ssg82
Nsg75
(lp676
g68
(g84
g70
NtRp677
(dp678
g73
(dp679
sg82
g673
sg75
(lp680
g68
(g89
g70
NtRp681
(dp682
g73
(dp683
g93
g94
ssg82
g677
sg75
(lp684
g307
asbag68
(g89
g70
NtRp685
(dp686
g73
(dp687
g100
g101
ssg82
g677
sg75
(lp688
S':'
asbag68
(g89
g70
NtRp689
(dp690
g73
(dp691
sg82
g677
sg75
(lp692
g68
(g69
g70
NtRp693
(dp694
g73
(dp695
g81
I3
ssg82
g689
sg75
(lp696
S''
asbasbasbag68
(g84
g70
NtRp697
(dp698
g73
(dp699
sg82
g673
sg75
(lp700
g68
(g89
g70
NtRp701
(dp702
g73
(dp703
g93
g94
ssg82
g697
sg75
(lp704
g328
asbag68
(g89
g70
NtRp705
(dp706
g73
(dp707
g100
g101
ssg82
g697
sg75
(lp708
S':'
asbag68
(g89
g70
NtRp709
(dp710
g73
(dp711
sg82
g697
sg75
(lp712
g68
(g69
g70
NtRp713
(dp714
g73
(dp715
g81
I3
ssg82
g709
sg75
(lp716
S''
asbasbasbag68
(g84
g70
NtRp717
(dp718
g73
(dp719
sg82
g673
sg75
(lp720
g68
(g89
g70
NtRp721
(dp722
g73
(dp723
g93
g94
ssg82
g717
sg75
(lp724
g349
asbag68
(g89
g70
NtRp725
(dp726
g73
(dp727
g100
g101
ssg82
g717
sg75
(lp728
S':'
asbag68
(g89
g70
NtRp729
(dp730
g73
(dp731
sg82
g717
sg75
(lp732
g68
(g69
g70
NtRp733
(dp734
g73
(dp735
g81
I3
ssg82
g729
sg75
(lp736
S''
asbasbasbag68
(g84
g70
NtRp737
(dp738
g73
(dp739
sg82
g673
sg75
(lp740
g68
(g89
g70
NtRp741
(dp742
g73
(dp743
g93
g94
ssg82
g737
sg75
(lp744
g370
asbag68
(g89
g70
NtRp745
(dp746
g73
(dp747
g100
g101
ssg82
g737
sg75
(lp748
S':'
asbag68
(g89
g70
NtRp749
(dp750
g73
(dp751
sg82
g737
sg75
(lp752
g68
(g69
g70
NtRp753
(dp754
g73
(dp755
g81
I3
ssg82
g749
sg75
(lp756
S''
asbasbasbag68
(g84
g70
NtRp757
(dp758
g73
(dp759
sg82
g673
sg75
(lp760
g68
(g89
g70
NtRp761
(dp762
g73
(dp763
g93
g94
ssg82
g757
sg75
(lp764
g391
asbag68
(g89
g70
NtRp765
(dp766
g73
(dp767
g100
g101
ssg82
g757
sg75
(lp768
S':'
asbag68
(g89
g70
NtRp769
(dp770
g73
(dp771
sg82
g757
sg75
(lp772
g68
(g69
g70
NtRp773
(dp774
g73
(dp775
g81
I3
ssg82
g769
sg75
(lp776
S''
asbasbasbag68
(g84
g70
NtRp777
(dp778
g73
(dp779
sg82
g673
sg75
(lp780
g68
(g89
g70
NtRp781
(dp782
g73
(dp783
g93
g94
ssg82
g777
sg75
(lp784
g412
asbag68
(g89
g70
NtRp785
(dp786
g73
(dp787
g100
g101
ssg82
g777
sg75
(lp788
S':'
asbag68
(g89
g70
NtRp789
(dp790
g73
(dp791
sg82
g777
sg75
(lp792
g68
(g69
g70
NtRp793
(dp794
g73
(dp795
g81
I3
ssg82
g789
sg75
(lp796
S''
asbasbasbag68
(g84
g70
NtRp797
(dp798
g73
(dp799
sg82
g673
sg75
(lp800
g68
(g89
g70
NtRp801
(dp802
g73
(dp803
g93
g94
ssg82
g797
sg75
(lp804
g433
asbag68
(g89
g70
NtRp805
(dp806
g73
(dp807
g100
g101
ssg82
g797
sg75
(lp808
S':'
asbag68
(g89
g70
NtRp809
(dp810
g73
(dp811
sg82
g797
sg75
(lp812
g68
(g69
g70
NtRp813
(dp814
g73
(dp815
g81
I3
ssg82
g809
sg75
(lp816
S''
asbasbasbag68
(g84
g70
NtRp817
(dp818
g73
(dp819
sg82
g673
sg75
(lp820
g68
(g89
g70
NtRp821
(dp822
g73
(dp823
g93
g94
ssg82
g817
sg75
(lp824
g454
asbag68
(g89
g70
NtRp825
(dp826
g73
(dp827
g100
g101
ssg82
g817
sg75
(lp828
S':'
asbag68
(g89
g70
NtRp829
(dp830
g73
(dp831
sg82
g817
sg75
(lp832
g68
(g69
g70
NtRp833
(dp834
g73
(dp835
g81
I3
ssg82
g829
sg75
(lp836
S''
asbasbasbasbasbasbasbag68
(g84
g70
NtRp837
(dp838
g73
(dp839
sg82
g270
sg75
(lp840
g68
(g89
g70
NtRp841
(dp842
g73
(dp843
g93
g94
ssg82
g837
sg75
(lp844
S'session_id_synopsis'
p845
asbag68
(g89
g70
NtRp846
(dp847
g73
(dp848
g100
g101
ssg82
g837
sg75
(lp849
S':'
asbag68
(g89
g70
NtRp850
(dp851
g73
(dp852
sg82
g837
sg75
(lp853
g68
(g69
g70
NtRp854
(dp855
g73
(dp856
g81
I4
ssg82
g850
sg75
(lp857
g68
(g77
g70
NtRp858
(dp859
g73
(dp860
g81
I3
ssg82
Nsg75
(lp861
g68
(g84
g70
NtRp862
(dp863
g73
(dp864
sg82
g858
sg75
(lp865
g68
(g89
g70
NtRp866
(dp867
g73
(dp868
g93
g94
ssg82
g862
sg75
(lp869
g307
asbag68
(g89
g70
NtRp870
(dp871
g73
(dp872
g100
g101
ssg82
g862
sg75
(lp873
S':'
asbag68
(g89
g70
NtRp874
(dp875
g73
(dp876
sg82
g862
sg75
(lp877
g68
(g69
g70
NtRp878
(dp879
g73
(dp880
g81
I3
ssg82
g874
sg75
(lp881
S''
asbasbasbag68
(g84
g70
NtRp882
(dp883
g73
(dp884
sg82
g858
sg75
(lp885
g68
(g89
g70
NtRp886
(dp887
g73
(dp888
g93
g94
ssg82
g882
sg75
(lp889
g328
asbag68
(g89
g70
NtRp890
(dp891
g73
(dp892
g100
g101
ssg82
g882
sg75
(lp893
S':'
asbag68
(g89
g70
NtRp894
(dp895
g73
(dp896
sg82
g882
sg75
(lp897
g68
(g69
g70
NtRp898
(dp899
g73
(dp900
g81
I3
ssg82
g894
sg75
(lp901
S''
asbasbasbag68
(g84
g70
NtRp902
(dp903
g73
(dp904
sg82
g858
sg75
(lp905
g68
(g89
g70
NtRp906
(dp907
g73
(dp908
g93
g94
ssg82
g902
sg75
(lp909
g349
asbag68
(g89
g70
NtRp910
(dp911
g73
(dp912
g100
g101
ssg82
g902
sg75
(lp913
S':'
asbag68
(g89
g70
NtRp914
(dp915
g73
(dp916
sg82
g902
sg75
(lp917
g68
(g69
g70
NtRp918
(dp919
g73
(dp920
g81
I3
ssg82
g914
sg75
(lp921
S''
asbasbasbag68
(g84
g70
NtRp922
(dp923
g73
(dp924
sg82
g858
sg75
(lp925
g68
(g89
g70
NtRp926
(dp927
g73
(dp928
g93
g94
ssg82
g922
sg75
(lp929
g370
asbag68
(g89
g70
NtRp930
(dp931
g73
(dp932
g100
g101
ssg82
g922
sg75
(lp933
S':'
asbag68
(g89
g70
NtRp934
(dp935
g73
(dp936
sg82
g922
sg75
(lp937
g68
(g69
g70
NtRp938
(dp939
g73
(dp940
g81
I3
ssg82
g934
sg75
(lp941
S''
asbasbasbag68
(g84
g70
NtRp942
(dp943
g73
(dp944
sg82
g858
sg75
(lp945
g68
(g89
g70
NtRp946
(dp947
g73
(dp948
g93
g94
ssg82
g942
sg75
(lp949
g391
asbag68
(g89
g70
NtRp950
(dp951
g73
(dp952
g100
g101
ssg82
g942
sg75
(lp953
S':'
asbag68
(g89
g70
NtRp954
(dp955
g73
(dp956
sg82
g942
sg75
(lp957
g68
(g69
g70
NtRp958
(dp959
g73
(dp960
g81
I3
ssg82
g954
sg75
(lp961
S''
asbasbasbag68
(g84
g70
NtRp962
(dp963
g73
(dp964
sg82
g858
sg75
(lp965
g68
(g89
g70
NtRp966
(dp967
g73
(dp968
g93
g94
ssg82
g962
sg75
(lp969
g412
asbag68
(g89
g70
NtRp970
(dp971
g73
(dp972
g100
g101
ssg82
g962
sg75
(lp973
S':'
asbag68
(g89
g70
NtRp974
(dp975
g73
(dp976
sg82
g962
sg75
(lp977
g68
(g69
g70
NtRp978
(dp979
g73
(dp980
g81
I3
ssg82
g974
sg75
(lp981
S''
asbasbasbag68
(g84
g70
NtRp982
(dp983
g73
(dp984
sg82
g858
sg75
(lp985
g68
(g89
g70
NtRp986
(dp987
g73
(dp988
g93
g94
ssg82
g982
sg75
(lp989
g433
asbag68
(g89
g70
NtRp990
(dp991
g73
(dp992
g100
g101
ssg82
g982
sg75
(lp993
S':'
asbag68
(g89
g70
NtRp994
(dp995
g73
(dp996
sg82
g982
sg75
(lp997
g68
(g69
g70
NtRp998
(dp999
g73
(dp1000
g81
I3
ssg82
g994
sg75
(lp1001
S''
asbasbasbag68
(g84
g70
NtRp1002
(dp1003
g73
(dp1004
sg82
g858
sg75
(lp1005
g68
(g89
g70
NtRp1006
(dp1007
g73
(dp1008
g93
g94
ssg82
g1002
sg75
(lp1009
g454
asbag68
(g89
g70
NtRp1010
(dp1011
g73
(dp1012
g100
g101
ssg82
g1002
sg75
(lp1013
S':'
asbag68
(g89
g70
NtRp1014
(dp1015
g73
(dp1016
sg82
g1002
sg75
(lp1017
g68
(g69
g70
NtRp1018
(dp1019
g73
(dp1020
g81
I3
ssg82
g1014
sg75
(lp1021
S''
asbasbasbasbasbasbasbag68
(g84
g70
NtRp1022
(dp1023
g73
(dp1024
sg82
g270
sg75
(lp1025
g68
(g89
g70
NtRp1026
(dp1027
g73
(dp1028
g93
g94
ssg82
g1022
sg75
(lp1029
S'session_id_welcome'
p1030
asbag68
(g89
g70
NtRp1031
(dp1032
g73
(dp1033
g100
g101
ssg82
g1022
sg75
(lp1034
S':'
asbag68
(g89
g70
NtRp1035
(dp1036
g73
(dp1037
sg82
g1022
sg75
(lp1038
g68
(g69
g70
NtRp1039
(dp1040
g73
(dp1041
g81
I4
ssg82
g1035
sg75
(lp1042
g68
(g77
g70
NtRp1043
(dp1044
g73
(dp1045
g81
I3
ssg82
Nsg75
(lp1046
g68
(g84
g70
NtRp1047
(dp1048
g73
(dp1049
sg82
g1043
sg75
(lp1050
g68
(g89
g70
NtRp1051
(dp1052
g73
(dp1053
g93
g94
ssg82
g1047
sg75
(lp1054
g307
asbag68
(g89
g70
NtRp1055
(dp1056
g73
(dp1057
g100
g101
ssg82
g1047
sg75
(lp1058
S':'
asbag68
(g89
g70
NtRp1059
(dp1060
g73
(dp1061
sg82
g1047
sg75
(lp1062
g68
(g69
g70
NtRp1063
(dp1064
g73
(dp1065
g81
I3
ssg82
g1059
sg75
(lp1066
S''
asbasbasbag68
(g84
g70
NtRp1067
(dp1068
g73
(dp1069
sg82
g1043
sg75
(lp1070
g68
(g89
g70
NtRp1071
(dp1072
g73
(dp1073
g93
g94
ssg82
g1067
sg75
(lp1074
g328
asbag68
(g89
g70
NtRp1075
(dp1076
g73
(dp1077
g100
g101
ssg82
g1067
sg75
(lp1078
S':'
asbag68
(g89
g70
NtRp1079
(dp1080
g73
(dp1081
sg82
g1067
sg75
(lp1082
g68
(g69
g70
NtRp1083
(dp1084
g73
(dp1085
g81
I3
ssg82
g1079
sg75
(lp1086
S''
asbasbasbag68
(g84
g70
NtRp1087
(dp1088
g73
(dp1089
sg82
g1043
sg75
(lp1090
g68
(g89
g70
NtRp1091
(dp1092
g73
(dp1093
g93
g94
ssg82
g1087
sg75
(lp1094
g349
asbag68
(g89
g70
NtRp1095
(dp1096
g73
(dp1097
g100
g101
ssg82
g1087
sg75
(lp1098
S':'
asbag68
(g89
g70
NtRp1099
(dp1100
g73
(dp1101
sg82
g1087
sg75
(lp1102
g68
(g69
g70
NtRp1103
(dp1104
g73
(dp1105
g81
I3
ssg82
g1099
sg75
(lp1106
S''
asbasbasbag68
(g84
g70
NtRp1107
(dp1108
g73
(dp1109
sg82
g1043
sg75
(lp1110
g68
(g89
g70
NtRp1111
(dp1112
g73
(dp1113
g93
g94
ssg82
g1107
sg75
(lp1114
g370
asbag68
(g89
g70
NtRp1115
(dp1116
g73
(dp1117
g100
g101
ssg82
g1107
sg75
(lp1118
S':'
asbag68
(g89
g70
NtRp1119
(dp1120
g73
(dp1121
sg82
g1107
sg75
(lp1122
g68
(g69
g70
NtRp1123
(dp1124
g73
(dp1125
g81
I3
ssg82
g1119
sg75
(lp1126
S''
asbasbasbag68
(g84
g70
NtRp1127
(dp1128
g73
(dp1129
sg82
g1043
sg75
(lp1130
g68
(g89
g70
NtRp1131
(dp1132
g73
(dp1133
g93
g94
ssg82
g1127
sg75
(lp1134
g391
asbag68
(g89
g70
NtRp1135
(dp1136
g73
(dp1137
g100
g101
ssg82
g1127
sg75
(lp1138
S':'
asbag68
(g89
g70
NtRp1139
(dp1140
g73
(dp1141
sg82
g1127
sg75
(lp1142
g68
(g69
g70
NtRp1143
(dp1144
g73
(dp1145
g81
I3
ssg82
g1139
sg75
(lp1146
S''
asbasbasbag68
(g84
g70
NtRp1147
(dp1148
g73
(dp1149
sg82
g1043
sg75
(lp1150
g68
(g89
g70
NtRp1151
(dp1152
g73
(dp1153
g93
g94
ssg82
g1147
sg75
(lp1154
g412
asbag68
(g89
g70
NtRp1155
(dp1156
g73
(dp1157
g100
g101
ssg82
g1147
sg75
(lp1158
S':'
asbag68
(g89
g70
NtRp1159
(dp1160
g73
(dp1161
sg82
g1147
sg75
(lp1162
g68
(g69
g70
NtRp1163
(dp1164
g73
(dp1165
g81
I3
ssg82
g1159
sg75
(lp1166
S''
asbasbasbag68
(g84
g70
NtRp1167
(dp1168
g73
(dp1169
sg82
g1043
sg75
(lp1170
g68
(g89
g70
NtRp1171
(dp1172
g73
(dp1173
g93
g94
ssg82
g1167
sg75
(lp1174
g433
asbag68
(g89
g70
NtRp1175
(dp1176
g73
(dp1177
g100
g101
ssg82
g1167
sg75
(lp1178
S':'
asbag68
(g89
g70
NtRp1179
(dp1180
g73
(dp1181
sg82
g1167
sg75
(lp1182
g68
(g69
g70
NtRp1183
(dp1184
g73
(dp1185
g81
I3
ssg82
g1179
sg75
(lp1186
S''
asbasbasbag68
(g84
g70
NtRp1187
(dp1188
g73
(dp1189
sg82
g1043
sg75
(lp1190
g68
(g89
g70
NtRp1191
(dp1192
g73
(dp1193
g93
g94
ssg82
g1187
sg75
(lp1194
g454
asbag68
(g89
g70
NtRp1195
(dp1196
g73
(dp1197
g100
g101
ssg82
g1187
sg75
(lp1198
S':'
asbag68
(g89
g70
NtRp1199
(dp1200
g73
(dp1201
sg82
g1187
sg75
(lp1202
g68
(g69
g70
NtRp1203
(dp1204
g73
(dp1205
g81
I3
ssg82
g1199
sg75
(lp1206
S''
asbasbasbasbasbasbasbasbasbasbasbag68
(g84
g70
NtRp1207
(dp1208
g73
(dp1209
sg82
g78
sg75
(lp1210
g68
(g89
g70
NtRp1211
(dp1212
g73
(dp1213
g93
g94
ssg82
g1207
sg75
(lp1214
S'env'
p1215
asbag68
(g89
g70
NtRp1216
(dp1217
g73
(dp1218
g100
g101
ssg82
g1207
sg75
(lp1219
S':'
asbag68
(g89
g70
NtRp1220
(dp1221
g73
(dp1222
sg82
g1207
sg75
(lp1223
g68
(g69
g70
NtRp1224
(dp1225
g73
(dp1226
g81
I5
ssg82
g1220
sg75
(lp1227
g68
(g77
g70
NtRp1228
(dp1229
g73
(dp1230
g81
I4
ssg82
Nsg75
(lp1231
g68
(g84
g70
NtRp1232
(dp1233
g73
(dp1234
sg82
g1228
sg75
(lp1235
g68
(g89
g70
NtRp1236
(dp1237
g73
(dp1238
g93
g94
ssg82
g1232
sg75
(lp1239
S'app_folders'
p1240
asbag68
(g89
g70
NtRp1241
(dp1242
g73
(dp1243
g100
g101
ssg82
g1232
sg75
(lp1244
S':'
asbag68
(g89
g70
NtRp1245
(dp1246
g73
(dp1247
sg82
g1232
sg75
(lp1248
g68
(g69
g70
NtRp1249
(dp1250
g73
(dp1251
g81
I4
ssg82
g1245
sg75
(lp1252
S"set(['/home/kaique/Projects/web2py/applications/synopsis/', '/home/kaique/Projects/web2py/applications/admin/'])"
p1253
asbasbasbag68
(g84
g70
NtRp1254
(dp1255
g73
(dp1256
sg82
g1228
sg75
(lp1257
g68
(g89
g70
NtRp1258
(dp1259
g73
(dp1260
g93
g94
ssg82
g1254
sg75
(lp1261
S'applications_parent'
p1262
asbag68
(g89
g70
NtRp1263
(dp1264
g73
(dp1265
g100
g101
ssg82
g1254
sg75
(lp1266
S':'
asbag68
(g89
g70
NtRp1267
(dp1268
g73
(dp1269
sg82
g1254
sg75
(lp1270
g68
(g69
g70
NtRp1271
(dp1272
g73
(dp1273
g81
I4
ssg82
g1267
sg75
(lp1274
S'/home/kaique/Projects/web2py'
p1275
asbasbasbag68
(g84
g70
NtRp1276
(dp1277
g73
(dp1278
sg82
g1228
sg75
(lp1279
g68
(g89
g70
NtRp1280
(dp1281
g73
(dp1282
g93
g94
ssg82
g1276
sg75
(lp1283
S'cmd_args'
p1284
asbag68
(g89
g70
NtRp1285
(dp1286
g73
(dp1287
g100
g101
ssg82
g1276
sg75
(lp1288
S':'
asbag68
(g89
g70
NtRp1289
(dp1290
g73
(dp1291
sg82
g1276
sg75
(lp1292
g68
(g69
g70
NtRp1293
(dp1294
g73
(dp1295
g81
I4
ssg82
g1289
sg75
(lp1296
g68
(g77
g70
NtRp1297
(dp1298
g73
(dp1299
g81
I3
ssg82
Nsg75
(lp1300
sbasbasbasbag68
(g84
g70
NtRp1301
(dp1302
g73
(dp1303
sg82
g1228
sg75
(lp1304
g68
(g89
g70
NtRp1305
(dp1306
g73
(dp1307
g93
g94
ssg82
g1301
sg75
(lp1308
S'cmd_options'
p1309
asbag68
(g89
g70
NtRp1310
(dp1311
g73
(dp1312
g100
g101
ssg82
g1301
sg75
(lp1313
S':'
asbag68
(g89
g70
NtRp1314
(dp1315
g73
(dp1316
sg82
g1301
sg75
(lp1317
g68
(g69
g70
NtRp1318
(dp1319
g73
(dp1320
g81
I4
ssg82
g1314
sg75
(lp1321
S"<Values at 0x256e950: {'verbose': False, 'ip': '127.0.0.1', 'shutdown_timeout': 5, 'taskbar': False, 'nocron': False, 'pid_filename': 'httpserver.pid', 'maxthreads': None, 'softcron': False, 'server_name': 'kaique-Pine-Trail-M', 'bpython': False, 'nogui': False, 'port': 8000, 'extcron': False, 'debuglevel': 30, 'test': None, 'folder': '/home/kaique/Projects/web2py', 'config': '', 'import_models': False, 'winservice': '', 'shell': None, 'run': '', 'log_filename': 'httpserver.log', 'args': [''], 'ssl_ca_certificate': None, 'scheduler': None, 'profiler_filename': None, 'ssl_private_key': '', 'password': 'dev', 'request_queue_size': 5, 'ssl_certificate': '', 'cronjob': False, 'plain': False, 'quiet': False, 'interfaces': None, 'minthreads': None, 'timeout': 10, 'numthreads': None, 'nobanner': False}>"
p1322
asbasbasbag68
(g84
g70
NtRp1323
(dp1324
g73
(dp1325
sg82
g1228
sg75
(lp1326
g68
(g89
g70
NtRp1327
(dp1328
g73
(dp1329
g93
g94
ssg82
g1323
sg75
(lp1330
S'content_length'
p1331
asbag68
(g89
g70
NtRp1332
(dp1333
g73
(dp1334
g100
g101
ssg82
g1323
sg75
(lp1335
S':'
asbag68
(g89
g70
NtRp1336
(dp1337
g73
(dp1338
sg82
g1323
sg75
(lp1339
g68
(g69
g70
NtRp1340
(dp1341
g73
(dp1342
g81
I4
ssg82
g1336
sg75
(lp1343
S'457'
p1344
asbasbasbag68
(g84
g70
NtRp1345
(dp1346
g73
(dp1347
sg82
g1228
sg75
(lp1348
g68
(g89
g70
NtRp1349
(dp1350
g73
(dp1351
g93
g94
ssg82
g1345
sg75
(lp1352
S'content_type'
p1353
asbag68
(g89
g70
NtRp1354
(dp1355
g73
(dp1356
g100
g101
ssg82
g1345
sg75
(lp1357
S':'
asbag68
(g89
g70
NtRp1358
(dp1359
g73
(dp1360
sg82
g1345
sg75
(lp1361
g68
(g69
g70
NtRp1362
(dp1363
g73
(dp1364
g81
I4
ssg82
g1358
sg75
(lp1365
S'multipart/form-data; boundary=---------------------------183185033221149639071445758702'
p1366
asbasbasbag68
(g84
g70
NtRp1367
(dp1368
g73
(dp1369
sg82
g1228
sg75
(lp1370
g68
(g89
g70
NtRp1371
(dp1372
g73
(dp1373
g93
g94
ssg82
g1367
sg75
(lp1374
S'db_sessions'
p1375
asbag68
(g89
g70
NtRp1376
(dp1377
g73
(dp1378
g100
g101
ssg82
g1367
sg75
(lp1379
S':'
asbag68
(g89
g70
NtRp1380
(dp1381
g73
(dp1382
sg82
g1367
sg75
(lp1383
g68
(g69
g70
NtRp1384
(dp1385
g73
(dp1386
g81
I4
ssg82
g1380
sg75
(lp1387
S'set([])'
p1388
asbasbasbag68
(g84
g70
NtRp1389
(dp1390
g73
(dp1391
sg82
g1228
sg75
(lp1392
g68
(g89
g70
NtRp1393
(dp1394
g73
(dp1395
g93
g94
ssg82
g1389
sg75
(lp1396
S'debugging'
p1397
asbag68
(g89
g70
NtRp1398
(dp1399
g73
(dp1400
g100
g101
ssg82
g1389
sg75
(lp1401
S':'
asbag68
(g89
g70
NtRp1402
(dp1403
g73
(dp1404
sg82
g1389
sg75
(lp1405
g68
(g69
g70
NtRp1406
(dp1407
g73
(dp1408
g81
I4
ssg82
g1402
sg75
(lp1409
g111
asbasbasbag68
(g84
g70
NtRp1410
(dp1411
g73
(dp1412
sg82
g1228
sg75
(lp1413
g68
(g89
g70
NtRp1414
(dp1415
g73
(dp1416
g93
g94
ssg82
g1410
sg75
(lp1417
S'gluon_parent'
p1418
asbag68
(g89
g70
NtRp1419
(dp1420
g73
(dp1421
g100
g101
ssg82
g1410
sg75
(lp1422
S':'
asbag68
(g89
g70
NtRp1423
(dp1424
g73
(dp1425
sg82
g1410
sg75
(lp1426
g68
(g69
g70
NtRp1427
(dp1428
g73
(dp1429
g81
I4
ssg82
g1423
sg75
(lp1430
S'/home/kaique/Projects/web2py'
p1431
asbasbasbag68
(g84
g70
NtRp1432
(dp1433
g73
(dp1434
sg82
g1228
sg75
(lp1435
g68
(g89
g70
NtRp1436
(dp1437
g73
(dp1438
g93
g94
ssg82
g1432
sg75
(lp1439
S'http_accept'
p1440
asbag68
(g89
g70
NtRp1441
(dp1442
g73
(dp1443
g100
g101
ssg82
g1432
sg75
(lp1444
S':'
asbag68
(g89
g70
NtRp1445
(dp1446
g73
(dp1447
sg82
g1432
sg75
(lp1448
g68
(g69
g70
NtRp1449
(dp1450
g73
(dp1451
g81
I4
ssg82
g1445
sg75
(lp1452
S'text/html,application/xhtml+xml,application/xml;q=0.9,*/*;q=0.8'
p1453
asbasbasbag68
(g84
g70
NtRp1454
(dp1455
g73
(dp1456
sg82
g1228
sg75
(lp1457
g68
(g89
g70
NtRp1458
(dp1459
g73
(dp1460
g93
g94
ssg82
g1454
sg75
(lp1461
S'http_accept_charset'
p1462
asbag68
(g89
g70
NtRp1463
(dp1464
g73
(dp1465
g100
g101
ssg82
g1454
sg75
(lp1466
S':'
asbag68
(g89
g70
NtRp1467
(dp1468
g73
(dp1469
sg82
g1454
sg75
(lp1470
g68
(g69
g70
NtRp1471
(dp1472
g73
(dp1473
g81
I4
ssg82
g1467
sg75
(lp1474
S'ISO-8859-1,utf-8;q=0.7,*;q=0.7'
p1475
asbasbasbag68
(g84
g70
NtRp1476
(dp1477
g73
(dp1478
sg82
g1228
sg75
(lp1479
g68
(g89
g70
NtRp1480
(dp1481
g73
(dp1482
g93
g94
ssg82
g1476
sg75
(lp1483
S'http_accept_encoding'
p1484
asbag68
(g89
g70
NtRp1485
(dp1486
g73
(dp1487
g100
g101
ssg82
g1476
sg75
(lp1488
S':'
asbag68
(g89
g70
NtRp1489
(dp1490
g73
(dp1491
sg82
g1476
sg75
(lp1492
g68
(g69
g70
NtRp1493
(dp1494
g73
(dp1495
g81
I4
ssg82
g1489
sg75
(lp1496
S'gzip, deflate'
p1497
asbasbasbag68
(g84
g70
NtRp1498
(dp1499
g73
(dp1500
sg82
g1228
sg75
(lp1501
g68
(g89
g70
NtRp1502
(dp1503
g73
(dp1504
g93
g94
ssg82
g1498
sg75
(lp1505
S'http_accept_language'
p1506
asbag68
(g89
g70
NtRp1507
(dp1508
g73
(dp1509
g100
g101
ssg82
g1498
sg75
(lp1510
S':'
asbag68
(g89
g70
NtRp1511
(dp1512
g73
(dp1513
sg82
g1498
sg75
(lp1514
g68
(g69
g70
NtRp1515
(dp1516
g73
(dp1517
g81
I4
ssg82
g1511
sg75
(lp1518
S'pt-br,pt;q=0.8,en-us;q=0.5,en;q=0.3'
p1519
asbasbasbag68
(g84
g70
NtRp1520
(dp1521
g73
(dp1522
sg82
g1228
sg75
(lp1523
g68
(g89
g70
NtRp1524
(dp1525
g73
(dp1526
g93
g94
ssg82
g1520
sg75
(lp1527
S'http_connection'
p1528
asbag68
(g89
g70
NtRp1529
(dp1530
g73
(dp1531
g100
g101
ssg82
g1520
sg75
(lp1532
S':'
asbag68
(g89
g70
NtRp1533
(dp1534
g73
(dp1535
sg82
g1520
sg75
(lp1536
g68
(g69
g70
NtRp1537
(dp1538
g73
(dp1539
g81
I4
ssg82
g1533
sg75
(lp1540
S'keep-alive'
p1541
asbasbasbag68
(g84
g70
NtRp1542
(dp1543
g73
(dp1544
sg82
g1228
sg75
(lp1545
g68
(g89
g70
NtRp1546
(dp1547
g73
(dp1548
g93
g94
ssg82
g1542
sg75
(lp1549
S'http_content_length'
p1550
asbag68
(g89
g70
NtRp1551
(dp1552
g73
(dp1553
g100
g101
ssg82
g1542
sg75
(lp1554
S':'
asbag68
(g89
g70
NtRp1555
(dp1556
g73
(dp1557
sg82
g1542
sg75
(lp1558
g68
(g69
g70
NtRp1559
(dp1560
g73
(dp1561
g81
I4
ssg82
g1555
sg75
(lp1562
g1344
asbasbasbag68
(g84
g70
NtRp1563
(dp1564
g73
(dp1565
sg82
g1228
sg75
(lp1566
g68
(g89
g70
NtRp1567
(dp1568
g73
(dp1569
g93
g94
ssg82
g1563
sg75
(lp1570
S'http_content_type'
p1571
asbag68
(g89
g70
NtRp1572
(dp1573
g73
(dp1574
g100
g101
ssg82
g1563
sg75
(lp1575
S':'
asbag68
(g89
g70
NtRp1576
(dp1577
g73
(dp1578
sg82
g1563
sg75
(lp1579
g68
(g69
g70
NtRp1580
(dp1581
g73
(dp1582
g81
I4
ssg82
g1576
sg75
(lp1583
g1366
asbasbasbag68
(g84
g70
NtRp1584
(dp1585
g73
(dp1586
sg82
g1228
sg75
(lp1587
g68
(g89
g70
NtRp1588
(dp1589
g73
(dp1590
g93
g94
ssg82
g1584
sg75
(lp1591
S'http_cookie'
p1592
asbag68
(g89
g70
NtRp1593
(dp1594
g73
(dp1595
g100
g101
ssg82
g1584
sg75
(lp1596
S':'
asbag68
(g89
g70
NtRp1597
(dp1598
g73
(dp1599
sg82
g1584
sg75
(lp1600
g68
(g69
g70
NtRp1601
(dp1602
g73
(dp1603
g81
I4
ssg82
g1597
sg75
(lp1604
S'currency=GBP; PHPSESSID=9p6ovvset7bb455bs5oc3eara3; session_id_welcome=127.0.0.1-2178f248-6721-4586-ae68-1cad380386a5; session_id_synopsis=127.0.0.1-22caa4ed-0448-4782-a756-bcb437fd81d3; session_id_admin=127.0.0.1-0b87d24d-feef-4771-9611-26979c7dbdf1'
p1605
asbasbasbag68
(g84
g70
NtRp1606
(dp1607
g73
(dp1608
sg82
g1228
sg75
(lp1609
g68
(g89
g70
NtRp1610
(dp1611
g73
(dp1612
g93
g94
ssg82
g1606
sg75
(lp1613
S'http_host'
p1614
asbag68
(g89
g70
NtRp1615
(dp1616
g73
(dp1617
g100
g101
ssg82
g1606
sg75
(lp1618
S':'
asbag68
(g89
g70
NtRp1619
(dp1620
g73
(dp1621
sg82
g1606
sg75
(lp1622
g68
(g69
g70
NtRp1623
(dp1624
g73
(dp1625
g81
I4
ssg82
g1619
sg75
(lp1626
S'localhost:8000'
p1627
asbasbasbag68
(g84
g70
NtRp1628
(dp1629
g73
(dp1630
sg82
g1228
sg75
(lp1631
g68
(g89
g70
NtRp1632
(dp1633
g73
(dp1634
g93
g94
ssg82
g1628
sg75
(lp1635
S'http_referer'
p1636
asbag68
(g89
g70
NtRp1637
(dp1638
g73
(dp1639
g100
g101
ssg82
g1628
sg75
(lp1640
S':'
asbag68
(g89
g70
NtRp1641
(dp1642
g73
(dp1643
sg82
g1628
sg75
(lp1644
g68
(g69
g70
NtRp1645
(dp1646
g73
(dp1647
g81
I4
ssg82
g1641
sg75
(lp1648
S'http://localhost:8000/synopsis/information/new/quote/1'
p1649
asbasbasbag68
(g84
g70
NtRp1650
(dp1651
g73
(dp1652
sg82
g1228
sg75
(lp1653
g68
(g89
g70
NtRp1654
(dp1655
g73
(dp1656
g93
g94
ssg82
g1650
sg75
(lp1657
S'http_user_agent'
p1658
asbag68
(g89
g70
NtRp1659
(dp1660
g73
(dp1661
g100
g101
ssg82
g1650
sg75
(lp1662
S':'
asbag68
(g89
g70
NtRp1663
(dp1664
g73
(dp1665
sg82
g1650
sg75
(lp1666
g68
(g69
g70
NtRp1667
(dp1668
g73
(dp1669
g81
I4
ssg82
g1663
sg75
(lp1670
S'Mozilla/5.0 (Ubuntu; X11; Linux x86_64; rv:9.0.1) Gecko/20100101 Firefox/9.0.1'
p1671
asbasbasbag68
(g84
g70
NtRp1672
(dp1673
g73
(dp1674
sg82
g1228
sg75
(lp1675
g68
(g89
g70
NtRp1676
(dp1677
g73
(dp1678
g93
g94
ssg82
g1672
sg75
(lp1679
S'is_jython'
p1680
asbag68
(g89
g70
NtRp1681
(dp1682
g73
(dp1683
g100
g101
ssg82
g1672
sg75
(lp1684
S':'
asbag68
(g89
g70
NtRp1685
(dp1686
g73
(dp1687
sg82
g1672
sg75
(lp1688
g68
(g69
g70
NtRp1689
(dp1690
g73
(dp1691
g81
I4
ssg82
g1685
sg75
(lp1692
g111
asbasbasbag68
(g84
g70
NtRp1693
(dp1694
g73
(dp1695
sg82
g1228
sg75
(lp1696
g68
(g89
g70
NtRp1697
(dp1698
g73
(dp1699
g93
g94
ssg82
g1693
sg75
(lp1700
S'path_info'
p1701
asbag68
(g89
g70
NtRp1702
(dp1703
g73
(dp1704
g100
g101
ssg82
g1693
sg75
(lp1705
S':'
asbag68
(g89
g70
NtRp1706
(dp1707
g73
(dp1708
sg82
g1693
sg75
(lp1709
g68
(g69
g70
NtRp1710
(dp1711
g73
(dp1712
g81
I4
ssg82
g1706
sg75
(lp1713
S'/synopsis/information/new/quote/1'
p1714
asbasbasbag68
(g84
g70
NtRp1715
(dp1716
g73
(dp1717
sg82
g1228
sg75
(lp1718
g68
(g89
g70
NtRp1719
(dp1720
g73
(dp1721
g93
g94
ssg82
g1715
sg75
(lp1722
S'query_string'
p1723
asbag68
(g89
g70
NtRp1724
(dp1725
g73
(dp1726
g100
g101
ssg82
g1715
sg75
(lp1727
S':'
asbag68
(g89
g70
NtRp1728
(dp1729
g73
(dp1730
sg82
g1715
sg75
(lp1731
g68
(g69
g70
NtRp1732
(dp1733
g73
(dp1734
g81
I4
ssg82
g1728
sg75
(lp1735
S''
asbasbasbag68
(g84
g70
NtRp1736
(dp1737
g73
(dp1738
sg82
g1228
sg75
(lp1739
g68
(g89
g70
NtRp1740
(dp1741
g73
(dp1742
g93
g94
ssg82
g1736
sg75
(lp1743
S'remote_addr'
p1744
asbag68
(g89
g70
NtRp1745
(dp1746
g73
(dp1747
g100
g101
ssg82
g1736
sg75
(lp1748
S':'
asbag68
(g89
g70
NtRp1749
(dp1750
g73
(dp1751
sg82
g1736
sg75
(lp1752
g68
(g69
g70
NtRp1753
(dp1754
g73
(dp1755
g81
I4
ssg82
g1749
sg75
(lp1756
g226
asbasbasbag68
(g84
g70
NtRp1757
(dp1758
g73
(dp1759
sg82
g1228
sg75
(lp1760
g68
(g89
g70
NtRp1761
(dp1762
g73
(dp1763
g93
g94
ssg82
g1757
sg75
(lp1764
S'remote_port'
p1765
asbag68
(g89
g70
NtRp1766
(dp1767
g73
(dp1768
g100
g101
ssg82
g1757
sg75
(lp1769
S':'
asbag68
(g89
g70
NtRp1770
(dp1771
g73
(dp1772
sg82
g1757
sg75
(lp1773
g68
(g69
g70
NtRp1774
(dp1775
g73
(dp1776
g81
I4
ssg82
g1770
sg75
(lp1777
S'60850'
p1778
asbasbasbag68
(g84
g70
NtRp1779
(dp1780
g73
(dp1781
sg82
g1228
sg75
(lp1782
g68
(g89
g70
NtRp1783
(dp1784
g73
(dp1785
g93
g94
ssg82
g1779
sg75
(lp1786
S'request_method'
p1787
asbag68
(g89
g70
NtRp1788
(dp1789
g73
(dp1790
g100
g101
ssg82
g1779
sg75
(lp1791
S':'
asbag68
(g89
g70
NtRp1792
(dp1793
g73
(dp1794
sg82
g1779
sg75
(lp1795
g68
(g69
g70
NtRp1796
(dp1797
g73
(dp1798
g81
I4
ssg82
g1792
sg75
(lp1799
S'POST'
p1800
asbasbasbag68
(g84
g70
NtRp1801
(dp1802
g73
(dp1803
sg82
g1228
sg75
(lp1804
g68
(g89
g70
NtRp1805
(dp1806
g73
(dp1807
g93
g94
ssg82
g1801
sg75
(lp1808
S'script_name'
p1809
asbag68
(g89
g70
NtRp1810
(dp1811
g73
(dp1812
g100
g101
ssg82
g1801
sg75
(lp1813
S':'
asbag68
(g89
g70
NtRp1814
(dp1815
g73
(dp1816
sg82
g1801
sg75
(lp1817
g68
(g69
g70
NtRp1818
(dp1819
g73
(dp1820
g81
I4
ssg82
g1814
sg75
(lp1821
S''
asbasbasbag68
(g84
g70
NtRp1822
(dp1823
g73
(dp1824
sg82
g1228
sg75
(lp1825
g68
(g89
g70
NtRp1826
(dp1827
g73
(dp1828
g93
g94
ssg82
g1822
sg75
(lp1829
S'server_name'
p1830
asbag68
(g89
g70
NtRp1831
(dp1832
g73
(dp1833
g100
g101
ssg82
g1822
sg75
(lp1834
S':'
asbag68
(g89
g70
NtRp1835
(dp1836
g73
(dp1837
sg82
g1822
sg75
(lp1838
g68
(g69
g70
NtRp1839
(dp1840
g73
(dp1841
g81
I4
ssg82
g1835
sg75
(lp1842
S'kaique-Pine-Trail-M'
p1843
asbasbasbag68
(g84
g70
NtRp1844
(dp1845
g73
(dp1846
sg82
g1228
sg75
(lp1847
g68
(g89
g70
NtRp1848
(dp1849
g73
(dp1850
g93
g94
ssg82
g1844
sg75
(lp1851
S'server_port'
p1852
asbag68
(g89
g70
NtRp1853
(dp1854
g73
(dp1855
g100
g101
ssg82
g1844
sg75
(lp1856
S':'
asbag68
(g89
g70
NtRp1857
(dp1858
g73
(dp1859
sg82
g1844
sg75
(lp1860
g68
(g69
g70
NtRp1861
(dp1862
g73
(dp1863
g81
I4
ssg82
g1857
sg75
(lp1864
S'8000'
p1865
asbasbasbag68
(g84
g70
NtRp1866
(dp1867
g73
(dp1868
sg82
g1228
sg75
(lp1869
g68
(g89
g70
NtRp1870
(dp1871
g73
(dp1872
g93
g94
ssg82
g1866
sg75
(lp1873
S'server_protocol'
p1874
asbag68
(g89
g70
NtRp1875
(dp1876
g73
(dp1877
g100
g101
ssg82
g1866
sg75
(lp1878
S':'
asbag68
(g89
g70
NtRp1879
(dp1880
g73
(dp1881
sg82
g1866
sg75
(lp1882
g68
(g69
g70
NtRp1883
(dp1884
g73
(dp1885
g81
I4
ssg82
g1879
sg75
(lp1886
S'HTTP/1.1'
p1887
asbasbasbag68
(g84
g70
NtRp1888
(dp1889
g73
(dp1890
sg82
g1228
sg75
(lp1891
g68
(g89
g70
NtRp1892
(dp1893
g73
(dp1894
g93
g94
ssg82
g1888
sg75
(lp1895
S'server_software'
p1896
asbag68
(g89
g70
NtRp1897
(dp1898
g73
(dp1899
g100
g101
ssg82
g1888
sg75
(lp1900
S':'
asbag68
(g89
g70
NtRp1901
(dp1902
g73
(dp1903
sg82
g1888
sg75
(lp1904
g68
(g69
g70
NtRp1905
(dp1906
g73
(dp1907
g81
I4
ssg82
g1901
sg75
(lp1908
S'Rocket 1.2.4'
p1909
asbasbasbag68
(g84
g70
NtRp1910
(dp1911
g73
(dp1912
sg82
g1228
sg75
(lp1913
g68
(g89
g70
NtRp1914
(dp1915
g73
(dp1916
g93
g94
ssg82
g1910
sg75
(lp1917
S'web2py_crontype'
p1918
asbag68
(g89
g70
NtRp1919
(dp1920
g73
(dp1921
g100
g101
ssg82
g1910
sg75
(lp1922
S':'
asbag68
(g89
g70
NtRp1923
(dp1924
g73
(dp1925
sg82
g1910
sg75
(lp1926
g68
(g69
g70
NtRp1927
(dp1928
g73
(dp1929
g81
I4
ssg82
g1923
sg75
(lp1930
S'hard'
p1931
asbasbasbag68
(g84
g70
NtRp1932
(dp1933
g73
(dp1934
sg82
g1228
sg75
(lp1935
g68
(g89
g70
NtRp1936
(dp1937
g73
(dp1938
g93
g94
ssg82
g1932
sg75
(lp1939
S'web2py_path'
p1940
asbag68
(g89
g70
NtRp1941
(dp1942
g73
(dp1943
g100
g101
ssg82
g1932
sg75
(lp1944
S':'
asbag68
(g89
g70
NtRp1945
(dp1946
g73
(dp1947
sg82
g1932
sg75
(lp1948
g68
(g69
g70
NtRp1949
(dp1950
g73
(dp1951
g81
I4
ssg82
g1945
sg75
(lp1952
g1275
asbasbasbag68
(g84
g70
NtRp1953
(dp1954
g73
(dp1955
sg82
g1228
sg75
(lp1956
g68
(g89
g70
NtRp1957
(dp1958
g73
(dp1959
g93
g94
ssg82
g1953
sg75
(lp1960
S'web2py_version'
p1961
asbag68
(g89
g70
NtRp1962
(dp1963
g73
(dp1964
g100
g101
ssg82
g1953
sg75
(lp1965
S':'
asbag68
(g89
g70
NtRp1966
(dp1967
g73
(dp1968
sg82
g1953
sg75
(lp1969
g68
(g69
g70
NtRp1970
(dp1971
g73
(dp1972
g81
I4
ssg82
g1966
sg75
(lp1973
g68
(g77
g70
NtRp1974
(dp1975
g73
(dp1976
g81
I3
ssg82
Nsg75
(lp1977
g68
(g84
g70
NtRp1978
(dp1979
g73
(dp1980
sg82
g1974
sg75
(lp1981
g68
(g89
g70
NtRp1982
(dp1983
g73
(dp1984
sg82
g1978
sg75
(lp1985
g68
(g69
g70
NtRp1986
(dp1987
g73
(dp1988
g81
I3
ssg82
g1982
sg75
(lp1989
S'1'
asbasbasbag68
(g84
g70
NtRp1990
(dp1991
g73
(dp1992
sg82
g1974
sg75
(lp1993
g68
(g89
g70
NtRp1994
(dp1995
g73
(dp1996
sg82
g1990
sg75
(lp1997
g68
(g69
g70
NtRp1998
(dp1999
g73
(dp2000
g81
I3
ssg82
g1994
sg75
(lp2001
S'99'
p2002
asbasbasbag68
(g84
g70
NtRp2003
(dp2004
g73
(dp2005
sg82
g1974
sg75
(lp2006
g68
(g89
g70
NtRp2007
(dp2008
g73
(dp2009
sg82
g2003
sg75
(lp2010
g68
(g69
g70
NtRp2011
(dp2012
g73
(dp2013
g81
I3
ssg82
g2007
sg75
(lp2014
S'2'
asbasbasbag68
(g84
g70
NtRp2015
(dp2016
g73
(dp2017
sg82
g1974
sg75
(lp2018
g68
(g89
g70
NtRp2019
(dp2020
g73
(dp2021
sg82
g2015
sg75
(lp2022
g68
(g69
g70
NtRp2023
(dp2024
g73
(dp2025
g81
I3
ssg82
g2019
sg75
(lp2026
S'datetime.datetime(2011, 9, 26, 6, 55, 33)'
p2027
asbasbasbag68
(g84
g70
NtRp2028
(dp2029
g73
(dp2030
sg82
g1974
sg75
(lp2031
g68
(g89
g70
NtRp2032
(dp2033
g73
(dp2034
sg82
g2028
sg75
(lp2035
g68
(g69
g70
NtRp2036
(dp2037
g73
(dp2038
g81
I3
ssg82
g2032
sg75
(lp2039
S'stable'
p2040
asbasbasbasbasbasbasbag68
(g84
g70
NtRp2041
(dp2042
g73
(dp2043
sg82
g1228
sg75
(lp2044
g68
(g89
g70
NtRp2045
(dp2046
g73
(dp2047
g93
g94
ssg82
g2041
sg75
(lp2048
S'wsgi_errors'
p2049
asbag68
(g89
g70
NtRp2050
(dp2051
g73
(dp2052
g100
g101
ssg82
g2041
sg75
(lp2053
S':'
asbag68
(g89
g70
NtRp2054
(dp2055
g73
(dp2056
sg82
g2041
sg75
(lp2057
g68
(g69
g70
NtRp2058
(dp2059
g73
(dp2060
g81
I4
ssg82
g2054
sg75
(lp2061
S"<open file '<stderr>', mode 'w' at 0x7f6e78474270>"
p2062
asbasbasbag68
(g84
g70
NtRp2063
(dp2064
g73
(dp2065
sg82
g1228
sg75
(lp2066
g68
(g89
g70
NtRp2067
(dp2068
g73
(dp2069
g93
g94
ssg82
g2063
sg75
(lp2070
S'wsgi_file_wrapper'
p2071
asbag68
(g89
g70
NtRp2072
(dp2073
g73
(dp2074
g100
g101
ssg82
g2063
sg75
(lp2075
S':'
asbag68
(g89
g70
NtRp2076
(dp2077
g73
(dp2078
sg82
g2063
sg75
(lp2079
g68
(g69
g70
NtRp2080
(dp2081
g73
(dp2082
g81
I4
ssg82
g2076
sg75
(lp2083
S'<class wsgiref.util.FileWrapper at 0x2425ef0>'
p2084
asbasbasbag68
(g84
g70
NtRp2085
(dp2086
g73
(dp2087
sg82
g1228
sg75
(lp2088
g68
(g89
g70
NtRp2089
(dp2090
g73
(dp2091
g93
g94
ssg82
g2085
sg75
(lp2092
S'wsgi_input'
p2093
asbag68
(g89
g70
NtRp2094
(dp2095
g73
(dp2096
g100
g101
ssg82
g2085
sg75
(lp2097
S':'
asbag68
(g89
g70
NtRp2098
(dp2099
g73
(dp2100
sg82
g2085
sg75
(lp2101
g68
(g69
g70
NtRp2102
(dp2103
g73
(dp2104
g81
I4
ssg82
g2098
sg75
(lp2105
S'<socket._fileobject object at 0x3573cd0>'
p2106
asbasbasbag68
(g84
g70
NtRp2107
(dp2108
g73
(dp2109
sg82
g1228
sg75
(lp2110
g68
(g89
g70
NtRp2111
(dp2112
g73
(dp2113
g93
g94
ssg82
g2107
sg75
(lp2114
S'wsgi_multiprocess'
p2115
asbag68
(g89
g70
NtRp2116
(dp2117
g73
(dp2118
g100
g101
ssg82
g2107
sg75
(lp2119
S':'
asbag68
(g89
g70
NtRp2120
(dp2121
g73
(dp2122
sg82
g2107
sg75
(lp2123
g68
(g69
g70
NtRp2124
(dp2125
g73
(dp2126
g81
I4
ssg82
g2120
sg75
(lp2127
g111
asbasbasbag68
(g84
g70
NtRp2128
(dp2129
g73
(dp2130
sg82
g1228
sg75
(lp2131
g68
(g89
g70
NtRp2132
(dp2133
g73
(dp2134
g93
g94
ssg82
g2128
sg75
(lp2135
S'wsgi_multithread'
p2136
asbag68
(g89
g70
NtRp2137
(dp2138
g73
(dp2139
g100
g101
ssg82
g2128
sg75
(lp2140
S':'
asbag68
(g89
g70
NtRp2141
(dp2142
g73
(dp2143
sg82
g2128
sg75
(lp2144
g68
(g69
g70
NtRp2145
(dp2146
g73
(dp2147
g81
I4
ssg82
g2141
sg75
(lp2148
S'True'
p2149
asbasbasbag68
(g84
g70
NtRp2150
(dp2151
g73
(dp2152
sg82
g1228
sg75
(lp2153
g68
(g89
g70
NtRp2154
(dp2155
g73
(dp2156
g93
g94
ssg82
g2150
sg75
(lp2157
S'wsgi_run_once'
p2158
asbag68
(g89
g70
NtRp2159
(dp2160
g73
(dp2161
g100
g101
ssg82
g2150
sg75
(lp2162
S':'
asbag68
(g89
g70
NtRp2163
(dp2164
g73
(dp2165
sg82
g2150
sg75
(lp2166
g68
(g69
g70
NtRp2167
(dp2168
g73
(dp2169
g81
I4
ssg82
g2163
sg75
(lp2170
g111
asbasbasbag68
(g84
g70
NtRp2171
(dp2172
g73
(dp2173
sg82
g1228
sg75
(lp2174
g68
(g89
g70
NtRp2175
(dp2176
g73
(dp2177
g93
g94
ssg82
g2171
sg75
(lp2178
S'wsgi_url_scheme'
p2179
asbag68
(g89
g70
NtRp2180
(dp2181
g73
(dp2182
g100
g101
ssg82
g2171
sg75
(lp2183
S':'
asbag68
(g89
g70
NtRp2184
(dp2185
g73
(dp2186
sg82
g2171
sg75
(lp2187
g68
(g69
g70
NtRp2188
(dp2189
g73
(dp2190
g81
I4
ssg82
g2184
sg75
(lp2191
S'http'
p2192
asbasbasbag68
(g84
g70
NtRp2193
(dp2194
g73
(dp2195
sg82
g1228
sg75
(lp2196
g68
(g89
g70
NtRp2197
(dp2198
g73
(dp2199
g93
g94
ssg82
g2193
sg75
(lp2200
S'wsgi_version'
p2201
asbag68
(g89
g70
NtRp2202
(dp2203
g73
(dp2204
g100
g101
ssg82
g2193
sg75
(lp2205
S':'
asbag68
(g89
g70
NtRp2206
(dp2207
g73
(dp2208
sg82
g2193
sg75
(lp2209
g68
(g69
g70
NtRp2210
(dp2211
g73
(dp2212
g81
I4
ssg82
g2206
sg75
(lp2213
g68
(g77
g70
NtRp2214
(dp2215
g73
(dp2216
g81
I3
ssg82
Nsg75
(lp2217
g68
(g84
g70
NtRp2218
(dp2219
g73
(dp2220
sg82
g2214
sg75
(lp2221
g68
(g89
g70
NtRp2222
(dp2223
g73
(dp2224
sg82
g2218
sg75
(lp2225
g68
(g69
g70
NtRp2226
(dp2227
g73
(dp2228
g81
I3
ssg82
g2222
sg75
(lp2229
S'1'
asbasbasbag68
(g84
g70
NtRp2230
(dp2231
g73
(dp2232
sg82
g2214
sg75
(lp2233
g68
(g89
g70
NtRp2234
(dp2235
g73
(dp2236
sg82
g2230
sg75
(lp2237
g68
(g69
g70
NtRp2238
(dp2239
g73
(dp2240
g81
I3
ssg82
g2234
sg75
(lp2241
S'0'
asbasbasbasbasbasbasbasbasbasbasbag68
(g84
g70
NtRp2242
(dp2243
g73
(dp2244
sg82
g78
sg75
(lp2245
g68
(g89
g70
NtRp2246
(dp2247
g73
(dp2248
g93
g94
ssg82
g2242
sg75
(lp2249
S'extension'
p2250
asbag68
(g89
g70
NtRp2251
(dp2252
g73
(dp2253
g100
g101
ssg82
g2242
sg75
(lp2254
S':'
asbag68
(g89
g70
NtRp2255
(dp2256
g73
(dp2257
sg82
g2242
sg75
(lp2258
g68
(g69
g70
NtRp2259
(dp2260
g73
(dp2261
g81
I5
ssg82
g2255
sg75
(lp2262
S'html'
p2263
asbasbasbag68
(g84
g70
NtRp2264
(dp2265
g73
(dp2266
sg82
g78
sg75
(lp2267
g68
(g89
g70
NtRp2268
(dp2269
g73
(dp2270
g93
g94
ssg82
g2264
sg75
(lp2271
S'folder'
p2272
asbag68
(g89
g70
NtRp2273
(dp2274
g73
(dp2275
g100
g101
ssg82
g2264
sg75
(lp2276
S':'
asbag68
(g89
g70
NtRp2277
(dp2278
g73
(dp2279
sg82
g2264
sg75
(lp2280
g68
(g69
g70
NtRp2281
(dp2282
g73
(dp2283
g81
I5
ssg82
g2277
sg75
(lp2284
S'/home/kaique/Projects/web2py/applications/synopsis/'
p2285
asbasbasbag68
(g84
g70
NtRp2286
(dp2287
g73
(dp2288
sg82
g78
sg75
(lp2289
g68
(g89
g70
NtRp2290
(dp2291
g73
(dp2292
g93
g94
ssg82
g2286
sg75
(lp2293
S'function'
p2294
asbag68
(g89
g70
NtRp2295
(dp2296
g73
(dp2297
g100
g101
ssg82
g2286
sg75
(lp2298
S':'
asbag68
(g89
g70
NtRp2299
(dp2300
g73
(dp2301
sg82
g2286
sg75
(lp2302
g68
(g69
g70
NtRp2303
(dp2304
g73
(dp2305
g81
I5
ssg82
g2299
sg75
(lp2306
S'new'
p2307
asbasbasbag68
(g84
g70
NtRp2308
(dp2309
g73
(dp2310
sg82
g78
sg75
(lp2311
g68
(g89
g70
NtRp2312
(dp2313
g73
(dp2314
g93
g94
ssg82
g2308
sg75
(lp2315
S'get_vars'
p2316
asbag68
(g89
g70
NtRp2317
(dp2318
g73
(dp2319
g100
g101
ssg82
g2308
sg75
(lp2320
S':'
asbag68
(g89
g70
NtRp2321
(dp2322
g73
(dp2323
sg82
g2308
sg75
(lp2324
g68
(g69
g70
NtRp2325
(dp2326
g73
(dp2327
g81
I5
ssg82
g2321
sg75
(lp2328
g68
(g77
g70
NtRp2329
(dp2330
g73
(dp2331
g81
I4
ssg82
Nsg75
(lp2332
sbasbasbasbag68
(g84
g70
NtRp2333
(dp2334
g73
(dp2335
sg82
g78
sg75
(lp2336
g68
(g89
g70
NtRp2337
(dp2338
g73
(dp2339
g93
g94
ssg82
g2333
sg75
(lp2340
S'global_settings'
p2341
asbag68
(g89
g70
NtRp2342
(dp2343
g73
(dp2344
g100
g101
ssg82
g2333
sg75
(lp2345
S':'
asbag68
(g89
g70
NtRp2346
(dp2347
g73
(dp2348
sg82
g2333
sg75
(lp2349
g68
(g69
g70
NtRp2350
(dp2351
g73
(dp2352
g81
I5
ssg82
g2346
sg75
(lp2353
g68
(g77
g70
NtRp2354
(dp2355
g73
(dp2356
g81
I4
ssg82
Nsg75
(lp2357
g68
(g84
g70
NtRp2358
(dp2359
g73
(dp2360
sg82
g2354
sg75
(lp2361
g68
(g89
g70
NtRp2362
(dp2363
g73
(dp2364
g93
g94
ssg82
g2358
sg75
(lp2365
g1240
asbag68
(g89
g70
NtRp2366
(dp2367
g73
(dp2368
g100
g101
ssg82
g2358
sg75
(lp2369
S':'
asbag68
(g89
g70
NtRp2370
(dp2371
g73
(dp2372
sg82
g2358
sg75
(lp2373
g68
(g69
g70
NtRp2374
(dp2375
g73
(dp2376
g81
I4
ssg82
g2370
sg75
(lp2377
S"set(['/home/kaique/Projects/web2py/applications/synopsis/', '/home/kaique/Projects/web2py/applications/admin/'])"
p2378
asbasbasbag68
(g84
g70
NtRp2379
(dp2380
g73
(dp2381
sg82
g2354
sg75
(lp2382
g68
(g89
g70
NtRp2383
(dp2384
g73
(dp2385
g93
g94
ssg82
g2379
sg75
(lp2386
g1262
asbag68
(g89
g70
NtRp2387
(dp2388
g73
(dp2389
g100
g101
ssg82
g2379
sg75
(lp2390
S':'
asbag68
(g89
g70
NtRp2391
(dp2392
g73
(dp2393
sg82
g2379
sg75
(lp2394
g68
(g69
g70
NtRp2395
(dp2396
g73
(dp2397
g81
I4
ssg82
g2391
sg75
(lp2398
g1275
asbasbasbag68
(g84
g70
NtRp2399
(dp2400
g73
(dp2401
sg82
g2354
sg75
(lp2402
g68
(g89
g70
NtRp2403
(dp2404
g73
(dp2405
g93
g94
ssg82
g2399
sg75
(lp2406
g1284
asbag68
(g89
g70
NtRp2407
(dp2408
g73
(dp2409
g100
g101
ssg82
g2399
sg75
(lp2410
S':'
asbag68
(g89
g70
NtRp2411
(dp2412
g73
(dp2413
sg82
g2399
sg75
(lp2414
g68
(g69
g70
NtRp2415
(dp2416
g73
(dp2417
g81
I4
ssg82
g2411
sg75
(lp2418
g68
(g77
g70
NtRp2419
(dp2420
g73
(dp2421
g81
I3
ssg82
Nsg75
(lp2422
sbasbasbasbag68
(g84
g70
NtRp2423
(dp2424
g73
(dp2425
sg82
g2354
sg75
(lp2426
g68
(g89
g70
NtRp2427
(dp2428
g73
(dp2429
g93
g94
ssg82
g2423
sg75
(lp2430
g1309
asbag68
(g89
g70
NtRp2431
(dp2432
g73
(dp2433
g100
g101
ssg82
g2423
sg75
(lp2434
S':'
asbag68
(g89
g70
NtRp2435
(dp2436
g73
(dp2437
sg82
g2423
sg75
(lp2438
g68
(g69
g70
NtRp2439
(dp2440
g73
(dp2441
g81
I4
ssg82
g2435
sg75
(lp2442
S"<Values at 0x256e950: {'verbose': False, 'ip': '127.0.0.1', 'shutdown_timeout': 5, 'taskbar': False, 'nocron': False, 'pid_filename': 'httpserver.pid', 'maxthreads': None, 'softcron': False, 'server_name': 'kaique-Pine-Trail-M', 'bpython': False, 'nogui': False, 'port': 8000, 'extcron': False, 'debuglevel': 30, 'test': None, 'folder': '/home/kaique/Projects/web2py', 'config': '', 'import_models': False, 'winservice': '', 'shell': None, 'run': '', 'log_filename': 'httpserver.log', 'args': [''], 'ssl_ca_certificate': None, 'scheduler': None, 'profiler_filename': None, 'ssl_private_key': '', 'password': 'dev', 'request_queue_size': 5, 'ssl_certificate': '', 'cronjob': False, 'plain': False, 'quiet': False, 'interfaces': None, 'minthreads': None, 'timeout': 10, 'numthreads': None, 'nobanner': False}>"
p2443
asbasbasbag68
(g84
g70
NtRp2444
(dp2445
g73
(dp2446
sg82
g2354
sg75
(lp2447
g68
(g89
g70
NtRp2448
(dp2449
g73
(dp2450
g93
g94
ssg82
g2444
sg75
(lp2451
g1375
asbag68
(g89
g70
NtRp2452
(dp2453
g73
(dp2454
g100
g101
ssg82
g2444
sg75
(lp2455
S':'
asbag68
(g89
g70
NtRp2456
(dp2457
g73
(dp2458
sg82
g2444
sg75
(lp2459
g68
(g69
g70
NtRp2460
(dp2461
g73
(dp2462
g81
I4
ssg82
g2456
sg75
(lp2463
S'set([])'
p2464
asbasbasbag68
(g84
g70
NtRp2465
(dp2466
g73
(dp2467
sg82
g2354
sg75
(lp2468
g68
(g89
g70
NtRp2469
(dp2470
g73
(dp2471
g93
g94
ssg82
g2465
sg75
(lp2472
g1397
asbag68
(g89
g70
NtRp2473
(dp2474
g73
(dp2475
g100
g101
ssg82
g2465
sg75
(lp2476
S':'
asbag68
(g89
g70
NtRp2477
(dp2478
g73
(dp2479
sg82
g2465
sg75
(lp2480
g68
(g69
g70
NtRp2481
(dp2482
g73
(dp2483
g81
I4
ssg82
g2477
sg75
(lp2484
g111
asbasbasbag68
(g84
g70
NtRp2485
(dp2486
g73
(dp2487
sg82
g2354
sg75
(lp2488
g68
(g89
g70
NtRp2489
(dp2490
g73
(dp2491
g93
g94
ssg82
g2485
sg75
(lp2492
g1418
asbag68
(g89
g70
NtRp2493
(dp2494
g73
(dp2495
g100
g101
ssg82
g2485
sg75
(lp2496
S':'
asbag68
(g89
g70
NtRp2497
(dp2498
g73
(dp2499
sg82
g2485
sg75
(lp2500
g68
(g69
g70
NtRp2501
(dp2502
g73
(dp2503
g81
I4
ssg82
g2497
sg75
(lp2504
g1431
asbasbasbag68
(g84
g70
NtRp2505
(dp2506
g73
(dp2507
sg82
g2354
sg75
(lp2508
g68
(g89
g70
NtRp2509
(dp2510
g73
(dp2511
g93
g94
ssg82
g2505
sg75
(lp2512
g1680
asbag68
(g89
g70
NtRp2513
(dp2514
g73
(dp2515
g100
g101
ssg82
g2505
sg75
(lp2516
S':'
asbag68
(g89
g70
NtRp2517
(dp2518
g73
(dp2519
sg82
g2505
sg75
(lp2520
g68
(g69
g70
NtRp2521
(dp2522
g73
(dp2523
g81
I4
ssg82
g2517
sg75
(lp2524
g111
asbasbasbag68
(g84
g70
NtRp2525
(dp2526
g73
(dp2527
sg82
g2354
sg75
(lp2528
g68
(g89
g70
NtRp2529
(dp2530
g73
(dp2531
g93
g94
ssg82
g2525
sg75
(lp2532
g1918
asbag68
(g89
g70
NtRp2533
(dp2534
g73
(dp2535
g100
g101
ssg82
g2525
sg75
(lp2536
S':'
asbag68
(g89
g70
NtRp2537
(dp2538
g73
(dp2539
sg82
g2525
sg75
(lp2540
g68
(g69
g70
NtRp2541
(dp2542
g73
(dp2543
g81
I4
ssg82
g2537
sg75
(lp2544
g1931
asbasbasbag68
(g84
g70
NtRp2545
(dp2546
g73
(dp2547
sg82
g2354
sg75
(lp2548
g68
(g89
g70
NtRp2549
(dp2550
g73
(dp2551
g93
g94
ssg82
g2545
sg75
(lp2552
g1961
asbag68
(g89
g70
NtRp2553
(dp2554
g73
(dp2555
g100
g101
ssg82
g2545
sg75
(lp2556
S':'
asbag68
(g89
g70
NtRp2557
(dp2558
g73
(dp2559
sg82
g2545
sg75
(lp2560
g68
(g69
g70
NtRp2561
(dp2562
g73
(dp2563
g81
I4
ssg82
g2557
sg75
(lp2564
g68
(g77
g70
NtRp2565
(dp2566
g73
(dp2567
g81
I3
ssg82
Nsg75
(lp2568
g68
(g84
g70
NtRp2569
(dp2570
g73
(dp2571
sg82
g2565
sg75
(lp2572
g68
(g89
g70
NtRp2573
(dp2574
g73
(dp2575
sg82
g2569
sg75
(lp2576
g68
(g69
g70
NtRp2577
(dp2578
g73
(dp2579
g81
I3
ssg82
g2573
sg75
(lp2580
S'1'
asbasbasbag68
(g84
g70
NtRp2581
(dp2582
g73
(dp2583
sg82
g2565
sg75
(lp2584
g68
(g89
g70
NtRp2585
(dp2586
g73
(dp2587
sg82
g2581
sg75
(lp2588
g68
(g69
g70
NtRp2589
(dp2590
g73
(dp2591
g81
I3
ssg82
g2585
sg75
(lp2592
S'99'
p2593
asbasbasbag68
(g84
g70
NtRp2594
(dp2595
g73
(dp2596
sg82
g2565
sg75
(lp2597
g68
(g89
g70
NtRp2598
(dp2599
g73
(dp2600
sg82
g2594
sg75
(lp2601
g68
(g69
g70
NtRp2602
(dp2603
g73
(dp2604
g81
I3
ssg82
g2598
sg75
(lp2605
S'2'
asbasbasbag68
(g84
g70
NtRp2606
(dp2607
g73
(dp2608
sg82
g2565
sg75
(lp2609
g68
(g89
g70
NtRp2610
(dp2611
g73
(dp2612
sg82
g2606
sg75
(lp2613
g68
(g69
g70
NtRp2614
(dp2615
g73
(dp2616
g81
I3
ssg82
g2610
sg75
(lp2617
S'datetime.datetime(2011, 9, 26, 6, 55, 33)'
p2618
asbasbasbag68
(g84
g70
NtRp2619
(dp2620
g73
(dp2621
sg82
g2565
sg75
(lp2622
g68
(g89
g70
NtRp2623
(dp2624
g73
(dp2625
sg82
g2619
sg75
(lp2626
g68
(g69
g70
NtRp2627
(dp2628
g73
(dp2629
g81
I3
ssg82
g2623
sg75
(lp2630
g2040
asbasbasbasbasbasbasbasbasbasbasbag68
(g84
g70
NtRp2631
(dp2632
g73
(dp2633
sg82
g78
sg75
(lp2634
g68
(g89
g70
NtRp2635
(dp2636
g73
(dp2637
g93
g94
ssg82
g2631
sg75
(lp2638
S'is_https'
p2639
asbag68
(g89
g70
NtRp2640
(dp2641
g73
(dp2642
g100
g101
ssg82
g2631
sg75
(lp2643
S':'
asbag68
(g89
g70
NtRp2644
(dp2645
g73
(dp2646
sg82
g2631
sg75
(lp2647
g68
(g69
g70
NtRp2648
(dp2649
g73
(dp2650
g81
I5
ssg82
g2644
sg75
(lp2651
g111
asbasbasbag68
(g84
g70
NtRp2652
(dp2653
g73
(dp2654
sg82
g78
sg75
(lp2655
g68
(g89
g70
NtRp2656
(dp2657
g73
(dp2658
g93
g94
ssg82
g2652
sg75
(lp2659
S'is_local'
p2660
asbag68
(g89
g70
NtRp2661
(dp2662
g73
(dp2663
g100
g101
ssg82
g2652
sg75
(lp2664
S':'
asbag68
(g89
g70
NtRp2665
(dp2666
g73
(dp2667
sg82
g2652
sg75
(lp2668
g68
(g69
g70
NtRp2669
(dp2670
g73
(dp2671
g81
I5
ssg82
g2665
sg75
(lp2672
g2149
asbasbasbag68
(g84
g70
NtRp2673
(dp2674
g73
(dp2675
sg82
g78
sg75
(lp2676
g68
(g89
g70
NtRp2677
(dp2678
g73
(dp2679
g93
g94
ssg82
g2673
sg75
(lp2680
S'is_restful'
p2681
asbag68
(g89
g70
NtRp2682
(dp2683
g73
(dp2684
g100
g101
ssg82
g2673
sg75
(lp2685
S':'
asbag68
(g89
g70
NtRp2686
(dp2687
g73
(dp2688
sg82
g2673
sg75
(lp2689
g68
(g69
g70
NtRp2690
(dp2691
g73
(dp2692
g81
I5
ssg82
g2686
sg75
(lp2693
g111
asbasbasbag68
(g84
g70
NtRp2694
(dp2695
g73
(dp2696
sg82
g78
sg75
(lp2697
g68
(g89
g70
NtRp2698
(dp2699
g73
(dp2700
g93
g94
ssg82
g2694
sg75
(lp2701
S'now'
p2702
asbag68
(g89
g70
NtRp2703
(dp2704
g73
(dp2705
g100
g101
ssg82
g2694
sg75
(lp2706
S':'
asbag68
(g89
g70
NtRp2707
(dp2708
g73
(dp2709
sg82
g2694
sg75
(lp2710
g68
(g69
g70
NtRp2711
(dp2712
g73
(dp2713
g81
I5
ssg82
g2707
sg75
(lp2714
S'datetime.datetime(2012, 1, 14, 1, 18, 5, 45630)'
p2715
asbasbasbag68
(g84
g70
NtRp2716
(dp2717
g73
(dp2718
sg82
g78
sg75
(lp2719
g68
(g89
g70
NtRp2720
(dp2721
g73
(dp2722
g93
g94
ssg82
g2716
sg75
(lp2723
S'post_vars'
p2724
asbag68
(g89
g70
NtRp2725
(dp2726
g73
(dp2727
g100
g101
ssg82
g2716
sg75
(lp2728
S':'
asbag68
(g89
g70
NtRp2729
(dp2730
g73
(dp2731
sg82
g2716
sg75
(lp2732
g68
(g69
g70
NtRp2733
(dp2734
g73
(dp2735
g81
I5
ssg82
g2729
sg75
(lp2736
g68
(g77
g70
NtRp2737
(dp2738
g73
(dp2739
g81
I4
ssg82
Nsg75
(lp2740
g68
(g84
g70
NtRp2741
(dp2742
g73
(dp2743
sg82
g2737
sg75
(lp2744
g68
(g89
g70
NtRp2745
(dp2746
g73
(dp2747
g93
g94
ssg82
g2741
sg75
(lp2748
S'content'
p2749
asbag68
(g89
g70
NtRp2750
(dp2751
g73
(dp2752
g100
g101
ssg82
g2741
sg75
(lp2753
S':'
asbag68
(g89
g70
NtRp2754
(dp2755
g73
(dp2756
sg82
g2741
sg75
(lp2757
g68
(g69
g70
NtRp2758
(dp2759
g73
(dp2760
g81
I4
ssg82
g2754
sg75
(lp2761
S'test'
p2762
asbasbasbasbasbasbasbag68
(g84
g70
NtRp2763
(dp2764
g73
(dp2765
sg82
g78
sg75
(lp2766
g68
(g89
g70
NtRp2767
(dp2768
g73
(dp2769
g93
g94
ssg82
g2763
sg75
(lp2770
S'raw_args'
p2771
asbag68
(g89
g70
NtRp2772
(dp2773
g73
(dp2774
g100
g101
ssg82
g2763
sg75
(lp2775
S':'
asbag68
(g89
g70
NtRp2776
(dp2777
g73
(dp2778
sg82
g2763
sg75
(lp2779
g68
(g69
g70
NtRp2780
(dp2781
g73
(dp2782
g81
I5
ssg82
g2776
sg75
(lp2783
S'quote/1'
p2784
asbasbasbag68
(g84
g70
NtRp2785
(dp2786
g73
(dp2787
sg82
g78
sg75
(lp2788
g68
(g89
g70
NtRp2789
(dp2790
g73
(dp2791
g93
g94
ssg82
g2785
sg75
(lp2792
S'url'
p2793
asbag68
(g89
g70
NtRp2794
(dp2795
g73
(dp2796
g100
g101
ssg82
g2785
sg75
(lp2797
S':'
asbag68
(g89
g70
NtRp2798
(dp2799
g73
(dp2800
sg82
g2785
sg75
(lp2801
g68
(g69
g70
NtRp2802
(dp2803
g73
(dp2804
g81
I5
ssg82
g2798
sg75
(lp2805
S'/synopsis/information/new/quote/1'
p2806
asbasbasbag68
(g84
g70
NtRp2807
(dp2808
g73
(dp2809
sg82
g78
sg75
(lp2810
g68
(g89
g70
NtRp2811
(dp2812
g73
(dp2813
g93
g94
ssg82
g2807
sg75
(lp2814
S'utcnow'
p2815
asbag68
(g89
g70
NtRp2816
(dp2817
g73
(dp2818
g100
g101
ssg82
g2807
sg75
(lp2819
S':'
asbag68
(g89
g70
NtRp2820
(dp2821
g73
(dp2822
sg82
g2807
sg75
(lp2823
g68
(g69
g70
NtRp2824
(dp2825
g73
(dp2826
g81
I5
ssg82
g2820
sg75
(lp2827
S'datetime.datetime(2012, 1, 14, 3, 18, 5, 45707)'
p2828
asbasbasbag68
(g84
g70
NtRp2829
(dp2830
g73
(dp2831
sg82
g78
sg75
(lp2832
g68
(g89
g70
NtRp2833
(dp2834
g73
(dp2835
g93
g94
ssg82
g2829
sg75
(lp2836
S'uuid'
p2837
asbag68
(g89
g70
NtRp2838
(dp2839
g73
(dp2840
g100
g101
ssg82
g2829
sg75
(lp2841
S':'
asbag68
(g89
g70
NtRp2842
(dp2843
g73
(dp2844
sg82
g2829
sg75
(lp2845
g68
(g69
g70
NtRp2846
(dp2847
g73
(dp2848
g81
I5
ssg82
g2842
sg75
(lp2849
S'synopsis/127.0.0.1.2012-01-14.01-18-05.f2dff462-1198-4479-9bfc-69dfa76153eb'
p2850
asbasbasbag68
(g84
g70
NtRp2851
(dp2852
g73
(dp2853
sg82
g78
sg75
(lp2854
g68
(g89
g70
NtRp2855
(dp2856
g73
(dp2857
g93
g94
ssg82
g2851
sg75
(lp2858
S'vars'
p2859
asbag68
(g89
g70
NtRp2860
(dp2861
g73
(dp2862
g100
g101
ssg82
g2851
sg75
(lp2863
S':'
asbag68
(g89
g70
NtRp2864
(dp2865
g73
(dp2866
sg82
g2851
sg75
(lp2867
g68
(g69
g70
NtRp2868
(dp2869
g73
(dp2870
g81
I5
ssg82
g2864
sg75
(lp2871
g68
(g77
g70
NtRp2872
(dp2873
g73
(dp2874
g81
I4
ssg82
Nsg75
(lp2875
g68
(g84
g70
NtRp2876
(dp2877
g73
(dp2878
sg82
g2872
sg75
(lp2879
g68
(g89
g70
NtRp2880
(dp2881
g73
(dp2882
g93
g94
ssg82
g2876
sg75
(lp2883
g2749
asbag68
(g89
g70
NtRp2884
(dp2885
g73
(dp2886
g100
g101
ssg82
g2876
sg75
(lp2887
S':'
asbag68
(g89
g70
NtRp2888
(dp2889
g73
(dp2890
sg82
g2876
sg75
(lp2891
g68
(g69
g70
NtRp2892
(dp2893
g73
(dp2894
g81
I4
ssg82
g2888
sg75
(lp2895
g2762
asbasbasbasbasbasbasbag68
(g84
g70
NtRp2896
(dp2897
g73
(dp2898
sg82
g78
sg75
(lp2899
g68
(g89
g70
NtRp2900
(dp2901
g73
(dp2902
g93
g94
ssg82
g2896
sg75
(lp2903
S'wsgi'
p2904
asbag68
(g89
g70
NtRp2905
(dp2906
g73
(dp2907
g100
g101
ssg82
g2896
sg75
(lp2908
S':'
asbag68
(g89
g70
NtRp2909
(dp2910
g73
(dp2911
sg82
g2896
sg75
(lp2912
g68
(g69
g70
NtRp2913
(dp2914
g73
(dp2915
g81
I5
ssg82
g2909
sg75
(lp2916
g68
(g77
g70
NtRp2917
(dp2918
g73
(dp2919
g81
I4
ssg82
Nsg75
(lp2920
g68
(g84
g70
NtRp2921
(dp2922
g73
(dp2923
sg82
g2917
sg75
(lp2924
g68
(g89
g70
NtRp2925
(dp2926
g73
(dp2927
g93
g94
ssg82
g2921
sg75
(lp2928
S'environ'
p2929
asbag68
(g89
g70
NtRp2930
(dp2931
g73
(dp2932
g100
g101
ssg82
g2921
sg75
(lp2933
S':'
asbag68
(g89
g70
NtRp2934
(dp2935
g73
(dp2936
sg82
g2921
sg75
(lp2937
g68
(g69
g70
NtRp2938
(dp2939
g73
(dp2940
g81
I4
ssg82
g2934
sg75
(lp2941
g68
(g77
g70
NtRp2942
(dp2943
g73
(dp2944
g81
I3
ssg82
Nsg75
(lp2945
g68
(g84
g70
NtRp2946
(dp2947
g73
(dp2948
sg82
g2942
sg75
(lp2949
g68
(g89
g70
NtRp2950
(dp2951
g73
(dp2952
g93
g94
ssg82
g2946
sg75
(lp2953
S'CONTENT_LENGTH'
p2954
asbag68
(g89
g70
NtRp2955
(dp2956
g73
(dp2957
g100
g101
ssg82
g2946
sg75
(lp2958
S':'
asbag68
(g89
g70
NtRp2959
(dp2960
g73
(dp2961
sg82
g2946
sg75
(lp2962
g68
(g69
g70
NtRp2963
(dp2964
g73
(dp2965
g81
I3
ssg82
g2959
sg75
(lp2966
g1344
asbasbasbag68
(g84
g70
NtRp2967
(dp2968
g73
(dp2969
sg82
g2942
sg75
(lp2970
g68
(g89
g70
NtRp2971
(dp2972
g73
(dp2973
g93
g94
ssg82
g2967
sg75
(lp2974
S'CONTENT_TYPE'
p2975
asbag68
(g89
g70
NtRp2976
(dp2977
g73
(dp2978
g100
g101
ssg82
g2967
sg75
(lp2979
S':'
asbag68
(g89
g70
NtRp2980
(dp2981
g73
(dp2982
sg82
g2967
sg75
(lp2983
g68
(g69
g70
NtRp2984
(dp2985
g73
(dp2986
g81
I3
ssg82
g2980
sg75
(lp2987
g1366
asbasbasbag68
(g84
g70
NtRp2988
(dp2989
g73
(dp2990
sg82
g2942
sg75
(lp2991
g68
(g89
g70
NtRp2992
(dp2993
g73
(dp2994
g93
g94
ssg82
g2988
sg75
(lp2995
S'HTTP_ACCEPT'
p2996
asbag68
(g89
g70
NtRp2997
(dp2998
g73
(dp2999
g100
g101
ssg82
g2988
sg75
(lp3000
S':'
asbag68
(g89
g70
NtRp3001
(dp3002
g73
(dp3003
sg82
g2988
sg75
(lp3004
g68
(g69
g70
NtRp3005
(dp3006
g73
(dp3007
g81
I3
ssg82
g3001
sg75
(lp3008
g1453
asbasbasbag68
(g84
g70
NtRp3009
(dp3010
g73
(dp3011
sg82
g2942
sg75
(lp3012
g68
(g89
g70
NtRp3013
(dp3014
g73
(dp3015
g93
g94
ssg82
g3009
sg75
(lp3016
S'HTTP_ACCEPT_CHARSET'
p3017
asbag68
(g89
g70
NtRp3018
(dp3019
g73
(dp3020
g100
g101
ssg82
g3009
sg75
(lp3021
S':'
asbag68
(g89
g70
NtRp3022
(dp3023
g73
(dp3024
sg82
g3009
sg75
(lp3025
g68
(g69
g70
NtRp3026
(dp3027
g73
(dp3028
g81
I3
ssg82
g3022
sg75
(lp3029
g1475
asbasbasbag68
(g84
g70
NtRp3030
(dp3031
g73
(dp3032
sg82
g2942
sg75
(lp3033
g68
(g89
g70
NtRp3034
(dp3035
g73
(dp3036
g93
g94
ssg82
g3030
sg75
(lp3037
S'HTTP_ACCEPT_ENCODING'
p3038
asbag68
(g89
g70
NtRp3039
(dp3040
g73
(dp3041
g100
g101
ssg82
g3030
sg75
(lp3042
S':'
asbag68
(g89
g70
NtRp3043
(dp3044
g73
(dp3045
sg82
g3030
sg75
(lp3046
g68
(g69
g70
NtRp3047
(dp3048
g73
(dp3049
g81
I3
ssg82
g3043
sg75
(lp3050
g1497
asbasbasbag68
(g84
g70
NtRp3051
(dp3052
g73
(dp3053
sg82
g2942
sg75
(lp3054
g68
(g89
g70
NtRp3055
(dp3056
g73
(dp3057
g93
g94
ssg82
g3051
sg75
(lp3058
S'HTTP_ACCEPT_LANGUAGE'
p3059
asbag68
(g89
g70
NtRp3060
(dp3061
g73
(dp3062
g100
g101
ssg82
g3051
sg75
(lp3063
S':'
asbag68
(g89
g70
NtRp3064
(dp3065
g73
(dp3066
sg82
g3051
sg75
(lp3067
g68
(g69
g70
NtRp3068
(dp3069
g73
(dp3070
g81
I3
ssg82
g3064
sg75
(lp3071
g1519
asbasbasbag68
(g84
g70
NtRp3072
(dp3073
g73
(dp3074
sg82
g2942
sg75
(lp3075
g68
(g89
g70
NtRp3076
(dp3077
g73
(dp3078
g93
g94
ssg82
g3072
sg75
(lp3079
S'HTTP_CONNECTION'
p3080
asbag68
(g89
g70
NtRp3081
(dp3082
g73
(dp3083
g100
g101
ssg82
g3072
sg75
(lp3084
S':'
asbag68
(g89
g70
NtRp3085
(dp3086
g73
(dp3087
sg82
g3072
sg75
(lp3088
g68
(g69
g70
NtRp3089
(dp3090
g73
(dp3091
g81
I3
ssg82
g3085
sg75
(lp3092
g1541
asbasbasbag68
(g84
g70
NtRp3093
(dp3094
g73
(dp3095
sg82
g2942
sg75
(lp3096
g68
(g89
g70
NtRp3097
(dp3098
g73
(dp3099
g93
g94
ssg82
g3093
sg75
(lp3100
S'HTTP_CONTENT_LENGTH'
p3101
asbag68
(g89
g70
NtRp3102
(dp3103
g73
(dp3104
g100
g101
ssg82
g3093
sg75
(lp3105
S':'
asbag68
(g89
g70
NtRp3106
(dp3107
g73
(dp3108
sg82
g3093
sg75
(lp3109
g68
(g69
g70
NtRp3110
(dp3111
g73
(dp3112
g81
I3
ssg82
g3106
sg75
(lp3113
g1344
asbasbasbag68
(g84
g70
NtRp3114
(dp3115
g73
(dp3116
sg82
g2942
sg75
(lp3117
g68
(g89
g70
NtRp3118
(dp3119
g73
(dp3120
g93
g94
ssg82
g3114
sg75
(lp3121
S'HTTP_CONTENT_TYPE'
p3122
asbag68
(g89
g70
NtRp3123
(dp3124
g73
(dp3125
g100
g101
ssg82
g3114
sg75
(lp3126
S':'
asbag68
(g89
g70
NtRp3127
(dp3128
g73
(dp3129
sg82
g3114
sg75
(lp3130
g68
(g69
g70
NtRp3131
(dp3132
g73
(dp3133
g81
I3
ssg82
g3127
sg75
(lp3134
g1366
asbasbasbag68
(g84
g70
NtRp3135
(dp3136
g73
(dp3137
sg82
g2942
sg75
(lp3138
g68
(g89
g70
NtRp3139
(dp3140
g73
(dp3141
g93
g94
ssg82
g3135
sg75
(lp3142
S'HTTP_COOKIE'
p3143
asbag68
(g89
g70
NtRp3144
(dp3145
g73
(dp3146
g100
g101
ssg82
g3135
sg75
(lp3147
S':'
asbag68
(g89
g70
NtRp3148
(dp3149
g73
(dp3150
sg82
g3135
sg75
(lp3151
g68
(g69
g70
NtRp3152
(dp3153
g73
(dp3154
g81
I3
ssg82
g3148
sg75
(lp3155
g1605
asbasbasbag68
(g84
g70
NtRp3156
(dp3157
g73
(dp3158
sg82
g2942
sg75
(lp3159
g68
(g89
g70
NtRp3160
(dp3161
g73
(dp3162
g93
g94
ssg82
g3156
sg75
(lp3163
S'HTTP_HOST'
p3164
asbag68
(g89
g70
NtRp3165
(dp3166
g73
(dp3167
g100
g101
ssg82
g3156
sg75
(lp3168
S':'
asbag68
(g89
g70
NtRp3169
(dp3170
g73
(dp3171
sg82
g3156
sg75
(lp3172
g68
(g69
g70
NtRp3173
(dp3174
g73
(dp3175
g81
I3
ssg82
g3169
sg75
(lp3176
g1627
asbasbasbag68
(g84
g70
NtRp3177
(dp3178
g73
(dp3179
sg82
g2942
sg75
(lp3180
g68
(g89
g70
NtRp3181
(dp3182
g73
(dp3183
g93
g94
ssg82
g3177
sg75
(lp3184
S'HTTP_REFERER'
p3185
asbag68
(g89
g70
NtRp3186
(dp3187
g73
(dp3188
g100
g101
ssg82
g3177
sg75
(lp3189
S':'
asbag68
(g89
g70
NtRp3190
(dp3191
g73
(dp3192
sg82
g3177
sg75
(lp3193
g68
(g69
g70
NtRp3194
(dp3195
g73
(dp3196
g81
I3
ssg82
g3190
sg75
(lp3197
g1649
asbasbasbag68
(g84
g70
NtRp3198
(dp3199
g73
(dp3200
sg82
g2942
sg75
(lp3201
g68
(g89
g70
NtRp3202
(dp3203
g73
(dp3204
g93
g94
ssg82
g3198
sg75
(lp3205
S'HTTP_USER_AGENT'
p3206
asbag68
(g89
g70
NtRp3207
(dp3208
g73
(dp3209
g100
g101
ssg82
g3198
sg75
(lp3210
S':'
asbag68
(g89
g70
NtRp3211
(dp3212
g73
(dp3213
sg82
g3198
sg75
(lp3214
g68
(g69
g70
NtRp3215
(dp3216
g73
(dp3217
g81
I3
ssg82
g3211
sg75
(lp3218
g1671
asbasbasbag68
(g84
g70
NtRp3219
(dp3220
g73
(dp3221
sg82
g2942
sg75
(lp3222
g68
(g89
g70
NtRp3223
(dp3224
g73
(dp3225
g93
g94
ssg82
g3219
sg75
(lp3226
S'PATH_INFO'
p3227
asbag68
(g89
g70
NtRp3228
(dp3229
g73
(dp3230
g100
g101
ssg82
g3219
sg75
(lp3231
S':'
asbag68
(g89
g70
NtRp3232
(dp3233
g73
(dp3234
sg82
g3219
sg75
(lp3235
g68
(g69
g70
NtRp3236
(dp3237
g73
(dp3238
g81
I3
ssg82
g3232
sg75
(lp3239
g1714
asbasbasbag68
(g84
g70
NtRp3240
(dp3241
g73
(dp3242
sg82
g2942
sg75
(lp3243
g68
(g89
g70
NtRp3244
(dp3245
g73
(dp3246
g93
g94
ssg82
g3240
sg75
(lp3247
S'QUERY_STRING'
p3248
asbag68
(g89
g70
NtRp3249
(dp3250
g73
(dp3251
g100
g101
ssg82
g3240
sg75
(lp3252
S':'
asbag68
(g89
g70
NtRp3253
(dp3254
g73
(dp3255
sg82
g3240
sg75
(lp3256
g68
(g69
g70
NtRp3257
(dp3258
g73
(dp3259
g81
I3
ssg82
g3253
sg75
(lp3260
S''
asbasbasbag68
(g84
g70
NtRp3261
(dp3262
g73
(dp3263
sg82
g2942
sg75
(lp3264
g68
(g89
g70
NtRp3265
(dp3266
g73
(dp3267
g93
g94
ssg82
g3261
sg75
(lp3268
S'REMOTE_ADDR'
p3269
asbag68
(g89
g70
NtRp3270
(dp3271
g73
(dp3272
g100
g101
ssg82
g3261
sg75
(lp3273
S':'
asbag68
(g89
g70
NtRp3274
(dp3275
g73
(dp3276
sg82
g3261
sg75
(lp3277
g68
(g69
g70
NtRp3278
(dp3279
g73
(dp3280
g81
I3
ssg82
g3274
sg75
(lp3281
g226
asbasbasbag68
(g84
g70
NtRp3282
(dp3283
g73
(dp3284
sg82
g2942
sg75
(lp3285
g68
(g89
g70
NtRp3286
(dp3287
g73
(dp3288
g93
g94
ssg82
g3282
sg75
(lp3289
S'REMOTE_PORT'
p3290
asbag68
(g89
g70
NtRp3291
(dp3292
g73
(dp3293
g100
g101
ssg82
g3282
sg75
(lp3294
S':'
asbag68
(g89
g70
NtRp3295
(dp3296
g73
(dp3297
sg82
g3282
sg75
(lp3298
g68
(g69
g70
NtRp3299
(dp3300
g73
(dp3301
g81
I3
ssg82
g3295
sg75
(lp3302
g1778
asbasbasbag68
(g84
g70
NtRp3303
(dp3304
g73
(dp3305
sg82
g2942
sg75
(lp3306
g68
(g89
g70
NtRp3307
(dp3308
g73
(dp3309
g93
g94
ssg82
g3303
sg75
(lp3310
S'REQUEST_METHOD'
p3311
asbag68
(g89
g70
NtRp3312
(dp3313
g73
(dp3314
g100
g101
ssg82
g3303
sg75
(lp3315
S':'
asbag68
(g89
g70
NtRp3316
(dp3317
g73
(dp3318
sg82
g3303
sg75
(lp3319
g68
(g69
g70
NtRp3320
(dp3321
g73
(dp3322
g81
I3
ssg82
g3316
sg75
(lp3323
g1800
asbasbasbag68
(g84
g70
NtRp3324
(dp3325
g73
(dp3326
sg82
g2942
sg75
(lp3327
g68
(g89
g70
NtRp3328
(dp3329
g73
(dp3330
g93
g94
ssg82
g3324
sg75
(lp3331
S'SCRIPT_NAME'
p3332
asbag68
(g89
g70
NtRp3333
(dp3334
g73
(dp3335
g100
g101
ssg82
g3324
sg75
(lp3336
S':'
asbag68
(g89
g70
NtRp3337
(dp3338
g73
(dp3339
sg82
g3324
sg75
(lp3340
g68
(g69
g70
NtRp3341
(dp3342
g73
(dp3343
g81
I3
ssg82
g3337
sg75
(lp3344
S''
asbasbasbag68
(g84
g70
NtRp3345
(dp3346
g73
(dp3347
sg82
g2942
sg75
(lp3348
g68
(g89
g70
NtRp3349
(dp3350
g73
(dp3351
g93
g94
ssg82
g3345
sg75
(lp3352
S'SERVER_NAME'
p3353
asbag68
(g89
g70
NtRp3354
(dp3355
g73
(dp3356
g100
g101
ssg82
g3345
sg75
(lp3357
S':'
asbag68
(g89
g70
NtRp3358
(dp3359
g73
(dp3360
sg82
g3345
sg75
(lp3361
g68
(g69
g70
NtRp3362
(dp3363
g73
(dp3364
g81
I3
ssg82
g3358
sg75
(lp3365
g1843
asbasbasbag68
(g84
g70
NtRp3366
(dp3367
g73
(dp3368
sg82
g2942
sg75
(lp3369
g68
(g89
g70
NtRp3370
(dp3371
g73
(dp3372
g93
g94
ssg82
g3366
sg75
(lp3373
S'SERVER_PORT'
p3374
asbag68
(g89
g70
NtRp3375
(dp3376
g73
(dp3377
g100
g101
ssg82
g3366
sg75
(lp3378
S':'
asbag68
(g89
g70
NtRp3379
(dp3380
g73
(dp3381
sg82
g3366
sg75
(lp3382
g68
(g69
g70
NtRp3383
(dp3384
g73
(dp3385
g81
I3
ssg82
g3379
sg75
(lp3386
g1865
asbasbasbag68
(g84
g70
NtRp3387
(dp3388
g73
(dp3389
sg82
g2942
sg75
(lp3390
g68
(g89
g70
NtRp3391
(dp3392
g73
(dp3393
g93
g94
ssg82
g3387
sg75
(lp3394
S'SERVER_PROTOCOL'
p3395
asbag68
(g89
g70
NtRp3396
(dp3397
g73
(dp3398
g100
g101
ssg82
g3387
sg75
(lp3399
S':'
asbag68
(g89
g70
NtRp3400
(dp3401
g73
(dp3402
sg82
g3387
sg75
(lp3403
g68
(g69
g70
NtRp3404
(dp3405
g73
(dp3406
g81
I3
ssg82
g3400
sg75
(lp3407
g1887
asbasbasbag68
(g84
g70
NtRp3408
(dp3409
g73
(dp3410
sg82
g2942
sg75
(lp3411
g68
(g89
g70
NtRp3412
(dp3413
g73
(dp3414
g93
g94
ssg82
g3408
sg75
(lp3415
S'SERVER_SOFTWARE'
p3416
asbag68
(g89
g70
NtRp3417
(dp3418
g73
(dp3419
g100
g101
ssg82
g3408
sg75
(lp3420
S':'
asbag68
(g89
g70
NtRp3421
(dp3422
g73
(dp3423
sg82
g3408
sg75
(lp3424
g68
(g69
g70
NtRp3425
(dp3426
g73
(dp3427
g81
I3
ssg82
g3421
sg75
(lp3428
g1909
asbasbasbag68
(g84
g70
NtRp3429
(dp3430
g73
(dp3431
sg82
g2942
sg75
(lp3432
g68
(g89
g70
NtRp3433
(dp3434
g73
(dp3435
g93
g94
ssg82
g3429
sg75
(lp3436
S'wsgi.errors'
p3437
asbag68
(g89
g70
NtRp3438
(dp3439
g73
(dp3440
g100
g101
ssg82
g3429
sg75
(lp3441
S':'
asbag68
(g89
g70
NtRp3442
(dp3443
g73
(dp3444
sg82
g3429
sg75
(lp3445
g68
(g69
g70
NtRp3446
(dp3447
g73
(dp3448
g81
I3
ssg82
g3442
sg75
(lp3449
S"<open file '<stderr>', mode 'w' at 0x7f6e78474270>"
p3450
asbasbasbag68
(g84
g70
NtRp3451
(dp3452
g73
(dp3453
sg82
g2942
sg75
(lp3454
g68
(g89
g70
NtRp3455
(dp3456
g73
(dp3457
g93
g94
ssg82
g3451
sg75
(lp3458
S'wsgi.file_wrapper'
p3459
asbag68
(g89
g70
NtRp3460
(dp3461
g73
(dp3462
g100
g101
ssg82
g3451
sg75
(lp3463
S':'
asbag68
(g89
g70
NtRp3464
(dp3465
g73
(dp3466
sg82
g3451
sg75
(lp3467
g68
(g69
g70
NtRp3468
(dp3469
g73
(dp3470
g81
I3
ssg82
g3464
sg75
(lp3471
S'<class wsgiref.util.FileWrapper at 0x2425ef0>'
p3472
asbasbasbag68
(g84
g70
NtRp3473
(dp3474
g73
(dp3475
sg82
g2942
sg75
(lp3476
g68
(g89
g70
NtRp3477
(dp3478
g73
(dp3479
g93
g94
ssg82
g3473
sg75
(lp3480
S'wsgi.input'
p3481
asbag68
(g89
g70
NtRp3482
(dp3483
g73
(dp3484
g100
g101
ssg82
g3473
sg75
(lp3485
S':'
asbag68
(g89
g70
NtRp3486
(dp3487
g73
(dp3488
sg82
g3473
sg75
(lp3489
g68
(g69
g70
NtRp3490
(dp3491
g73
(dp3492
g81
I3
ssg82
g3486
sg75
(lp3493
S"<open file '<fdopen>', mode 'w+b' at 0x3565660>"
p3494
asbasbasbag68
(g84
g70
NtRp3495
(dp3496
g73
(dp3497
sg82
g2942
sg75
(lp3498
g68
(g89
g70
NtRp3499
(dp3500
g73
(dp3501
g93
g94
ssg82
g3495
sg75
(lp3502
S'wsgi.multiprocess'
p3503
asbag68
(g89
g70
NtRp3504
(dp3505
g73
(dp3506
g100
g101
ssg82
g3495
sg75
(lp3507
S':'
asbag68
(g89
g70
NtRp3508
(dp3509
g73
(dp3510
sg82
g3495
sg75
(lp3511
g68
(g69
g70
NtRp3512
(dp3513
g73
(dp3514
g81
I3
ssg82
g3508
sg75
(lp3515
g111
asbasbasbag68
(g84
g70
NtRp3516
(dp3517
g73
(dp3518
sg82
g2942
sg75
(lp3519
g68
(g89
g70
NtRp3520
(dp3521
g73
(dp3522
g93
g94
ssg82
g3516
sg75
(lp3523
S'wsgi.multithread'
p3524
asbag68
(g89
g70
NtRp3525
(dp3526
g73
(dp3527
g100
g101
ssg82
g3516
sg75
(lp3528
S':'
asbag68
(g89
g70
NtRp3529
(dp3530
g73
(dp3531
sg82
g3516
sg75
(lp3532
g68
(g69
g70
NtRp3533
(dp3534
g73
(dp3535
g81
I3
ssg82
g3529
sg75
(lp3536
g2149
asbasbasbag68
(g84
g70
NtRp3537
(dp3538
g73
(dp3539
sg82
g2942
sg75
(lp3540
g68
(g89
g70
NtRp3541
(dp3542
g73
(dp3543
g93
g94
ssg82
g3537
sg75
(lp3544
S'wsgi.run_once'
p3545
asbag68
(g89
g70
NtRp3546
(dp3547
g73
(dp3548
g100
g101
ssg82
g3537
sg75
(lp3549
S':'
asbag68
(g89
g70
NtRp3550
(dp3551
g73
(dp3552
sg82
g3537
sg75
(lp3553
g68
(g69
g70
NtRp3554
(dp3555
g73
(dp3556
g81
I3
ssg82
g3550
sg75
(lp3557
g111
asbasbasbag68
(g84
g70
NtRp3558
(dp3559
g73
(dp3560
sg82
g2942
sg75
(lp3561
g68
(g89
g70
NtRp3562
(dp3563
g73
(dp3564
g93
g94
ssg82
g3558
sg75
(lp3565
S'wsgi.url_scheme'
p3566
asbag68
(g89
g70
NtRp3567
(dp3568
g73
(dp3569
g100
g101
ssg82
g3558
sg75
(lp3570
S':'
asbag68
(g89
g70
NtRp3571
(dp3572
g73
(dp3573
sg82
g3558
sg75
(lp3574
g68
(g69
g70
NtRp3575
(dp3576
g73
(dp3577
g81
I3
ssg82
g3571
sg75
(lp3578
g2192
asbasbasbag68
(g84
g70
NtRp3579
(dp3580
g73
(dp3581
sg82
g2942
sg75
(lp3582
g68
(g89
g70
NtRp3583
(dp3584
g73
(dp3585
g93
g94
ssg82
g3579
sg75
(lp3586
S'wsgi.version'
p3587
asbag68
(g89
g70
NtRp3588
(dp3589
g73
(dp3590
g100
g101
ssg82
g3579
sg75
(lp3591
S':'
asbag68
(g89
g70
NtRp3592
(dp3593
g73
(dp3594
sg82
g3579
sg75
(lp3595
g68
(g69
g70
NtRp3596
(dp3597
g73
(dp3598
g81
I3
ssg82
g3592
sg75
(lp3599
S'1'
asbasbasbasbasbasbasbasbasbasbasbasbasbsS'frames'
p3600
(lp3601
(dp3602
S'file'
p3603
S'/home/kaique/Projects/web2py/gluon/restricted.py'
p3604
sS'dump'
p3605
(dp3606
S'environment'
p3607
S"{'A': <class 'gluon.html.A'>, 'Auth': <class 'gluon.tools.Auth'>, 'B': <class 'gluon.html.B'>, 'BEAUTIFY': <class 'gluon.html.BEAUTIFY'>, 'BODY': <class 'gluon.html.BODY'>, 'BR': <class 'gluon.html.BR'>, 'BUTTON': <class 'gluon.html.BUTTON'>, 'CAT': <class 'gluon.html.CAT'>, 'CENTER': <class 'gluon.html.CENTER'>, 'CLEANUP': <class 'gluon.validators.CLEANUP'>, ...}"
p3608
sS'ccode'
p3609
S'<code object <module> at 0x32d3c30, file "/home/...ons/synopsis/controllers/information.py", line 2>'
p3610
ssS'lnum'
p3611
I194
sS'lines'
p3612
(dp3613
I192
S'        else:'
p3614
sI193
S'            ccode = compile2(code,layer)'
p3615
sI194
S'        exec ccode in environment'
p3616
sI195
S'    except HTTP:'
p3617
sI196
S'        raise'
p3618
sI197
S'    except Exception, error:'
p3619
sI198
S'        # XXX Show exception in Wing IDE if running in debugger'
p3620
sI189
S'    try:'
p3621
sI190
S'        if type(code) == types.CodeType:'
p3622
sI191
S'            ccode = code'
p3623
ssS'call'
p3624
S"(code='# -*- coding: utf-8 -*-\\nimport functions as f # ...\\treturn {}\\n\\nresponse._vars=response._caller(new)\\n', environment={'A': <class 'gluon.html.A'>, 'Auth': <class 'gluon.tools.Auth'>, 'B': <class 'gluon.html.B'>, 'BEAUTIFY': <class 'gluon.html.BEAUTIFY'>, 'BODY': <class 'gluon.html.BODY'>, 'BR': <class 'gluon.html.BR'>, 'BUTTON': <class 'gluon.html.BUTTON'>, 'CAT': <class 'gluon.html.CAT'>, 'CENTER': <class 'gluon.html.CENTER'>, 'CLEANUP': <class 'gluon.validators.CLEANUP'>, ...}, layer='/home/kaique/Projects/web2py/applications/synopsis/controllers/information.py')"
p3625
sS'func'
p3626
S'restricted'
p3627
sa(dp3628
g3603
S'/home/kaique/Projects/web2py/applications/synopsis/controllers/information.py'
p3629
sg3605
(dp3630
sg3611
I108
sg3612
(dp3631
I97
S"\t\t\tresponse.flash = T('Sorry, try again!')"
p3632
sI98
S'\t\telse:'
p3633
sI99
S"\t\t\tresponse.flahs = T('Please, fill the field...')"
p3634
sI100
S''
sI101
S"\t\treturn { 'form': row,"
p3635
sI102
S"\t\t\t\t 'title': title }"
p3636
sI103
S''
sI104
S"@auth.requires_membership('admin')"
p3637
sI105
S'def edit(): # Edit the subject'
p3638
sI106
S'\treturn {}'
p3639
ssg3624
S'()'
p3640
sg3626
S'<module>'
p3641
sa(dp3642
g3603
S'/home/kaique/Projects/web2py/gluon/globals.py'
p3643
sg3605
(dp3644
S'self'
p3645
S'undefined'
p3646
sS'f'
S'<function new>'
p3647
ssg3611
I149
sg3612
(dp3648
I144
S'        self.meta = Storage()      # used by web2py_ajax.html'
p3649
sI145
S'        self.menu = []             # used by the default view layout'
p3650
sI146
S'        self.files = []            # used by web2py_ajax.html'
p3651
sI147
S'        self.generic_patterns = [] # patterns to allow generic views'
p3652
sI148
S'        self._vars = None'
p3653
sI149
S'        self._caller = lambda f: f()'
p3654
sI150
S'        self._view_environment = None'
p3655
sI151
S'        self._custom_commit = None'
p3656
sI152
S'        self._custom_rollback = None'
p3657
sI153
S''
ssg3624
S'(f=<function new>)'
p3658
sg3626
S'<lambda>'
p3659
sa(dp3660
g3603
S'/home/kaique/Projects/web2py/gluon/tools.py'
p3661
sg3605
(dp3662
S'action'
p3663
S'<function new>'
p3664
sS'a'
S'()'
p3665
sS'b'
g20
ssg3611
I2456
sg3612
(dp3666
I2451
S"                            '?_next='+urllib.quote(next))"
p3667
sI2452
S'                if not condition:'
p3668
sI2453
S'                    current.session.flash = self.messages.access_denied'
p3669
sI2454
S'                    return call_or_redirect('
p3670
sI2455
S'                        self.settings.on_failed_authorization)'
p3671
sI2456
S'                return action(*a, **b)'
p3672
sI2457
S'            f.__doc__ = action.__doc__'
p3673
sI2458
S'            f.__name__ = action.__name__'
p3674
sI2459
S'            f.__dict__.update(action.__dict__)'
p3675
sI2460
S'            return f'
p3676
ssg3624
S'(*a=(), **b={})'
p3677
sg3626
S'f'
sa(dp3678
g3603
S'/home/kaique/Projects/web2py/applications/synopsis/controllers/information.py'
p3679
sg3605
(dp3680
S'quote'
p3681
S'<gluon.sqlhtml.SQLFORM object>'
p3682
sS'quote.process'
p3683
S'<bound method SQLFORM.process of <gluon.sqlhtml.SQLFORM object>>'
p3684
sS').accepted'
p3685
g3646
ssg3611
I66
sg3612
(dp3686
I64
S"\t\tquote = SQLFORM(db.quote, fields=['content'])"
p3687
sI65
S'\t\tquote.vars.publication_id = args[1]'
p3688
sI66
S'\t\tif quote.process().accepted:'
p3689
sI67
S"\t\t\tresponse.flash = T(T('{0} {1} {2}'.format('New', title.lower(), 'inserted!')))"
p3690
sI68
S'\t\telif quote.errors:'
p3691
sI69
S"\t\t\tresponse.flash = T('Sorry, try again!')"
p3692
sI70
S'\t\telse:'
p3693
sI61
S''
sI62
S"\telif args[0] == 'quote':"
p3694
sI63
S"\t\ttitle = 'Quote'"
p3695
ssg3624
S'()'
p3696
sg3626
S'new'
p3697
sa(dp3698
g3603
S'/home/kaique/Projects/web2py/gluon/html.py'
p3699
sg3605
(dp3700
S'self'
p3701
S'<gluon.sqlhtml.SQLFORM object>'
p3702
sS'self.validate'
p3703
S'<bound method SQLFORM.validate of <gluon.sqlhtml.SQLFORM object>>'
p3704
sS'kwargs'
p3705
S"{'dbio': True}"
p3706
ssg3611
I1950
sg3612
(dp3707
I1952
S''
sI1953
S''
sI1954
S'class BEAUTIFY(DIV):'
p3708
sI1945
S'        # or a function name to use as callback or None to do nothing.'
p3709
sI1946
S'        def action():'
p3710
sI1947
S'            return dict(form=SQLFORM(db.table).process(onsuccess=my_callback)'
p3711
sI1948
S'        """'
p3712
sI1949
S"        kwargs['dbio'] = kwargs.get('dbio',True) # necessary for SQLHTML forms"
p3713
sI1950
S'        self.validate(**kwargs)'
p3714
sI1951
S'        return self'
p3715
ssg3624
S"(self=<gluon.sqlhtml.SQLFORM object>, **kwargs={'dbio': True})"
p3716
sg3626
S'process'
p3717
sa(dp3718
g3603
S'/home/kaique/Projects/web2py/gluon/html.py'
p3719
sg3605
(dp3720
S'self'
p3721
S'<gluon.sqlhtml.SQLFORM object>'
p3722
sS'self.accepts'
p3723
S'<bound method SQLFORM.accepts of <gluon.sqlhtml.SQLFORM object>>'
p3724
sS'kwargs'
p3725
S"{'dbio': True, 'request_vars': <Storage {'content': 'test', '_formkey': '7151eb...9728-fea74b9bd57e', '_formname': 'quote/create'}>, 'session': <Storage {'_formkey[column/create]': '1eacf8d1-e...login]': '373ec251-09b0-45fd-a73b-82a6eedd1b21'}>}"
p3726
ssg3611
I1898
sg3612
(dp3727
I1893
S"        for key in ('message_onsuccess','message_onfailure','onsuccess',"
p3728
sI1894
S"                    'onfailure','next'):"
p3729
sI1895
S'            if key in kwargs:'
p3730
sI1896
S'                del kwargs[key]'
p3731
sI1897
S''
sI1898
S'        if self.accepts(**kwargs):'
p3732
sI1899
S"            if onsuccess == 'flash':"
p3733
sI1900
S'                if next:'
p3734
sI1901
S'                    current.session.flash = message_onsuccess'
p3735
sI1902
S'                else:'
p3736
ssg3624
S"(self=<gluon.sqlhtml.SQLFORM object>, **kwargs={'dbio': True, 'request_vars': <Storage {'content': 'test', '_formkey': '7151eb...9728-fea74b9bd57e', '_formname': 'quote/create'}>, 'session': <Storage {'_formkey[column/create]': '1eacf8d1-e...login]': '373ec251-09b0-45fd-a73b-82a6eedd1b21'}>})"
p3737
sg3626
S'validate'
p3738
sa(dp3739
g3603
S'/home/kaique/Projects/web2py/gluon/sqlhtml.py'
p3740
sg3605
(dp3741
S'self.vars.id'
p3742
S'None'
p3743
sS'fields'
p3744
S"{'content': 'test', 'publication_id': '1'}"
p3745
sS'self'
p3746
S'<gluon.sqlhtml.SQLFORM object>'
p3747
sS'self.vars'
p3748
S"<Storage {'publication_id': '1', 'content': 'test'}>"
p3749
sS'self.table.insert'
p3750
S"<bound method Table.insert of <Table {'content':...>, 'id': <gluon.dal.Field object at 0x2dd7a10>}>>"
p3751
sS'self.table'
p3752
S"<Table {'content': <gluon.dal.Field object at 0x...0>, 'id': <gluon.dal.Field object at 0x2dd7a10>}>"
p3753
ssg3611
I1259
sg3612
(dp3754
I1254
S'                if record_id:'
p3755
sI1255
S'                    self.vars.id = self.record.id'
p3756
sI1256
S'                    if fields:'
p3757
sI1257
S'                        self.table._db(self.table._id == self.record.id).update(**fields)'
p3758
sI1258
S'                else:'
p3759
sI1259
S'                    self.vars.id = self.table.insert(**fields)'
p3760
sI1260
S'        self.accepted = ret'
p3761
sI1261
S'        return ret'
p3762
sI1262
S''
sI1263
S'    @staticmethod'
p3763
ssg3624
S"(self=<gluon.sqlhtml.SQLFORM object>, request_vars=<Storage {'content': 'test', '_formkey': '7151eb...9728-fea74b9bd57e', '_formname': 'quote/create'}>, session=<Storage {'_formkey[column/create]': '1eacf8d1-e...login]': '373ec251-09b0-45fd-a73b-82a6eedd1b21'}>, formname='quote/create', keepvalues=False, onvalidation=None, dbio=True, hideerror=False, detect_record_change=False)"
p3764
sg3626
S'accepts'
p3765
sa(dp3766
g3603
S'/home/kaique/Projects/web2py/gluon/dal.py'
p3767
sg3605
(dp3768
S'self._listify'
p3769
S"<bound method Table._listify of <Table {'content...>, 'id': <gluon.dal.Field object at 0x2dd7a10>}>>"
p3770
sS'fields'
p3771
S"{'content': 'test', 'publication_id': '1'}"
p3772
sS'self'
p3773
S"<Table {'content': <gluon.dal.Field object at 0x...0>, 'id': <gluon.dal.Field object at 0x2dd7a10>}>"
p3774
sS'self._db._adapter'
p3775
S'<gluon.dal.SQLiteAdapter object>'
p3776
sS'self._db._adapter.insert'
p3777
S'<bound method SQLiteAdapter.insert of <gluon.dal.SQLiteAdapter object>>'
p3778
sS'self._db'
p3779
S"<DAL {'auth_event': <Table {'origin': <gluon.dal..., 'id': <gluon.dal.Field object at 0x33493d0>}>}>"
p3780
ssg3611
I4976
sg3612
(dp3781
I4971
S''
sI4972
S'    def _insert(self, **fields):'
p3782
sI4973
S'        return self._db._adapter._insert(self,self._listify(fields))'
p3783
sI4974
S''
sI4975
S'    def insert(self, **fields):'
p3784
sI4976
S'        return self._db._adapter.insert(self,self._listify(fields))'
p3785
sI4977
S''
sI4978
S'    def validate_and_insert(self,**fields):'
p3786
sI4979
S'        response = Row()'
p3787
sI4980
S'        response.errors = self._validate(**fields)'
p3788
ssg3624
S"(self=<Table {'content': <gluon.dal.Field object at 0x...0>, 'id': <gluon.dal.Field object at 0x2dd7a10>}>, **fields={'content': 'test', 'publication_id': '1'})"
p3789
sg3626
S'insert'
p3790
sa(dp3791
g3603
S'/home/kaique/Projects/web2py/gluon/dal.py'
p3792
sg3605
(dp3793
S'builtinSyntaxError'
p3794
S"<type 'exceptions.SyntaxError'>"
p3795
sS'name'
p3796
S"'publication_id'"
p3797
ssg3611
I4952
sg3612
(dp3798
I4947
S'        new_fields = []'
p3799
sI4948
S'        new_fields_names = []'
p3800
sI4949
S'        for name in fields:'
p3801
sI4950
S'            if not name in self.fields:'
p3802
sI4951
S"                if name != 'id':"
p3803
sI4952
S"                    raise SyntaxError, 'Field %s does not belong to the table' % name"
p3804
sI4953
S'            else:'
p3805
sI4954
S'                new_fields.append((self[name],fields[name]))'
p3806
sI4955
S'                new_fields_names.append(name)'
p3807
sI4956
S'        for ofield in self:'
p3808
ssg3624
S"(self=<Table {'content': <gluon.dal.Field object at 0x...0>, 'id': <gluon.dal.Field object at 0x2dd7a10>}>, fields={'content': 'test', 'publication_id': '1'}, update=False)"
p3809
sg3626
S'_listify'
p3810
sasS'pyver'
p3811
S'Python 2.7.2+: /usr/bin/python'
p3812
sS'session'
p3813
g68
(g69
g70
NtRp3814
(dp3815
g73
(dp3816
sg75
(lp3817
g68
(g77
g70
NtRp3818
(dp3819
g73
(dp3820
g81
I5
ssg82
Nsg75
(lp3821
g68
(g84
g70
NtRp3822
(dp3823
g73
(dp3824
sg82
g3818
sg75
(lp3825
g68
(g89
g70
NtRp3826
(dp3827
g73
(dp3828
g93
g94
ssg82
g3822
sg75
(lp3829
S'auth'
p3830
asbag68
(g89
g70
NtRp3831
(dp3832
g73
(dp3833
g100
g101
ssg82
g3822
sg75
(lp3834
S':'
asbag68
(g89
g70
NtRp3835
(dp3836
g73
(dp3837
sg82
g3822
sg75
(lp3838
g68
(g69
g70
NtRp3839
(dp3840
g73
(dp3841
g81
I5
ssg82
g3835
sg75
(lp3842
g68
(g77
g70
NtRp3843
(dp3844
g73
(dp3845
g81
I4
ssg82
Nsg75
(lp3846
g68
(g84
g70
NtRp3847
(dp3848
g73
(dp3849
sg82
g3843
sg75
(lp3850
g68
(g89
g70
NtRp3851
(dp3852
g73
(dp3853
g93
g94
ssg82
g3847
sg75
(lp3854
S'expiration'
p3855
asbag68
(g89
g70
NtRp3856
(dp3857
g73
(dp3858
g100
g101
ssg82
g3847
sg75
(lp3859
S':'
asbag68
(g89
g70
NtRp3860
(dp3861
g73
(dp3862
sg82
g3847
sg75
(lp3863
g68
(g69
g70
NtRp3864
(dp3865
g73
(dp3866
g81
I4
ssg82
g3860
sg75
(lp3867
S'2592000'
p3868
asbasbasbag68
(g84
g70
NtRp3869
(dp3870
g73
(dp3871
sg82
g3843
sg75
(lp3872
g68
(g89
g70
NtRp3873
(dp3874
g73
(dp3875
g93
g94
ssg82
g3869
sg75
(lp3876
S'hmac_key'
p3877
asbag68
(g89
g70
NtRp3878
(dp3879
g73
(dp3880
g100
g101
ssg82
g3869
sg75
(lp3881
S':'
asbag68
(g89
g70
NtRp3882
(dp3883
g73
(dp3884
sg82
g3869
sg75
(lp3885
g68
(g69
g70
NtRp3886
(dp3887
g73
(dp3888
g81
I4
ssg82
g3882
sg75
(lp3889
S'63ff9364-0b36-492d-81fa-9c003e42e522'
p3890
asbasbasbag68
(g84
g70
NtRp3891
(dp3892
g73
(dp3893
sg82
g3843
sg75
(lp3894
g68
(g89
g70
NtRp3895
(dp3896
g73
(dp3897
g93
g94
ssg82
g3891
sg75
(lp3898
S'last_visit'
p3899
asbag68
(g89
g70
NtRp3900
(dp3901
g73
(dp3902
g100
g101
ssg82
g3891
sg75
(lp3903
S':'
asbag68
(g89
g70
NtRp3904
(dp3905
g73
(dp3906
sg82
g3891
sg75
(lp3907
g68
(g69
g70
NtRp3908
(dp3909
g73
(dp3910
g81
I4
ssg82
g3904
sg75
(lp3911
S'datetime.datetime(2012, 1, 13, 22, 9, 29, 822346)'
p3912
asbasbasbag68
(g84
g70
NtRp3913
(dp3914
g73
(dp3915
sg82
g3843
sg75
(lp3916
g68
(g89
g70
NtRp3917
(dp3918
g73
(dp3919
g93
g94
ssg82
g3913
sg75
(lp3920
S'remember'
p3921
asbag68
(g89
g70
NtRp3922
(dp3923
g73
(dp3924
g100
g101
ssg82
g3913
sg75
(lp3925
S':'
asbag68
(g89
g70
NtRp3926
(dp3927
g73
(dp3928
sg82
g3913
sg75
(lp3929
g68
(g69
g70
NtRp3930
(dp3931
g73
(dp3932
g81
I4
ssg82
g3926
sg75
(lp3933
g111
asbasbasbag68
(g84
g70
NtRp3934
(dp3935
g73
(dp3936
sg82
g3843
sg75
(lp3937
g68
(g89
g70
NtRp3938
(dp3939
g73
(dp3940
g93
g94
ssg82
g3934
sg75
(lp3941
S'user'
p3942
asbag68
(g89
g70
NtRp3943
(dp3944
g73
(dp3945
g100
g101
ssg82
g3934
sg75
(lp3946
S':'
asbag68
(g89
g70
NtRp3947
(dp3948
g73
(dp3949
sg82
g3934
sg75
(lp3950
g68
(g69
g70
NtRp3951
(dp3952
g73
(dp3953
g81
I4
ssg82
g3947
sg75
(lp3954
g68
(g77
g70
NtRp3955
(dp3956
g73
(dp3957
g81
I3
ssg82
Nsg75
(lp3958
g68
(g84
g70
NtRp3959
(dp3960
g73
(dp3961
sg82
g3955
sg75
(lp3962
g68
(g89
g70
NtRp3963
(dp3964
g73
(dp3965
g93
g94
ssg82
g3959
sg75
(lp3966
S'email'
p3967
asbag68
(g89
g70
NtRp3968
(dp3969
g73
(dp3970
g100
g101
ssg82
g3959
sg75
(lp3971
S':'
asbag68
(g89
g70
NtRp3972
(dp3973
g73
(dp3974
sg82
g3959
sg75
(lp3975
g68
(g69
g70
NtRp3976
(dp3977
g73
(dp3978
g81
I3
ssg82
g3972
sg75
(lp3979
S'kaique.developer@gmail.com'
p3980
asbasbasbag68
(g84
g70
NtRp3981
(dp3982
g73
(dp3983
sg82
g3955
sg75
(lp3984
g68
(g89
g70
NtRp3985
(dp3986
g73
(dp3987
g93
g94
ssg82
g3981
sg75
(lp3988
S'first_name'
p3989
asbag68
(g89
g70
NtRp3990
(dp3991
g73
(dp3992
g100
g101
ssg82
g3981
sg75
(lp3993
S':'
asbag68
(g89
g70
NtRp3994
(dp3995
g73
(dp3996
sg82
g3981
sg75
(lp3997
g68
(g69
g70
NtRp3998
(dp3999
g73
(dp4000
g81
I3
ssg82
g3994
sg75
(lp4001
S'kaique'
p4002
asbasbasbag68
(g84
g70
NtRp4003
(dp4004
g73
(dp4005
sg82
g3955
sg75
(lp4006
g68
(g89
g70
NtRp4007
(dp4008
g73
(dp4009
g93
g94
ssg82
g4003
sg75
(lp4010
S'id'
p4011
asbag68
(g89
g70
NtRp4012
(dp4013
g73
(dp4014
g100
g101
ssg82
g4003
sg75
(lp4015
S':'
asbag68
(g89
g70
NtRp4016
(dp4017
g73
(dp4018
sg82
g4003
sg75
(lp4019
g68
(g69
g70
NtRp4020
(dp4021
g73
(dp4022
g81
I3
ssg82
g4016
sg75
(lp4023
S'1'
asbasbasbag68
(g84
g70
NtRp4024
(dp4025
g73
(dp4026
sg82
g3955
sg75
(lp4027
g68
(g89
g70
NtRp4028
(dp4029
g73
(dp4030
g93
g94
ssg82
g4024
sg75
(lp4031
S'last_name'
p4032
asbag68
(g89
g70
NtRp4033
(dp4034
g73
(dp4035
g100
g101
ssg82
g4024
sg75
(lp4036
S':'
asbag68
(g89
g70
NtRp4037
(dp4038
g73
(dp4039
sg82
g4024
sg75
(lp4040
g68
(g69
g70
NtRp4041
(dp4042
g73
(dp4043
g81
I3
ssg82
g4037
sg75
(lp4044
S'silva'
p4045
asbasbasbag68
(g84
g70
NtRp4046
(dp4047
g73
(dp4048
sg82
g3955
sg75
(lp4049
g68
(g89
g70
NtRp4050
(dp4051
g73
(dp4052
g93
g94
ssg82
g4046
sg75
(lp4053
S'password'
p4054
asbag68
(g89
g70
NtRp4055
(dp4056
g73
(dp4057
g100
g101
ssg82
g4046
sg75
(lp4058
S':'
asbag68
(g89
g70
NtRp4059
(dp4060
g73
(dp4061
sg82
g4046
sg75
(lp4062
g68
(g69
g70
NtRp4063
(dp4064
g73
(dp4065
g81
I3
ssg82
g4059
sg75
(lp4066
S'72c6a018d62d3fb47d95389e4a062cd2'
p4067
asbasbasbag68
(g84
g70
NtRp4068
(dp4069
g73
(dp4070
sg82
g3955
sg75
(lp4071
g68
(g89
g70
NtRp4072
(dp4073
g73
(dp4074
g93
g94
ssg82
g4068
sg75
(lp4075
S'registration_key'
p4076
asbag68
(g89
g70
NtRp4077
(dp4078
g73
(dp4079
g100
g101
ssg82
g4068
sg75
(lp4080
S':'
asbag68
(g89
g70
NtRp4081
(dp4082
g73
(dp4083
sg82
g4068
sg75
(lp4084
g68
(g69
g70
NtRp4085
(dp4086
g73
(dp4087
g81
I3
ssg82
g4081
sg75
(lp4088
S''
asbasbasbag68
(g84
g70
NtRp4089
(dp4090
g73
(dp4091
sg82
g3955
sg75
(lp4092
g68
(g89
g70
NtRp4093
(dp4094
g73
(dp4095
g93
g94
ssg82
g4089
sg75
(lp4096
S'reset_password_key'
p4097
asbag68
(g89
g70
NtRp4098
(dp4099
g73
(dp4100
g100
g101
ssg82
g4089
sg75
(lp4101
S':'
asbag68
(g89
g70
NtRp4102
(dp4103
g73
(dp4104
sg82
g4089
sg75
(lp4105
g68
(g69
g70
NtRp4106
(dp4107
g73
(dp4108
g81
I3
ssg82
g4102
sg75
(lp4109
S''
asbasbasbasbasbasbasbasbasbasbasbag68
(g84
g70
NtRp4110
(dp4111
g73
(dp4112
sg82
g3818
sg75
(lp4113
g68
(g89
g70
NtRp4114
(dp4115
g73
(dp4116
g93
g94
ssg82
g4110
sg75
(lp4117
S'back'
p4118
asbag68
(g89
g70
NtRp4119
(dp4120
g73
(dp4121
g100
g101
ssg82
g4110
sg75
(lp4122
S':'
asbag68
(g89
g70
NtRp4123
(dp4124
g73
(dp4125
sg82
g4110
sg75
(lp4126
g68
(g69
g70
NtRp4127
(dp4128
g73
(dp4129
g81
I5
ssg82
g4123
sg75
(lp4130
S'8'
asbasbasbag68
(g84
g70
NtRp4131
(dp4132
g73
(dp4133
sg82
g3818
sg75
(lp4134
g68
(g89
g70
NtRp4135
(dp4136
g73
(dp4137
g93
g94
ssg82
g4131
sg75
(lp4138
S'index'
p4139
asbag68
(g89
g70
NtRp4140
(dp4141
g73
(dp4142
g100
g101
ssg82
g4131
sg75
(lp4143
S':'
asbag68
(g89
g70
NtRp4144
(dp4145
g73
(dp4146
sg82
g4131
sg75
(lp4147
g68
(g69
g70
NtRp4148
(dp4149
g73
(dp4150
g81
I5
ssg82
g4144
sg75
(lp4151
S'quote'
p4152
asbasbasbag68
(g84
g70
NtRp4153
(dp4154
g73
(dp4155
sg82
g3818
sg75
(lp4156
g68
(g89
g70
NtRp4157
(dp4158
g73
(dp4159
g93
g94
ssg82
g4153
sg75
(lp4160
S'last_query'
p4161
asbag68
(g89
g70
NtRp4162
(dp4163
g73
(dp4164
g100
g101
ssg82
g4153
sg75
(lp4165
S':'
asbag68
(g89
g70
NtRp4166
(dp4167
g73
(dp4168
sg82
g4153
sg75
(lp4169
g68
(g69
g70
NtRp4170
(dp4171
g73
(dp4172
g81
I5
ssg82
g4166
sg75
(lp4173
S'db.row.id>0'
p4174
asbasbasbasbasbsS'etype'
p4175
S"<type 'exceptions.SyntaxError'>"
p4176
sS'date'
p4177
S'Sat Jan 14 01:18:05 2012'
p4178
sS'response'
p4179
g68
(g69
g70
NtRp4180
(dp4181
g73
(dp4182
sg75
(lp4183
g68
(g77
g70
NtRp4184
(dp4185
g73
(dp4186
g81
I5
ssg82
Nsg75
(lp4187
g68
(g84
g70
NtRp4188
(dp4189
g73
(dp4190
sg82
g4184
sg75
(lp4191
g68
(g89
g70
NtRp4192
(dp4193
g73
(dp4194
g93
g94
ssg82
g4188
sg75
(lp4195
g191
asbag68
(g89
g70
NtRp4196
(dp4197
g73
(dp4198
g100
g101
ssg82
g4188
sg75
(lp4199
S':'
asbag68
(g89
g70
NtRp4200
(dp4201
g73
(dp4202
sg82
g4188
sg75
(lp4203
g68
(g69
g70
NtRp4204
(dp4205
g73
(dp4206
g81
I5
ssg82
g4200
sg75
(lp4207
S'<cStringIO.StringO object at 0x3343148>'
p4208
asbasbasbag68
(g84
g70
NtRp4209
(dp4210
g73
(dp4211
sg82
g4184
sg75
(lp4212
g68
(g89
g70
NtRp4213
(dp4214
g73
(dp4215
g93
g94
ssg82
g4209
sg75
(lp4216
g257
asbag68
(g89
g70
NtRp4217
(dp4218
g73
(dp4219
g100
g101
ssg82
g4209
sg75
(lp4220
S':'
asbag68
(g89
g70
NtRp4221
(dp4222
g73
(dp4223
sg82
g4209
sg75
(lp4224
g68
(g69
g70
NtRp4225
(dp4226
g73
(dp4227
g81
I5
ssg82
g4221
sg75
(lp4228
g68
(g77
g70
NtRp4229
(dp4230
g73
(dp4231
g81
I4
ssg82
Nsg75
(lp4232
g68
(g84
g70
NtRp4233
(dp4234
g73
(dp4235
sg82
g4229
sg75
(lp4236
g68
(g89
g70
NtRp4237
(dp4238
g73
(dp4239
g93
g94
ssg82
g4233
sg75
(lp4240
S'session_id_synopsis'
p4241
asbag68
(g89
g70
NtRp4242
(dp4243
g73
(dp4244
g100
g101
ssg82
g4233
sg75
(lp4245
S':'
asbag68
(g89
g70
NtRp4246
(dp4247
g73
(dp4248
sg82
g4233
sg75
(lp4249
g68
(g69
g70
NtRp4250
(dp4251
g73
(dp4252
g81
I4
ssg82
g4246
sg75
(lp4253
g68
(g77
g70
NtRp4254
(dp4255
g73
(dp4256
g81
I3
ssg82
Nsg75
(lp4257
g68
(g84
g70
NtRp4258
(dp4259
g73
(dp4260
sg82
g4254
sg75
(lp4261
g68
(g89
g70
NtRp4262
(dp4263
g73
(dp4264
g93
g94
ssg82
g4258
sg75
(lp4265
g307
asbag68
(g89
g70
NtRp4266
(dp4267
g73
(dp4268
g100
g101
ssg82
g4258
sg75
(lp4269
S':'
asbag68
(g89
g70
NtRp4270
(dp4271
g73
(dp4272
sg82
g4258
sg75
(lp4273
g68
(g69
g70
NtRp4274
(dp4275
g73
(dp4276
g81
I3
ssg82
g4270
sg75
(lp4277
S''
asbasbasbag68
(g84
g70
NtRp4278
(dp4279
g73
(dp4280
sg82
g4254
sg75
(lp4281
g68
(g89
g70
NtRp4282
(dp4283
g73
(dp4284
g93
g94
ssg82
g4278
sg75
(lp4285
g328
asbag68
(g89
g70
NtRp4286
(dp4287
g73
(dp4288
g100
g101
ssg82
g4278
sg75
(lp4289
S':'
asbag68
(g89
g70
NtRp4290
(dp4291
g73
(dp4292
sg82
g4278
sg75
(lp4293
g68
(g69
g70
NtRp4294
(dp4295
g73
(dp4296
g81
I3
ssg82
g4290
sg75
(lp4297
S''
asbasbasbag68
(g84
g70
NtRp4298
(dp4299
g73
(dp4300
sg82
g4254
sg75
(lp4301
g68
(g89
g70
NtRp4302
(dp4303
g73
(dp4304
g93
g94
ssg82
g4298
sg75
(lp4305
g349
asbag68
(g89
g70
NtRp4306
(dp4307
g73
(dp4308
g100
g101
ssg82
g4298
sg75
(lp4309
S':'
asbag68
(g89
g70
NtRp4310
(dp4311
g73
(dp4312
sg82
g4298
sg75
(lp4313
g68
(g69
g70
NtRp4314
(dp4315
g73
(dp4316
g81
I3
ssg82
g4310
sg75
(lp4317
S''
asbasbasbag68
(g84
g70
NtRp4318
(dp4319
g73
(dp4320
sg82
g4254
sg75
(lp4321
g68
(g89
g70
NtRp4322
(dp4323
g73
(dp4324
g93
g94
ssg82
g4318
sg75
(lp4325
g370
asbag68
(g89
g70
NtRp4326
(dp4327
g73
(dp4328
g100
g101
ssg82
g4318
sg75
(lp4329
S':'
asbag68
(g89
g70
NtRp4330
(dp4331
g73
(dp4332
sg82
g4318
sg75
(lp4333
g68
(g69
g70
NtRp4334
(dp4335
g73
(dp4336
g81
I3
ssg82
g4330
sg75
(lp4337
S''
asbasbasbag68
(g84
g70
NtRp4338
(dp4339
g73
(dp4340
sg82
g4254
sg75
(lp4341
g68
(g89
g70
NtRp4342
(dp4343
g73
(dp4344
g93
g94
ssg82
g4338
sg75
(lp4345
g391
asbag68
(g89
g70
NtRp4346
(dp4347
g73
(dp4348
g100
g101
ssg82
g4338
sg75
(lp4349
S':'
asbag68
(g89
g70
NtRp4350
(dp4351
g73
(dp4352
sg82
g4338
sg75
(lp4353
g68
(g69
g70
NtRp4354
(dp4355
g73
(dp4356
g81
I3
ssg82
g4350
sg75
(lp4357
S''
asbasbasbag68
(g84
g70
NtRp4358
(dp4359
g73
(dp4360
sg82
g4254
sg75
(lp4361
g68
(g89
g70
NtRp4362
(dp4363
g73
(dp4364
g93
g94
ssg82
g4358
sg75
(lp4365
g412
asbag68
(g89
g70
NtRp4366
(dp4367
g73
(dp4368
g100
g101
ssg82
g4358
sg75
(lp4369
S':'
asbag68
(g89
g70
NtRp4370
(dp4371
g73
(dp4372
sg82
g4358
sg75
(lp4373
g68
(g69
g70
NtRp4374
(dp4375
g73
(dp4376
g81
I3
ssg82
g4370
sg75
(lp4377
S'/'
asbasbasbag68
(g84
g70
NtRp4378
(dp4379
g73
(dp4380
sg82
g4254
sg75
(lp4381
g68
(g89
g70
NtRp4382
(dp4383
g73
(dp4384
g93
g94
ssg82
g4378
sg75
(lp4385
g433
asbag68
(g89
g70
NtRp4386
(dp4387
g73
(dp4388
g100
g101
ssg82
g4378
sg75
(lp4389
S':'
asbag68
(g89
g70
NtRp4390
(dp4391
g73
(dp4392
sg82
g4378
sg75
(lp4393
g68
(g69
g70
NtRp4394
(dp4395
g73
(dp4396
g81
I3
ssg82
g4390
sg75
(lp4397
S''
asbasbasbag68
(g84
g70
NtRp4398
(dp4399
g73
(dp4400
sg82
g4254
sg75
(lp4401
g68
(g89
g70
NtRp4402
(dp4403
g73
(dp4404
g93
g94
ssg82
g4398
sg75
(lp4405
g454
asbag68
(g89
g70
NtRp4406
(dp4407
g73
(dp4408
g100
g101
ssg82
g4398
sg75
(lp4409
S':'
asbag68
(g89
g70
NtRp4410
(dp4411
g73
(dp4412
sg82
g4398
sg75
(lp4413
g68
(g69
g70
NtRp4414
(dp4415
g73
(dp4416
g81
I3
ssg82
g4410
sg75
(lp4417
S''
asbasbasbasbasbasbasbasbasbasbasbag68
(g84
g70
NtRp4418
(dp4419
g73
(dp4420
sg82
g4184
sg75
(lp4421
g68
(g89
g70
NtRp4422
(dp4423
g73
(dp4424
g93
g94
ssg82
g4418
sg75
(lp4425
S'files'
p4426
asbag68
(g89
g70
NtRp4427
(dp4428
g73
(dp4429
g100
g101
ssg82
g4418
sg75
(lp4430
S':'
asbag68
(g89
g70
NtRp4431
(dp4432
g73
(dp4433
sg82
g4418
sg75
(lp4434
g68
(g69
g70
NtRp4435
(dp4436
g73
(dp4437
g81
I5
ssg82
g4431
sg75
(lp4438
g68
(g77
g70
NtRp4439
(dp4440
g73
(dp4441
g81
I4
ssg82
Nsg75
(lp4442
sbasbasbasbag68
(g84
g70
NtRp4443
(dp4444
g73
(dp4445
sg82
g4184
sg75
(lp4446
g68
(g89
g70
NtRp4447
(dp4448
g73
(dp4449
g93
g94
ssg82
g4443
sg75
(lp4450
S'flash'
p4451
asbag68
(g89
g70
NtRp4452
(dp4453
g73
(dp4454
g100
g101
ssg82
g4443
sg75
(lp4455
S':'
asbag68
(g89
g70
NtRp4456
(dp4457
g73
(dp4458
sg82
g4443
sg75
(lp4459
g68
(g69
g70
NtRp4460
(dp4461
g73
(dp4462
g81
I5
ssg82
g4456
sg75
(lp4463
S''
asbasbasbag68
(g84
g70
NtRp4464
(dp4465
g73
(dp4466
sg82
g4184
sg75
(lp4467
g68
(g89
g70
NtRp4468
(dp4469
g73
(dp4470
g93
g94
ssg82
g4464
sg75
(lp4471
S'generic_patterns'
p4472
asbag68
(g89
g70
NtRp4473
(dp4474
g73
(dp4475
g100
g101
ssg82
g4464
sg75
(lp4476
S':'
asbag68
(g89
g70
NtRp4477
(dp4478
g73
(dp4479
sg82
g4464
sg75
(lp4480
g68
(g69
g70
NtRp4481
(dp4482
g73
(dp4483
g81
I5
ssg82
g4477
sg75
(lp4484
g68
(g77
g70
NtRp4485
(dp4486
g73
(dp4487
g81
I4
ssg82
Nsg75
(lp4488
g68
(g84
g70
NtRp4489
(dp4490
g73
(dp4491
sg82
g4485
sg75
(lp4492
g68
(g89
g70
NtRp4493
(dp4494
g73
(dp4495
sg82
g4489
sg75
(lp4496
g68
(g69
g70
NtRp4497
(dp4498
g73
(dp4499
g81
I4
ssg82
g4493
sg75
(lp4500
S'*'
asbasbasbasbasbasbasbag68
(g84
g70
NtRp4501
(dp4502
g73
(dp4503
sg82
g4184
sg75
(lp4504
g68
(g89
g70
NtRp4505
(dp4506
g73
(dp4507
g93
g94
ssg82
g4501
sg75
(lp4508
S'headers'
p4509
asbag68
(g89
g70
NtRp4510
(dp4511
g73
(dp4512
g100
g101
ssg82
g4501
sg75
(lp4513
S':'
asbag68
(g89
g70
NtRp4514
(dp4515
g73
(dp4516
sg82
g4501
sg75
(lp4517
g68
(g69
g70
NtRp4518
(dp4519
g73
(dp4520
g81
I5
ssg82
g4514
sg75
(lp4521
g68
(g77
g70
NtRp4522
(dp4523
g73
(dp4524
g81
I4
ssg82
Nsg75
(lp4525
g68
(g84
g70
NtRp4526
(dp4527
g73
(dp4528
sg82
g4522
sg75
(lp4529
g68
(g89
g70
NtRp4530
(dp4531
g73
(dp4532
g93
g94
ssg82
g4526
sg75
(lp4533
S'Cache-Control'
p4534
asbag68
(g89
g70
NtRp4535
(dp4536
g73
(dp4537
g100
g101
ssg82
g4526
sg75
(lp4538
S':'
asbag68
(g89
g70
NtRp4539
(dp4540
g73
(dp4541
sg82
g4526
sg75
(lp4542
g68
(g69
g70
NtRp4543
(dp4544
g73
(dp4545
g81
I4
ssg82
g4539
sg75
(lp4546
S'no-store, no-cache, must-revalidate, post-check=0, pre-check=0'
p4547
asbasbasbag68
(g84
g70
NtRp4548
(dp4549
g73
(dp4550
sg82
g4522
sg75
(lp4551
g68
(g89
g70
NtRp4552
(dp4553
g73
(dp4554
g93
g94
ssg82
g4548
sg75
(lp4555
S'Content-Type'
p4556
asbag68
(g89
g70
NtRp4557
(dp4558
g73
(dp4559
g100
g101
ssg82
g4548
sg75
(lp4560
S':'
asbag68
(g89
g70
NtRp4561
(dp4562
g73
(dp4563
sg82
g4548
sg75
(lp4564
g68
(g69
g70
NtRp4565
(dp4566
g73
(dp4567
g81
I4
ssg82
g4561
sg75
(lp4568
S'text/html; charset=utf-8'
p4569
asbasbasbag68
(g84
g70
NtRp4570
(dp4571
g73
(dp4572
sg82
g4522
sg75
(lp4573
g68
(g89
g70
NtRp4574
(dp4575
g73
(dp4576
g93
g94
ssg82
g4570
sg75
(lp4577
S'Expires'
p4578
asbag68
(g89
g70
NtRp4579
(dp4580
g73
(dp4581
g100
g101
ssg82
g4570
sg75
(lp4582
S':'
asbag68
(g89
g70
NtRp4583
(dp4584
g73
(dp4585
sg82
g4570
sg75
(lp4586
g68
(g69
g70
NtRp4587
(dp4588
g73
(dp4589
g81
I4
ssg82
g4583
sg75
(lp4590
S'Sat, 14 Jan 2012 03:18:05 GMT'
p4591
asbasbasbag68
(g84
g70
NtRp4592
(dp4593
g73
(dp4594
sg82
g4522
sg75
(lp4595
g68
(g89
g70
NtRp4596
(dp4597
g73
(dp4598
g93
g94
ssg82
g4592
sg75
(lp4599
S'Pragma'
p4600
asbag68
(g89
g70
NtRp4601
(dp4602
g73
(dp4603
g100
g101
ssg82
g4592
sg75
(lp4604
S':'
asbag68
(g89
g70
NtRp4605
(dp4606
g73
(dp4607
sg82
g4592
sg75
(lp4608
g68
(g69
g70
NtRp4609
(dp4610
g73
(dp4611
g81
I4
ssg82
g4605
sg75
(lp4612
S'no-cache'
p4613
asbasbasbag68
(g84
g70
NtRp4614
(dp4615
g73
(dp4616
sg82
g4522
sg75
(lp4617
g68
(g89
g70
NtRp4618
(dp4619
g73
(dp4620
g93
g94
ssg82
g4614
sg75
(lp4621
S'X-Powered-By'
p4622
asbag68
(g89
g70
NtRp4623
(dp4624
g73
(dp4625
g100
g101
ssg82
g4614
sg75
(lp4626
S':'
asbag68
(g89
g70
NtRp4627
(dp4628
g73
(dp4629
sg82
g4614
sg75
(lp4630
g68
(g69
g70
NtRp4631
(dp4632
g73
(dp4633
g81
I4
ssg82
g4627
sg75
(lp4634
S'web2py'
p4635
asbasbasbasbasbasbasbag68
(g84
g70
NtRp4636
(dp4637
g73
(dp4638
sg82
g4184
sg75
(lp4639
g68
(g89
g70
NtRp4640
(dp4641
g73
(dp4642
g93
g94
ssg82
g4636
sg75
(lp4643
S'menu'
p4644
asbag68
(g89
g70
NtRp4645
(dp4646
g73
(dp4647
g100
g101
ssg82
g4636
sg75
(lp4648
S':'
asbag68
(g89
g70
NtRp4649
(dp4650
g73
(dp4651
sg82
g4636
sg75
(lp4652
g68
(g69
g70
NtRp4653
(dp4654
g73
(dp4655
g81
I5
ssg82
g4649
sg75
(lp4656
g68
(g77
g70
NtRp4657
(dp4658
g73
(dp4659
g81
I4
ssg82
Nsg75
(lp4660
g68
(g84
g70
NtRp4661
(dp4662
g73
(dp4663
sg82
g4657
sg75
(lp4664
g68
(g89
g70
NtRp4665
(dp4666
g73
(dp4667
sg82
g4661
sg75
(lp4668
g68
(g69
g70
NtRp4669
(dp4670
g73
(dp4671
g81
I4
ssg82
g4665
sg75
(lp4672
g68
(g77
g70
NtRp4673
(dp4674
g73
(dp4675
g81
I3
ssg82
Nsg75
(lp4676
g68
(g84
g70
NtRp4677
(dp4678
g73
(dp4679
sg82
g4673
sg75
(lp4680
g68
(g89
g70
NtRp4681
(dp4682
g73
(dp4683
sg82
g4677
sg75
(lp4684
g68
(g69
g70
NtRp4685
(dp4686
g73
(dp4687
g81
I3
ssg82
g4681
sg75
(lp4688
cgluon.languages
lazyT_unpickle
p4689
(S't\x04\x00\x00\x00Home'
tRp4690
asbasbasbag68
(g84
g70
NtRp4691
(dp4692
g73
(dp4693
sg82
g4673
sg75
(lp4694
g68
(g89
g70
NtRp4695
(dp4696
g73
(dp4697
sg82
g4691
sg75
(lp4698
g68
(g69
g70
NtRp4699
(dp4700
g73
(dp4701
g81
I3
ssg82
g4695
sg75
(lp4702
g111
asbasbasbag68
(g84
g70
NtRp4703
(dp4704
g73
(dp4705
sg82
g4673
sg75
(lp4706
g68
(g89
g70
NtRp4707
(dp4708
g73
(dp4709
sg82
g4703
sg75
(lp4710
g68
(g69
g70
NtRp4711
(dp4712
g73
(dp4713
g81
I3
ssg82
g4707
sg75
(lp4714
S'/synopsis/default/index'
p4715
asbasbasbag68
(g84
g70
NtRp4716
(dp4717
g73
(dp4718
sg82
g4673
sg75
(lp4719
g68
(g89
g70
NtRp4720
(dp4721
g73
(dp4722
sg82
g4716
sg75
(lp4723
g68
(g69
g70
NtRp4724
(dp4725
g73
(dp4726
g81
I3
ssg82
g4720
sg75
(lp4727
g68
(g77
g70
NtRp4728
(dp4729
g73
(dp4730
g81
I2
ssg82
Nsg75
(lp4731
sbasbasbasbasbasbasbasbag68
(g84
g70
NtRp4732
(dp4733
g73
(dp4734
sg82
g4657
sg75
(lp4735
g68
(g89
g70
NtRp4736
(dp4737
g73
(dp4738
sg82
g4732
sg75
(lp4739
g68
(g69
g70
NtRp4740
(dp4741
g73
(dp4742
g81
I4
ssg82
g4736
sg75
(lp4743
g68
(g77
g70
NtRp4744
(dp4745
g73
(dp4746
g81
I3
ssg82
Nsg75
(lp4747
g68
(g84
g70
NtRp4748
(dp4749
g73
(dp4750
sg82
g4744
sg75
(lp4751
g68
(g89
g70
NtRp4752
(dp4753
g73
(dp4754
sg82
g4748
sg75
(lp4755
g68
(g69
g70
NtRp4756
(dp4757
g73
(dp4758
g81
I3
ssg82
g4752
sg75
(lp4759
g4689
(S't\x0b\x00\x00\x00Information'
tRp4760
asbasbasbag68
(g84
g70
NtRp4761
(dp4762
g73
(dp4763
sg82
g4744
sg75
(lp4764
g68
(g89
g70
NtRp4765
(dp4766
g73
(dp4767
sg82
g4761
sg75
(lp4768
g68
(g69
g70
NtRp4769
(dp4770
g73
(dp4771
g81
I3
ssg82
g4765
sg75
(lp4772
g111
asbasbasbag68
(g84
g70
NtRp4773
(dp4774
g73
(dp4775
sg82
g4744
sg75
(lp4776
g68
(g89
g70
NtRp4777
(dp4778
g73
(dp4779
sg82
g4773
sg75
(lp4780
g68
(g69
g70
NtRp4781
(dp4782
g73
(dp4783
g81
I3
ssg82
g4777
sg75
(lp4784
S'/synopsis/information/index'
p4785
asbasbasbag68
(g84
g70
NtRp4786
(dp4787
g73
(dp4788
sg82
g4744
sg75
(lp4789
g68
(g89
g70
NtRp4790
(dp4791
g73
(dp4792
sg82
g4786
sg75
(lp4793
g68
(g69
g70
NtRp4794
(dp4795
g73
(dp4796
g81
I3
ssg82
g4790
sg75
(lp4797
g68
(g77
g70
NtRp4798
(dp4799
g73
(dp4800
g81
I2
ssg82
Nsg75
(lp4801
sbasbasbasbasbasbasbasbag68
(g84
g70
NtRp4802
(dp4803
g73
(dp4804
sg82
g4657
sg75
(lp4805
g68
(g89
g70
NtRp4806
(dp4807
g73
(dp4808
sg82
g4802
sg75
(lp4809
g68
(g69
g70
NtRp4810
(dp4811
g73
(dp4812
g81
I4
ssg82
g4806
sg75
(lp4813
g68
(g77
g70
NtRp4814
(dp4815
g73
(dp4816
g81
I3
ssg82
Nsg75
(lp4817
g68
(g84
g70
NtRp4818
(dp4819
g73
(dp4820
sg82
g4814
sg75
(lp4821
g68
(g89
g70
NtRp4822
(dp4823
g73
(dp4824
sg82
g4818
sg75
(lp4825
g68
(g69
g70
NtRp4826
(dp4827
g73
(dp4828
g81
I3
ssg82
g4822
sg75
(lp4829
g4689
(S't\x05\x00\x00\x00About'
tRp4830
asbasbasbag68
(g84
g70
NtRp4831
(dp4832
g73
(dp4833
sg82
g4814
sg75
(lp4834
g68
(g89
g70
NtRp4835
(dp4836
g73
(dp4837
sg82
g4831
sg75
(lp4838
g68
(g69
g70
NtRp4839
(dp4840
g73
(dp4841
g81
I3
ssg82
g4835
sg75
(lp4842
g111
asbasbasbag68
(g84
g70
NtRp4843
(dp4844
g73
(dp4845
sg82
g4814
sg75
(lp4846
g68
(g89
g70
NtRp4847
(dp4848
g73
(dp4849
sg82
g4843
sg75
(lp4850
g68
(g69
g70
NtRp4851
(dp4852
g73
(dp4853
g81
I3
ssg82
g4847
sg75
(lp4854
S'/synopsis/about/index'
p4855
asbasbasbag68
(g84
g70
NtRp4856
(dp4857
g73
(dp4858
sg82
g4814
sg75
(lp4859
g68
(g89
g70
NtRp4860
(dp4861
g73
(dp4862
sg82
g4856
sg75
(lp4863
g68
(g69
g70
NtRp4864
(dp4865
g73
(dp4866
g81
I3
ssg82
g4860
sg75
(lp4867
g68
(g77
g70
NtRp4868
(dp4869
g73
(dp4870
g81
I2
ssg82
Nsg75
(lp4871
sbasbasbasbasbasbasbasbasbasbasbasbag68
(g84
g70
NtRp4872
(dp4873
g73
(dp4874
sg82
g4184
sg75
(lp4875
g68
(g89
g70
NtRp4876
(dp4877
g73
(dp4878
g93
g94
ssg82
g4872
sg75
(lp4879
S'meta'
p4880
asbag68
(g89
g70
NtRp4881
(dp4882
g73
(dp4883
g100
g101
ssg82
g4872
sg75
(lp4884
S':'
asbag68
(g89
g70
NtRp4885
(dp4886
g73
(dp4887
sg82
g4872
sg75
(lp4888
g68
(g69
g70
NtRp4889
(dp4890
g73
(dp4891
g81
I5
ssg82
g4885
sg75
(lp4892
g68
(g77
g70
NtRp4893
(dp4894
g73
(dp4895
g81
I4
ssg82
Nsg75
(lp4896
g68
(g84
g70
NtRp4897
(dp4898
g73
(dp4899
sg82
g4893
sg75
(lp4900
g68
(g89
g70
NtRp4901
(dp4902
g73
(dp4903
g93
g94
ssg82
g4897
sg75
(lp4904
S'author'
p4905
asbag68
(g89
g70
NtRp4906
(dp4907
g73
(dp4908
g100
g101
ssg82
g4897
sg75
(lp4909
S':'
asbag68
(g89
g70
NtRp4910
(dp4911
g73
(dp4912
sg82
g4897
sg75
(lp4913
g68
(g69
g70
NtRp4914
(dp4915
g73
(dp4916
g81
I4
ssg82
g4910
sg75
(lp4917
S'Your Name <you@example.com>'
p4918
asbasbasbag68
(g84
g70
NtRp4919
(dp4920
g73
(dp4921
sg82
g4893
sg75
(lp4922
g68
(g89
g70
NtRp4923
(dp4924
g73
(dp4925
g93
g94
ssg82
g4919
sg75
(lp4926
S'copyright'
p4927
asbag68
(g89
g70
NtRp4928
(dp4929
g73
(dp4930
g100
g101
ssg82
g4919
sg75
(lp4931
S':'
asbag68
(g89
g70
NtRp4932
(dp4933
g73
(dp4934
sg82
g4919
sg75
(lp4935
g68
(g69
g70
NtRp4936
(dp4937
g73
(dp4938
g81
I4
ssg82
g4932
sg75
(lp4939
S'Copyright 2011'
p4940
asbasbasbag68
(g84
g70
NtRp4941
(dp4942
g73
(dp4943
sg82
g4893
sg75
(lp4944
g68
(g89
g70
NtRp4945
(dp4946
g73
(dp4947
g93
g94
ssg82
g4941
sg75
(lp4948
S'description'
p4949
asbag68
(g89
g70
NtRp4950
(dp4951
g73
(dp4952
g100
g101
ssg82
g4941
sg75
(lp4953
S':'
asbag68
(g89
g70
NtRp4954
(dp4955
g73
(dp4956
sg82
g4941
sg75
(lp4957
g68
(g69
g70
NtRp4958
(dp4959
g73
(dp4960
g81
I4
ssg82
g4954
sg75
(lp4961
S'a cool new app'
p4962
asbasbasbag68
(g84
g70
NtRp4963
(dp4964
g73
(dp4965
sg82
g4893
sg75
(lp4966
g68
(g89
g70
NtRp4967
(dp4968
g73
(dp4969
g93
g94
ssg82
g4963
sg75
(lp4970
S'generator'
p4971
asbag68
(g89
g70
NtRp4972
(dp4973
g73
(dp4974
g100
g101
ssg82
g4963
sg75
(lp4975
S':'
asbag68
(g89
g70
NtRp4976
(dp4977
g73
(dp4978
sg82
g4963
sg75
(lp4979
g68
(g69
g70
NtRp4980
(dp4981
g73
(dp4982
g81
I4
ssg82
g4976
sg75
(lp4983
S'Web2py Web Framework'
p4984
asbasbasbag68
(g84
g70
NtRp4985
(dp4986
g73
(dp4987
sg82
g4893
sg75
(lp4988
g68
(g89
g70
NtRp4989
(dp4990
g73
(dp4991
g93
g94
ssg82
g4985
sg75
(lp4992
S'keywords'
p4993
asbag68
(g89
g70
NtRp4994
(dp4995
g73
(dp4996
g100
g101
ssg82
g4985
sg75
(lp4997
S':'
asbag68
(g89
g70
NtRp4998
(dp4999
g73
(dp5000
sg82
g4985
sg75
(lp5001
g68
(g69
g70
NtRp5002
(dp5003
g73
(dp5004
g81
I4
ssg82
g4998
sg75
(lp5005
S'web2py, python, framework'
p5006
asbasbasbasbasbasbasbag68
(g84
g70
NtRp5007
(dp5008
g73
(dp5009
sg82
g4184
sg75
(lp5010
g68
(g89
g70
NtRp5011
(dp5012
g73
(dp5013
g93
g94
ssg82
g5007
sg75
(lp5014
S'postprocessing'
p5015
asbag68
(g89
g70
NtRp5016
(dp5017
g73
(dp5018
g100
g101
ssg82
g5007
sg75
(lp5019
S':'
asbag68
(g89
g70
NtRp5020
(dp5021
g73
(dp5022
sg82
g5007
sg75
(lp5023
g68
(g69
g70
NtRp5024
(dp5025
g73
(dp5026
g81
I5
ssg82
g5020
sg75
(lp5027
g68
(g77
g70
NtRp5028
(dp5029
g73
(dp5030
g81
I4
ssg82
Nsg75
(lp5031
sbasbasbasbag68
(g84
g70
NtRp5032
(dp5033
g73
(dp5034
sg82
g4184
sg75
(lp5035
g68
(g89
g70
NtRp5036
(dp5037
g73
(dp5038
g93
g94
ssg82
g5032
sg75
(lp5039
S'session_file'
p5040
asbag68
(g89
g70
NtRp5041
(dp5042
g73
(dp5043
g100
g101
ssg82
g5032
sg75
(lp5044
S':'
asbag68
(g89
g70
NtRp5045
(dp5046
g73
(dp5047
sg82
g5032
sg75
(lp5048
g68
(g69
g70
NtRp5049
(dp5050
g73
(dp5051
g81
I5
ssg82
g5045
sg75
(lp5052
S"<open file '/home/kaique/Projects/web2py/applications/synopsis/sessions/127.0.0.1-22caa4ed-0448-4782-a756-bcb437fd81d3', mode 'rb+' at 0x334c1e0>"
p5053
asbasbasbag68
(g84
g70
NtRp5054
(dp5055
g73
(dp5056
sg82
g4184
sg75
(lp5057
g68
(g89
g70
NtRp5058
(dp5059
g73
(dp5060
g93
g94
ssg82
g5054
sg75
(lp5061
S'session_filename'
p5062
asbag68
(g89
g70
NtRp5063
(dp5064
g73
(dp5065
g100
g101
ssg82
g5054
sg75
(lp5066
S':'
asbag68
(g89
g70
NtRp5067
(dp5068
g73
(dp5069
sg82
g5054
sg75
(lp5070
g68
(g69
g70
NtRp5071
(dp5072
g73
(dp5073
g81
I5
ssg82
g5067
sg75
(lp5074
S'/home/kaique/Projects/web2py/applications/synopsis/sessions/127.0.0.1-22caa4ed-0448-4782-a756-bcb437fd81d3'
p5075
asbasbasbag68
(g84
g70
NtRp5076
(dp5077
g73
(dp5078
sg82
g4184
sg75
(lp5079
g68
(g89
g70
NtRp5080
(dp5081
g73
(dp5082
g93
g94
ssg82
g5076
sg75
(lp5083
S'session_id'
p5084
asbag68
(g89
g70
NtRp5085
(dp5086
g73
(dp5087
g100
g101
ssg82
g5076
sg75
(lp5088
S':'
asbag68
(g89
g70
NtRp5089
(dp5090
g73
(dp5091
sg82
g5076
sg75
(lp5092
g68
(g69
g70
NtRp5093
(dp5094
g73
(dp5095
g81
I5
ssg82
g5089
sg75
(lp5096
S'127.0.0.1-22caa4ed-0448-4782-a756-bcb437fd81d3'
p5097
asbasbasbag68
(g84
g70
NtRp5098
(dp5099
g73
(dp5100
sg82
g4184
sg75
(lp5101
g68
(g89
g70
NtRp5102
(dp5103
g73
(dp5104
g93
g94
ssg82
g5098
sg75
(lp5105
S'session_id_name'
p5106
asbag68
(g89
g70
NtRp5107
(dp5108
g73
(dp5109
g100
g101
ssg82
g5098
sg75
(lp5110
S':'
asbag68
(g89
g70
NtRp5111
(dp5112
g73
(dp5113
sg82
g5098
sg75
(lp5114
g68
(g69
g70
NtRp5115
(dp5116
g73
(dp5117
g81
I5
ssg82
g5111
sg75
(lp5118
g4241
asbasbasbag68
(g84
g70
NtRp5119
(dp5120
g73
(dp5121
sg82
g4184
sg75
(lp5122
g68
(g89
g70
NtRp5123
(dp5124
g73
(dp5125
g93
g94
ssg82
g5119
sg75
(lp5126
S'session_locked'
p5127
asbag68
(g89
g70
NtRp5128
(dp5129
g73
(dp5130
g100
g101
ssg82
g5119
sg75
(lp5131
S':'
asbag68
(g89
g70
NtRp5132
(dp5133
g73
(dp5134
sg82
g5119
sg75
(lp5135
g68
(g69
g70
NtRp5136
(dp5137
g73
(dp5138
g81
I5
ssg82
g5132
sg75
(lp5139
g2149
asbasbasbag68
(g84
g70
NtRp5140
(dp5141
g73
(dp5142
sg82
g4184
sg75
(lp5143
g68
(g89
g70
NtRp5144
(dp5145
g73
(dp5146
g93
g94
ssg82
g5140
sg75
(lp5147
S'session_new'
p5148
asbag68
(g89
g70
NtRp5149
(dp5150
g73
(dp5151
g100
g101
ssg82
g5140
sg75
(lp5152
S':'
asbag68
(g89
g70
NtRp5153
(dp5154
g73
(dp5155
sg82
g5140
sg75
(lp5156
g68
(g69
g70
NtRp5157
(dp5158
g73
(dp5159
g81
I5
ssg82
g5153
sg75
(lp5160
g111
asbasbasbag68
(g84
g70
NtRp5161
(dp5162
g73
(dp5163
sg82
g4184
sg75
(lp5164
g68
(g89
g70
NtRp5165
(dp5166
g73
(dp5167
g93
g94
ssg82
g5161
sg75
(lp5168
S'status'
p5169
asbag68
(g89
g70
NtRp5170
(dp5171
g73
(dp5172
g100
g101
ssg82
g5161
sg75
(lp5173
S':'
asbag68
(g89
g70
NtRp5174
(dp5175
g73
(dp5176
sg82
g5161
sg75
(lp5177
g68
(g69
g70
NtRp5178
(dp5179
g73
(dp5180
g81
I5
ssg82
g5174
sg75
(lp5181
S'200'
p5182
asbasbasbag68
(g84
g70
NtRp5183
(dp5184
g73
(dp5185
sg82
g4184
sg75
(lp5186
g68
(g89
g70
NtRp5187
(dp5188
g73
(dp5189
g93
g94
ssg82
g5183
sg75
(lp5190
S'subtitle'
p5191
asbag68
(g89
g70
NtRp5192
(dp5193
g73
(dp5194
g100
g101
ssg82
g5183
sg75
(lp5195
S':'
asbag68
(g89
g70
NtRp5196
(dp5197
g73
(dp5198
sg82
g5183
sg75
(lp5199
g68
(g69
g70
NtRp5200
(dp5201
g73
(dp5202
g81
I5
ssg82
g5196
sg75
(lp5203
g4689
(S's\x0f\x00\x00\x00Personalize-me!'
tRp5204
asbasbasbag68
(g84
g70
NtRp5205
(dp5206
g73
(dp5207
sg82
g4184
sg75
(lp5208
g68
(g89
g70
NtRp5209
(dp5210
g73
(dp5211
g93
g94
ssg82
g5205
sg75
(lp5212
S'title'
p5213
asbag68
(g89
g70
NtRp5214
(dp5215
g73
(dp5216
g100
g101
ssg82
g5205
sg75
(lp5217
S':'
asbag68
(g89
g70
NtRp5218
(dp5219
g73
(dp5220
sg82
g5205
sg75
(lp5221
g68
(g69
g70
NtRp5222
(dp5223
g73
(dp5224
g81
I5
ssg82
g5218
sg75
(lp5225
g133
asbasbasbag68
(g84
g70
NtRp5226
(dp5227
g73
(dp5228
sg82
g4184
sg75
(lp5229
g68
(g89
g70
NtRp5230
(dp5231
g73
(dp5232
g93
g94
ssg82
g5226
sg75
(lp5233
g2837
asbag68
(g89
g70
NtRp5234
(dp5235
g73
(dp5236
g100
g101
ssg82
g5226
sg75
(lp5237
S':'
asbag68
(g89
g70
NtRp5238
(dp5239
g73
(dp5240
sg82
g5226
sg75
(lp5241
g68
(g69
g70
NtRp5242
(dp5243
g73
(dp5244
g81
I5
ssg82
g5238
sg75
(lp5245
g2850
asbasbasbag68
(g84
g70
NtRp5246
(dp5247
g73
(dp5248
sg82
g4184
sg75
(lp5249
g68
(g89
g70
NtRp5250
(dp5251
g73
(dp5252
g93
g94
ssg82
g5246
sg75
(lp5253
S'view'
p5254
asbag68
(g89
g70
NtRp5255
(dp5256
g73
(dp5257
g100
g101
ssg82
g5246
sg75
(lp5258
S':'
asbag68
(g89
g70
NtRp5259
(dp5260
g73
(dp5261
sg82
g5246
sg75
(lp5262
g68
(g69
g70
NtRp5263
(dp5264
g73
(dp5265
g81
I5
ssg82
g5259
sg75
(lp5266
S'information/new.html'
p5267
asbasbasbasbasbsS'locals'
p5268
(dp5269
S'name'
p5270
S"'publication_id'"
p5271
sS'fields'
p5272
S"{'content': 'test', 'publication_id': '1'}"
p5273
sS'self'
p5274
S"<Table {'content': <gluon.dal.Field object at 0x...0>, 'id': <gluon.dal.Field object at 0x2dd7a10>}>"
p5275
sS'update'
p5276
g111
sS'new_fields_names'
p5277
S'[]'
p5278
sS'new_fields'
p5279
S'[]'
p5280
sssS'traceback'
p5281
S'Traceback (most recent call last):\n  File "/home/kaique/Projects/web2py/gluon/restricted.py", line 194, in restricted\n    exec ccode in environment\n  File "/home/kaique/Projects/web2py/applications/synopsis/controllers/information.py", line 108, in <module>\n  File "/home/kaique/Projects/web2py/gluon/globals.py", line 149, in <lambda>\n    self._caller = lambda f: f()\n  File "/home/kaique/Projects/web2py/gluon/tools.py", line 2456, in f\n    return action(*a, **b)\n  File "/home/kaique/Projects/web2py/applications/synopsis/controllers/information.py", line 66, in new\n    if quote.process().accepted:\n  File "/home/kaique/Projects/web2py/gluon/html.py", line 1950, in process\n    self.validate(**kwargs)\n  File "/home/kaique/Projects/web2py/gluon/html.py", line 1898, in validate\n    if self.accepts(**kwargs):\n  File "/home/kaique/Projects/web2py/gluon/sqlhtml.py", line 1259, in accepts\n    self.vars.id = self.table.insert(**fields)\n  File "/home/kaique/Projects/web2py/gluon/dal.py", line 4976, in insert\n    return self._db._adapter.insert(self,self._listify(fields))\n  File "/home/kaique/Projects/web2py/gluon/dal.py", line 4952, in _listify\n    raise SyntaxError, \'Field %s does not belong to the table\' % name\nSyntaxError: Field publication_id does not belong to the table\n'
p5282
s.