(dp1
S'output'
p2
S''
sS'layer'
p3
S'/home/kaique/Projects/web2py/applications/synopsis/views/information/publication.html'
p4
sS'code'
p5
S'response.write(\'<!DOCTYPE html>\\n<html lang="\', escape=False)\nresponse.write(T.accepted_language or \'en\')\nresponse.write(\'" class="no-js"><!-- no-js need it for modernzr -->\\n  <head>\\n    \\n    <meta charset="utf-8" />        \\n    <!-- www.phpied.com/conditional-comments-block-downloads/ -->\\n    <!--[if IE]>\\n      <!-- Always force latest IE rendering engine \\n       (even in intranet) & Chrome Frame \\n       Remove this if you use the .htaccess -->\\n      <meta http-equiv="X-UA-Compatible" content="IE=edge,chrome=1">\\n    <![endif]-->    \\n\\n    <title>\', escape=False)\nresponse.write(response.title or request.application)\nresponse.write(\'</title>\\n    \\n    <!-- http://dev.w3.org/html5/markup/meta.name.html -->\\n    <meta name="application-name" content="\', escape=False)\nresponse.write(request.application)\nresponse.write(\'" /> \\n    \\n    <!-- Speaking of Google, don\\\'t forget to set your site up: \\n     http://google.com/webmasters -->\\n    <meta name="google-site-verification" content="" />\\n    \\n    <!--  Mobile Viewport Fix\\n      j.mp/mobileviewport & davidbcalhoun.com/2010/viewport-metatag \\n      device-width: Occupy full width of the screen in its current orientation\\n      initial-scale = 1.0 retains dimensions instead of zooming out if page height > device height\\n      maximum-scale = 1.0 retains dimensions instead of zooming in if page width < device width\\n      -->\\n    <meta name="viewport" content="width=device-width, initial-scale=1.0, maximum-scale=1.0">\\n    \\n    <!-- Place favicon.ico and apple-touch-icon.png in the root of your domain and delete these references -->\\n    <link rel="shortcut icon" href="\', escape=False)\nresponse.write(URL(\'static\',\'favicon.ico\'))\nresponse.write(\'" type="image/x-icon">\\n    <link rel="apple-touch-icon" href="\', escape=False)\nresponse.write(URL(\'static\',\'favicon.png\'))\nresponse.write(\'">\\n\\n    <!-- For the less-enabled mobile browsers like Opera Mini -->\\n    <link rel="stylesheet" media="handheld" href="\', escape=False)\nresponse.write(URL(\'static\',\'css/handheld.css\'))\nresponse.write(\'">\\n    \\n    <!-- All JavaScript at the bottom, except for Modernizr which enables HTML5 elements & feature detects -->\\n    <script src="\', escape=False)\nresponse.write(URL(\'static\',\'js/modernizr-1.7.min.js\'))\nresponse.write(\'"></script>\\n    \\n    \', escape=False)\n#------  require CSS and JS files for this page (read info in base.css) ------\nresponse.write(\'\\n    \', escape=False)\nresponse.files.append(URL(\'static\',\'css/base.css\'))\nresponse.write(\'\\n    \', escape=False)\nresponse.files.append(URL(\'static\',\'css/superfish.css\'))\nresponse.write(\'\\n    \', escape=False)\nresponse.files.append(URL(\'static\',\'js/superfish.js\'))\nresponse.write(\'\\n    \', escape=False)\n#------ include web2py specific js code (jquery, calendar, form stuff) ------\nresponse.write(\'\\n    \', escape=False)\nresponse.files.insert(0,URL(\'static\',\'js/jquery.js\'))\nresponse.files.insert(1,URL(\'static\',\'css/anytime.css\'))\nresponse.files.insert(2,URL(\'static\',\'js/anytime.js\'))\nresponse.include_meta()\nresponse.include_files()\nresponse.write(\'\\n<script type="text/javascript"><!--\\n    // These variables are used by the web2py_ajax_init function in web2py_ajax.js (which is loaded below).\\n    var w2p_ajax_confirm_message = "\', escape=False)\nresponse.write(T(\'Are you sure you want to delete this object?\'))\nresponse.write(\'";\\n    var w2p_ajax_date_format = "\', escape=False)\nresponse.write(T(\'%Y-%m-%d\'))\nresponse.write(\'";\\n    var w2p_ajax_datetime_format = "\', escape=False)\nresponse.write(T(\'%Y-%m-%d %H:%M:%S\'))\nresponse.write(\'";\\n    //--></script>\\n    <script src="\', escape=False)\nresponse.write(URL(\'static\',\'js/web2py_ajax.js\'))\nresponse.write(\'" type="text/javascript"></script>\\n\', escape=False)\nresponse.write(\'\\n\\n    \', escape=False)\n#using sidebars need to know what sidebar you want to use\n#prior of using it, because of static width size of content, you can use\n#left_sidebar, right_sidebar, both or none (False left and right)\nleft_sidebar_enabled = globals().get(\'left_sidebar_enabled\',False)\nright_sidebar_enabled = globals().get(\'right_sidebar_enabled\',False)\nif left_sidebar_enabled and right_sidebar_enabled: width_content=\'63%\'\nelif left_sidebar_enabled != right_sidebar_enabled: width_content=\'740px\'\nelse: width_content=\'100%\'\nif left_sidebar_enabled: left_sidebar_style = \'style="display: block;"\'\nelse: left_sidebar_style = \'style="display: none;"\'\nif right_sidebar_enabled: right_sidebar_style = \'style="display: block;"\'\nelse: right_sidebar_style = \'style="display: none;"\'\nstyle_content = \'style="width: %s"\' % width_content\nresponse.write(\'\\n    \\n    <!-- uncomment here to load jquery-ui -->\\n    \\n    <link rel="stylesheet" href="http://ajax.googleapis.com/ajax/libs/jqueryui/1.8.16/themes/base/jquery-ui.css" type="text/css" media="all" />\\n    <script src="http://ajax.googleapis.com/ajax/libs/jqueryui/1.8.16/jquery-ui.min.js" type="text/javascript"></script>\\n    \\n   <!-- uncomment to load jquery-ui -->\\n    \\n    \\n  </head>\\n  \\n  <!-- paulirish.com/2008/conditional-stylesheets-vs-css-hacks-answer-neither/ -->  \\n  <!--[if lt IE 7 ]> <body class="ie6"> <![endif]-->\\n  <!--[if IE 7 ]>    <body class="ie7"> <![endif]-->\\n  <!--[if IE 8 ]>    <body class="ie8"> <![endif]-->\\n  <!--[if IE 9 ]>    <body class="ie9"> <![endif]-->\\n  <!--[if (gt IE 9)|!(IE)]><!--> <body> <!--<![endif]-->\\n    \\n    <div class="flash">\', escape=False)\nresponse.write(response.flash or \'\')\nresponse.write(\'</div> <!-- notification div -->\\n\\n        \\n\\n    <div id="container">                        \\n      \\n      <div id="wrapper">        \\n      \', escape=False)\ntry:\n    response.write(auth.navbar(action=URL(\'default\',\'user\')))\nexcept:pass\nresponse.write(\'\\n    \\n    <div id="header"> <!-- header and login nav -->\\n      \', escape=False)\nresponse.write(\' <!-- this is default header -->\\n      \\n      <h1>\\n        <span id="appname">\', escape=False)\nresponse.write(request.application.capitalize())\nresponse.write(\'</span>App\\n      </h1>\\n      <div style="clear: both;"></div><!-- Clear the divs -->\\n      \', escape=False)\nresponse.write(\'\\n    </div><!-- header  -->\\n    \\n    <div id="statusbar"><!-- statusbar is menu zone -->\\n      \', escape=False)\nresponse.write(\' <!-- this is default statusbar -->\\n      \', escape=False)\n#------ superfish menu ------\nresponse.write(\'\\n      \', escape=False)\nresponse.write(MENU(response.menu,_class=\'sf-menu\'))\nresponse.write(\'\\n      <script type="text/javascript">\\n        jQuery(document).ready(function(){\\n        jQuery(\\\'ul.sf-menu\\\').superfish();});\\n      </script>\\n\\n      <!-- AddToAny BEGIN -->\\n      <div style="padding: 7px; float:right;" class="a2a_kit a2a_default_style"><a class="a2a_dd" href="http://www.addtoany.com/share_save">Share</a></div><script type="text/javascript" src="http://static.addtoany.com/menu/page.js"></script>\\n      <!-- AddToAny END -->\\n\\n      <div style="clear: both;"></div><!-- Clear the divs -->   \\n      \', escape=False)\nresponse.write(\'               \\n    </div><!-- statusbar -->\\n    \\n    <div id="page"> <!-- Here my central body -->     \\n\\n      \', escape=False)\nif left_sidebar_enabled:\n    response.write(\'\\n          <div id="left_sidebar" \', escape=False)\n    response.write(XML(left_sidebar_style))\n    response.write(\' >\\n            <div style="padding: 4px;">\\n          \', escape=False)\n    response.write(\'Content Left Sidebar\', escape=False)\n    response.write(\'       \\n            </div>\\n          </div><!-- left_sidebar -->\\n      \', escape=False)\n    pass\nresponse.write(\'\\n\\n      <!-- content -->\\n      <div id="content" \', escape=False)\nresponse.write(XML(style_content))\nresponse.write(\' >\\n        \', escape=False)\nresponse.write(\'\\n\\n<div class="content">\\n\\t<section>\\n\\t\\t<article>\\n\\t\\t\\t\', escape=False)\nfor detail in publication:\n    response.write(\'\\n\\t\\t\\t<header>\\n\\t\\t\\t\\t\', escape=False)\n    response.write(A( T(\'Go to publications\'), _href=URL(\'profile\', args=[session.index]) ))\n    response.write(\' |\\n\\t\\t\\t\\t\', escape=False)\n    response.write(A( T(\'Insert a quote\'), _href=URL(\'new\', args=[\'quote\', request.args[0]]) ))\n    response.write(\' |\\n\\t\\t\\t\\t\', escape=False)\n    response.write(A(T(\'Insert a new column\'), _href=URL(\'new\', args=[\'column\', request.args[0]]) ))\n    response.write(\'\\n\\t\\t\\t\\t<hr />\\n\\t\\t\\t\\t<h1>\', escape=False)\n    response.write(detail.title)\n    response.write(\'</h1>\\n\\t\\t\\t\\t<h4 style="font-weight: 200;">\', escape=False)\n    if detail.sub_title:\n        response.write(\' \', escape=False)\n        response.write(detail.sub_title)\n        response.write(\' \', escape=False)\n        pass\n    response.write(\'</h4>\\n\\t\\t\\t\\t<hr />\\n\\t\\t\\t</header>\\n\\t\\t\\t<div>\\t\\n\\t\\t\\t\\t<table style="border: 1px solid #ccc; margin: 10px 0 10px;">\\n\\t\\t\\t\\t\\t<thead>\\n\\t\\t\\t\\t\\t\\t<tr>\\n\\t\\t\\t\\t\\t\\t\\t\', escape=False)\n    for column in detail.column.select():\n        response.write(\'\\n\\t\\t\\t\\t\\t\\t\\t\\t<td>\', escape=False)\n        response.write(A(column.title, _href=URL(\'new\', args=[\'row\', column.id])))\n        response.write(\'</td>\\n\\t\\t\\t\\t\\t\\t\\t\', escape=False)\n        pass\n    response.write(\'\\t\\t\\t\\t\\t\\t\\t\\n\\t\\t\\t\\t\\t\\t</tr>\\n\\t\\t\\t\\t\\t</thead>\\n\\t\\t\\t\\t\\t<tbody>\\n\\t\\t\\t\\t\\t\\t\', escape=False)\n    columns_n = detail.column.count()\n    response.write(\'\\n\\t\\t\\t\\t\\t\\t\', escape=False)\n    rows_n = column.row.count()\n    response.write(\'\\n\\t\\t\\t\\t\\t\\t\', escape=False)\n    columns = [column for column in detail.column.select()]\n    response.write(\'\\n\\t\\t\\t\\t\\t\\t\', escape=False)\n    rows = [row for row in column.row.select()]\n    response.write(\'\\n\\t\\t\\t\\t\\t\\t\', escape=False)\n    lines = {}\n    response.write(\'\\n\\t\\t\\t\\t\\t\\t\\n\\t\\t\\t\\t\\t\\t\', escape=False)\n    for rn in range(rows_n):\n        response.write(\'\\n\\t\\t\\t\\t\\t\\t\\t\', escape=False)\n        for ln in range(columns_n+1):\n            response.write(\'\\n\\t\\t\\t\\t\\t\\t\\t\\t\', escape=False)\n            if ln > 0:\n                response.write(\'\\n\\t\\t\\t\\t\\t\\t\\t\\t\\t\', escape=False)\n                if not ln == columns_n:\n                    response.write(\'\\n\\t\\t\\t\\t\\t\\t\\t\\t\\t\\t\', escape=False)\n                    # append a new column\n                    response.write(\'\\n\\t\\t\\t\\t\\t\\t\\t\\t\\t\', escape=False)\n                elif ln == columns_n:\n                    response.write(\'\\n\\t\\t\\t\\t\\t\\t\\t\\t\\t\\t\', escape=False)\n                    # create a new row\n                    response.write(\'\\n\\t\\t\\t\\t\\t\\t\\t\\t\\t\', escape=False)\n                elif ln == 1:\n                    response.write(\'\\n\\t\\t\\t\\t\\t\\t\\t\\t\\t\\t\', escape=False)\n                    # create a first line\n                    response.write(\'\\t\\t\\t\\t\\t\\t\\t\\t\\n\\t\\t\\t\\t\\t\\t\\t\\t\\t\', escape=False)\n                    pass\n                response.write(\'\\n\\t\\t\\t\\t\\t\\t\\t\\t\', escape=False)\n                pass\n            response.write(\'\\n\\t\\t\\t\\t\\t\\t\\t\', escape=False)\n            pass\n        response.write(\'\\n\\t\\t\\t\\t\\t\\t\', escape=False)\n        pass\n    response.write(\'\\n\\t\\t\\t\\t\\t\\t\\n\\t\\t\\t\\t\\t\\t\', escape=False)\n    for line in lines:\n        response.write(\'\\n\\t\\t\\t\\t\\t\\t\\t\', escape=False)\n        response.write(lines[line])\n        response.write(\'\\n\\t\\t\\t\\t\\t\\t\', escape=False)\n        pass\n    response.write(\'\\n\\t\\t\\t\\t\\t</tbody>\\n\\t\\t\\t\\t</table>\\n\\t\\t\\t\\t<div classs="quote">\\n\\t\\t\\t\\t\', escape=False)\n    for quote in detail.quote.select(orderby=\'date\'):\n        response.write(\'\\n\\t\\t\\t\\t\\t<p>\', escape=False)\n        response.write(quote.content)\n        response.write(\'</p>\\n\\t\\t\\t\\t\', escape=False)\n        pass\n    response.write(\'\\n\\t\\t\\t\\t</div>\\n\\t\\t\\t</div>\\n\\t\\t\\t\', escape=False)\n    pass\nresponse.write(\'\\n\\t\\t</article>\\n\\t</section>\\n</div>\\n\', escape=False)\nresponse.write(\' \\n      </div>\\n      <!-- content -->\\n\\n      \', escape=False)\nif right_sidebar_enabled:\n    response.write(\'\\n          <div id="right_sidebar" \', escape=False)\n    response.write(XML(right_sidebar_style))\n    response.write(\' >\\n            <div style="padding: 4px;">\\n              \', escape=False)\n    response.write(\'Content Right Sidebar\', escape=False)\n    response.write(\'\\n            </div>\\n      </div><!-- right_sidebar -->\\n          \', escape=False)\n    pass\nresponse.write(\'\\n\\n\\n      <div style="clear: both;"></div><!-- Clear the divs -->\\n      \\n    </div><!-- page -->                         \\n    \\n    <div id="footer">\\n      \', escape=False)\nresponse.write(\' <!-- this is default footer -->\\n      <a href="http://www.web2py.com/" style="float: left; padding-right: 6px;">\\n        <img src="\', escape=False)\nresponse.write(URL(\'static\',\'images/poweredby.png\'))\nresponse.write(\'"/>\\n      </a>\\n      \', escape=False)\nresponse.write(T(\'Copyright\'))\nresponse.write(\' &#169; 2011               \\n      <div style="clear: both;"></div><!-- Clear the divs -->\\n      \', escape=False)\nresponse.write(\'\\n\\n    </div><!-- footer -->           \\n      </div><!-- wrapper -->\\n    </div><!-- container -->        \\n    \\n    <!--[if lt IE 7 ]>\\n    <script src="\', escape=False)\nresponse.write(URL(\'static\',\'js/dd_belatedpng.js\'))\nresponse.write(\'"></script>\\n    <script> DD_belatedPNG.fix(\\\'img, .png_bg\\\'); //fix any <img> or .png_bg background-images </script>\\n    <![endif]-->\\n    \', escape=False)\nif response.google_analytics_id:\n    response.write("<script>/* http://mathiasbynens.be/notes/async-analytics-snippet */ var _gaq=[[\'_setAccount\',\'", escape=False)\n    response.write(response.google_analyitics_id)\n    response.write("\'],[\'_trackPageview\']];(function(d,t){var g=d.createElement(t),s=d.getElementsByTagName(t)[0];g.src=\'//www.google-analytics.com/ga.js\';s.parentNode.insertBefore(g,s)}(document,\'script\')) </script>", escape=False)\n    pass\nresponse.write(\'\\n  </body>\\n</html>\\n\', escape=False)'
p6
sS'snapshot'
p7
(dp8
S'exception'
p9
(dp10
S'__module__'
p11
S"'sqlite3'"
p12
sS'__getslice__'
p13
S"<method-wrapper '__getslice__' of OperationalError object>"
p14
sS'__str__'
p15
S"<method-wrapper '__str__' of OperationalError object>"
p16
sS'__reduce__'
p17
S'<built-in method __reduce__ of OperationalError object>'
p18
sS'__dict__'
p19
S'{}'
p20
sS'__sizeof__'
p21
S'<built-in method __sizeof__ of OperationalError object>'
p22
sS'__weakref__'
p23
S'None'
p24
sS'__init__'
p25
S"<method-wrapper '__init__' of OperationalError object>"
p26
sS'__setattr__'
p27
S"<method-wrapper '__setattr__' of OperationalError object>"
p28
sS'__reduce_ex__'
p29
S'<built-in method __reduce_ex__ of OperationalError object>'
p30
sS'__new__'
p31
S'<built-in method __new__ of type object>'
p32
sS'__format__'
p33
S'<built-in method __format__ of OperationalError object>'
p34
sS'__class__'
p35
S"<class 'sqlite3.OperationalError'>"
p36
sS'__doc__'
p37
S'None'
p38
sS'__getitem__'
p39
S"<method-wrapper '__getitem__' of OperationalError object>"
p40
sS'__setstate__'
p41
S'<built-in method __setstate__ of OperationalError object>'
p42
sS'__getattribute__'
p43
S"<method-wrapper '__getattribute__' of OperationalError object>"
p44
sS'args'
p45
S"('no such column: date',)"
p46
sS'__subclasshook__'
p47
S'<built-in method __subclasshook__ of type object>'
p48
sS'__unicode__'
p49
S'<built-in method __unicode__ of OperationalError object>'
p50
sS'__delattr__'
p51
S"<method-wrapper '__delattr__' of OperationalError object>"
p52
sS'__repr__'
p53
S"<method-wrapper '__repr__' of OperationalError object>"
p54
sS'__hash__'
p55
S"<method-wrapper '__hash__' of OperationalError object>"
p56
ssS'evalue'
p57
S'no such column: date'
p58
sS'request'
p59
ccopy_reg
_reconstructor
p60
(cgluon.html
BEAUTIFY
p61
c__builtin__
object
p62
NtRp63
(dp64
S'attributes'
p65
(dp66
sS'components'
p67
(lp68
g60
(cgluon.html
TABLE
p69
g62
NtRp70
(dp71
g65
(dp72
S'level'
p73
I5
ssS'parent'
p74
Nsg67
(lp75
g60
(cgluon.html
TR
p76
g62
NtRp77
(dp78
g65
(dp79
sg74
g70
sg67
(lp80
g60
(cgluon.html
TD
p81
g62
NtRp82
(dp83
g65
(dp84
S'_style'
p85
S'font-weight:bold;'
p86
ssg74
g77
sg67
(lp87
S'ajax'
p88
asbag60
(g81
g62
NtRp89
(dp90
g65
(dp91
S'_valign'
p92
S'top'
p93
ssg74
g77
sg67
(lp94
S':'
asbag60
(g81
g62
NtRp95
(dp96
g65
(dp97
sg74
g77
sg67
(lp98
g60
(g61
g62
NtRp99
(dp100
g65
(dp101
g73
I5
ssg74
g95
sg67
(lp102
S'False'
p103
asbasbasbag60
(g76
g62
NtRp104
(dp105
g65
(dp106
sg74
g70
sg67
(lp107
g60
(g81
g62
NtRp108
(dp109
g65
(dp110
g85
g86
ssg74
g104
sg67
(lp111
S'application'
p112
asbag60
(g81
g62
NtRp113
(dp114
g65
(dp115
g92
g93
ssg74
g104
sg67
(lp116
S':'
asbag60
(g81
g62
NtRp117
(dp118
g65
(dp119
sg74
g104
sg67
(lp120
g60
(g61
g62
NtRp121
(dp122
g65
(dp123
g73
I5
ssg74
g117
sg67
(lp124
S'synopsis'
p125
asbasbasbag60
(g76
g62
NtRp126
(dp127
g65
(dp128
sg74
g70
sg67
(lp129
g60
(g81
g62
NtRp130
(dp131
g65
(dp132
g85
g86
ssg74
g126
sg67
(lp133
g45
asbag60
(g81
g62
NtRp134
(dp135
g65
(dp136
g92
g93
ssg74
g126
sg67
(lp137
S':'
asbag60
(g81
g62
NtRp138
(dp139
g65
(dp140
sg74
g126
sg67
(lp141
g60
(g61
g62
NtRp142
(dp143
g65
(dp144
g73
I5
ssg74
g138
sg67
(lp145
g60
(g69
g62
NtRp146
(dp147
g65
(dp148
g73
I4
ssg74
Nsg67
(lp149
g60
(g76
g62
NtRp150
(dp151
g65
(dp152
sg74
g146
sg67
(lp153
g60
(g81
g62
NtRp154
(dp155
g65
(dp156
sg74
g150
sg67
(lp157
g60
(g61
g62
NtRp158
(dp159
g65
(dp160
g73
I4
ssg74
g154
sg67
(lp161
S'9'
asbasbasbasbasbasbasbag60
(g76
g62
NtRp162
(dp163
g65
(dp164
sg74
g70
sg67
(lp165
g60
(g81
g62
NtRp166
(dp167
g65
(dp168
g85
g86
ssg74
g162
sg67
(lp169
S'body'
p170
asbag60
(g81
g62
NtRp171
(dp172
g65
(dp173
g92
g93
ssg74
g162
sg67
(lp174
S':'
asbag60
(g81
g62
NtRp175
(dp176
g65
(dp177
sg74
g162
sg67
(lp178
g60
(g61
g62
NtRp179
(dp180
g65
(dp181
g73
I5
ssg74
g175
sg67
(lp182
S'<cStringIO.StringO object at 0x30636f8>'
p183
asbasbasbag60
(g76
g62
NtRp184
(dp185
g65
(dp186
sg74
g70
sg67
(lp187
g60
(g81
g62
NtRp188
(dp189
g65
(dp190
g85
g86
ssg74
g184
sg67
(lp191
S'client'
p192
asbag60
(g81
g62
NtRp193
(dp194
g65
(dp195
g92
g93
ssg74
g184
sg67
(lp196
S':'
asbag60
(g81
g62
NtRp197
(dp198
g65
(dp199
sg74
g184
sg67
(lp200
g60
(g61
g62
NtRp201
(dp202
g65
(dp203
g73
I5
ssg74
g197
sg67
(lp204
S'127.0.0.1'
p205
asbasbasbag60
(g76
g62
NtRp206
(dp207
g65
(dp208
sg74
g70
sg67
(lp209
g60
(g81
g62
NtRp210
(dp211
g65
(dp212
g85
g86
ssg74
g206
sg67
(lp213
S'controller'
p214
asbag60
(g81
g62
NtRp215
(dp216
g65
(dp217
g92
g93
ssg74
g206
sg67
(lp218
S':'
asbag60
(g81
g62
NtRp219
(dp220
g65
(dp221
sg74
g206
sg67
(lp222
g60
(g61
g62
NtRp223
(dp224
g65
(dp225
g73
I5
ssg74
g219
sg67
(lp226
S'information'
p227
asbasbasbag60
(g76
g62
NtRp228
(dp229
g65
(dp230
sg74
g70
sg67
(lp231
g60
(g81
g62
NtRp232
(dp233
g65
(dp234
g85
g86
ssg74
g228
sg67
(lp235
S'cookies'
p236
asbag60
(g81
g62
NtRp237
(dp238
g65
(dp239
g92
g93
ssg74
g228
sg67
(lp240
S':'
asbag60
(g81
g62
NtRp241
(dp242
g65
(dp243
sg74
g228
sg67
(lp244
g60
(g61
g62
NtRp245
(dp246
g65
(dp247
g73
I5
ssg74
g241
sg67
(lp248
g60
(g69
g62
NtRp249
(dp250
g65
(dp251
g73
I4
ssg74
Nsg67
(lp252
g60
(g76
g62
NtRp253
(dp254
g65
(dp255
sg74
g249
sg67
(lp256
g60
(g81
g62
NtRp257
(dp258
g65
(dp259
g85
g86
ssg74
g253
sg67
(lp260
S'currency'
p261
asbag60
(g81
g62
NtRp262
(dp263
g65
(dp264
g92
g93
ssg74
g253
sg67
(lp265
S':'
asbag60
(g81
g62
NtRp266
(dp267
g65
(dp268
sg74
g253
sg67
(lp269
g60
(g61
g62
NtRp270
(dp271
g65
(dp272
g73
I4
ssg74
g266
sg67
(lp273
g60
(g69
g62
NtRp274
(dp275
g65
(dp276
g73
I3
ssg74
Nsg67
(lp277
g60
(g76
g62
NtRp278
(dp279
g65
(dp280
sg74
g274
sg67
(lp281
g60
(g81
g62
NtRp282
(dp283
g65
(dp284
g85
g86
ssg74
g278
sg67
(lp285
S'comment'
p286
asbag60
(g81
g62
NtRp287
(dp288
g65
(dp289
g92
g93
ssg74
g278
sg67
(lp290
S':'
asbag60
(g81
g62
NtRp291
(dp292
g65
(dp293
sg74
g278
sg67
(lp294
g60
(g61
g62
NtRp295
(dp296
g65
(dp297
g73
I3
ssg74
g291
sg67
(lp298
S''
asbasbasbag60
(g76
g62
NtRp299
(dp300
g65
(dp301
sg74
g274
sg67
(lp302
g60
(g81
g62
NtRp303
(dp304
g65
(dp305
g85
g86
ssg74
g299
sg67
(lp306
S'domain'
p307
asbag60
(g81
g62
NtRp308
(dp309
g65
(dp310
g92
g93
ssg74
g299
sg67
(lp311
S':'
asbag60
(g81
g62
NtRp312
(dp313
g65
(dp314
sg74
g299
sg67
(lp315
g60
(g61
g62
NtRp316
(dp317
g65
(dp318
g73
I3
ssg74
g312
sg67
(lp319
S''
asbasbasbag60
(g76
g62
NtRp320
(dp321
g65
(dp322
sg74
g274
sg67
(lp323
g60
(g81
g62
NtRp324
(dp325
g65
(dp326
g85
g86
ssg74
g320
sg67
(lp327
S'expires'
p328
asbag60
(g81
g62
NtRp329
(dp330
g65
(dp331
g92
g93
ssg74
g320
sg67
(lp332
S':'
asbag60
(g81
g62
NtRp333
(dp334
g65
(dp335
sg74
g320
sg67
(lp336
g60
(g61
g62
NtRp337
(dp338
g65
(dp339
g73
I3
ssg74
g333
sg67
(lp340
S''
asbasbasbag60
(g76
g62
NtRp341
(dp342
g65
(dp343
sg74
g274
sg67
(lp344
g60
(g81
g62
NtRp345
(dp346
g65
(dp347
g85
g86
ssg74
g341
sg67
(lp348
S'httponly'
p349
asbag60
(g81
g62
NtRp350
(dp351
g65
(dp352
g92
g93
ssg74
g341
sg67
(lp353
S':'
asbag60
(g81
g62
NtRp354
(dp355
g65
(dp356
sg74
g341
sg67
(lp357
g60
(g61
g62
NtRp358
(dp359
g65
(dp360
g73
I3
ssg74
g354
sg67
(lp361
S''
asbasbasbag60
(g76
g62
NtRp362
(dp363
g65
(dp364
sg74
g274
sg67
(lp365
g60
(g81
g62
NtRp366
(dp367
g65
(dp368
g85
g86
ssg74
g362
sg67
(lp369
S'max-age'
p370
asbag60
(g81
g62
NtRp371
(dp372
g65
(dp373
g92
g93
ssg74
g362
sg67
(lp374
S':'
asbag60
(g81
g62
NtRp375
(dp376
g65
(dp377
sg74
g362
sg67
(lp378
g60
(g61
g62
NtRp379
(dp380
g65
(dp381
g73
I3
ssg74
g375
sg67
(lp382
S''
asbasbasbag60
(g76
g62
NtRp383
(dp384
g65
(dp385
sg74
g274
sg67
(lp386
g60
(g81
g62
NtRp387
(dp388
g65
(dp389
g85
g86
ssg74
g383
sg67
(lp390
S'path'
p391
asbag60
(g81
g62
NtRp392
(dp393
g65
(dp394
g92
g93
ssg74
g383
sg67
(lp395
S':'
asbag60
(g81
g62
NtRp396
(dp397
g65
(dp398
sg74
g383
sg67
(lp399
g60
(g61
g62
NtRp400
(dp401
g65
(dp402
g73
I3
ssg74
g396
sg67
(lp403
S''
asbasbasbag60
(g76
g62
NtRp404
(dp405
g65
(dp406
sg74
g274
sg67
(lp407
g60
(g81
g62
NtRp408
(dp409
g65
(dp410
g85
g86
ssg74
g404
sg67
(lp411
S'secure'
p412
asbag60
(g81
g62
NtRp413
(dp414
g65
(dp415
g92
g93
ssg74
g404
sg67
(lp416
S':'
asbag60
(g81
g62
NtRp417
(dp418
g65
(dp419
sg74
g404
sg67
(lp420
g60
(g61
g62
NtRp421
(dp422
g65
(dp423
g73
I3
ssg74
g417
sg67
(lp424
S''
asbasbasbag60
(g76
g62
NtRp425
(dp426
g65
(dp427
sg74
g274
sg67
(lp428
g60
(g81
g62
NtRp429
(dp430
g65
(dp431
g85
g86
ssg74
g425
sg67
(lp432
S'version'
p433
asbag60
(g81
g62
NtRp434
(dp435
g65
(dp436
g92
g93
ssg74
g425
sg67
(lp437
S':'
asbag60
(g81
g62
NtRp438
(dp439
g65
(dp440
sg74
g425
sg67
(lp441
g60
(g61
g62
NtRp442
(dp443
g65
(dp444
g73
I3
ssg74
g438
sg67
(lp445
S''
asbasbasbasbasbasbasbag60
(g76
g62
NtRp446
(dp447
g65
(dp448
sg74
g249
sg67
(lp449
g60
(g81
g62
NtRp450
(dp451
g65
(dp452
g85
g86
ssg74
g446
sg67
(lp453
S'session_id_admin'
p454
asbag60
(g81
g62
NtRp455
(dp456
g65
(dp457
g92
g93
ssg74
g446
sg67
(lp458
S':'
asbag60
(g81
g62
NtRp459
(dp460
g65
(dp461
sg74
g446
sg67
(lp462
g60
(g61
g62
NtRp463
(dp464
g65
(dp465
g73
I4
ssg74
g459
sg67
(lp466
g60
(g69
g62
NtRp467
(dp468
g65
(dp469
g73
I3
ssg74
Nsg67
(lp470
g60
(g76
g62
NtRp471
(dp472
g65
(dp473
sg74
g467
sg67
(lp474
g60
(g81
g62
NtRp475
(dp476
g65
(dp477
g85
g86
ssg74
g471
sg67
(lp478
g286
asbag60
(g81
g62
NtRp479
(dp480
g65
(dp481
g92
g93
ssg74
g471
sg67
(lp482
S':'
asbag60
(g81
g62
NtRp483
(dp484
g65
(dp485
sg74
g471
sg67
(lp486
g60
(g61
g62
NtRp487
(dp488
g65
(dp489
g73
I3
ssg74
g483
sg67
(lp490
S''
asbasbasbag60
(g76
g62
NtRp491
(dp492
g65
(dp493
sg74
g467
sg67
(lp494
g60
(g81
g62
NtRp495
(dp496
g65
(dp497
g85
g86
ssg74
g491
sg67
(lp498
g307
asbag60
(g81
g62
NtRp499
(dp500
g65
(dp501
g92
g93
ssg74
g491
sg67
(lp502
S':'
asbag60
(g81
g62
NtRp503
(dp504
g65
(dp505
sg74
g491
sg67
(lp506
g60
(g61
g62
NtRp507
(dp508
g65
(dp509
g73
I3
ssg74
g503
sg67
(lp510
S''
asbasbasbag60
(g76
g62
NtRp511
(dp512
g65
(dp513
sg74
g467
sg67
(lp514
g60
(g81
g62
NtRp515
(dp516
g65
(dp517
g85
g86
ssg74
g511
sg67
(lp518
g328
asbag60
(g81
g62
NtRp519
(dp520
g65
(dp521
g92
g93
ssg74
g511
sg67
(lp522
S':'
asbag60
(g81
g62
NtRp523
(dp524
g65
(dp525
sg74
g511
sg67
(lp526
g60
(g61
g62
NtRp527
(dp528
g65
(dp529
g73
I3
ssg74
g523
sg67
(lp530
S''
asbasbasbag60
(g76
g62
NtRp531
(dp532
g65
(dp533
sg74
g467
sg67
(lp534
g60
(g81
g62
NtRp535
(dp536
g65
(dp537
g85
g86
ssg74
g531
sg67
(lp538
g349
asbag60
(g81
g62
NtRp539
(dp540
g65
(dp541
g92
g93
ssg74
g531
sg67
(lp542
S':'
asbag60
(g81
g62
NtRp543
(dp544
g65
(dp545
sg74
g531
sg67
(lp546
g60
(g61
g62
NtRp547
(dp548
g65
(dp549
g73
I3
ssg74
g543
sg67
(lp550
S''
asbasbasbag60
(g76
g62
NtRp551
(dp552
g65
(dp553
sg74
g467
sg67
(lp554
g60
(g81
g62
NtRp555
(dp556
g65
(dp557
g85
g86
ssg74
g551
sg67
(lp558
g370
asbag60
(g81
g62
NtRp559
(dp560
g65
(dp561
g92
g93
ssg74
g551
sg67
(lp562
S':'
asbag60
(g81
g62
NtRp563
(dp564
g65
(dp565
sg74
g551
sg67
(lp566
g60
(g61
g62
NtRp567
(dp568
g65
(dp569
g73
I3
ssg74
g563
sg67
(lp570
S''
asbasbasbag60
(g76
g62
NtRp571
(dp572
g65
(dp573
sg74
g467
sg67
(lp574
g60
(g81
g62
NtRp575
(dp576
g65
(dp577
g85
g86
ssg74
g571
sg67
(lp578
g391
asbag60
(g81
g62
NtRp579
(dp580
g65
(dp581
g92
g93
ssg74
g571
sg67
(lp582
S':'
asbag60
(g81
g62
NtRp583
(dp584
g65
(dp585
sg74
g571
sg67
(lp586
g60
(g61
g62
NtRp587
(dp588
g65
(dp589
g73
I3
ssg74
g583
sg67
(lp590
S''
asbasbasbag60
(g76
g62
NtRp591
(dp592
g65
(dp593
sg74
g467
sg67
(lp594
g60
(g81
g62
NtRp595
(dp596
g65
(dp597
g85
g86
ssg74
g591
sg67
(lp598
g412
asbag60
(g81
g62
NtRp599
(dp600
g65
(dp601
g92
g93
ssg74
g591
sg67
(lp602
S':'
asbag60
(g81
g62
NtRp603
(dp604
g65
(dp605
sg74
g591
sg67
(lp606
g60
(g61
g62
NtRp607
(dp608
g65
(dp609
g73
I3
ssg74
g603
sg67
(lp610
S''
asbasbasbag60
(g76
g62
NtRp611
(dp612
g65
(dp613
sg74
g467
sg67
(lp614
g60
(g81
g62
NtRp615
(dp616
g65
(dp617
g85
g86
ssg74
g611
sg67
(lp618
g433
asbag60
(g81
g62
NtRp619
(dp620
g65
(dp621
g92
g93
ssg74
g611
sg67
(lp622
S':'
asbag60
(g81
g62
NtRp623
(dp624
g65
(dp625
sg74
g611
sg67
(lp626
g60
(g61
g62
NtRp627
(dp628
g65
(dp629
g73
I3
ssg74
g623
sg67
(lp630
S''
asbasbasbasbasbasbasbag60
(g76
g62
NtRp631
(dp632
g65
(dp633
sg74
g249
sg67
(lp634
g60
(g81
g62
NtRp635
(dp636
g65
(dp637
g85
g86
ssg74
g631
sg67
(lp638
S'session_id_synopsis'
p639
asbag60
(g81
g62
NtRp640
(dp641
g65
(dp642
g92
g93
ssg74
g631
sg67
(lp643
S':'
asbag60
(g81
g62
NtRp644
(dp645
g65
(dp646
sg74
g631
sg67
(lp647
g60
(g61
g62
NtRp648
(dp649
g65
(dp650
g73
I4
ssg74
g644
sg67
(lp651
g60
(g69
g62
NtRp652
(dp653
g65
(dp654
g73
I3
ssg74
Nsg67
(lp655
g60
(g76
g62
NtRp656
(dp657
g65
(dp658
sg74
g652
sg67
(lp659
g60
(g81
g62
NtRp660
(dp661
g65
(dp662
g85
g86
ssg74
g656
sg67
(lp663
g286
asbag60
(g81
g62
NtRp664
(dp665
g65
(dp666
g92
g93
ssg74
g656
sg67
(lp667
S':'
asbag60
(g81
g62
NtRp668
(dp669
g65
(dp670
sg74
g656
sg67
(lp671
g60
(g61
g62
NtRp672
(dp673
g65
(dp674
g73
I3
ssg74
g668
sg67
(lp675
S''
asbasbasbag60
(g76
g62
NtRp676
(dp677
g65
(dp678
sg74
g652
sg67
(lp679
g60
(g81
g62
NtRp680
(dp681
g65
(dp682
g85
g86
ssg74
g676
sg67
(lp683
g307
asbag60
(g81
g62
NtRp684
(dp685
g65
(dp686
g92
g93
ssg74
g676
sg67
(lp687
S':'
asbag60
(g81
g62
NtRp688
(dp689
g65
(dp690
sg74
g676
sg67
(lp691
g60
(g61
g62
NtRp692
(dp693
g65
(dp694
g73
I3
ssg74
g688
sg67
(lp695
S''
asbasbasbag60
(g76
g62
NtRp696
(dp697
g65
(dp698
sg74
g652
sg67
(lp699
g60
(g81
g62
NtRp700
(dp701
g65
(dp702
g85
g86
ssg74
g696
sg67
(lp703
g328
asbag60
(g81
g62
NtRp704
(dp705
g65
(dp706
g92
g93
ssg74
g696
sg67
(lp707
S':'
asbag60
(g81
g62
NtRp708
(dp709
g65
(dp710
sg74
g696
sg67
(lp711
g60
(g61
g62
NtRp712
(dp713
g65
(dp714
g73
I3
ssg74
g708
sg67
(lp715
S''
asbasbasbag60
(g76
g62
NtRp716
(dp717
g65
(dp718
sg74
g652
sg67
(lp719
g60
(g81
g62
NtRp720
(dp721
g65
(dp722
g85
g86
ssg74
g716
sg67
(lp723
g349
asbag60
(g81
g62
NtRp724
(dp725
g65
(dp726
g92
g93
ssg74
g716
sg67
(lp727
S':'
asbag60
(g81
g62
NtRp728
(dp729
g65
(dp730
sg74
g716
sg67
(lp731
g60
(g61
g62
NtRp732
(dp733
g65
(dp734
g73
I3
ssg74
g728
sg67
(lp735
S''
asbasbasbag60
(g76
g62
NtRp736
(dp737
g65
(dp738
sg74
g652
sg67
(lp739
g60
(g81
g62
NtRp740
(dp741
g65
(dp742
g85
g86
ssg74
g736
sg67
(lp743
g370
asbag60
(g81
g62
NtRp744
(dp745
g65
(dp746
g92
g93
ssg74
g736
sg67
(lp747
S':'
asbag60
(g81
g62
NtRp748
(dp749
g65
(dp750
sg74
g736
sg67
(lp751
g60
(g61
g62
NtRp752
(dp753
g65
(dp754
g73
I3
ssg74
g748
sg67
(lp755
S''
asbasbasbag60
(g76
g62
NtRp756
(dp757
g65
(dp758
sg74
g652
sg67
(lp759
g60
(g81
g62
NtRp760
(dp761
g65
(dp762
g85
g86
ssg74
g756
sg67
(lp763
g391
asbag60
(g81
g62
NtRp764
(dp765
g65
(dp766
g92
g93
ssg74
g756
sg67
(lp767
S':'
asbag60
(g81
g62
NtRp768
(dp769
g65
(dp770
sg74
g756
sg67
(lp771
g60
(g61
g62
NtRp772
(dp773
g65
(dp774
g73
I3
ssg74
g768
sg67
(lp775
S''
asbasbasbag60
(g76
g62
NtRp776
(dp777
g65
(dp778
sg74
g652
sg67
(lp779
g60
(g81
g62
NtRp780
(dp781
g65
(dp782
g85
g86
ssg74
g776
sg67
(lp783
g412
asbag60
(g81
g62
NtRp784
(dp785
g65
(dp786
g92
g93
ssg74
g776
sg67
(lp787
S':'
asbag60
(g81
g62
NtRp788
(dp789
g65
(dp790
sg74
g776
sg67
(lp791
g60
(g61
g62
NtRp792
(dp793
g65
(dp794
g73
I3
ssg74
g788
sg67
(lp795
S''
asbasbasbag60
(g76
g62
NtRp796
(dp797
g65
(dp798
sg74
g652
sg67
(lp799
g60
(g81
g62
NtRp800
(dp801
g65
(dp802
g85
g86
ssg74
g796
sg67
(lp803
g433
asbag60
(g81
g62
NtRp804
(dp805
g65
(dp806
g92
g93
ssg74
g796
sg67
(lp807
S':'
asbag60
(g81
g62
NtRp808
(dp809
g65
(dp810
sg74
g796
sg67
(lp811
g60
(g61
g62
NtRp812
(dp813
g65
(dp814
g73
I3
ssg74
g808
sg67
(lp815
S''
asbasbasbasbasbasbasbasbasbasbasbag60
(g76
g62
NtRp816
(dp817
g65
(dp818
sg74
g70
sg67
(lp819
g60
(g81
g62
NtRp820
(dp821
g65
(dp822
g85
g86
ssg74
g816
sg67
(lp823
S'env'
p824
asbag60
(g81
g62
NtRp825
(dp826
g65
(dp827
g92
g93
ssg74
g816
sg67
(lp828
S':'
asbag60
(g81
g62
NtRp829
(dp830
g65
(dp831
sg74
g816
sg67
(lp832
g60
(g61
g62
NtRp833
(dp834
g65
(dp835
g73
I5
ssg74
g829
sg67
(lp836
g60
(g69
g62
NtRp837
(dp838
g65
(dp839
g73
I4
ssg74
Nsg67
(lp840
g60
(g76
g62
NtRp841
(dp842
g65
(dp843
sg74
g837
sg67
(lp844
g60
(g81
g62
NtRp845
(dp846
g65
(dp847
g85
g86
ssg74
g841
sg67
(lp848
S'app_folders'
p849
asbag60
(g81
g62
NtRp850
(dp851
g65
(dp852
g92
g93
ssg74
g841
sg67
(lp853
S':'
asbag60
(g81
g62
NtRp854
(dp855
g65
(dp856
sg74
g841
sg67
(lp857
g60
(g61
g62
NtRp858
(dp859
g65
(dp860
g73
I4
ssg74
g854
sg67
(lp861
S"set(['/home/kaique/Projects/web2py/applications/synopsis/'])"
p862
asbasbasbag60
(g76
g62
NtRp863
(dp864
g65
(dp865
sg74
g837
sg67
(lp866
g60
(g81
g62
NtRp867
(dp868
g65
(dp869
g85
g86
ssg74
g863
sg67
(lp870
S'applications_parent'
p871
asbag60
(g81
g62
NtRp872
(dp873
g65
(dp874
g92
g93
ssg74
g863
sg67
(lp875
S':'
asbag60
(g81
g62
NtRp876
(dp877
g65
(dp878
sg74
g863
sg67
(lp879
g60
(g61
g62
NtRp880
(dp881
g65
(dp882
g73
I4
ssg74
g876
sg67
(lp883
S'/home/kaique/Projects/web2py'
p884
asbasbasbag60
(g76
g62
NtRp885
(dp886
g65
(dp887
sg74
g837
sg67
(lp888
g60
(g81
g62
NtRp889
(dp890
g65
(dp891
g85
g86
ssg74
g885
sg67
(lp892
S'cmd_args'
p893
asbag60
(g81
g62
NtRp894
(dp895
g65
(dp896
g92
g93
ssg74
g885
sg67
(lp897
S':'
asbag60
(g81
g62
NtRp898
(dp899
g65
(dp900
sg74
g885
sg67
(lp901
g60
(g61
g62
NtRp902
(dp903
g65
(dp904
g73
I4
ssg74
g898
sg67
(lp905
g60
(g69
g62
NtRp906
(dp907
g65
(dp908
g73
I3
ssg74
Nsg67
(lp909
sbasbasbasbag60
(g76
g62
NtRp910
(dp911
g65
(dp912
sg74
g837
sg67
(lp913
g60
(g81
g62
NtRp914
(dp915
g65
(dp916
g85
g86
ssg74
g910
sg67
(lp917
S'cmd_options'
p918
asbag60
(g81
g62
NtRp919
(dp920
g65
(dp921
g92
g93
ssg74
g910
sg67
(lp922
S':'
asbag60
(g81
g62
NtRp923
(dp924
g65
(dp925
sg74
g910
sg67
(lp926
g60
(g61
g62
NtRp927
(dp928
g65
(dp929
g73
I4
ssg74
g923
sg67
(lp930
S"<Values at 0x2b9f950: {'verbose': False, 'ip': '127.0.0.1', 'shutdown_timeout': 5, 'taskbar': False, 'nocron': False, 'pid_filename': 'httpserver.pid', 'maxthreads': None, 'softcron': False, 'server_name': 'kaique-Pine-Trail-M', 'bpython': False, 'nogui': False, 'port': 8000, 'extcron': False, 'debuglevel': 30, 'test': None, 'folder': '/home/kaique/Projects/web2py', 'config': '', 'import_models': False, 'winservice': '', 'shell': None, 'run': '', 'log_filename': 'httpserver.log', 'args': [''], 'ssl_ca_certificate': None, 'scheduler': None, 'profiler_filename': None, 'ssl_private_key': '', 'password': 'dev', 'request_queue_size': 5, 'ssl_certificate': '', 'cronjob': False, 'plain': False, 'quiet': False, 'interfaces': None, 'minthreads': None, 'timeout': 10, 'numthreads': None, 'nobanner': False}>"
p931
asbasbasbag60
(g76
g62
NtRp932
(dp933
g65
(dp934
sg74
g837
sg67
(lp935
g60
(g81
g62
NtRp936
(dp937
g65
(dp938
g85
g86
ssg74
g932
sg67
(lp939
S'db_sessions'
p940
asbag60
(g81
g62
NtRp941
(dp942
g65
(dp943
g92
g93
ssg74
g932
sg67
(lp944
S':'
asbag60
(g81
g62
NtRp945
(dp946
g65
(dp947
sg74
g932
sg67
(lp948
g60
(g61
g62
NtRp949
(dp950
g65
(dp951
g73
I4
ssg74
g945
sg67
(lp952
S'set([])'
p953
asbasbasbag60
(g76
g62
NtRp954
(dp955
g65
(dp956
sg74
g837
sg67
(lp957
g60
(g81
g62
NtRp958
(dp959
g65
(dp960
g85
g86
ssg74
g954
sg67
(lp961
S'debugging'
p962
asbag60
(g81
g62
NtRp963
(dp964
g65
(dp965
g92
g93
ssg74
g954
sg67
(lp966
S':'
asbag60
(g81
g62
NtRp967
(dp968
g65
(dp969
sg74
g954
sg67
(lp970
g60
(g61
g62
NtRp971
(dp972
g65
(dp973
g73
I4
ssg74
g967
sg67
(lp974
g103
asbasbasbag60
(g76
g62
NtRp975
(dp976
g65
(dp977
sg74
g837
sg67
(lp978
g60
(g81
g62
NtRp979
(dp980
g65
(dp981
g85
g86
ssg74
g975
sg67
(lp982
S'gluon_parent'
p983
asbag60
(g81
g62
NtRp984
(dp985
g65
(dp986
g92
g93
ssg74
g975
sg67
(lp987
S':'
asbag60
(g81
g62
NtRp988
(dp989
g65
(dp990
sg74
g975
sg67
(lp991
g60
(g61
g62
NtRp992
(dp993
g65
(dp994
g73
I4
ssg74
g988
sg67
(lp995
S'/home/kaique/Projects/web2py'
p996
asbasbasbag60
(g76
g62
NtRp997
(dp998
g65
(dp999
sg74
g837
sg67
(lp1000
g60
(g81
g62
NtRp1001
(dp1002
g65
(dp1003
g85
g86
ssg74
g997
sg67
(lp1004
S'http_accept'
p1005
asbag60
(g81
g62
NtRp1006
(dp1007
g65
(dp1008
g92
g93
ssg74
g997
sg67
(lp1009
S':'
asbag60
(g81
g62
NtRp1010
(dp1011
g65
(dp1012
sg74
g997
sg67
(lp1013
g60
(g61
g62
NtRp1014
(dp1015
g65
(dp1016
g73
I4
ssg74
g1010
sg67
(lp1017
S'text/html,application/xhtml+xml,application/xml;q=0.9,*/*;q=0.8'
p1018
asbasbasbag60
(g76
g62
NtRp1019
(dp1020
g65
(dp1021
sg74
g837
sg67
(lp1022
g60
(g81
g62
NtRp1023
(dp1024
g65
(dp1025
g85
g86
ssg74
g1019
sg67
(lp1026
S'http_accept_charset'
p1027
asbag60
(g81
g62
NtRp1028
(dp1029
g65
(dp1030
g92
g93
ssg74
g1019
sg67
(lp1031
S':'
asbag60
(g81
g62
NtRp1032
(dp1033
g65
(dp1034
sg74
g1019
sg67
(lp1035
g60
(g61
g62
NtRp1036
(dp1037
g65
(dp1038
g73
I4
ssg74
g1032
sg67
(lp1039
S'ISO-8859-1,utf-8;q=0.7,*;q=0.7'
p1040
asbasbasbag60
(g76
g62
NtRp1041
(dp1042
g65
(dp1043
sg74
g837
sg67
(lp1044
g60
(g81
g62
NtRp1045
(dp1046
g65
(dp1047
g85
g86
ssg74
g1041
sg67
(lp1048
S'http_accept_encoding'
p1049
asbag60
(g81
g62
NtRp1050
(dp1051
g65
(dp1052
g92
g93
ssg74
g1041
sg67
(lp1053
S':'
asbag60
(g81
g62
NtRp1054
(dp1055
g65
(dp1056
sg74
g1041
sg67
(lp1057
g60
(g61
g62
NtRp1058
(dp1059
g65
(dp1060
g73
I4
ssg74
g1054
sg67
(lp1061
S'gzip, deflate'
p1062
asbasbasbag60
(g76
g62
NtRp1063
(dp1064
g65
(dp1065
sg74
g837
sg67
(lp1066
g60
(g81
g62
NtRp1067
(dp1068
g65
(dp1069
g85
g86
ssg74
g1063
sg67
(lp1070
S'http_accept_language'
p1071
asbag60
(g81
g62
NtRp1072
(dp1073
g65
(dp1074
g92
g93
ssg74
g1063
sg67
(lp1075
S':'
asbag60
(g81
g62
NtRp1076
(dp1077
g65
(dp1078
sg74
g1063
sg67
(lp1079
g60
(g61
g62
NtRp1080
(dp1081
g65
(dp1082
g73
I4
ssg74
g1076
sg67
(lp1083
S'pt-br,pt;q=0.8,en-us;q=0.5,en;q=0.3'
p1084
asbasbasbag60
(g76
g62
NtRp1085
(dp1086
g65
(dp1087
sg74
g837
sg67
(lp1088
g60
(g81
g62
NtRp1089
(dp1090
g65
(dp1091
g85
g86
ssg74
g1085
sg67
(lp1092
S'http_cache_control'
p1093
asbag60
(g81
g62
NtRp1094
(dp1095
g65
(dp1096
g92
g93
ssg74
g1085
sg67
(lp1097
S':'
asbag60
(g81
g62
NtRp1098
(dp1099
g65
(dp1100
sg74
g1085
sg67
(lp1101
g60
(g61
g62
NtRp1102
(dp1103
g65
(dp1104
g73
I4
ssg74
g1098
sg67
(lp1105
S'max-age=0'
p1106
asbasbasbag60
(g76
g62
NtRp1107
(dp1108
g65
(dp1109
sg74
g837
sg67
(lp1110
g60
(g81
g62
NtRp1111
(dp1112
g65
(dp1113
g85
g86
ssg74
g1107
sg67
(lp1114
S'http_connection'
p1115
asbag60
(g81
g62
NtRp1116
(dp1117
g65
(dp1118
g92
g93
ssg74
g1107
sg67
(lp1119
S':'
asbag60
(g81
g62
NtRp1120
(dp1121
g65
(dp1122
sg74
g1107
sg67
(lp1123
g60
(g61
g62
NtRp1124
(dp1125
g65
(dp1126
g73
I4
ssg74
g1120
sg67
(lp1127
S'keep-alive'
p1128
asbasbasbag60
(g76
g62
NtRp1129
(dp1130
g65
(dp1131
sg74
g837
sg67
(lp1132
g60
(g81
g62
NtRp1133
(dp1134
g65
(dp1135
g85
g86
ssg74
g1129
sg67
(lp1136
S'http_cookie'
p1137
asbag60
(g81
g62
NtRp1138
(dp1139
g65
(dp1140
g92
g93
ssg74
g1129
sg67
(lp1141
S':'
asbag60
(g81
g62
NtRp1142
(dp1143
g65
(dp1144
sg74
g1129
sg67
(lp1145
g60
(g61
g62
NtRp1146
(dp1147
g65
(dp1148
g73
I4
ssg74
g1142
sg67
(lp1149
S'currency=GBP; session_id_admin=127.0.0.1-44ad6dc9-62e2-40f2-8f2d-4470bdf14d90; session_id_synopsis=127.0.0.1-6cb7001e-855b-469f-b7b5-c129d0f3ec70'
p1150
asbasbasbag60
(g76
g62
NtRp1151
(dp1152
g65
(dp1153
sg74
g837
sg67
(lp1154
g60
(g81
g62
NtRp1155
(dp1156
g65
(dp1157
g85
g86
ssg74
g1151
sg67
(lp1158
S'http_host'
p1159
asbag60
(g81
g62
NtRp1160
(dp1161
g65
(dp1162
g92
g93
ssg74
g1151
sg67
(lp1163
S':'
asbag60
(g81
g62
NtRp1164
(dp1165
g65
(dp1166
sg74
g1151
sg67
(lp1167
g60
(g61
g62
NtRp1168
(dp1169
g65
(dp1170
g73
I4
ssg74
g1164
sg67
(lp1171
S'localhost:8000'
p1172
asbasbasbag60
(g76
g62
NtRp1173
(dp1174
g65
(dp1175
sg74
g837
sg67
(lp1176
g60
(g81
g62
NtRp1177
(dp1178
g65
(dp1179
g85
g86
ssg74
g1173
sg67
(lp1180
S'http_referer'
p1181
asbag60
(g81
g62
NtRp1182
(dp1183
g65
(dp1184
g92
g93
ssg74
g1173
sg67
(lp1185
S':'
asbag60
(g81
g62
NtRp1186
(dp1187
g65
(dp1188
sg74
g1173
sg67
(lp1189
g60
(g61
g62
NtRp1190
(dp1191
g65
(dp1192
g73
I4
ssg74
g1186
sg67
(lp1193
S'http://localhost:8000/synopsis/information/new/quote/9'
p1194
asbasbasbag60
(g76
g62
NtRp1195
(dp1196
g65
(dp1197
sg74
g837
sg67
(lp1198
g60
(g81
g62
NtRp1199
(dp1200
g65
(dp1201
g85
g86
ssg74
g1195
sg67
(lp1202
S'http_user_agent'
p1203
asbag60
(g81
g62
NtRp1204
(dp1205
g65
(dp1206
g92
g93
ssg74
g1195
sg67
(lp1207
S':'
asbag60
(g81
g62
NtRp1208
(dp1209
g65
(dp1210
sg74
g1195
sg67
(lp1211
g60
(g61
g62
NtRp1212
(dp1213
g65
(dp1214
g73
I4
ssg74
g1208
sg67
(lp1215
S'Mozilla/5.0 (Ubuntu; X11; Linux x86_64; rv:9.0.1) Gecko/20100101 Firefox/9.0.1'
p1216
asbasbasbag60
(g76
g62
NtRp1217
(dp1218
g65
(dp1219
sg74
g837
sg67
(lp1220
g60
(g81
g62
NtRp1221
(dp1222
g65
(dp1223
g85
g86
ssg74
g1217
sg67
(lp1224
S'is_jython'
p1225
asbag60
(g81
g62
NtRp1226
(dp1227
g65
(dp1228
g92
g93
ssg74
g1217
sg67
(lp1229
S':'
asbag60
(g81
g62
NtRp1230
(dp1231
g65
(dp1232
sg74
g1217
sg67
(lp1233
g60
(g61
g62
NtRp1234
(dp1235
g65
(dp1236
g73
I4
ssg74
g1230
sg67
(lp1237
g103
asbasbasbag60
(g76
g62
NtRp1238
(dp1239
g65
(dp1240
sg74
g837
sg67
(lp1241
g60
(g81
g62
NtRp1242
(dp1243
g65
(dp1244
g85
g86
ssg74
g1238
sg67
(lp1245
S'path_info'
p1246
asbag60
(g81
g62
NtRp1247
(dp1248
g65
(dp1249
g92
g93
ssg74
g1238
sg67
(lp1250
S':'
asbag60
(g81
g62
NtRp1251
(dp1252
g65
(dp1253
sg74
g1238
sg67
(lp1254
g60
(g61
g62
NtRp1255
(dp1256
g65
(dp1257
g73
I4
ssg74
g1251
sg67
(lp1258
S'/synopsis/information/publication/9'
p1259
asbasbasbag60
(g76
g62
NtRp1260
(dp1261
g65
(dp1262
sg74
g837
sg67
(lp1263
g60
(g81
g62
NtRp1264
(dp1265
g65
(dp1266
g85
g86
ssg74
g1260
sg67
(lp1267
S'query_string'
p1268
asbag60
(g81
g62
NtRp1269
(dp1270
g65
(dp1271
g92
g93
ssg74
g1260
sg67
(lp1272
S':'
asbag60
(g81
g62
NtRp1273
(dp1274
g65
(dp1275
sg74
g1260
sg67
(lp1276
g60
(g61
g62
NtRp1277
(dp1278
g65
(dp1279
g73
I4
ssg74
g1273
sg67
(lp1280
S''
asbasbasbag60
(g76
g62
NtRp1281
(dp1282
g65
(dp1283
sg74
g837
sg67
(lp1284
g60
(g81
g62
NtRp1285
(dp1286
g65
(dp1287
g85
g86
ssg74
g1281
sg67
(lp1288
S'remote_addr'
p1289
asbag60
(g81
g62
NtRp1290
(dp1291
g65
(dp1292
g92
g93
ssg74
g1281
sg67
(lp1293
S':'
asbag60
(g81
g62
NtRp1294
(dp1295
g65
(dp1296
sg74
g1281
sg67
(lp1297
g60
(g61
g62
NtRp1298
(dp1299
g65
(dp1300
g73
I4
ssg74
g1294
sg67
(lp1301
g205
asbasbasbag60
(g76
g62
NtRp1302
(dp1303
g65
(dp1304
sg74
g837
sg67
(lp1305
g60
(g81
g62
NtRp1306
(dp1307
g65
(dp1308
g85
g86
ssg74
g1302
sg67
(lp1309
S'remote_port'
p1310
asbag60
(g81
g62
NtRp1311
(dp1312
g65
(dp1313
g92
g93
ssg74
g1302
sg67
(lp1314
S':'
asbag60
(g81
g62
NtRp1315
(dp1316
g65
(dp1317
sg74
g1302
sg67
(lp1318
g60
(g61
g62
NtRp1319
(dp1320
g65
(dp1321
g73
I4
ssg74
g1315
sg67
(lp1322
S'42289'
p1323
asbasbasbag60
(g76
g62
NtRp1324
(dp1325
g65
(dp1326
sg74
g837
sg67
(lp1327
g60
(g81
g62
NtRp1328
(dp1329
g65
(dp1330
g85
g86
ssg74
g1324
sg67
(lp1331
S'request_method'
p1332
asbag60
(g81
g62
NtRp1333
(dp1334
g65
(dp1335
g92
g93
ssg74
g1324
sg67
(lp1336
S':'
asbag60
(g81
g62
NtRp1337
(dp1338
g65
(dp1339
sg74
g1324
sg67
(lp1340
g60
(g61
g62
NtRp1341
(dp1342
g65
(dp1343
g73
I4
ssg74
g1337
sg67
(lp1344
S'GET'
p1345
asbasbasbag60
(g76
g62
NtRp1346
(dp1347
g65
(dp1348
sg74
g837
sg67
(lp1349
g60
(g81
g62
NtRp1350
(dp1351
g65
(dp1352
g85
g86
ssg74
g1346
sg67
(lp1353
S'script_name'
p1354
asbag60
(g81
g62
NtRp1355
(dp1356
g65
(dp1357
g92
g93
ssg74
g1346
sg67
(lp1358
S':'
asbag60
(g81
g62
NtRp1359
(dp1360
g65
(dp1361
sg74
g1346
sg67
(lp1362
g60
(g61
g62
NtRp1363
(dp1364
g65
(dp1365
g73
I4
ssg74
g1359
sg67
(lp1366
S''
asbasbasbag60
(g76
g62
NtRp1367
(dp1368
g65
(dp1369
sg74
g837
sg67
(lp1370
g60
(g81
g62
NtRp1371
(dp1372
g65
(dp1373
g85
g86
ssg74
g1367
sg67
(lp1374
S'server_name'
p1375
asbag60
(g81
g62
NtRp1376
(dp1377
g65
(dp1378
g92
g93
ssg74
g1367
sg67
(lp1379
S':'
asbag60
(g81
g62
NtRp1380
(dp1381
g65
(dp1382
sg74
g1367
sg67
(lp1383
g60
(g61
g62
NtRp1384
(dp1385
g65
(dp1386
g73
I4
ssg74
g1380
sg67
(lp1387
S'kaique-Pine-Trail-M'
p1388
asbasbasbag60
(g76
g62
NtRp1389
(dp1390
g65
(dp1391
sg74
g837
sg67
(lp1392
g60
(g81
g62
NtRp1393
(dp1394
g65
(dp1395
g85
g86
ssg74
g1389
sg67
(lp1396
S'server_port'
p1397
asbag60
(g81
g62
NtRp1398
(dp1399
g65
(dp1400
g92
g93
ssg74
g1389
sg67
(lp1401
S':'
asbag60
(g81
g62
NtRp1402
(dp1403
g65
(dp1404
sg74
g1389
sg67
(lp1405
g60
(g61
g62
NtRp1406
(dp1407
g65
(dp1408
g73
I4
ssg74
g1402
sg67
(lp1409
S'8000'
p1410
asbasbasbag60
(g76
g62
NtRp1411
(dp1412
g65
(dp1413
sg74
g837
sg67
(lp1414
g60
(g81
g62
NtRp1415
(dp1416
g65
(dp1417
g85
g86
ssg74
g1411
sg67
(lp1418
S'server_protocol'
p1419
asbag60
(g81
g62
NtRp1420
(dp1421
g65
(dp1422
g92
g93
ssg74
g1411
sg67
(lp1423
S':'
asbag60
(g81
g62
NtRp1424
(dp1425
g65
(dp1426
sg74
g1411
sg67
(lp1427
g60
(g61
g62
NtRp1428
(dp1429
g65
(dp1430
g73
I4
ssg74
g1424
sg67
(lp1431
S'HTTP/1.1'
p1432
asbasbasbag60
(g76
g62
NtRp1433
(dp1434
g65
(dp1435
sg74
g837
sg67
(lp1436
g60
(g81
g62
NtRp1437
(dp1438
g65
(dp1439
g85
g86
ssg74
g1433
sg67
(lp1440
S'server_software'
p1441
asbag60
(g81
g62
NtRp1442
(dp1443
g65
(dp1444
g92
g93
ssg74
g1433
sg67
(lp1445
S':'
asbag60
(g81
g62
NtRp1446
(dp1447
g65
(dp1448
sg74
g1433
sg67
(lp1449
g60
(g61
g62
NtRp1450
(dp1451
g65
(dp1452
g73
I4
ssg74
g1446
sg67
(lp1453
S'Rocket 1.2.4'
p1454
asbasbasbag60
(g76
g62
NtRp1455
(dp1456
g65
(dp1457
sg74
g837
sg67
(lp1458
g60
(g81
g62
NtRp1459
(dp1460
g65
(dp1461
g85
g86
ssg74
g1455
sg67
(lp1462
S'web2py_crontype'
p1463
asbag60
(g81
g62
NtRp1464
(dp1465
g65
(dp1466
g92
g93
ssg74
g1455
sg67
(lp1467
S':'
asbag60
(g81
g62
NtRp1468
(dp1469
g65
(dp1470
sg74
g1455
sg67
(lp1471
g60
(g61
g62
NtRp1472
(dp1473
g65
(dp1474
g73
I4
ssg74
g1468
sg67
(lp1475
S'hard'
p1476
asbasbasbag60
(g76
g62
NtRp1477
(dp1478
g65
(dp1479
sg74
g837
sg67
(lp1480
g60
(g81
g62
NtRp1481
(dp1482
g65
(dp1483
g85
g86
ssg74
g1477
sg67
(lp1484
S'web2py_path'
p1485
asbag60
(g81
g62
NtRp1486
(dp1487
g65
(dp1488
g92
g93
ssg74
g1477
sg67
(lp1489
S':'
asbag60
(g81
g62
NtRp1490
(dp1491
g65
(dp1492
sg74
g1477
sg67
(lp1493
g60
(g61
g62
NtRp1494
(dp1495
g65
(dp1496
g73
I4
ssg74
g1490
sg67
(lp1497
g884
asbasbasbag60
(g76
g62
NtRp1498
(dp1499
g65
(dp1500
sg74
g837
sg67
(lp1501
g60
(g81
g62
NtRp1502
(dp1503
g65
(dp1504
g85
g86
ssg74
g1498
sg67
(lp1505
S'web2py_version'
p1506
asbag60
(g81
g62
NtRp1507
(dp1508
g65
(dp1509
g92
g93
ssg74
g1498
sg67
(lp1510
S':'
asbag60
(g81
g62
NtRp1511
(dp1512
g65
(dp1513
sg74
g1498
sg67
(lp1514
g60
(g61
g62
NtRp1515
(dp1516
g65
(dp1517
g73
I4
ssg74
g1511
sg67
(lp1518
g60
(g69
g62
NtRp1519
(dp1520
g65
(dp1521
g73
I3
ssg74
Nsg67
(lp1522
g60
(g76
g62
NtRp1523
(dp1524
g65
(dp1525
sg74
g1519
sg67
(lp1526
g60
(g81
g62
NtRp1527
(dp1528
g65
(dp1529
sg74
g1523
sg67
(lp1530
g60
(g61
g62
NtRp1531
(dp1532
g65
(dp1533
g73
I3
ssg74
g1527
sg67
(lp1534
S'1'
asbasbasbag60
(g76
g62
NtRp1535
(dp1536
g65
(dp1537
sg74
g1519
sg67
(lp1538
g60
(g81
g62
NtRp1539
(dp1540
g65
(dp1541
sg74
g1535
sg67
(lp1542
g60
(g61
g62
NtRp1543
(dp1544
g65
(dp1545
g73
I3
ssg74
g1539
sg67
(lp1546
S'99'
p1547
asbasbasbag60
(g76
g62
NtRp1548
(dp1549
g65
(dp1550
sg74
g1519
sg67
(lp1551
g60
(g81
g62
NtRp1552
(dp1553
g65
(dp1554
sg74
g1548
sg67
(lp1555
g60
(g61
g62
NtRp1556
(dp1557
g65
(dp1558
g73
I3
ssg74
g1552
sg67
(lp1559
S'2'
asbasbasbag60
(g76
g62
NtRp1560
(dp1561
g65
(dp1562
sg74
g1519
sg67
(lp1563
g60
(g81
g62
NtRp1564
(dp1565
g65
(dp1566
sg74
g1560
sg67
(lp1567
g60
(g61
g62
NtRp1568
(dp1569
g65
(dp1570
g73
I3
ssg74
g1564
sg67
(lp1571
S'datetime.datetime(2011, 9, 26, 6, 55, 33)'
p1572
asbasbasbag60
(g76
g62
NtRp1573
(dp1574
g65
(dp1575
sg74
g1519
sg67
(lp1576
g60
(g81
g62
NtRp1577
(dp1578
g65
(dp1579
sg74
g1573
sg67
(lp1580
g60
(g61
g62
NtRp1581
(dp1582
g65
(dp1583
g73
I3
ssg74
g1577
sg67
(lp1584
S'stable'
p1585
asbasbasbasbasbasbasbag60
(g76
g62
NtRp1586
(dp1587
g65
(dp1588
sg74
g837
sg67
(lp1589
g60
(g81
g62
NtRp1590
(dp1591
g65
(dp1592
g85
g86
ssg74
g1586
sg67
(lp1593
S'wsgi_errors'
p1594
asbag60
(g81
g62
NtRp1595
(dp1596
g65
(dp1597
g92
g93
ssg74
g1586
sg67
(lp1598
S':'
asbag60
(g81
g62
NtRp1599
(dp1600
g65
(dp1601
sg74
g1586
sg67
(lp1602
g60
(g61
g62
NtRp1603
(dp1604
g65
(dp1605
g73
I4
ssg74
g1599
sg67
(lp1606
S"<open file '<stderr>', mode 'w' at 0x7f926e5b5270>"
p1607
asbasbasbag60
(g76
g62
NtRp1608
(dp1609
g65
(dp1610
sg74
g837
sg67
(lp1611
g60
(g81
g62
NtRp1612
(dp1613
g65
(dp1614
g85
g86
ssg74
g1608
sg67
(lp1615
S'wsgi_file_wrapper'
p1616
asbag60
(g81
g62
NtRp1617
(dp1618
g65
(dp1619
g92
g93
ssg74
g1608
sg67
(lp1620
S':'
asbag60
(g81
g62
NtRp1621
(dp1622
g65
(dp1623
sg74
g1608
sg67
(lp1624
g60
(g61
g62
NtRp1625
(dp1626
g65
(dp1627
g73
I4
ssg74
g1621
sg67
(lp1628
S'<class wsgiref.util.FileWrapper at 0x2a56ef0>'
p1629
asbasbasbag60
(g76
g62
NtRp1630
(dp1631
g65
(dp1632
sg74
g837
sg67
(lp1633
g60
(g81
g62
NtRp1634
(dp1635
g65
(dp1636
g85
g86
ssg74
g1630
sg67
(lp1637
S'wsgi_input'
p1638
asbag60
(g81
g62
NtRp1639
(dp1640
g65
(dp1641
g92
g93
ssg74
g1630
sg67
(lp1642
S':'
asbag60
(g81
g62
NtRp1643
(dp1644
g65
(dp1645
sg74
g1630
sg67
(lp1646
g60
(g61
g62
NtRp1647
(dp1648
g65
(dp1649
g73
I4
ssg74
g1643
sg67
(lp1650
S'<socket._fileobject object at 0x2e2c9d0>'
p1651
asbasbasbag60
(g76
g62
NtRp1652
(dp1653
g65
(dp1654
sg74
g837
sg67
(lp1655
g60
(g81
g62
NtRp1656
(dp1657
g65
(dp1658
g85
g86
ssg74
g1652
sg67
(lp1659
S'wsgi_multiprocess'
p1660
asbag60
(g81
g62
NtRp1661
(dp1662
g65
(dp1663
g92
g93
ssg74
g1652
sg67
(lp1664
S':'
asbag60
(g81
g62
NtRp1665
(dp1666
g65
(dp1667
sg74
g1652
sg67
(lp1668
g60
(g61
g62
NtRp1669
(dp1670
g65
(dp1671
g73
I4
ssg74
g1665
sg67
(lp1672
g103
asbasbasbag60
(g76
g62
NtRp1673
(dp1674
g65
(dp1675
sg74
g837
sg67
(lp1676
g60
(g81
g62
NtRp1677
(dp1678
g65
(dp1679
g85
g86
ssg74
g1673
sg67
(lp1680
S'wsgi_multithread'
p1681
asbag60
(g81
g62
NtRp1682
(dp1683
g65
(dp1684
g92
g93
ssg74
g1673
sg67
(lp1685
S':'
asbag60
(g81
g62
NtRp1686
(dp1687
g65
(dp1688
sg74
g1673
sg67
(lp1689
g60
(g61
g62
NtRp1690
(dp1691
g65
(dp1692
g73
I4
ssg74
g1686
sg67
(lp1693
S'True'
p1694
asbasbasbag60
(g76
g62
NtRp1695
(dp1696
g65
(dp1697
sg74
g837
sg67
(lp1698
g60
(g81
g62
NtRp1699
(dp1700
g65
(dp1701
g85
g86
ssg74
g1695
sg67
(lp1702
S'wsgi_run_once'
p1703
asbag60
(g81
g62
NtRp1704
(dp1705
g65
(dp1706
g92
g93
ssg74
g1695
sg67
(lp1707
S':'
asbag60
(g81
g62
NtRp1708
(dp1709
g65
(dp1710
sg74
g1695
sg67
(lp1711
g60
(g61
g62
NtRp1712
(dp1713
g65
(dp1714
g73
I4
ssg74
g1708
sg67
(lp1715
g103
asbasbasbag60
(g76
g62
NtRp1716
(dp1717
g65
(dp1718
sg74
g837
sg67
(lp1719
g60
(g81
g62
NtRp1720
(dp1721
g65
(dp1722
g85
g86
ssg74
g1716
sg67
(lp1723
S'wsgi_url_scheme'
p1724
asbag60
(g81
g62
NtRp1725
(dp1726
g65
(dp1727
g92
g93
ssg74
g1716
sg67
(lp1728
S':'
asbag60
(g81
g62
NtRp1729
(dp1730
g65
(dp1731
sg74
g1716
sg67
(lp1732
g60
(g61
g62
NtRp1733
(dp1734
g65
(dp1735
g73
I4
ssg74
g1729
sg67
(lp1736
S'http'
p1737
asbasbasbag60
(g76
g62
NtRp1738
(dp1739
g65
(dp1740
sg74
g837
sg67
(lp1741
g60
(g81
g62
NtRp1742
(dp1743
g65
(dp1744
g85
g86
ssg74
g1738
sg67
(lp1745
S'wsgi_version'
p1746
asbag60
(g81
g62
NtRp1747
(dp1748
g65
(dp1749
g92
g93
ssg74
g1738
sg67
(lp1750
S':'
asbag60
(g81
g62
NtRp1751
(dp1752
g65
(dp1753
sg74
g1738
sg67
(lp1754
g60
(g61
g62
NtRp1755
(dp1756
g65
(dp1757
g73
I4
ssg74
g1751
sg67
(lp1758
g60
(g69
g62
NtRp1759
(dp1760
g65
(dp1761
g73
I3
ssg74
Nsg67
(lp1762
g60
(g76
g62
NtRp1763
(dp1764
g65
(dp1765
sg74
g1759
sg67
(lp1766
g60
(g81
g62
NtRp1767
(dp1768
g65
(dp1769
sg74
g1763
sg67
(lp1770
g60
(g61
g62
NtRp1771
(dp1772
g65
(dp1773
g73
I3
ssg74
g1767
sg67
(lp1774
S'1'
asbasbasbag60
(g76
g62
NtRp1775
(dp1776
g65
(dp1777
sg74
g1759
sg67
(lp1778
g60
(g81
g62
NtRp1779
(dp1780
g65
(dp1781
sg74
g1775
sg67
(lp1782
g60
(g61
g62
NtRp1783
(dp1784
g65
(dp1785
g73
I3
ssg74
g1779
sg67
(lp1786
S'0'
asbasbasbasbasbasbasbasbasbasbasbag60
(g76
g62
NtRp1787
(dp1788
g65
(dp1789
sg74
g70
sg67
(lp1790
g60
(g81
g62
NtRp1791
(dp1792
g65
(dp1793
g85
g86
ssg74
g1787
sg67
(lp1794
S'extension'
p1795
asbag60
(g81
g62
NtRp1796
(dp1797
g65
(dp1798
g92
g93
ssg74
g1787
sg67
(lp1799
S':'
asbag60
(g81
g62
NtRp1800
(dp1801
g65
(dp1802
sg74
g1787
sg67
(lp1803
g60
(g61
g62
NtRp1804
(dp1805
g65
(dp1806
g73
I5
ssg74
g1800
sg67
(lp1807
S'html'
p1808
asbasbasbag60
(g76
g62
NtRp1809
(dp1810
g65
(dp1811
sg74
g70
sg67
(lp1812
g60
(g81
g62
NtRp1813
(dp1814
g65
(dp1815
g85
g86
ssg74
g1809
sg67
(lp1816
S'folder'
p1817
asbag60
(g81
g62
NtRp1818
(dp1819
g65
(dp1820
g92
g93
ssg74
g1809
sg67
(lp1821
S':'
asbag60
(g81
g62
NtRp1822
(dp1823
g65
(dp1824
sg74
g1809
sg67
(lp1825
g60
(g61
g62
NtRp1826
(dp1827
g65
(dp1828
g73
I5
ssg74
g1822
sg67
(lp1829
S'/home/kaique/Projects/web2py/applications/synopsis/'
p1830
asbasbasbag60
(g76
g62
NtRp1831
(dp1832
g65
(dp1833
sg74
g70
sg67
(lp1834
g60
(g81
g62
NtRp1835
(dp1836
g65
(dp1837
g85
g86
ssg74
g1831
sg67
(lp1838
S'function'
p1839
asbag60
(g81
g62
NtRp1840
(dp1841
g65
(dp1842
g92
g93
ssg74
g1831
sg67
(lp1843
S':'
asbag60
(g81
g62
NtRp1844
(dp1845
g65
(dp1846
sg74
g1831
sg67
(lp1847
g60
(g61
g62
NtRp1848
(dp1849
g65
(dp1850
g73
I5
ssg74
g1844
sg67
(lp1851
S'publication'
p1852
asbasbasbag60
(g76
g62
NtRp1853
(dp1854
g65
(dp1855
sg74
g70
sg67
(lp1856
g60
(g81
g62
NtRp1857
(dp1858
g65
(dp1859
g85
g86
ssg74
g1853
sg67
(lp1860
S'get_vars'
p1861
asbag60
(g81
g62
NtRp1862
(dp1863
g65
(dp1864
g92
g93
ssg74
g1853
sg67
(lp1865
S':'
asbag60
(g81
g62
NtRp1866
(dp1867
g65
(dp1868
sg74
g1853
sg67
(lp1869
g60
(g61
g62
NtRp1870
(dp1871
g65
(dp1872
g73
I5
ssg74
g1866
sg67
(lp1873
g60
(g69
g62
NtRp1874
(dp1875
g65
(dp1876
g73
I4
ssg74
Nsg67
(lp1877
sbasbasbasbag60
(g76
g62
NtRp1878
(dp1879
g65
(dp1880
sg74
g70
sg67
(lp1881
g60
(g81
g62
NtRp1882
(dp1883
g65
(dp1884
g85
g86
ssg74
g1878
sg67
(lp1885
S'global_settings'
p1886
asbag60
(g81
g62
NtRp1887
(dp1888
g65
(dp1889
g92
g93
ssg74
g1878
sg67
(lp1890
S':'
asbag60
(g81
g62
NtRp1891
(dp1892
g65
(dp1893
sg74
g1878
sg67
(lp1894
g60
(g61
g62
NtRp1895
(dp1896
g65
(dp1897
g73
I5
ssg74
g1891
sg67
(lp1898
g60
(g69
g62
NtRp1899
(dp1900
g65
(dp1901
g73
I4
ssg74
Nsg67
(lp1902
g60
(g76
g62
NtRp1903
(dp1904
g65
(dp1905
sg74
g1899
sg67
(lp1906
g60
(g81
g62
NtRp1907
(dp1908
g65
(dp1909
g85
g86
ssg74
g1903
sg67
(lp1910
g849
asbag60
(g81
g62
NtRp1911
(dp1912
g65
(dp1913
g92
g93
ssg74
g1903
sg67
(lp1914
S':'
asbag60
(g81
g62
NtRp1915
(dp1916
g65
(dp1917
sg74
g1903
sg67
(lp1918
g60
(g61
g62
NtRp1919
(dp1920
g65
(dp1921
g73
I4
ssg74
g1915
sg67
(lp1922
S"set(['/home/kaique/Projects/web2py/applications/synopsis/'])"
p1923
asbasbasbag60
(g76
g62
NtRp1924
(dp1925
g65
(dp1926
sg74
g1899
sg67
(lp1927
g60
(g81
g62
NtRp1928
(dp1929
g65
(dp1930
g85
g86
ssg74
g1924
sg67
(lp1931
g871
asbag60
(g81
g62
NtRp1932
(dp1933
g65
(dp1934
g92
g93
ssg74
g1924
sg67
(lp1935
S':'
asbag60
(g81
g62
NtRp1936
(dp1937
g65
(dp1938
sg74
g1924
sg67
(lp1939
g60
(g61
g62
NtRp1940
(dp1941
g65
(dp1942
g73
I4
ssg74
g1936
sg67
(lp1943
g884
asbasbasbag60
(g76
g62
NtRp1944
(dp1945
g65
(dp1946
sg74
g1899
sg67
(lp1947
g60
(g81
g62
NtRp1948
(dp1949
g65
(dp1950
g85
g86
ssg74
g1944
sg67
(lp1951
g893
asbag60
(g81
g62
NtRp1952
(dp1953
g65
(dp1954
g92
g93
ssg74
g1944
sg67
(lp1955
S':'
asbag60
(g81
g62
NtRp1956
(dp1957
g65
(dp1958
sg74
g1944
sg67
(lp1959
g60
(g61
g62
NtRp1960
(dp1961
g65
(dp1962
g73
I4
ssg74
g1956
sg67
(lp1963
g60
(g69
g62
NtRp1964
(dp1965
g65
(dp1966
g73
I3
ssg74
Nsg67
(lp1967
sbasbasbasbag60
(g76
g62
NtRp1968
(dp1969
g65
(dp1970
sg74
g1899
sg67
(lp1971
g60
(g81
g62
NtRp1972
(dp1973
g65
(dp1974
g85
g86
ssg74
g1968
sg67
(lp1975
g918
asbag60
(g81
g62
NtRp1976
(dp1977
g65
(dp1978
g92
g93
ssg74
g1968
sg67
(lp1979
S':'
asbag60
(g81
g62
NtRp1980
(dp1981
g65
(dp1982
sg74
g1968
sg67
(lp1983
g60
(g61
g62
NtRp1984
(dp1985
g65
(dp1986
g73
I4
ssg74
g1980
sg67
(lp1987
S"<Values at 0x2b9f950: {'verbose': False, 'ip': '127.0.0.1', 'shutdown_timeout': 5, 'taskbar': False, 'nocron': False, 'pid_filename': 'httpserver.pid', 'maxthreads': None, 'softcron': False, 'server_name': 'kaique-Pine-Trail-M', 'bpython': False, 'nogui': False, 'port': 8000, 'extcron': False, 'debuglevel': 30, 'test': None, 'folder': '/home/kaique/Projects/web2py', 'config': '', 'import_models': False, 'winservice': '', 'shell': None, 'run': '', 'log_filename': 'httpserver.log', 'args': [''], 'ssl_ca_certificate': None, 'scheduler': None, 'profiler_filename': None, 'ssl_private_key': '', 'password': 'dev', 'request_queue_size': 5, 'ssl_certificate': '', 'cronjob': False, 'plain': False, 'quiet': False, 'interfaces': None, 'minthreads': None, 'timeout': 10, 'numthreads': None, 'nobanner': False}>"
p1988
asbasbasbag60
(g76
g62
NtRp1989
(dp1990
g65
(dp1991
sg74
g1899
sg67
(lp1992
g60
(g81
g62
NtRp1993
(dp1994
g65
(dp1995
g85
g86
ssg74
g1989
sg67
(lp1996
g940
asbag60
(g81
g62
NtRp1997
(dp1998
g65
(dp1999
g92
g93
ssg74
g1989
sg67
(lp2000
S':'
asbag60
(g81
g62
NtRp2001
(dp2002
g65
(dp2003
sg74
g1989
sg67
(lp2004
g60
(g61
g62
NtRp2005
(dp2006
g65
(dp2007
g73
I4
ssg74
g2001
sg67
(lp2008
S'set([])'
p2009
asbasbasbag60
(g76
g62
NtRp2010
(dp2011
g65
(dp2012
sg74
g1899
sg67
(lp2013
g60
(g81
g62
NtRp2014
(dp2015
g65
(dp2016
g85
g86
ssg74
g2010
sg67
(lp2017
g962
asbag60
(g81
g62
NtRp2018
(dp2019
g65
(dp2020
g92
g93
ssg74
g2010
sg67
(lp2021
S':'
asbag60
(g81
g62
NtRp2022
(dp2023
g65
(dp2024
sg74
g2010
sg67
(lp2025
g60
(g61
g62
NtRp2026
(dp2027
g65
(dp2028
g73
I4
ssg74
g2022
sg67
(lp2029
g103
asbasbasbag60
(g76
g62
NtRp2030
(dp2031
g65
(dp2032
sg74
g1899
sg67
(lp2033
g60
(g81
g62
NtRp2034
(dp2035
g65
(dp2036
g85
g86
ssg74
g2030
sg67
(lp2037
g983
asbag60
(g81
g62
NtRp2038
(dp2039
g65
(dp2040
g92
g93
ssg74
g2030
sg67
(lp2041
S':'
asbag60
(g81
g62
NtRp2042
(dp2043
g65
(dp2044
sg74
g2030
sg67
(lp2045
g60
(g61
g62
NtRp2046
(dp2047
g65
(dp2048
g73
I4
ssg74
g2042
sg67
(lp2049
g996
asbasbasbag60
(g76
g62
NtRp2050
(dp2051
g65
(dp2052
sg74
g1899
sg67
(lp2053
g60
(g81
g62
NtRp2054
(dp2055
g65
(dp2056
g85
g86
ssg74
g2050
sg67
(lp2057
g1225
asbag60
(g81
g62
NtRp2058
(dp2059
g65
(dp2060
g92
g93
ssg74
g2050
sg67
(lp2061
S':'
asbag60
(g81
g62
NtRp2062
(dp2063
g65
(dp2064
sg74
g2050
sg67
(lp2065
g60
(g61
g62
NtRp2066
(dp2067
g65
(dp2068
g73
I4
ssg74
g2062
sg67
(lp2069
g103
asbasbasbag60
(g76
g62
NtRp2070
(dp2071
g65
(dp2072
sg74
g1899
sg67
(lp2073
g60
(g81
g62
NtRp2074
(dp2075
g65
(dp2076
g85
g86
ssg74
g2070
sg67
(lp2077
g1463
asbag60
(g81
g62
NtRp2078
(dp2079
g65
(dp2080
g92
g93
ssg74
g2070
sg67
(lp2081
S':'
asbag60
(g81
g62
NtRp2082
(dp2083
g65
(dp2084
sg74
g2070
sg67
(lp2085
g60
(g61
g62
NtRp2086
(dp2087
g65
(dp2088
g73
I4
ssg74
g2082
sg67
(lp2089
g1476
asbasbasbag60
(g76
g62
NtRp2090
(dp2091
g65
(dp2092
sg74
g1899
sg67
(lp2093
g60
(g81
g62
NtRp2094
(dp2095
g65
(dp2096
g85
g86
ssg74
g2090
sg67
(lp2097
g1506
asbag60
(g81
g62
NtRp2098
(dp2099
g65
(dp2100
g92
g93
ssg74
g2090
sg67
(lp2101
S':'
asbag60
(g81
g62
NtRp2102
(dp2103
g65
(dp2104
sg74
g2090
sg67
(lp2105
g60
(g61
g62
NtRp2106
(dp2107
g65
(dp2108
g73
I4
ssg74
g2102
sg67
(lp2109
g60
(g69
g62
NtRp2110
(dp2111
g65
(dp2112
g73
I3
ssg74
Nsg67
(lp2113
g60
(g76
g62
NtRp2114
(dp2115
g65
(dp2116
sg74
g2110
sg67
(lp2117
g60
(g81
g62
NtRp2118
(dp2119
g65
(dp2120
sg74
g2114
sg67
(lp2121
g60
(g61
g62
NtRp2122
(dp2123
g65
(dp2124
g73
I3
ssg74
g2118
sg67
(lp2125
S'1'
asbasbasbag60
(g76
g62
NtRp2126
(dp2127
g65
(dp2128
sg74
g2110
sg67
(lp2129
g60
(g81
g62
NtRp2130
(dp2131
g65
(dp2132
sg74
g2126
sg67
(lp2133
g60
(g61
g62
NtRp2134
(dp2135
g65
(dp2136
g73
I3
ssg74
g2130
sg67
(lp2137
S'99'
p2138
asbasbasbag60
(g76
g62
NtRp2139
(dp2140
g65
(dp2141
sg74
g2110
sg67
(lp2142
g60
(g81
g62
NtRp2143
(dp2144
g65
(dp2145
sg74
g2139
sg67
(lp2146
g60
(g61
g62
NtRp2147
(dp2148
g65
(dp2149
g73
I3
ssg74
g2143
sg67
(lp2150
S'2'
asbasbasbag60
(g76
g62
NtRp2151
(dp2152
g65
(dp2153
sg74
g2110
sg67
(lp2154
g60
(g81
g62
NtRp2155
(dp2156
g65
(dp2157
sg74
g2151
sg67
(lp2158
g60
(g61
g62
NtRp2159
(dp2160
g65
(dp2161
g73
I3
ssg74
g2155
sg67
(lp2162
S'datetime.datetime(2011, 9, 26, 6, 55, 33)'
p2163
asbasbasbag60
(g76
g62
NtRp2164
(dp2165
g65
(dp2166
sg74
g2110
sg67
(lp2167
g60
(g81
g62
NtRp2168
(dp2169
g65
(dp2170
sg74
g2164
sg67
(lp2171
g60
(g61
g62
NtRp2172
(dp2173
g65
(dp2174
g73
I3
ssg74
g2168
sg67
(lp2175
g1585
asbasbasbasbasbasbasbasbasbasbasbag60
(g76
g62
NtRp2176
(dp2177
g65
(dp2178
sg74
g70
sg67
(lp2179
g60
(g81
g62
NtRp2180
(dp2181
g65
(dp2182
g85
g86
ssg74
g2176
sg67
(lp2183
S'is_https'
p2184
asbag60
(g81
g62
NtRp2185
(dp2186
g65
(dp2187
g92
g93
ssg74
g2176
sg67
(lp2188
S':'
asbag60
(g81
g62
NtRp2189
(dp2190
g65
(dp2191
sg74
g2176
sg67
(lp2192
g60
(g61
g62
NtRp2193
(dp2194
g65
(dp2195
g73
I5
ssg74
g2189
sg67
(lp2196
g103
asbasbasbag60
(g76
g62
NtRp2197
(dp2198
g65
(dp2199
sg74
g70
sg67
(lp2200
g60
(g81
g62
NtRp2201
(dp2202
g65
(dp2203
g85
g86
ssg74
g2197
sg67
(lp2204
S'is_local'
p2205
asbag60
(g81
g62
NtRp2206
(dp2207
g65
(dp2208
g92
g93
ssg74
g2197
sg67
(lp2209
S':'
asbag60
(g81
g62
NtRp2210
(dp2211
g65
(dp2212
sg74
g2197
sg67
(lp2213
g60
(g61
g62
NtRp2214
(dp2215
g65
(dp2216
g73
I5
ssg74
g2210
sg67
(lp2217
g1694
asbasbasbag60
(g76
g62
NtRp2218
(dp2219
g65
(dp2220
sg74
g70
sg67
(lp2221
g60
(g81
g62
NtRp2222
(dp2223
g65
(dp2224
g85
g86
ssg74
g2218
sg67
(lp2225
S'is_restful'
p2226
asbag60
(g81
g62
NtRp2227
(dp2228
g65
(dp2229
g92
g93
ssg74
g2218
sg67
(lp2230
S':'
asbag60
(g81
g62
NtRp2231
(dp2232
g65
(dp2233
sg74
g2218
sg67
(lp2234
g60
(g61
g62
NtRp2235
(dp2236
g65
(dp2237
g73
I5
ssg74
g2231
sg67
(lp2238
g103
asbasbasbag60
(g76
g62
NtRp2239
(dp2240
g65
(dp2241
sg74
g70
sg67
(lp2242
g60
(g81
g62
NtRp2243
(dp2244
g65
(dp2245
g85
g86
ssg74
g2239
sg67
(lp2246
S'now'
p2247
asbag60
(g81
g62
NtRp2248
(dp2249
g65
(dp2250
g92
g93
ssg74
g2239
sg67
(lp2251
S':'
asbag60
(g81
g62
NtRp2252
(dp2253
g65
(dp2254
sg74
g2239
sg67
(lp2255
g60
(g61
g62
NtRp2256
(dp2257
g65
(dp2258
g73
I5
ssg74
g2252
sg67
(lp2259
S'datetime.datetime(2012, 1, 15, 21, 13, 46, 318601)'
p2260
asbasbasbag60
(g76
g62
NtRp2261
(dp2262
g65
(dp2263
sg74
g70
sg67
(lp2264
g60
(g81
g62
NtRp2265
(dp2266
g65
(dp2267
g85
g86
ssg74
g2261
sg67
(lp2268
S'post_vars'
p2269
asbag60
(g81
g62
NtRp2270
(dp2271
g65
(dp2272
g92
g93
ssg74
g2261
sg67
(lp2273
S':'
asbag60
(g81
g62
NtRp2274
(dp2275
g65
(dp2276
sg74
g2261
sg67
(lp2277
g60
(g61
g62
NtRp2278
(dp2279
g65
(dp2280
g73
I5
ssg74
g2274
sg67
(lp2281
g60
(g69
g62
NtRp2282
(dp2283
g65
(dp2284
g73
I4
ssg74
Nsg67
(lp2285
sbasbasbasbag60
(g76
g62
NtRp2286
(dp2287
g65
(dp2288
sg74
g70
sg67
(lp2289
g60
(g81
g62
NtRp2290
(dp2291
g65
(dp2292
g85
g86
ssg74
g2286
sg67
(lp2293
S'raw_args'
p2294
asbag60
(g81
g62
NtRp2295
(dp2296
g65
(dp2297
g92
g93
ssg74
g2286
sg67
(lp2298
S':'
asbag60
(g81
g62
NtRp2299
(dp2300
g65
(dp2301
sg74
g2286
sg67
(lp2302
g60
(g61
g62
NtRp2303
(dp2304
g65
(dp2305
g73
I5
ssg74
g2299
sg67
(lp2306
S'9'
asbasbasbag60
(g76
g62
NtRp2307
(dp2308
g65
(dp2309
sg74
g70
sg67
(lp2310
g60
(g81
g62
NtRp2311
(dp2312
g65
(dp2313
g85
g86
ssg74
g2307
sg67
(lp2314
S'url'
p2315
asbag60
(g81
g62
NtRp2316
(dp2317
g65
(dp2318
g92
g93
ssg74
g2307
sg67
(lp2319
S':'
asbag60
(g81
g62
NtRp2320
(dp2321
g65
(dp2322
sg74
g2307
sg67
(lp2323
g60
(g61
g62
NtRp2324
(dp2325
g65
(dp2326
g73
I5
ssg74
g2320
sg67
(lp2327
S'/synopsis/information/publication/9'
p2328
asbasbasbag60
(g76
g62
NtRp2329
(dp2330
g65
(dp2331
sg74
g70
sg67
(lp2332
g60
(g81
g62
NtRp2333
(dp2334
g65
(dp2335
g85
g86
ssg74
g2329
sg67
(lp2336
S'utcnow'
p2337
asbag60
(g81
g62
NtRp2338
(dp2339
g65
(dp2340
g92
g93
ssg74
g2329
sg67
(lp2341
S':'
asbag60
(g81
g62
NtRp2342
(dp2343
g65
(dp2344
sg74
g2329
sg67
(lp2345
g60
(g61
g62
NtRp2346
(dp2347
g65
(dp2348
g73
I5
ssg74
g2342
sg67
(lp2349
S'datetime.datetime(2012, 1, 15, 23, 13, 46, 318675)'
p2350
asbasbasbag60
(g76
g62
NtRp2351
(dp2352
g65
(dp2353
sg74
g70
sg67
(lp2354
g60
(g81
g62
NtRp2355
(dp2356
g65
(dp2357
g85
g86
ssg74
g2351
sg67
(lp2358
S'uuid'
p2359
asbag60
(g81
g62
NtRp2360
(dp2361
g65
(dp2362
g92
g93
ssg74
g2351
sg67
(lp2363
S':'
asbag60
(g81
g62
NtRp2364
(dp2365
g65
(dp2366
sg74
g2351
sg67
(lp2367
g60
(g61
g62
NtRp2368
(dp2369
g65
(dp2370
g73
I5
ssg74
g2364
sg67
(lp2371
S'synopsis/127.0.0.1.2012-01-15.21-13-46.f091aaf7-a34f-43ab-85f8-b5f400e6ef4c'
p2372
asbasbasbag60
(g76
g62
NtRp2373
(dp2374
g65
(dp2375
sg74
g70
sg67
(lp2376
g60
(g81
g62
NtRp2377
(dp2378
g65
(dp2379
g85
g86
ssg74
g2373
sg67
(lp2380
S'vars'
p2381
asbag60
(g81
g62
NtRp2382
(dp2383
g65
(dp2384
g92
g93
ssg74
g2373
sg67
(lp2385
S':'
asbag60
(g81
g62
NtRp2386
(dp2387
g65
(dp2388
sg74
g2373
sg67
(lp2389
g60
(g61
g62
NtRp2390
(dp2391
g65
(dp2392
g73
I5
ssg74
g2386
sg67
(lp2393
g60
(g69
g62
NtRp2394
(dp2395
g65
(dp2396
g73
I4
ssg74
Nsg67
(lp2397
sbasbasbasbag60
(g76
g62
NtRp2398
(dp2399
g65
(dp2400
sg74
g70
sg67
(lp2401
g60
(g81
g62
NtRp2402
(dp2403
g65
(dp2404
g85
g86
ssg74
g2398
sg67
(lp2405
S'wsgi'
p2406
asbag60
(g81
g62
NtRp2407
(dp2408
g65
(dp2409
g92
g93
ssg74
g2398
sg67
(lp2410
S':'
asbag60
(g81
g62
NtRp2411
(dp2412
g65
(dp2413
sg74
g2398
sg67
(lp2414
g60
(g61
g62
NtRp2415
(dp2416
g65
(dp2417
g73
I5
ssg74
g2411
sg67
(lp2418
g60
(g69
g62
NtRp2419
(dp2420
g65
(dp2421
g73
I4
ssg74
Nsg67
(lp2422
g60
(g76
g62
NtRp2423
(dp2424
g65
(dp2425
sg74
g2419
sg67
(lp2426
g60
(g81
g62
NtRp2427
(dp2428
g65
(dp2429
g85
g86
ssg74
g2423
sg67
(lp2430
S'environ'
p2431
asbag60
(g81
g62
NtRp2432
(dp2433
g65
(dp2434
g92
g93
ssg74
g2423
sg67
(lp2435
S':'
asbag60
(g81
g62
NtRp2436
(dp2437
g65
(dp2438
sg74
g2423
sg67
(lp2439
g60
(g61
g62
NtRp2440
(dp2441
g65
(dp2442
g73
I4
ssg74
g2436
sg67
(lp2443
g60
(g69
g62
NtRp2444
(dp2445
g65
(dp2446
g73
I3
ssg74
Nsg67
(lp2447
g60
(g76
g62
NtRp2448
(dp2449
g65
(dp2450
sg74
g2444
sg67
(lp2451
g60
(g81
g62
NtRp2452
(dp2453
g65
(dp2454
g85
g86
ssg74
g2448
sg67
(lp2455
S'HTTP_ACCEPT'
p2456
asbag60
(g81
g62
NtRp2457
(dp2458
g65
(dp2459
g92
g93
ssg74
g2448
sg67
(lp2460
S':'
asbag60
(g81
g62
NtRp2461
(dp2462
g65
(dp2463
sg74
g2448
sg67
(lp2464
g60
(g61
g62
NtRp2465
(dp2466
g65
(dp2467
g73
I3
ssg74
g2461
sg67
(lp2468
g1018
asbasbasbag60
(g76
g62
NtRp2469
(dp2470
g65
(dp2471
sg74
g2444
sg67
(lp2472
g60
(g81
g62
NtRp2473
(dp2474
g65
(dp2475
g85
g86
ssg74
g2469
sg67
(lp2476
S'HTTP_ACCEPT_CHARSET'
p2477
asbag60
(g81
g62
NtRp2478
(dp2479
g65
(dp2480
g92
g93
ssg74
g2469
sg67
(lp2481
S':'
asbag60
(g81
g62
NtRp2482
(dp2483
g65
(dp2484
sg74
g2469
sg67
(lp2485
g60
(g61
g62
NtRp2486
(dp2487
g65
(dp2488
g73
I3
ssg74
g2482
sg67
(lp2489
g1040
asbasbasbag60
(g76
g62
NtRp2490
(dp2491
g65
(dp2492
sg74
g2444
sg67
(lp2493
g60
(g81
g62
NtRp2494
(dp2495
g65
(dp2496
g85
g86
ssg74
g2490
sg67
(lp2497
S'HTTP_ACCEPT_ENCODING'
p2498
asbag60
(g81
g62
NtRp2499
(dp2500
g65
(dp2501
g92
g93
ssg74
g2490
sg67
(lp2502
S':'
asbag60
(g81
g62
NtRp2503
(dp2504
g65
(dp2505
sg74
g2490
sg67
(lp2506
g60
(g61
g62
NtRp2507
(dp2508
g65
(dp2509
g73
I3
ssg74
g2503
sg67
(lp2510
g1062
asbasbasbag60
(g76
g62
NtRp2511
(dp2512
g65
(dp2513
sg74
g2444
sg67
(lp2514
g60
(g81
g62
NtRp2515
(dp2516
g65
(dp2517
g85
g86
ssg74
g2511
sg67
(lp2518
S'HTTP_ACCEPT_LANGUAGE'
p2519
asbag60
(g81
g62
NtRp2520
(dp2521
g65
(dp2522
g92
g93
ssg74
g2511
sg67
(lp2523
S':'
asbag60
(g81
g62
NtRp2524
(dp2525
g65
(dp2526
sg74
g2511
sg67
(lp2527
g60
(g61
g62
NtRp2528
(dp2529
g65
(dp2530
g73
I3
ssg74
g2524
sg67
(lp2531
g1084
asbasbasbag60
(g76
g62
NtRp2532
(dp2533
g65
(dp2534
sg74
g2444
sg67
(lp2535
g60
(g81
g62
NtRp2536
(dp2537
g65
(dp2538
g85
g86
ssg74
g2532
sg67
(lp2539
S'HTTP_CACHE_CONTROL'
p2540
asbag60
(g81
g62
NtRp2541
(dp2542
g65
(dp2543
g92
g93
ssg74
g2532
sg67
(lp2544
S':'
asbag60
(g81
g62
NtRp2545
(dp2546
g65
(dp2547
sg74
g2532
sg67
(lp2548
g60
(g61
g62
NtRp2549
(dp2550
g65
(dp2551
g73
I3
ssg74
g2545
sg67
(lp2552
g1106
asbasbasbag60
(g76
g62
NtRp2553
(dp2554
g65
(dp2555
sg74
g2444
sg67
(lp2556
g60
(g81
g62
NtRp2557
(dp2558
g65
(dp2559
g85
g86
ssg74
g2553
sg67
(lp2560
S'HTTP_CONNECTION'
p2561
asbag60
(g81
g62
NtRp2562
(dp2563
g65
(dp2564
g92
g93
ssg74
g2553
sg67
(lp2565
S':'
asbag60
(g81
g62
NtRp2566
(dp2567
g65
(dp2568
sg74
g2553
sg67
(lp2569
g60
(g61
g62
NtRp2570
(dp2571
g65
(dp2572
g73
I3
ssg74
g2566
sg67
(lp2573
g1128
asbasbasbag60
(g76
g62
NtRp2574
(dp2575
g65
(dp2576
sg74
g2444
sg67
(lp2577
g60
(g81
g62
NtRp2578
(dp2579
g65
(dp2580
g85
g86
ssg74
g2574
sg67
(lp2581
S'HTTP_COOKIE'
p2582
asbag60
(g81
g62
NtRp2583
(dp2584
g65
(dp2585
g92
g93
ssg74
g2574
sg67
(lp2586
S':'
asbag60
(g81
g62
NtRp2587
(dp2588
g65
(dp2589
sg74
g2574
sg67
(lp2590
g60
(g61
g62
NtRp2591
(dp2592
g65
(dp2593
g73
I3
ssg74
g2587
sg67
(lp2594
g1150
asbasbasbag60
(g76
g62
NtRp2595
(dp2596
g65
(dp2597
sg74
g2444
sg67
(lp2598
g60
(g81
g62
NtRp2599
(dp2600
g65
(dp2601
g85
g86
ssg74
g2595
sg67
(lp2602
S'HTTP_HOST'
p2603
asbag60
(g81
g62
NtRp2604
(dp2605
g65
(dp2606
g92
g93
ssg74
g2595
sg67
(lp2607
S':'
asbag60
(g81
g62
NtRp2608
(dp2609
g65
(dp2610
sg74
g2595
sg67
(lp2611
g60
(g61
g62
NtRp2612
(dp2613
g65
(dp2614
g73
I3
ssg74
g2608
sg67
(lp2615
g1172
asbasbasbag60
(g76
g62
NtRp2616
(dp2617
g65
(dp2618
sg74
g2444
sg67
(lp2619
g60
(g81
g62
NtRp2620
(dp2621
g65
(dp2622
g85
g86
ssg74
g2616
sg67
(lp2623
S'HTTP_REFERER'
p2624
asbag60
(g81
g62
NtRp2625
(dp2626
g65
(dp2627
g92
g93
ssg74
g2616
sg67
(lp2628
S':'
asbag60
(g81
g62
NtRp2629
(dp2630
g65
(dp2631
sg74
g2616
sg67
(lp2632
g60
(g61
g62
NtRp2633
(dp2634
g65
(dp2635
g73
I3
ssg74
g2629
sg67
(lp2636
g1194
asbasbasbag60
(g76
g62
NtRp2637
(dp2638
g65
(dp2639
sg74
g2444
sg67
(lp2640
g60
(g81
g62
NtRp2641
(dp2642
g65
(dp2643
g85
g86
ssg74
g2637
sg67
(lp2644
S'HTTP_USER_AGENT'
p2645
asbag60
(g81
g62
NtRp2646
(dp2647
g65
(dp2648
g92
g93
ssg74
g2637
sg67
(lp2649
S':'
asbag60
(g81
g62
NtRp2650
(dp2651
g65
(dp2652
sg74
g2637
sg67
(lp2653
g60
(g61
g62
NtRp2654
(dp2655
g65
(dp2656
g73
I3
ssg74
g2650
sg67
(lp2657
g1216
asbasbasbag60
(g76
g62
NtRp2658
(dp2659
g65
(dp2660
sg74
g2444
sg67
(lp2661
g60
(g81
g62
NtRp2662
(dp2663
g65
(dp2664
g85
g86
ssg74
g2658
sg67
(lp2665
S'PATH_INFO'
p2666
asbag60
(g81
g62
NtRp2667
(dp2668
g65
(dp2669
g92
g93
ssg74
g2658
sg67
(lp2670
S':'
asbag60
(g81
g62
NtRp2671
(dp2672
g65
(dp2673
sg74
g2658
sg67
(lp2674
g60
(g61
g62
NtRp2675
(dp2676
g65
(dp2677
g73
I3
ssg74
g2671
sg67
(lp2678
g1259
asbasbasbag60
(g76
g62
NtRp2679
(dp2680
g65
(dp2681
sg74
g2444
sg67
(lp2682
g60
(g81
g62
NtRp2683
(dp2684
g65
(dp2685
g85
g86
ssg74
g2679
sg67
(lp2686
S'QUERY_STRING'
p2687
asbag60
(g81
g62
NtRp2688
(dp2689
g65
(dp2690
g92
g93
ssg74
g2679
sg67
(lp2691
S':'
asbag60
(g81
g62
NtRp2692
(dp2693
g65
(dp2694
sg74
g2679
sg67
(lp2695
g60
(g61
g62
NtRp2696
(dp2697
g65
(dp2698
g73
I3
ssg74
g2692
sg67
(lp2699
S''
asbasbasbag60
(g76
g62
NtRp2700
(dp2701
g65
(dp2702
sg74
g2444
sg67
(lp2703
g60
(g81
g62
NtRp2704
(dp2705
g65
(dp2706
g85
g86
ssg74
g2700
sg67
(lp2707
S'REMOTE_ADDR'
p2708
asbag60
(g81
g62
NtRp2709
(dp2710
g65
(dp2711
g92
g93
ssg74
g2700
sg67
(lp2712
S':'
asbag60
(g81
g62
NtRp2713
(dp2714
g65
(dp2715
sg74
g2700
sg67
(lp2716
g60
(g61
g62
NtRp2717
(dp2718
g65
(dp2719
g73
I3
ssg74
g2713
sg67
(lp2720
g205
asbasbasbag60
(g76
g62
NtRp2721
(dp2722
g65
(dp2723
sg74
g2444
sg67
(lp2724
g60
(g81
g62
NtRp2725
(dp2726
g65
(dp2727
g85
g86
ssg74
g2721
sg67
(lp2728
S'REMOTE_PORT'
p2729
asbag60
(g81
g62
NtRp2730
(dp2731
g65
(dp2732
g92
g93
ssg74
g2721
sg67
(lp2733
S':'
asbag60
(g81
g62
NtRp2734
(dp2735
g65
(dp2736
sg74
g2721
sg67
(lp2737
g60
(g61
g62
NtRp2738
(dp2739
g65
(dp2740
g73
I3
ssg74
g2734
sg67
(lp2741
g1323
asbasbasbag60
(g76
g62
NtRp2742
(dp2743
g65
(dp2744
sg74
g2444
sg67
(lp2745
g60
(g81
g62
NtRp2746
(dp2747
g65
(dp2748
g85
g86
ssg74
g2742
sg67
(lp2749
S'REQUEST_METHOD'
p2750
asbag60
(g81
g62
NtRp2751
(dp2752
g65
(dp2753
g92
g93
ssg74
g2742
sg67
(lp2754
S':'
asbag60
(g81
g62
NtRp2755
(dp2756
g65
(dp2757
sg74
g2742
sg67
(lp2758
g60
(g61
g62
NtRp2759
(dp2760
g65
(dp2761
g73
I3
ssg74
g2755
sg67
(lp2762
g1345
asbasbasbag60
(g76
g62
NtRp2763
(dp2764
g65
(dp2765
sg74
g2444
sg67
(lp2766
g60
(g81
g62
NtRp2767
(dp2768
g65
(dp2769
g85
g86
ssg74
g2763
sg67
(lp2770
S'SCRIPT_NAME'
p2771
asbag60
(g81
g62
NtRp2772
(dp2773
g65
(dp2774
g92
g93
ssg74
g2763
sg67
(lp2775
S':'
asbag60
(g81
g62
NtRp2776
(dp2777
g65
(dp2778
sg74
g2763
sg67
(lp2779
g60
(g61
g62
NtRp2780
(dp2781
g65
(dp2782
g73
I3
ssg74
g2776
sg67
(lp2783
S''
asbasbasbag60
(g76
g62
NtRp2784
(dp2785
g65
(dp2786
sg74
g2444
sg67
(lp2787
g60
(g81
g62
NtRp2788
(dp2789
g65
(dp2790
g85
g86
ssg74
g2784
sg67
(lp2791
S'SERVER_NAME'
p2792
asbag60
(g81
g62
NtRp2793
(dp2794
g65
(dp2795
g92
g93
ssg74
g2784
sg67
(lp2796
S':'
asbag60
(g81
g62
NtRp2797
(dp2798
g65
(dp2799
sg74
g2784
sg67
(lp2800
g60
(g61
g62
NtRp2801
(dp2802
g65
(dp2803
g73
I3
ssg74
g2797
sg67
(lp2804
g1388
asbasbasbag60
(g76
g62
NtRp2805
(dp2806
g65
(dp2807
sg74
g2444
sg67
(lp2808
g60
(g81
g62
NtRp2809
(dp2810
g65
(dp2811
g85
g86
ssg74
g2805
sg67
(lp2812
S'SERVER_PORT'
p2813
asbag60
(g81
g62
NtRp2814
(dp2815
g65
(dp2816
g92
g93
ssg74
g2805
sg67
(lp2817
S':'
asbag60
(g81
g62
NtRp2818
(dp2819
g65
(dp2820
sg74
g2805
sg67
(lp2821
g60
(g61
g62
NtRp2822
(dp2823
g65
(dp2824
g73
I3
ssg74
g2818
sg67
(lp2825
g1410
asbasbasbag60
(g76
g62
NtRp2826
(dp2827
g65
(dp2828
sg74
g2444
sg67
(lp2829
g60
(g81
g62
NtRp2830
(dp2831
g65
(dp2832
g85
g86
ssg74
g2826
sg67
(lp2833
S'SERVER_PROTOCOL'
p2834
asbag60
(g81
g62
NtRp2835
(dp2836
g65
(dp2837
g92
g93
ssg74
g2826
sg67
(lp2838
S':'
asbag60
(g81
g62
NtRp2839
(dp2840
g65
(dp2841
sg74
g2826
sg67
(lp2842
g60
(g61
g62
NtRp2843
(dp2844
g65
(dp2845
g73
I3
ssg74
g2839
sg67
(lp2846
g1432
asbasbasbag60
(g76
g62
NtRp2847
(dp2848
g65
(dp2849
sg74
g2444
sg67
(lp2850
g60
(g81
g62
NtRp2851
(dp2852
g65
(dp2853
g85
g86
ssg74
g2847
sg67
(lp2854
S'SERVER_SOFTWARE'
p2855
asbag60
(g81
g62
NtRp2856
(dp2857
g65
(dp2858
g92
g93
ssg74
g2847
sg67
(lp2859
S':'
asbag60
(g81
g62
NtRp2860
(dp2861
g65
(dp2862
sg74
g2847
sg67
(lp2863
g60
(g61
g62
NtRp2864
(dp2865
g65
(dp2866
g73
I3
ssg74
g2860
sg67
(lp2867
g1454
asbasbasbag60
(g76
g62
NtRp2868
(dp2869
g65
(dp2870
sg74
g2444
sg67
(lp2871
g60
(g81
g62
NtRp2872
(dp2873
g65
(dp2874
g85
g86
ssg74
g2868
sg67
(lp2875
S'wsgi.errors'
p2876
asbag60
(g81
g62
NtRp2877
(dp2878
g65
(dp2879
g92
g93
ssg74
g2868
sg67
(lp2880
S':'
asbag60
(g81
g62
NtRp2881
(dp2882
g65
(dp2883
sg74
g2868
sg67
(lp2884
g60
(g61
g62
NtRp2885
(dp2886
g65
(dp2887
g73
I3
ssg74
g2881
sg67
(lp2888
S"<open file '<stderr>', mode 'w' at 0x7f926e5b5270>"
p2889
asbasbasbag60
(g76
g62
NtRp2890
(dp2891
g65
(dp2892
sg74
g2444
sg67
(lp2893
g60
(g81
g62
NtRp2894
(dp2895
g65
(dp2896
g85
g86
ssg74
g2890
sg67
(lp2897
S'wsgi.file_wrapper'
p2898
asbag60
(g81
g62
NtRp2899
(dp2900
g65
(dp2901
g92
g93
ssg74
g2890
sg67
(lp2902
S':'
asbag60
(g81
g62
NtRp2903
(dp2904
g65
(dp2905
sg74
g2890
sg67
(lp2906
g60
(g61
g62
NtRp2907
(dp2908
g65
(dp2909
g73
I3
ssg74
g2903
sg67
(lp2910
S'<class wsgiref.util.FileWrapper at 0x2a56ef0>'
p2911
asbasbasbag60
(g76
g62
NtRp2912
(dp2913
g65
(dp2914
sg74
g2444
sg67
(lp2915
g60
(g81
g62
NtRp2916
(dp2917
g65
(dp2918
g85
g86
ssg74
g2912
sg67
(lp2919
S'wsgi.input'
p2920
asbag60
(g81
g62
NtRp2921
(dp2922
g65
(dp2923
g92
g93
ssg74
g2912
sg67
(lp2924
S':'
asbag60
(g81
g62
NtRp2925
(dp2926
g65
(dp2927
sg74
g2912
sg67
(lp2928
g60
(g61
g62
NtRp2929
(dp2930
g65
(dp2931
g73
I3
ssg74
g2925
sg67
(lp2932
S'<cStringIO.StringO object at 0x30636f8>'
p2933
asbasbasbag60
(g76
g62
NtRp2934
(dp2935
g65
(dp2936
sg74
g2444
sg67
(lp2937
g60
(g81
g62
NtRp2938
(dp2939
g65
(dp2940
g85
g86
ssg74
g2934
sg67
(lp2941
S'wsgi.multiprocess'
p2942
asbag60
(g81
g62
NtRp2943
(dp2944
g65
(dp2945
g92
g93
ssg74
g2934
sg67
(lp2946
S':'
asbag60
(g81
g62
NtRp2947
(dp2948
g65
(dp2949
sg74
g2934
sg67
(lp2950
g60
(g61
g62
NtRp2951
(dp2952
g65
(dp2953
g73
I3
ssg74
g2947
sg67
(lp2954
g103
asbasbasbag60
(g76
g62
NtRp2955
(dp2956
g65
(dp2957
sg74
g2444
sg67
(lp2958
g60
(g81
g62
NtRp2959
(dp2960
g65
(dp2961
g85
g86
ssg74
g2955
sg67
(lp2962
S'wsgi.multithread'
p2963
asbag60
(g81
g62
NtRp2964
(dp2965
g65
(dp2966
g92
g93
ssg74
g2955
sg67
(lp2967
S':'
asbag60
(g81
g62
NtRp2968
(dp2969
g65
(dp2970
sg74
g2955
sg67
(lp2971
g60
(g61
g62
NtRp2972
(dp2973
g65
(dp2974
g73
I3
ssg74
g2968
sg67
(lp2975
g1694
asbasbasbag60
(g76
g62
NtRp2976
(dp2977
g65
(dp2978
sg74
g2444
sg67
(lp2979
g60
(g81
g62
NtRp2980
(dp2981
g65
(dp2982
g85
g86
ssg74
g2976
sg67
(lp2983
S'wsgi.run_once'
p2984
asbag60
(g81
g62
NtRp2985
(dp2986
g65
(dp2987
g92
g93
ssg74
g2976
sg67
(lp2988
S':'
asbag60
(g81
g62
NtRp2989
(dp2990
g65
(dp2991
sg74
g2976
sg67
(lp2992
g60
(g61
g62
NtRp2993
(dp2994
g65
(dp2995
g73
I3
ssg74
g2989
sg67
(lp2996
g103
asbasbasbag60
(g76
g62
NtRp2997
(dp2998
g65
(dp2999
sg74
g2444
sg67
(lp3000
g60
(g81
g62
NtRp3001
(dp3002
g65
(dp3003
g85
g86
ssg74
g2997
sg67
(lp3004
S'wsgi.url_scheme'
p3005
asbag60
(g81
g62
NtRp3006
(dp3007
g65
(dp3008
g92
g93
ssg74
g2997
sg67
(lp3009
S':'
asbag60
(g81
g62
NtRp3010
(dp3011
g65
(dp3012
sg74
g2997
sg67
(lp3013
g60
(g61
g62
NtRp3014
(dp3015
g65
(dp3016
g73
I3
ssg74
g3010
sg67
(lp3017
g1737
asbasbasbag60
(g76
g62
NtRp3018
(dp3019
g65
(dp3020
sg74
g2444
sg67
(lp3021
g60
(g81
g62
NtRp3022
(dp3023
g65
(dp3024
g85
g86
ssg74
g3018
sg67
(lp3025
S'wsgi.version'
p3026
asbag60
(g81
g62
NtRp3027
(dp3028
g65
(dp3029
g92
g93
ssg74
g3018
sg67
(lp3030
S':'
asbag60
(g81
g62
NtRp3031
(dp3032
g65
(dp3033
sg74
g3018
sg67
(lp3034
g60
(g61
g62
NtRp3035
(dp3036
g65
(dp3037
g73
I3
ssg74
g3031
sg67
(lp3038
S'1'
asbasbasbasbasbasbasbasbasbasbasbasbasbsS'frames'
p3039
(lp3040
(dp3041
S'file'
p3042
S'/home/kaique/Projects/web2py/gluon/restricted.py'
p3043
sS'dump'
p3044
(dp3045
S'environment'
p3046
S"{'A': <class 'gluon.html.A'>, 'Auth': <class 'gluon.tools.Auth'>, 'B': <class 'gluon.html.B'>, 'BEAUTIFY': <class 'gluon.html.BEAUTIFY'>, 'BODY': <class 'gluon.html.BODY'>, 'BR': <class 'gluon.html.BR'>, 'BUTTON': <class 'gluon.html.BUTTON'>, 'CAT': <class 'gluon.html.CAT'>, 'CENTER': <class 'gluon.html.CENTER'>, 'CLEANUP': <class 'gluon.validators.CLEANUP'>, ...}"
p3047
sS'ccode'
p3048
S'<code object <module> at 0x305beb0, file "/home/...psis/views/information/publication.html", line 1>'
p3049
ssS'lnum'
p3050
I194
sS'lines'
p3051
(dp3052
I192
S'        else:'
p3053
sI193
S'            ccode = compile2(code,layer)'
p3054
sI194
S'        exec ccode in environment'
p3055
sI195
S'    except HTTP:'
p3056
sI196
S'        raise'
p3057
sI197
S'    except Exception, error:'
p3058
sI198
S'        # XXX Show exception in Wing IDE if running in debugger'
p3059
sI189
S'    try:'
p3060
sI190
S'        if type(code) == types.CodeType:'
p3061
sI191
S'            ccode = code'
p3062
ssS'call'
p3063
S'(code=\'response.write(\\\'<!DOCTYPE html>\\\\n<html lang="\\\', ...nse.write(\\\'\\\\n  </body>\\\\n</html>\\\\n\\\', escape=False)\', environment={\'A\': <class \'gluon.html.A\'>, \'Auth\': <class \'gluon.tools.Auth\'>, \'B\': <class \'gluon.html.B\'>, \'BEAUTIFY\': <class \'gluon.html.BEAUTIFY\'>, \'BODY\': <class \'gluon.html.BODY\'>, \'BR\': <class \'gluon.html.BR\'>, \'BUTTON\': <class \'gluon.html.BUTTON\'>, \'CAT\': <class \'gluon.html.CAT\'>, \'CENTER\': <class \'gluon.html.CENTER\'>, \'CLEANUP\': <class \'gluon.validators.CLEANUP\'>, ...}, layer=\'/home/kaique/Projects/web2py/applications/synopsis/views/information/publication.html\')'
p3064
sS'func'
p3065
S'restricted'
p3066
sa(dp3067
g3042
S'/home/kaique/Projects/web2py/applications/synopsis/views/information/publication.html'
p3068
sg3044
(dp3069
sg3050
I146
sg3051
(dp3070
I137
S"        response.write('\\n\\t\\t\\t\\t\\t\\t', escape=False)"
p3071
sI138
S'        pass'
p3072
sI139
S"    response.write('\\n\\t\\t\\t\\t\\t\\t\\n\\t\\t\\t\\t\\t\\t', escape=False)"
p3073
sI140
S'    for line in lines:'
p3074
sI141
S"        response.write('\\n\\t\\t\\t\\t\\t\\t\\t', escape=False)"
p3075
sI142
S'        response.write(lines[line])'
p3076
sI143
S"        response.write('\\n\\t\\t\\t\\t\\t\\t', escape=False)"
p3077
sI144
S'        pass'
p3078
sI145
S'    response.write(\'\\n\\t\\t\\t\\t\\t</tbody>\\n\\t\\t\\t\\t</table>\\n\\t\\t\\t\\t<div classs="quote">\\n\\t\\t\\t\\t\', escape=False)'
p3079
sI146
S"    for quote in detail.quote.select(orderby='date'):"
p3080
sI147
S"        response.write('\\n\\t\\t\\t\\t\\t<p>', escape=False)"
p3081
sI148
S'        response.write(quote.content)'
p3082
sI149
S"        response.write('</p>\\n\\t\\t\\t\\t', escape=False)"
p3083
sI150
S'        pass'
p3084
sI151
S"    response.write('\\n\\t\\t\\t\\t</div>\\n\\t\\t\\t</div>\\n\\t\\t\\t', escape=False)"
p3085
sI152
S'    pass'
p3086
sI153
S"response.write('\\n\\t\\t</article>\\n\\t</section>\\n</div>\\n', escape=False)"
p3087
sI154
S"response.write(' \\n      </div>\\n      <!-- content -->\\n\\n      ', escape=False)"
p3088
sI155
S'if right_sidebar_enabled:'
p3089
sI156
S'    response.write(\'\\n          <div id="right_sidebar" \', escape=False)'
p3090
ssg3063
S'()'
p3091
sg3065
S'<module>'
p3092
sa(dp3093
g3042
S'/home/kaique/Projects/web2py/gluon/dal.py'
p3094
sg3044
(dp3095
S'self.query'
p3096
S'<gluon.dal.Query object>'
p3097
sS'fields'
p3098
S'()'
p3099
sS'self'
p3100
S'<gluon.dal.Set object>'
p3101
sS'self.db._adapter.select'
p3102
S'<bound method SQLiteAdapter.select of <gluon.dal.SQLiteAdapter object>>'
p3103
sS'self.db._adapter'
p3104
S'<gluon.dal.SQLiteAdapter object>'
p3105
sS'attributes'
p3106
S"{'orderby': 'date'}"
p3107
sS'self.db'
p3108
S"<DAL {'auth_event': <Table {'origin': <gluon.dal..., 'id': <gluon.dal.Field object at 0x319a410>}>}>"
p3109
ssg3050
I5697
sg3051
(dp3110
I5696
S'    def select(self, *fields, **attributes):'
p3111
sI5697
S'        return self.db._adapter.select(self.query,fields,attributes)'
p3112
sI5698
S''
sI5699
S'    def delete(self):'
p3113
sI5700
S'        tablename=self.db._adapter.get_table(self.query)'
p3114
sI5701
S'        self.delete_uploaded_files()'
p3115
sI5692
S''
sI5693
S'    def count(self,distinct=None):'
p3116
sI5694
S'        return self.db._adapter.count(self.query,distinct)'
p3117
sI5695
S''
ssg3063
S"(self=<gluon.dal.Set object>, *fields=(), **attributes={'orderby': 'date'})"
p3118
sg3065
S'select'
p3119
sa(dp3120
g3042
S'/home/kaique/Projects/web2py/gluon/dal.py'
p3121
sg3044
(dp3122
S'rows'
p3123
S'undefined'
p3124
sS'response'
p3125
S'<function response>'
p3126
sS'sql'
p3127
S"'SELECT  quote.id, quote.content, quote.publicati...e WHERE (quote.publication_id = 9) ORDER BY date;'"
p3128
ssg3050
I1233
sg3051
(dp3129
I1228
S"            del attributes['cache']"
p3130
sI1229
S"            key = self.uri + '/' + sql"
p3131
sI1230
S'            key = (key<=200) and key or hashlib.md5(key).hexdigest()'
p3132
sI1231
S'            rows = cache_model(key, lambda: response(sql), time_expire)'
p3133
sI1232
S'        else:'
p3134
sI1233
S'            rows = response(sql)'
p3135
sI1234
S'        if isinstance(rows,tuple):'
p3136
sI1235
S'            rows = list(rows)'
p3137
sI1236
S"        limitby = attributes.get('limitby',None) or (0,)"
p3138
sI1237
S'        rows = self.rowslice(rows,limitby[0],None)'
p3139
ssg3063
S"(self=<gluon.dal.SQLiteAdapter object>, query=<gluon.dal.Query object>, fields=(), attributes={'orderby': 'date'})"
p3140
sg3065
g3119
sa(dp3141
g3042
S'/home/kaique/Projects/web2py/gluon/dal.py'
p3142
sg3044
(dp3143
S'self'
p3144
S'<gluon.dal.SQLiteAdapter object>'
p3145
sS'self.execute'
p3146
S'<bound method SQLiteAdapter.execute of <gluon.dal.SQLiteAdapter object>>'
p3147
sS'sql'
p3148
S"'SELECT  quote.id, quote.content, quote.publicati...e WHERE (quote.publication_id = 9) ORDER BY date;'"
p3149
ssg3050
I1223
sg3051
(dp3150
I1218
S'    def select(self,query,fields,attributes):'
p3151
sI1219
S'        """'
p3152
sI1220
S'        Always returns a Rows object, even if it may be empty'
p3153
sI1221
S'        """'
p3154
sI1222
S'        def response(sql):'
p3155
sI1223
S'            self.execute(sql)'
p3156
sI1224
S'            return self.cursor.fetchall()'
p3157
sI1225
S'        sql = self._select(query,fields,attributes)'
p3158
sI1226
S"        if attributes.get('cache', None):"
p3159
sI1227
S"            (cache_model, time_expire) = attributes['cache']"
p3160
ssg3063
S"(sql='SELECT  quote.id, quote.content, quote.publicati...e WHERE (quote.publication_id = 9) ORDER BY date;')"
p3161
sg3065
S'response'
p3162
sa(dp3163
g3042
S'/home/kaique/Projects/web2py/gluon/dal.py'
p3164
sg3044
(dp3165
S'a'
S"('SELECT  quote.id, quote.content, quote.publicati...e WHERE (quote.publication_id = 9) ORDER BY date;',)"
p3166
sS'self'
p3167
S'<gluon.dal.SQLiteAdapter object>'
p3168
sS'b'
g20
sS'self.log_execute'
p3169
S'<bound method SQLiteAdapter.log_execute of <gluon.dal.SQLiteAdapter object>>'
p3170
ssg3050
I1309
sg3051
(dp3171
I1312
S'        if isinstance(obj,CALLABLETYPES):'
p3172
sI1313
S'            obj = obj()'
p3173
sI1304
S'        ret = self.cursor.execute(*a,**b)'
p3174
sI1305
S'        self.db._timings.append((a[0],time.time()-t0))'
p3175
sI1306
S'        return ret'
p3176
sI1307
S''
sI1308
S'    def execute(self,*a,**b):'
p3177
sI1309
S'        return self.log_execute(*a, **b)'
p3178
sI1310
S''
sI1311
S'    def represent(self, obj, fieldtype):'
p3179
ssg3063
S"(self=<gluon.dal.SQLiteAdapter object>, *a=('SELECT  quote.id, quote.content, quote.publicati...e WHERE (quote.publication_id = 9) ORDER BY date;',), **b={})"
p3180
sg3065
S'execute'
p3181
sa(dp3182
g3042
S'/home/kaique/Projects/web2py/gluon/dal.py'
p3183
sg3044
(dp3184
S'a'
S"('SELECT  quote.id, quote.content, quote.publicati...e WHERE (quote.publication_id = 9) ORDER BY date;',)"
p3185
sS'b'
g20
sS'self'
p3186
S'<gluon.dal.SQLiteAdapter object>'
p3187
sS'ret'
p3188
g3124
sS'self.cursor'
p3189
S'<sqlite3.Cursor object>'
p3190
sS'self.cursor.execute'
p3191
S'<built-in method execute of sqlite3.Cursor object>'
p3192
ssg3050
I1304
sg3051
(dp3193
I1299
S'        self.execute(query)'
p3194
sI1300
S''
sI1301
S'    def log_execute(self,*a,**b):'
p3195
sI1302
S'        self.db._lastsql = a[0]'
p3196
sI1303
S'        t0 = time.time()'
p3197
sI1304
S'        ret = self.cursor.execute(*a,**b)'
p3198
sI1305
S'        self.db._timings.append((a[0],time.time()-t0))'
p3199
sI1306
S'        return ret'
p3200
sI1307
S''
sI1308
S'    def execute(self,*a,**b):'
p3201
ssg3063
S"(self=<gluon.dal.SQLiteAdapter object>, *a=('SELECT  quote.id, quote.content, quote.publicati...e WHERE (quote.publication_id = 9) ORDER BY date;',), **b={})"
p3202
sg3065
S'log_execute'
p3203
sasS'pyver'
p3204
S'Python 2.7.2+: /usr/bin/python'
p3205
sS'session'
p3206
g60
(g61
g62
NtRp3207
(dp3208
g65
(dp3209
sg67
(lp3210
g60
(g69
g62
NtRp3211
(dp3212
g65
(dp3213
g73
I5
ssg74
Nsg67
(lp3214
g60
(g76
g62
NtRp3215
(dp3216
g65
(dp3217
sg74
g3211
sg67
(lp3218
g60
(g81
g62
NtRp3219
(dp3220
g65
(dp3221
g85
g86
ssg74
g3215
sg67
(lp3222
S'auth'
p3223
asbag60
(g81
g62
NtRp3224
(dp3225
g65
(dp3226
g92
g93
ssg74
g3215
sg67
(lp3227
S':'
asbag60
(g81
g62
NtRp3228
(dp3229
g65
(dp3230
sg74
g3215
sg67
(lp3231
g60
(g61
g62
NtRp3232
(dp3233
g65
(dp3234
g73
I5
ssg74
g3228
sg67
(lp3235
g60
(g69
g62
NtRp3236
(dp3237
g65
(dp3238
g73
I4
ssg74
Nsg67
(lp3239
g60
(g76
g62
NtRp3240
(dp3241
g65
(dp3242
sg74
g3236
sg67
(lp3243
g60
(g81
g62
NtRp3244
(dp3245
g65
(dp3246
g85
g86
ssg74
g3240
sg67
(lp3247
S'expiration'
p3248
asbag60
(g81
g62
NtRp3249
(dp3250
g65
(dp3251
g92
g93
ssg74
g3240
sg67
(lp3252
S':'
asbag60
(g81
g62
NtRp3253
(dp3254
g65
(dp3255
sg74
g3240
sg67
(lp3256
g60
(g61
g62
NtRp3257
(dp3258
g65
(dp3259
g73
I4
ssg74
g3253
sg67
(lp3260
S'2592000'
p3261
asbasbasbag60
(g76
g62
NtRp3262
(dp3263
g65
(dp3264
sg74
g3236
sg67
(lp3265
g60
(g81
g62
NtRp3266
(dp3267
g65
(dp3268
g85
g86
ssg74
g3262
sg67
(lp3269
S'hmac_key'
p3270
asbag60
(g81
g62
NtRp3271
(dp3272
g65
(dp3273
g92
g93
ssg74
g3262
sg67
(lp3274
S':'
asbag60
(g81
g62
NtRp3275
(dp3276
g65
(dp3277
sg74
g3262
sg67
(lp3278
g60
(g61
g62
NtRp3279
(dp3280
g65
(dp3281
g73
I4
ssg74
g3275
sg67
(lp3282
S'1d5aa0af-4cf6-4337-90a1-dbe4f55ac5ff'
p3283
asbasbasbag60
(g76
g62
NtRp3284
(dp3285
g65
(dp3286
sg74
g3236
sg67
(lp3287
g60
(g81
g62
NtRp3288
(dp3289
g65
(dp3290
g85
g86
ssg74
g3284
sg67
(lp3291
S'last_visit'
p3292
asbag60
(g81
g62
NtRp3293
(dp3294
g65
(dp3295
g92
g93
ssg74
g3284
sg67
(lp3296
S':'
asbag60
(g81
g62
NtRp3297
(dp3298
g65
(dp3299
sg74
g3284
sg67
(lp3300
g60
(g61
g62
NtRp3301
(dp3302
g65
(dp3303
g73
I4
ssg74
g3297
sg67
(lp3304
S'datetime.datetime(2012, 1, 15, 17, 21, 43, 927672)'
p3305
asbasbasbag60
(g76
g62
NtRp3306
(dp3307
g65
(dp3308
sg74
g3236
sg67
(lp3309
g60
(g81
g62
NtRp3310
(dp3311
g65
(dp3312
g85
g86
ssg74
g3306
sg67
(lp3313
S'remember'
p3314
asbag60
(g81
g62
NtRp3315
(dp3316
g65
(dp3317
g92
g93
ssg74
g3306
sg67
(lp3318
S':'
asbag60
(g81
g62
NtRp3319
(dp3320
g65
(dp3321
sg74
g3306
sg67
(lp3322
g60
(g61
g62
NtRp3323
(dp3324
g65
(dp3325
g73
I4
ssg74
g3319
sg67
(lp3326
g103
asbasbasbag60
(g76
g62
NtRp3327
(dp3328
g65
(dp3329
sg74
g3236
sg67
(lp3330
g60
(g81
g62
NtRp3331
(dp3332
g65
(dp3333
g85
g86
ssg74
g3327
sg67
(lp3334
S'user'
p3335
asbag60
(g81
g62
NtRp3336
(dp3337
g65
(dp3338
g92
g93
ssg74
g3327
sg67
(lp3339
S':'
asbag60
(g81
g62
NtRp3340
(dp3341
g65
(dp3342
sg74
g3327
sg67
(lp3343
g60
(g61
g62
NtRp3344
(dp3345
g65
(dp3346
g73
I4
ssg74
g3340
sg67
(lp3347
g60
(g69
g62
NtRp3348
(dp3349
g65
(dp3350
g73
I3
ssg74
Nsg67
(lp3351
g60
(g76
g62
NtRp3352
(dp3353
g65
(dp3354
sg74
g3348
sg67
(lp3355
g60
(g81
g62
NtRp3356
(dp3357
g65
(dp3358
g85
g86
ssg74
g3352
sg67
(lp3359
S'email'
p3360
asbag60
(g81
g62
NtRp3361
(dp3362
g65
(dp3363
g92
g93
ssg74
g3352
sg67
(lp3364
S':'
asbag60
(g81
g62
NtRp3365
(dp3366
g65
(dp3367
sg74
g3352
sg67
(lp3368
g60
(g61
g62
NtRp3369
(dp3370
g65
(dp3371
g73
I3
ssg74
g3365
sg67
(lp3372
S'kaique.developer@gmail.com'
p3373
asbasbasbag60
(g76
g62
NtRp3374
(dp3375
g65
(dp3376
sg74
g3348
sg67
(lp3377
g60
(g81
g62
NtRp3378
(dp3379
g65
(dp3380
g85
g86
ssg74
g3374
sg67
(lp3381
S'first_name'
p3382
asbag60
(g81
g62
NtRp3383
(dp3384
g65
(dp3385
g92
g93
ssg74
g3374
sg67
(lp3386
S':'
asbag60
(g81
g62
NtRp3387
(dp3388
g65
(dp3389
sg74
g3374
sg67
(lp3390
g60
(g61
g62
NtRp3391
(dp3392
g65
(dp3393
g73
I3
ssg74
g3387
sg67
(lp3394
S'kaique'
p3395
asbasbasbag60
(g76
g62
NtRp3396
(dp3397
g65
(dp3398
sg74
g3348
sg67
(lp3399
g60
(g81
g62
NtRp3400
(dp3401
g65
(dp3402
g85
g86
ssg74
g3396
sg67
(lp3403
S'id'
p3404
asbag60
(g81
g62
NtRp3405
(dp3406
g65
(dp3407
g92
g93
ssg74
g3396
sg67
(lp3408
S':'
asbag60
(g81
g62
NtRp3409
(dp3410
g65
(dp3411
sg74
g3396
sg67
(lp3412
g60
(g61
g62
NtRp3413
(dp3414
g65
(dp3415
g73
I3
ssg74
g3409
sg67
(lp3416
S'1'
asbasbasbag60
(g76
g62
NtRp3417
(dp3418
g65
(dp3419
sg74
g3348
sg67
(lp3420
g60
(g81
g62
NtRp3421
(dp3422
g65
(dp3423
g85
g86
ssg74
g3417
sg67
(lp3424
S'last_name'
p3425
asbag60
(g81
g62
NtRp3426
(dp3427
g65
(dp3428
g92
g93
ssg74
g3417
sg67
(lp3429
S':'
asbag60
(g81
g62
NtRp3430
(dp3431
g65
(dp3432
sg74
g3417
sg67
(lp3433
g60
(g61
g62
NtRp3434
(dp3435
g65
(dp3436
g73
I3
ssg74
g3430
sg67
(lp3437
S'silva'
p3438
asbasbasbag60
(g76
g62
NtRp3439
(dp3440
g65
(dp3441
sg74
g3348
sg67
(lp3442
g60
(g81
g62
NtRp3443
(dp3444
g65
(dp3445
g85
g86
ssg74
g3439
sg67
(lp3446
S'password'
p3447
asbag60
(g81
g62
NtRp3448
(dp3449
g65
(dp3450
g92
g93
ssg74
g3439
sg67
(lp3451
S':'
asbag60
(g81
g62
NtRp3452
(dp3453
g65
(dp3454
sg74
g3439
sg67
(lp3455
g60
(g61
g62
NtRp3456
(dp3457
g65
(dp3458
g73
I3
ssg74
g3452
sg67
(lp3459
S'72c6a018d62d3fb47d95389e4a062cd2'
p3460
asbasbasbag60
(g76
g62
NtRp3461
(dp3462
g65
(dp3463
sg74
g3348
sg67
(lp3464
g60
(g81
g62
NtRp3465
(dp3466
g65
(dp3467
g85
g86
ssg74
g3461
sg67
(lp3468
S'registration_key'
p3469
asbag60
(g81
g62
NtRp3470
(dp3471
g65
(dp3472
g92
g93
ssg74
g3461
sg67
(lp3473
S':'
asbag60
(g81
g62
NtRp3474
(dp3475
g65
(dp3476
sg74
g3461
sg67
(lp3477
g60
(g61
g62
NtRp3478
(dp3479
g65
(dp3480
g73
I3
ssg74
g3474
sg67
(lp3481
S''
asbasbasbag60
(g76
g62
NtRp3482
(dp3483
g65
(dp3484
sg74
g3348
sg67
(lp3485
g60
(g81
g62
NtRp3486
(dp3487
g65
(dp3488
g85
g86
ssg74
g3482
sg67
(lp3489
S'reset_password_key'
p3490
asbag60
(g81
g62
NtRp3491
(dp3492
g65
(dp3493
g92
g93
ssg74
g3482
sg67
(lp3494
S':'
asbag60
(g81
g62
NtRp3495
(dp3496
g65
(dp3497
sg74
g3482
sg67
(lp3498
g60
(g61
g62
NtRp3499
(dp3500
g65
(dp3501
g73
I3
ssg74
g3495
sg67
(lp3502
S''
asbasbasbasbasbasbasbasbasbasbasbag60
(g76
g62
NtRp3503
(dp3504
g65
(dp3505
sg74
g3211
sg67
(lp3506
g60
(g81
g62
NtRp3507
(dp3508
g65
(dp3509
g85
g86
ssg74
g3503
sg67
(lp3510
S'back'
p3511
asbag60
(g81
g62
NtRp3512
(dp3513
g65
(dp3514
g92
g93
ssg74
g3503
sg67
(lp3515
S':'
asbag60
(g81
g62
NtRp3516
(dp3517
g65
(dp3518
sg74
g3503
sg67
(lp3519
g60
(g61
g62
NtRp3520
(dp3521
g65
(dp3522
g73
I5
ssg74
g3516
sg67
(lp3523
S'9'
asbasbasbag60
(g76
g62
NtRp3524
(dp3525
g65
(dp3526
sg74
g3211
sg67
(lp3527
g60
(g81
g62
NtRp3528
(dp3529
g65
(dp3530
g85
g86
ssg74
g3524
sg67
(lp3531
S'index'
p3532
asbag60
(g81
g62
NtRp3533
(dp3534
g65
(dp3535
g92
g93
ssg74
g3524
sg67
(lp3536
S':'
asbag60
(g81
g62
NtRp3537
(dp3538
g65
(dp3539
sg74
g3524
sg67
(lp3540
g60
(g61
g62
NtRp3541
(dp3542
g65
(dp3543
g73
I5
ssg74
g3537
sg67
(lp3544
S'1'
asbasbasbasbasbsS'etype'
p3545
S"<class 'sqlite3.OperationalError'>"
p3546
sS'date'
p3547
S'Sun Jan 15 21:13:46 2012'
p3548
sg3162
g60
(g61
g62
NtRp3549
(dp3550
g65
(dp3551
sg67
(lp3552
g60
(g69
g62
NtRp3553
(dp3554
g65
(dp3555
g73
I5
ssg74
Nsg67
(lp3556
g60
(g76
g62
NtRp3557
(dp3558
g65
(dp3559
sg74
g3553
sg67
(lp3560
g60
(g81
g62
NtRp3561
(dp3562
g65
(dp3563
g85
g86
ssg74
g3557
sg67
(lp3564
g170
asbag60
(g81
g62
NtRp3565
(dp3566
g65
(dp3567
g92
g93
ssg74
g3557
sg67
(lp3568
S':'
asbag60
(g81
g62
NtRp3569
(dp3570
g65
(dp3571
sg74
g3557
sg67
(lp3572
g60
(g61
g62
NtRp3573
(dp3574
g65
(dp3575
g73
I5
ssg74
g3569
sg67
(lp3576
S'<cStringIO.StringO object at 0x3034d50>'
p3577
asbasbasbag60
(g76
g62
NtRp3578
(dp3579
g65
(dp3580
sg74
g3553
sg67
(lp3581
g60
(g81
g62
NtRp3582
(dp3583
g65
(dp3584
g85
g86
ssg74
g3578
sg67
(lp3585
g236
asbag60
(g81
g62
NtRp3586
(dp3587
g65
(dp3588
g92
g93
ssg74
g3578
sg67
(lp3589
S':'
asbag60
(g81
g62
NtRp3590
(dp3591
g65
(dp3592
sg74
g3578
sg67
(lp3593
g60
(g61
g62
NtRp3594
(dp3595
g65
(dp3596
g73
I5
ssg74
g3590
sg67
(lp3597
g60
(g69
g62
NtRp3598
(dp3599
g65
(dp3600
g73
I4
ssg74
Nsg67
(lp3601
g60
(g76
g62
NtRp3602
(dp3603
g65
(dp3604
sg74
g3598
sg67
(lp3605
g60
(g81
g62
NtRp3606
(dp3607
g65
(dp3608
g85
g86
ssg74
g3602
sg67
(lp3609
S'session_id_synopsis'
p3610
asbag60
(g81
g62
NtRp3611
(dp3612
g65
(dp3613
g92
g93
ssg74
g3602
sg67
(lp3614
S':'
asbag60
(g81
g62
NtRp3615
(dp3616
g65
(dp3617
sg74
g3602
sg67
(lp3618
g60
(g61
g62
NtRp3619
(dp3620
g65
(dp3621
g73
I4
ssg74
g3615
sg67
(lp3622
g60
(g69
g62
NtRp3623
(dp3624
g65
(dp3625
g73
I3
ssg74
Nsg67
(lp3626
g60
(g76
g62
NtRp3627
(dp3628
g65
(dp3629
sg74
g3623
sg67
(lp3630
g60
(g81
g62
NtRp3631
(dp3632
g65
(dp3633
g85
g86
ssg74
g3627
sg67
(lp3634
g286
asbag60
(g81
g62
NtRp3635
(dp3636
g65
(dp3637
g92
g93
ssg74
g3627
sg67
(lp3638
S':'
asbag60
(g81
g62
NtRp3639
(dp3640
g65
(dp3641
sg74
g3627
sg67
(lp3642
g60
(g61
g62
NtRp3643
(dp3644
g65
(dp3645
g73
I3
ssg74
g3639
sg67
(lp3646
S''
asbasbasbag60
(g76
g62
NtRp3647
(dp3648
g65
(dp3649
sg74
g3623
sg67
(lp3650
g60
(g81
g62
NtRp3651
(dp3652
g65
(dp3653
g85
g86
ssg74
g3647
sg67
(lp3654
g307
asbag60
(g81
g62
NtRp3655
(dp3656
g65
(dp3657
g92
g93
ssg74
g3647
sg67
(lp3658
S':'
asbag60
(g81
g62
NtRp3659
(dp3660
g65
(dp3661
sg74
g3647
sg67
(lp3662
g60
(g61
g62
NtRp3663
(dp3664
g65
(dp3665
g73
I3
ssg74
g3659
sg67
(lp3666
S''
asbasbasbag60
(g76
g62
NtRp3667
(dp3668
g65
(dp3669
sg74
g3623
sg67
(lp3670
g60
(g81
g62
NtRp3671
(dp3672
g65
(dp3673
g85
g86
ssg74
g3667
sg67
(lp3674
g328
asbag60
(g81
g62
NtRp3675
(dp3676
g65
(dp3677
g92
g93
ssg74
g3667
sg67
(lp3678
S':'
asbag60
(g81
g62
NtRp3679
(dp3680
g65
(dp3681
sg74
g3667
sg67
(lp3682
g60
(g61
g62
NtRp3683
(dp3684
g65
(dp3685
g73
I3
ssg74
g3679
sg67
(lp3686
S''
asbasbasbag60
(g76
g62
NtRp3687
(dp3688
g65
(dp3689
sg74
g3623
sg67
(lp3690
g60
(g81
g62
NtRp3691
(dp3692
g65
(dp3693
g85
g86
ssg74
g3687
sg67
(lp3694
g349
asbag60
(g81
g62
NtRp3695
(dp3696
g65
(dp3697
g92
g93
ssg74
g3687
sg67
(lp3698
S':'
asbag60
(g81
g62
NtRp3699
(dp3700
g65
(dp3701
sg74
g3687
sg67
(lp3702
g60
(g61
g62
NtRp3703
(dp3704
g65
(dp3705
g73
I3
ssg74
g3699
sg67
(lp3706
S''
asbasbasbag60
(g76
g62
NtRp3707
(dp3708
g65
(dp3709
sg74
g3623
sg67
(lp3710
g60
(g81
g62
NtRp3711
(dp3712
g65
(dp3713
g85
g86
ssg74
g3707
sg67
(lp3714
g370
asbag60
(g81
g62
NtRp3715
(dp3716
g65
(dp3717
g92
g93
ssg74
g3707
sg67
(lp3718
S':'
asbag60
(g81
g62
NtRp3719
(dp3720
g65
(dp3721
sg74
g3707
sg67
(lp3722
g60
(g61
g62
NtRp3723
(dp3724
g65
(dp3725
g73
I3
ssg74
g3719
sg67
(lp3726
S''
asbasbasbag60
(g76
g62
NtRp3727
(dp3728
g65
(dp3729
sg74
g3623
sg67
(lp3730
g60
(g81
g62
NtRp3731
(dp3732
g65
(dp3733
g85
g86
ssg74
g3727
sg67
(lp3734
g391
asbag60
(g81
g62
NtRp3735
(dp3736
g65
(dp3737
g92
g93
ssg74
g3727
sg67
(lp3738
S':'
asbag60
(g81
g62
NtRp3739
(dp3740
g65
(dp3741
sg74
g3727
sg67
(lp3742
g60
(g61
g62
NtRp3743
(dp3744
g65
(dp3745
g73
I3
ssg74
g3739
sg67
(lp3746
S'/'
asbasbasbag60
(g76
g62
NtRp3747
(dp3748
g65
(dp3749
sg74
g3623
sg67
(lp3750
g60
(g81
g62
NtRp3751
(dp3752
g65
(dp3753
g85
g86
ssg74
g3747
sg67
(lp3754
g412
asbag60
(g81
g62
NtRp3755
(dp3756
g65
(dp3757
g92
g93
ssg74
g3747
sg67
(lp3758
S':'
asbag60
(g81
g62
NtRp3759
(dp3760
g65
(dp3761
sg74
g3747
sg67
(lp3762
g60
(g61
g62
NtRp3763
(dp3764
g65
(dp3765
g73
I3
ssg74
g3759
sg67
(lp3766
S''
asbasbasbag60
(g76
g62
NtRp3767
(dp3768
g65
(dp3769
sg74
g3623
sg67
(lp3770
g60
(g81
g62
NtRp3771
(dp3772
g65
(dp3773
g85
g86
ssg74
g3767
sg67
(lp3774
g433
asbag60
(g81
g62
NtRp3775
(dp3776
g65
(dp3777
g92
g93
ssg74
g3767
sg67
(lp3778
S':'
asbag60
(g81
g62
NtRp3779
(dp3780
g65
(dp3781
sg74
g3767
sg67
(lp3782
g60
(g61
g62
NtRp3783
(dp3784
g65
(dp3785
g73
I3
ssg74
g3779
sg67
(lp3786
S''
asbasbasbasbasbasbasbasbasbasbasbag60
(g76
g62
NtRp3787
(dp3788
g65
(dp3789
sg74
g3553
sg67
(lp3790
g60
(g81
g62
NtRp3791
(dp3792
g65
(dp3793
g85
g86
ssg74
g3787
sg67
(lp3794
S'files'
p3795
asbag60
(g81
g62
NtRp3796
(dp3797
g65
(dp3798
g92
g93
ssg74
g3787
sg67
(lp3799
S':'
asbag60
(g81
g62
NtRp3800
(dp3801
g65
(dp3802
sg74
g3787
sg67
(lp3803
g60
(g61
g62
NtRp3804
(dp3805
g65
(dp3806
g73
I5
ssg74
g3800
sg67
(lp3807
g60
(g69
g62
NtRp3808
(dp3809
g65
(dp3810
g73
I4
ssg74
Nsg67
(lp3811
g60
(g76
g62
NtRp3812
(dp3813
g65
(dp3814
sg74
g3808
sg67
(lp3815
g60
(g81
g62
NtRp3816
(dp3817
g65
(dp3818
sg74
g3812
sg67
(lp3819
g60
(g61
g62
NtRp3820
(dp3821
g65
(dp3822
g73
I4
ssg74
g3816
sg67
(lp3823
S'/synopsis/static/js/jquery.js'
p3824
asbasbasbag60
(g76
g62
NtRp3825
(dp3826
g65
(dp3827
sg74
g3808
sg67
(lp3828
g60
(g81
g62
NtRp3829
(dp3830
g65
(dp3831
sg74
g3825
sg67
(lp3832
g60
(g61
g62
NtRp3833
(dp3834
g65
(dp3835
g73
I4
ssg74
g3829
sg67
(lp3836
S'/synopsis/static/css/anytime.css'
p3837
asbasbasbag60
(g76
g62
NtRp3838
(dp3839
g65
(dp3840
sg74
g3808
sg67
(lp3841
g60
(g81
g62
NtRp3842
(dp3843
g65
(dp3844
sg74
g3838
sg67
(lp3845
g60
(g61
g62
NtRp3846
(dp3847
g65
(dp3848
g73
I4
ssg74
g3842
sg67
(lp3849
S'/synopsis/static/js/anytime.js'
p3850
asbasbasbag60
(g76
g62
NtRp3851
(dp3852
g65
(dp3853
sg74
g3808
sg67
(lp3854
g60
(g81
g62
NtRp3855
(dp3856
g65
(dp3857
sg74
g3851
sg67
(lp3858
g60
(g61
g62
NtRp3859
(dp3860
g65
(dp3861
g73
I4
ssg74
g3855
sg67
(lp3862
S'/synopsis/static/css/base.css'
p3863
asbasbasbag60
(g76
g62
NtRp3864
(dp3865
g65
(dp3866
sg74
g3808
sg67
(lp3867
g60
(g81
g62
NtRp3868
(dp3869
g65
(dp3870
sg74
g3864
sg67
(lp3871
g60
(g61
g62
NtRp3872
(dp3873
g65
(dp3874
g73
I4
ssg74
g3868
sg67
(lp3875
S'/synopsis/static/css/superfish.css'
p3876
asbasbasbag60
(g76
g62
NtRp3877
(dp3878
g65
(dp3879
sg74
g3808
sg67
(lp3880
g60
(g81
g62
NtRp3881
(dp3882
g65
(dp3883
sg74
g3877
sg67
(lp3884
g60
(g61
g62
NtRp3885
(dp3886
g65
(dp3887
g73
I4
ssg74
g3881
sg67
(lp3888
S'/synopsis/static/js/superfish.js'
p3889
asbasbasbasbasbasbasbag60
(g76
g62
NtRp3890
(dp3891
g65
(dp3892
sg74
g3553
sg67
(lp3893
g60
(g81
g62
NtRp3894
(dp3895
g65
(dp3896
g85
g86
ssg74
g3890
sg67
(lp3897
S'flash'
p3898
asbag60
(g81
g62
NtRp3899
(dp3900
g65
(dp3901
g92
g93
ssg74
g3890
sg67
(lp3902
S':'
asbag60
(g81
g62
NtRp3903
(dp3904
g65
(dp3905
sg74
g3890
sg67
(lp3906
g60
(g61
g62
NtRp3907
(dp3908
g65
(dp3909
g73
I5
ssg74
g3903
sg67
(lp3910
S''
asbasbasbag60
(g76
g62
NtRp3911
(dp3912
g65
(dp3913
sg74
g3553
sg67
(lp3914
g60
(g81
g62
NtRp3915
(dp3916
g65
(dp3917
g85
g86
ssg74
g3911
sg67
(lp3918
S'generic_patterns'
p3919
asbag60
(g81
g62
NtRp3920
(dp3921
g65
(dp3922
g92
g93
ssg74
g3911
sg67
(lp3923
S':'
asbag60
(g81
g62
NtRp3924
(dp3925
g65
(dp3926
sg74
g3911
sg67
(lp3927
g60
(g61
g62
NtRp3928
(dp3929
g65
(dp3930
g73
I5
ssg74
g3924
sg67
(lp3931
g60
(g69
g62
NtRp3932
(dp3933
g65
(dp3934
g73
I4
ssg74
Nsg67
(lp3935
g60
(g76
g62
NtRp3936
(dp3937
g65
(dp3938
sg74
g3932
sg67
(lp3939
g60
(g81
g62
NtRp3940
(dp3941
g65
(dp3942
sg74
g3936
sg67
(lp3943
g60
(g61
g62
NtRp3944
(dp3945
g65
(dp3946
g73
I4
ssg74
g3940
sg67
(lp3947
S'*'
asbasbasbasbasbasbasbag60
(g76
g62
NtRp3948
(dp3949
g65
(dp3950
sg74
g3553
sg67
(lp3951
g60
(g81
g62
NtRp3952
(dp3953
g65
(dp3954
g85
g86
ssg74
g3948
sg67
(lp3955
S'headers'
p3956
asbag60
(g81
g62
NtRp3957
(dp3958
g65
(dp3959
g92
g93
ssg74
g3948
sg67
(lp3960
S':'
asbag60
(g81
g62
NtRp3961
(dp3962
g65
(dp3963
sg74
g3948
sg67
(lp3964
g60
(g61
g62
NtRp3965
(dp3966
g65
(dp3967
g73
I5
ssg74
g3961
sg67
(lp3968
g60
(g69
g62
NtRp3969
(dp3970
g65
(dp3971
g73
I4
ssg74
Nsg67
(lp3972
g60
(g76
g62
NtRp3973
(dp3974
g65
(dp3975
sg74
g3969
sg67
(lp3976
g60
(g81
g62
NtRp3977
(dp3978
g65
(dp3979
g85
g86
ssg74
g3973
sg67
(lp3980
S'Cache-Control'
p3981
asbag60
(g81
g62
NtRp3982
(dp3983
g65
(dp3984
g92
g93
ssg74
g3973
sg67
(lp3985
S':'
asbag60
(g81
g62
NtRp3986
(dp3987
g65
(dp3988
sg74
g3973
sg67
(lp3989
g60
(g61
g62
NtRp3990
(dp3991
g65
(dp3992
g73
I4
ssg74
g3986
sg67
(lp3993
S'no-store, no-cache, must-revalidate, post-check=0, pre-check=0'
p3994
asbasbasbag60
(g76
g62
NtRp3995
(dp3996
g65
(dp3997
sg74
g3969
sg67
(lp3998
g60
(g81
g62
NtRp3999
(dp4000
g65
(dp4001
g85
g86
ssg74
g3995
sg67
(lp4002
S'Content-Type'
p4003
asbag60
(g81
g62
NtRp4004
(dp4005
g65
(dp4006
g92
g93
ssg74
g3995
sg67
(lp4007
S':'
asbag60
(g81
g62
NtRp4008
(dp4009
g65
(dp4010
sg74
g3995
sg67
(lp4011
g60
(g61
g62
NtRp4012
(dp4013
g65
(dp4014
g73
I4
ssg74
g4008
sg67
(lp4015
S'text/html; charset=utf-8'
p4016
asbasbasbag60
(g76
g62
NtRp4017
(dp4018
g65
(dp4019
sg74
g3969
sg67
(lp4020
g60
(g81
g62
NtRp4021
(dp4022
g65
(dp4023
g85
g86
ssg74
g4017
sg67
(lp4024
S'Expires'
p4025
asbag60
(g81
g62
NtRp4026
(dp4027
g65
(dp4028
g92
g93
ssg74
g4017
sg67
(lp4029
S':'
asbag60
(g81
g62
NtRp4030
(dp4031
g65
(dp4032
sg74
g4017
sg67
(lp4033
g60
(g61
g62
NtRp4034
(dp4035
g65
(dp4036
g73
I4
ssg74
g4030
sg67
(lp4037
S'Sun, 15 Jan 2012 23:13:46 GMT'
p4038
asbasbasbag60
(g76
g62
NtRp4039
(dp4040
g65
(dp4041
sg74
g3969
sg67
(lp4042
g60
(g81
g62
NtRp4043
(dp4044
g65
(dp4045
g85
g86
ssg74
g4039
sg67
(lp4046
S'Pragma'
p4047
asbag60
(g81
g62
NtRp4048
(dp4049
g65
(dp4050
g92
g93
ssg74
g4039
sg67
(lp4051
S':'
asbag60
(g81
g62
NtRp4052
(dp4053
g65
(dp4054
sg74
g4039
sg67
(lp4055
g60
(g61
g62
NtRp4056
(dp4057
g65
(dp4058
g73
I4
ssg74
g4052
sg67
(lp4059
S'no-cache'
p4060
asbasbasbag60
(g76
g62
NtRp4061
(dp4062
g65
(dp4063
sg74
g3969
sg67
(lp4064
g60
(g81
g62
NtRp4065
(dp4066
g65
(dp4067
g85
g86
ssg74
g4061
sg67
(lp4068
S'X-Powered-By'
p4069
asbag60
(g81
g62
NtRp4070
(dp4071
g65
(dp4072
g92
g93
ssg74
g4061
sg67
(lp4073
S':'
asbag60
(g81
g62
NtRp4074
(dp4075
g65
(dp4076
sg74
g4061
sg67
(lp4077
g60
(g61
g62
NtRp4078
(dp4079
g65
(dp4080
g73
I4
ssg74
g4074
sg67
(lp4081
S'web2py'
p4082
asbasbasbasbasbasbasbag60
(g76
g62
NtRp4083
(dp4084
g65
(dp4085
sg74
g3553
sg67
(lp4086
g60
(g81
g62
NtRp4087
(dp4088
g65
(dp4089
g85
g86
ssg74
g4083
sg67
(lp4090
S'menu'
p4091
asbag60
(g81
g62
NtRp4092
(dp4093
g65
(dp4094
g92
g93
ssg74
g4083
sg67
(lp4095
S':'
asbag60
(g81
g62
NtRp4096
(dp4097
g65
(dp4098
sg74
g4083
sg67
(lp4099
g60
(g61
g62
NtRp4100
(dp4101
g65
(dp4102
g73
I5
ssg74
g4096
sg67
(lp4103
g60
(g69
g62
NtRp4104
(dp4105
g65
(dp4106
g73
I4
ssg74
Nsg67
(lp4107
g60
(g76
g62
NtRp4108
(dp4109
g65
(dp4110
sg74
g4104
sg67
(lp4111
g60
(g81
g62
NtRp4112
(dp4113
g65
(dp4114
sg74
g4108
sg67
(lp4115
g60
(g61
g62
NtRp4116
(dp4117
g65
(dp4118
g73
I4
ssg74
g4112
sg67
(lp4119
g60
(g69
g62
NtRp4120
(dp4121
g65
(dp4122
g73
I3
ssg74
Nsg67
(lp4123
g60
(g76
g62
NtRp4124
(dp4125
g65
(dp4126
sg74
g4120
sg67
(lp4127
g60
(g81
g62
NtRp4128
(dp4129
g65
(dp4130
sg74
g4124
sg67
(lp4131
g60
(g61
g62
NtRp4132
(dp4133
g65
(dp4134
g73
I3
ssg74
g4128
sg67
(lp4135
cgluon.languages
lazyT_unpickle
p4136
(S't\x04\x00\x00\x00Home'
tRp4137
asbasbasbag60
(g76
g62
NtRp4138
(dp4139
g65
(dp4140
sg74
g4120
sg67
(lp4141
g60
(g81
g62
NtRp4142
(dp4143
g65
(dp4144
sg74
g4138
sg67
(lp4145
g60
(g61
g62
NtRp4146
(dp4147
g65
(dp4148
g73
I3
ssg74
g4142
sg67
(lp4149
g103
asbasbasbag60
(g76
g62
NtRp4150
(dp4151
g65
(dp4152
sg74
g4120
sg67
(lp4153
g60
(g81
g62
NtRp4154
(dp4155
g65
(dp4156
sg74
g4150
sg67
(lp4157
g60
(g61
g62
NtRp4158
(dp4159
g65
(dp4160
g73
I3
ssg74
g4154
sg67
(lp4161
S'/synopsis/default/index'
p4162
asbasbasbag60
(g76
g62
NtRp4163
(dp4164
g65
(dp4165
sg74
g4120
sg67
(lp4166
g60
(g81
g62
NtRp4167
(dp4168
g65
(dp4169
sg74
g4163
sg67
(lp4170
g60
(g61
g62
NtRp4171
(dp4172
g65
(dp4173
g73
I3
ssg74
g4167
sg67
(lp4174
g60
(g69
g62
NtRp4175
(dp4176
g65
(dp4177
g73
I2
ssg74
Nsg67
(lp4178
sbasbasbasbasbasbasbasbag60
(g76
g62
NtRp4179
(dp4180
g65
(dp4181
sg74
g4104
sg67
(lp4182
g60
(g81
g62
NtRp4183
(dp4184
g65
(dp4185
sg74
g4179
sg67
(lp4186
g60
(g61
g62
NtRp4187
(dp4188
g65
(dp4189
g73
I4
ssg74
g4183
sg67
(lp4190
g60
(g69
g62
NtRp4191
(dp4192
g65
(dp4193
g73
I3
ssg74
Nsg67
(lp4194
g60
(g76
g62
NtRp4195
(dp4196
g65
(dp4197
sg74
g4191
sg67
(lp4198
g60
(g81
g62
NtRp4199
(dp4200
g65
(dp4201
sg74
g4195
sg67
(lp4202
g60
(g61
g62
NtRp4203
(dp4204
g65
(dp4205
g73
I3
ssg74
g4199
sg67
(lp4206
g4136
(S't\x0b\x00\x00\x00Information'
tRp4207
asbasbasbag60
(g76
g62
NtRp4208
(dp4209
g65
(dp4210
sg74
g4191
sg67
(lp4211
g60
(g81
g62
NtRp4212
(dp4213
g65
(dp4214
sg74
g4208
sg67
(lp4215
g60
(g61
g62
NtRp4216
(dp4217
g65
(dp4218
g73
I3
ssg74
g4212
sg67
(lp4219
g103
asbasbasbag60
(g76
g62
NtRp4220
(dp4221
g65
(dp4222
sg74
g4191
sg67
(lp4223
g60
(g81
g62
NtRp4224
(dp4225
g65
(dp4226
sg74
g4220
sg67
(lp4227
g60
(g61
g62
NtRp4228
(dp4229
g65
(dp4230
g73
I3
ssg74
g4224
sg67
(lp4231
S'/synopsis/information/index'
p4232
asbasbasbag60
(g76
g62
NtRp4233
(dp4234
g65
(dp4235
sg74
g4191
sg67
(lp4236
g60
(g81
g62
NtRp4237
(dp4238
g65
(dp4239
sg74
g4233
sg67
(lp4240
g60
(g61
g62
NtRp4241
(dp4242
g65
(dp4243
g73
I3
ssg74
g4237
sg67
(lp4244
g60
(g69
g62
NtRp4245
(dp4246
g65
(dp4247
g73
I2
ssg74
Nsg67
(lp4248
sbasbasbasbasbasbasbasbag60
(g76
g62
NtRp4249
(dp4250
g65
(dp4251
sg74
g4104
sg67
(lp4252
g60
(g81
g62
NtRp4253
(dp4254
g65
(dp4255
sg74
g4249
sg67
(lp4256
g60
(g61
g62
NtRp4257
(dp4258
g65
(dp4259
g73
I4
ssg74
g4253
sg67
(lp4260
g60
(g69
g62
NtRp4261
(dp4262
g65
(dp4263
g73
I3
ssg74
Nsg67
(lp4264
g60
(g76
g62
NtRp4265
(dp4266
g65
(dp4267
sg74
g4261
sg67
(lp4268
g60
(g81
g62
NtRp4269
(dp4270
g65
(dp4271
sg74
g4265
sg67
(lp4272
g60
(g61
g62
NtRp4273
(dp4274
g65
(dp4275
g73
I3
ssg74
g4269
sg67
(lp4276
g4136
(S't\x05\x00\x00\x00About'
tRp4277
asbasbasbag60
(g76
g62
NtRp4278
(dp4279
g65
(dp4280
sg74
g4261
sg67
(lp4281
g60
(g81
g62
NtRp4282
(dp4283
g65
(dp4284
sg74
g4278
sg67
(lp4285
g60
(g61
g62
NtRp4286
(dp4287
g65
(dp4288
g73
I3
ssg74
g4282
sg67
(lp4289
g103
asbasbasbag60
(g76
g62
NtRp4290
(dp4291
g65
(dp4292
sg74
g4261
sg67
(lp4293
g60
(g81
g62
NtRp4294
(dp4295
g65
(dp4296
sg74
g4290
sg67
(lp4297
g60
(g61
g62
NtRp4298
(dp4299
g65
(dp4300
g73
I3
ssg74
g4294
sg67
(lp4301
S'/synopsis/about/index'
p4302
asbasbasbag60
(g76
g62
NtRp4303
(dp4304
g65
(dp4305
sg74
g4261
sg67
(lp4306
g60
(g81
g62
NtRp4307
(dp4308
g65
(dp4309
sg74
g4303
sg67
(lp4310
g60
(g61
g62
NtRp4311
(dp4312
g65
(dp4313
g73
I3
ssg74
g4307
sg67
(lp4314
g60
(g69
g62
NtRp4315
(dp4316
g65
(dp4317
g73
I2
ssg74
Nsg67
(lp4318
sbasbasbasbasbasbasbasbasbasbasbasbag60
(g76
g62
NtRp4319
(dp4320
g65
(dp4321
sg74
g3553
sg67
(lp4322
g60
(g81
g62
NtRp4323
(dp4324
g65
(dp4325
g85
g86
ssg74
g4319
sg67
(lp4326
S'meta'
p4327
asbag60
(g81
g62
NtRp4328
(dp4329
g65
(dp4330
g92
g93
ssg74
g4319
sg67
(lp4331
S':'
asbag60
(g81
g62
NtRp4332
(dp4333
g65
(dp4334
sg74
g4319
sg67
(lp4335
g60
(g61
g62
NtRp4336
(dp4337
g65
(dp4338
g73
I5
ssg74
g4332
sg67
(lp4339
g60
(g69
g62
NtRp4340
(dp4341
g65
(dp4342
g73
I4
ssg74
Nsg67
(lp4343
g60
(g76
g62
NtRp4344
(dp4345
g65
(dp4346
sg74
g4340
sg67
(lp4347
g60
(g81
g62
NtRp4348
(dp4349
g65
(dp4350
g85
g86
ssg74
g4344
sg67
(lp4351
S'author'
p4352
asbag60
(g81
g62
NtRp4353
(dp4354
g65
(dp4355
g92
g93
ssg74
g4344
sg67
(lp4356
S':'
asbag60
(g81
g62
NtRp4357
(dp4358
g65
(dp4359
sg74
g4344
sg67
(lp4360
g60
(g61
g62
NtRp4361
(dp4362
g65
(dp4363
g73
I4
ssg74
g4357
sg67
(lp4364
S'Your Name <you@example.com>'
p4365
asbasbasbag60
(g76
g62
NtRp4366
(dp4367
g65
(dp4368
sg74
g4340
sg67
(lp4369
g60
(g81
g62
NtRp4370
(dp4371
g65
(dp4372
g85
g86
ssg74
g4366
sg67
(lp4373
S'copyright'
p4374
asbag60
(g81
g62
NtRp4375
(dp4376
g65
(dp4377
g92
g93
ssg74
g4366
sg67
(lp4378
S':'
asbag60
(g81
g62
NtRp4379
(dp4380
g65
(dp4381
sg74
g4366
sg67
(lp4382
g60
(g61
g62
NtRp4383
(dp4384
g65
(dp4385
g73
I4
ssg74
g4379
sg67
(lp4386
S'Copyright 2011'
p4387
asbasbasbag60
(g76
g62
NtRp4388
(dp4389
g65
(dp4390
sg74
g4340
sg67
(lp4391
g60
(g81
g62
NtRp4392
(dp4393
g65
(dp4394
g85
g86
ssg74
g4388
sg67
(lp4395
S'description'
p4396
asbag60
(g81
g62
NtRp4397
(dp4398
g65
(dp4399
g92
g93
ssg74
g4388
sg67
(lp4400
S':'
asbag60
(g81
g62
NtRp4401
(dp4402
g65
(dp4403
sg74
g4388
sg67
(lp4404
g60
(g61
g62
NtRp4405
(dp4406
g65
(dp4407
g73
I4
ssg74
g4401
sg67
(lp4408
S'a cool new app'
p4409
asbasbasbag60
(g76
g62
NtRp4410
(dp4411
g65
(dp4412
sg74
g4340
sg67
(lp4413
g60
(g81
g62
NtRp4414
(dp4415
g65
(dp4416
g85
g86
ssg74
g4410
sg67
(lp4417
S'generator'
p4418
asbag60
(g81
g62
NtRp4419
(dp4420
g65
(dp4421
g92
g93
ssg74
g4410
sg67
(lp4422
S':'
asbag60
(g81
g62
NtRp4423
(dp4424
g65
(dp4425
sg74
g4410
sg67
(lp4426
g60
(g61
g62
NtRp4427
(dp4428
g65
(dp4429
g73
I4
ssg74
g4423
sg67
(lp4430
S'Web2py Web Framework'
p4431
asbasbasbag60
(g76
g62
NtRp4432
(dp4433
g65
(dp4434
sg74
g4340
sg67
(lp4435
g60
(g81
g62
NtRp4436
(dp4437
g65
(dp4438
g85
g86
ssg74
g4432
sg67
(lp4439
S'keywords'
p4440
asbag60
(g81
g62
NtRp4441
(dp4442
g65
(dp4443
g92
g93
ssg74
g4432
sg67
(lp4444
S':'
asbag60
(g81
g62
NtRp4445
(dp4446
g65
(dp4447
sg74
g4432
sg67
(lp4448
g60
(g61
g62
NtRp4449
(dp4450
g65
(dp4451
g73
I4
ssg74
g4445
sg67
(lp4452
S'web2py, python, framework'
p4453
asbasbasbasbasbasbasbag60
(g76
g62
NtRp4454
(dp4455
g65
(dp4456
sg74
g3553
sg67
(lp4457
g60
(g81
g62
NtRp4458
(dp4459
g65
(dp4460
g85
g86
ssg74
g4454
sg67
(lp4461
S'postprocessing'
p4462
asbag60
(g81
g62
NtRp4463
(dp4464
g65
(dp4465
g92
g93
ssg74
g4454
sg67
(lp4466
S':'
asbag60
(g81
g62
NtRp4467
(dp4468
g65
(dp4469
sg74
g4454
sg67
(lp4470
g60
(g61
g62
NtRp4471
(dp4472
g65
(dp4473
g73
I5
ssg74
g4467
sg67
(lp4474
g60
(g69
g62
NtRp4475
(dp4476
g65
(dp4477
g73
I4
ssg74
Nsg67
(lp4478
sbasbasbasbag60
(g76
g62
NtRp4479
(dp4480
g65
(dp4481
sg74
g3553
sg67
(lp4482
g60
(g81
g62
NtRp4483
(dp4484
g65
(dp4485
g85
g86
ssg74
g4479
sg67
(lp4486
S'session_file'
p4487
asbag60
(g81
g62
NtRp4488
(dp4489
g65
(dp4490
g92
g93
ssg74
g4479
sg67
(lp4491
S':'
asbag60
(g81
g62
NtRp4492
(dp4493
g65
(dp4494
sg74
g4479
sg67
(lp4495
g60
(g61
g62
NtRp4496
(dp4497
g65
(dp4498
g73
I5
ssg74
g4492
sg67
(lp4499
S"<open file '/home/kaique/Projects/web2py/applications/synopsis/sessions/127.0.0.1-6cb7001e-855b-469f-b7b5-c129d0f3ec70', mode 'rb+' at 0x2fe31e0>"
p4500
asbasbasbag60
(g76
g62
NtRp4501
(dp4502
g65
(dp4503
sg74
g3553
sg67
(lp4504
g60
(g81
g62
NtRp4505
(dp4506
g65
(dp4507
g85
g86
ssg74
g4501
sg67
(lp4508
S'session_filename'
p4509
asbag60
(g81
g62
NtRp4510
(dp4511
g65
(dp4512
g92
g93
ssg74
g4501
sg67
(lp4513
S':'
asbag60
(g81
g62
NtRp4514
(dp4515
g65
(dp4516
sg74
g4501
sg67
(lp4517
g60
(g61
g62
NtRp4518
(dp4519
g65
(dp4520
g73
I5
ssg74
g4514
sg67
(lp4521
S'/home/kaique/Projects/web2py/applications/synopsis/sessions/127.0.0.1-6cb7001e-855b-469f-b7b5-c129d0f3ec70'
p4522
asbasbasbag60
(g76
g62
NtRp4523
(dp4524
g65
(dp4525
sg74
g3553
sg67
(lp4526
g60
(g81
g62
NtRp4527
(dp4528
g65
(dp4529
g85
g86
ssg74
g4523
sg67
(lp4530
S'session_id'
p4531
asbag60
(g81
g62
NtRp4532
(dp4533
g65
(dp4534
g92
g93
ssg74
g4523
sg67
(lp4535
S':'
asbag60
(g81
g62
NtRp4536
(dp4537
g65
(dp4538
sg74
g4523
sg67
(lp4539
g60
(g61
g62
NtRp4540
(dp4541
g65
(dp4542
g73
I5
ssg74
g4536
sg67
(lp4543
S'127.0.0.1-6cb7001e-855b-469f-b7b5-c129d0f3ec70'
p4544
asbasbasbag60
(g76
g62
NtRp4545
(dp4546
g65
(dp4547
sg74
g3553
sg67
(lp4548
g60
(g81
g62
NtRp4549
(dp4550
g65
(dp4551
g85
g86
ssg74
g4545
sg67
(lp4552
S'session_id_name'
p4553
asbag60
(g81
g62
NtRp4554
(dp4555
g65
(dp4556
g92
g93
ssg74
g4545
sg67
(lp4557
S':'
asbag60
(g81
g62
NtRp4558
(dp4559
g65
(dp4560
sg74
g4545
sg67
(lp4561
g60
(g61
g62
NtRp4562
(dp4563
g65
(dp4564
g73
I5
ssg74
g4558
sg67
(lp4565
g3610
asbasbasbag60
(g76
g62
NtRp4566
(dp4567
g65
(dp4568
sg74
g3553
sg67
(lp4569
g60
(g81
g62
NtRp4570
(dp4571
g65
(dp4572
g85
g86
ssg74
g4566
sg67
(lp4573
S'session_locked'
p4574
asbag60
(g81
g62
NtRp4575
(dp4576
g65
(dp4577
g92
g93
ssg74
g4566
sg67
(lp4578
S':'
asbag60
(g81
g62
NtRp4579
(dp4580
g65
(dp4581
sg74
g4566
sg67
(lp4582
g60
(g61
g62
NtRp4583
(dp4584
g65
(dp4585
g73
I5
ssg74
g4579
sg67
(lp4586
g1694
asbasbasbag60
(g76
g62
NtRp4587
(dp4588
g65
(dp4589
sg74
g3553
sg67
(lp4590
g60
(g81
g62
NtRp4591
(dp4592
g65
(dp4593
g85
g86
ssg74
g4587
sg67
(lp4594
S'session_new'
p4595
asbag60
(g81
g62
NtRp4596
(dp4597
g65
(dp4598
g92
g93
ssg74
g4587
sg67
(lp4599
S':'
asbag60
(g81
g62
NtRp4600
(dp4601
g65
(dp4602
sg74
g4587
sg67
(lp4603
g60
(g61
g62
NtRp4604
(dp4605
g65
(dp4606
g73
I5
ssg74
g4600
sg67
(lp4607
g103
asbasbasbag60
(g76
g62
NtRp4608
(dp4609
g65
(dp4610
sg74
g3553
sg67
(lp4611
g60
(g81
g62
NtRp4612
(dp4613
g65
(dp4614
g85
g86
ssg74
g4608
sg67
(lp4615
S'status'
p4616
asbag60
(g81
g62
NtRp4617
(dp4618
g65
(dp4619
g92
g93
ssg74
g4608
sg67
(lp4620
S':'
asbag60
(g81
g62
NtRp4621
(dp4622
g65
(dp4623
sg74
g4608
sg67
(lp4624
g60
(g61
g62
NtRp4625
(dp4626
g65
(dp4627
g73
I5
ssg74
g4621
sg67
(lp4628
S'200'
p4629
asbasbasbag60
(g76
g62
NtRp4630
(dp4631
g65
(dp4632
sg74
g3553
sg67
(lp4633
g60
(g81
g62
NtRp4634
(dp4635
g65
(dp4636
g85
g86
ssg74
g4630
sg67
(lp4637
S'subtitle'
p4638
asbag60
(g81
g62
NtRp4639
(dp4640
g65
(dp4641
g92
g93
ssg74
g4630
sg67
(lp4642
S':'
asbag60
(g81
g62
NtRp4643
(dp4644
g65
(dp4645
sg74
g4630
sg67
(lp4646
g60
(g61
g62
NtRp4647
(dp4648
g65
(dp4649
g73
I5
ssg74
g4643
sg67
(lp4650
g4136
(S's\x0f\x00\x00\x00Personalize-me!'
tRp4651
asbasbasbag60
(g76
g62
NtRp4652
(dp4653
g65
(dp4654
sg74
g3553
sg67
(lp4655
g60
(g81
g62
NtRp4656
(dp4657
g65
(dp4658
g85
g86
ssg74
g4652
sg67
(lp4659
S'title'
p4660
asbag60
(g81
g62
NtRp4661
(dp4662
g65
(dp4663
g92
g93
ssg74
g4652
sg67
(lp4664
S':'
asbag60
(g81
g62
NtRp4665
(dp4666
g65
(dp4667
sg74
g4652
sg67
(lp4668
g60
(g61
g62
NtRp4669
(dp4670
g65
(dp4671
g73
I5
ssg74
g4665
sg67
(lp4672
g125
asbasbasbag60
(g76
g62
NtRp4673
(dp4674
g65
(dp4675
sg74
g3553
sg67
(lp4676
g60
(g81
g62
NtRp4677
(dp4678
g65
(dp4679
g85
g86
ssg74
g4673
sg67
(lp4680
g2359
asbag60
(g81
g62
NtRp4681
(dp4682
g65
(dp4683
g92
g93
ssg74
g4673
sg67
(lp4684
S':'
asbag60
(g81
g62
NtRp4685
(dp4686
g65
(dp4687
sg74
g4673
sg67
(lp4688
g60
(g61
g62
NtRp4689
(dp4690
g65
(dp4691
g73
I5
ssg74
g4685
sg67
(lp4692
g2372
asbasbasbag60
(g76
g62
NtRp4693
(dp4694
g65
(dp4695
sg74
g3553
sg67
(lp4696
g60
(g81
g62
NtRp4697
(dp4698
g65
(dp4699
g85
g86
ssg74
g4693
sg67
(lp4700
S'view'
p4701
asbag60
(g81
g62
NtRp4702
(dp4703
g65
(dp4704
g92
g93
ssg74
g4693
sg67
(lp4705
S':'
asbag60
(g81
g62
NtRp4706
(dp4707
g65
(dp4708
sg74
g4693
sg67
(lp4709
g60
(g61
g62
NtRp4710
(dp4711
g65
(dp4712
g73
I5
ssg74
g4706
sg67
(lp4713
S'information/publication.html'
p4714
asbasbasbasbasbsS'locals'
p4715
(dp4716
S'a'
S"('SELECT  quote.id, quote.content, quote.publicati...e WHERE (quote.publication_id = 9) ORDER BY date;',)"
p4717
sS'self'
p4718
S'<gluon.dal.SQLiteAdapter object>'
p4719
sS'b'
g20
sS't0'
p4720
S'1326669226.65616'
p4721
sssS'traceback'
p4722
S'Traceback (most recent call last):\n  File "/home/kaique/Projects/web2py/gluon/restricted.py", line 194, in restricted\n    exec ccode in environment\n  File "/home/kaique/Projects/web2py/applications/synopsis/views/information/publication.html", line 146, in <module>\n  File "/home/kaique/Projects/web2py/gluon/dal.py", line 5697, in select\n    return self.db._adapter.select(self.query,fields,attributes)\n  File "/home/kaique/Projects/web2py/gluon/dal.py", line 1233, in select\n    rows = response(sql)\n  File "/home/kaique/Projects/web2py/gluon/dal.py", line 1223, in response\n    self.execute(sql)\n  File "/home/kaique/Projects/web2py/gluon/dal.py", line 1309, in execute\n    return self.log_execute(*a, **b)\n  File "/home/kaique/Projects/web2py/gluon/dal.py", line 1304, in log_execute\n    ret = self.cursor.execute(*a,**b)\nOperationalError: no such column: date\n'
p4723
s.