(dp1
S'output'
p2
S''
sS'layer'
p3
S'/home/kaique/Projects/web2py/applications/synopsis/controllers/default.py'
p4
sS'code'
p5
S'# -*- coding: utf-8 -*-\nimport functions as f\n\n\n@auth.requires_membership(\'admin\')\ndef index():\n\tpublications = f.get_publications(order=\'created_on\')\n\treturn { \'publications\':publications }\n\ndef user():\n    return dict(form=auth())\n\n\ndef download():\n    return response.download(request,db)\n\n\ndef call():\n    return service()\n\n\n@auth.requires_signature()\ndef data():\n    """\n    http://..../[app]/default/data/tables\n    http://..../[app]/default/data/create/[table]\n    http://..../[app]/default/data/read/[table]/[id]\n    http://..../[app]/default/data/update/[table]/[id]\n    http://..../[app]/default/data/delete/[table]/[id]\n    http://..../[app]/default/data/select/[table]\n    http://..../[app]/default/data/search/[table]\n    but URLs bust be signed, i.e. linked with\n      A(\'table\',_href=URL(\'data/tables\',user_signature=True))\n    or with the signed load operator\n      LOAD(\'default\',\'data.load\',args=\'tables\',ajax=True,user_signature=True)\n    """\n    return dict(form=crud())\n\nresponse._vars=response._caller(index)\n'
p6
sS'snapshot'
p7
(dp8
S'exception'
p9
(dp10
S'__hash__'
p11
S"<method-wrapper '__hash__' of exceptions.TypeError object>"
p12
sS'__setattr__'
p13
S"<method-wrapper '__setattr__' of exceptions.TypeError object>"
p14
sS'__reduce_ex__'
p15
S'<built-in method __reduce_ex__ of exceptions.TypeError object>'
p16
sS'__getslice__'
p17
S"<method-wrapper '__getslice__' of exceptions.TypeError object>"
p18
sS'__getitem__'
p19
S"<method-wrapper '__getitem__' of exceptions.TypeError object>"
p20
sS'__setstate__'
p21
S'<built-in method __setstate__ of exceptions.TypeError object>'
p22
sS'args'
p23
S"('get_publications() takes at least 1 argument (1 given)',)"
p24
sS'__reduce__'
p25
S'<built-in method __reduce__ of exceptions.TypeError object>'
p26
sS'__str__'
p27
S"<method-wrapper '__str__' of exceptions.TypeError object>"
p28
sS'__format__'
p29
S'<built-in method __format__ of exceptions.TypeError object>'
p30
sS'__getattribute__'
p31
S"<method-wrapper '__getattribute__' of exceptions.TypeError object>"
p32
sS'__class__'
p33
S"<type 'exceptions.TypeError'>"
p34
sS'__unicode__'
p35
S'<built-in method __unicode__ of exceptions.TypeError object>'
p36
sS'__delattr__'
p37
S"<method-wrapper '__delattr__' of exceptions.TypeError object>"
p38
sS'__subclasshook__'
p39
S'<built-in method __subclasshook__ of type object>'
p40
sS'__repr__'
p41
S"<method-wrapper '__repr__' of exceptions.TypeError object>"
p42
sS'__dict__'
p43
S'{}'
p44
sS'__sizeof__'
p45
S'<built-in method __sizeof__ of exceptions.TypeError object>'
p46
sS'__doc__'
p47
S"'Inappropriate argument type.'"
p48
sS'__init__'
p49
S"<method-wrapper '__init__' of exceptions.TypeError object>"
p50
sS'__new__'
p51
S'<built-in method __new__ of type object>'
p52
ssS'evalue'
p53
S'get_publications() takes at least 1 argument (1 given)'
p54
sS'request'
p55
ccopy_reg
_reconstructor
p56
(cgluon.html
BEAUTIFY
p57
c__builtin__
object
p58
NtRp59
(dp60
S'attributes'
p61
(dp62
sS'components'
p63
(lp64
g56
(cgluon.html
TABLE
p65
g58
NtRp66
(dp67
g61
(dp68
S'level'
p69
I5
ssS'parent'
p70
Nsg63
(lp71
g56
(cgluon.html
TR
p72
g58
NtRp73
(dp74
g61
(dp75
sg70
g66
sg63
(lp76
g56
(cgluon.html
TD
p77
g58
NtRp78
(dp79
g61
(dp80
S'_style'
p81
S'font-weight:bold;'
p82
ssg70
g73
sg63
(lp83
S'ajax'
p84
asbag56
(g77
g58
NtRp85
(dp86
g61
(dp87
S'_valign'
p88
S'top'
p89
ssg70
g73
sg63
(lp90
S':'
asbag56
(g77
g58
NtRp91
(dp92
g61
(dp93
sg70
g73
sg63
(lp94
g56
(g57
g58
NtRp95
(dp96
g61
(dp97
g69
I5
ssg70
g91
sg63
(lp98
S'False'
p99
asbasbasbag56
(g72
g58
NtRp100
(dp101
g61
(dp102
sg70
g66
sg63
(lp103
g56
(g77
g58
NtRp104
(dp105
g61
(dp106
g81
g82
ssg70
g100
sg63
(lp107
S'application'
p108
asbag56
(g77
g58
NtRp109
(dp110
g61
(dp111
g88
g89
ssg70
g100
sg63
(lp112
S':'
asbag56
(g77
g58
NtRp113
(dp114
g61
(dp115
sg70
g100
sg63
(lp116
g56
(g57
g58
NtRp117
(dp118
g61
(dp119
g69
I5
ssg70
g113
sg63
(lp120
S'synopsis'
p121
asbasbasbag56
(g72
g58
NtRp122
(dp123
g61
(dp124
sg70
g66
sg63
(lp125
g56
(g77
g58
NtRp126
(dp127
g61
(dp128
g81
g82
ssg70
g122
sg63
(lp129
g23
asbag56
(g77
g58
NtRp130
(dp131
g61
(dp132
g88
g89
ssg70
g122
sg63
(lp133
S':'
asbag56
(g77
g58
NtRp134
(dp135
g61
(dp136
sg70
g122
sg63
(lp137
g56
(g57
g58
NtRp138
(dp139
g61
(dp140
g69
I5
ssg70
g134
sg63
(lp141
g56
(g65
g58
NtRp142
(dp143
g61
(dp144
g69
I4
ssg70
Nsg63
(lp145
sbasbasbasbag56
(g72
g58
NtRp146
(dp147
g61
(dp148
sg70
g66
sg63
(lp149
g56
(g77
g58
NtRp150
(dp151
g61
(dp152
g81
g82
ssg70
g146
sg63
(lp153
S'body'
p154
asbag56
(g77
g58
NtRp155
(dp156
g61
(dp157
g88
g89
ssg70
g146
sg63
(lp158
S':'
asbag56
(g77
g58
NtRp159
(dp160
g61
(dp161
sg70
g146
sg63
(lp162
g56
(g57
g58
NtRp163
(dp164
g61
(dp165
g69
I5
ssg70
g159
sg63
(lp166
S'<cStringIO.StringO object at 0x2653538>'
p167
asbasbasbag56
(g72
g58
NtRp168
(dp169
g61
(dp170
sg70
g66
sg63
(lp171
g56
(g77
g58
NtRp172
(dp173
g61
(dp174
g81
g82
ssg70
g168
sg63
(lp175
S'client'
p176
asbag56
(g77
g58
NtRp177
(dp178
g61
(dp179
g88
g89
ssg70
g168
sg63
(lp180
S':'
asbag56
(g77
g58
NtRp181
(dp182
g61
(dp183
sg70
g168
sg63
(lp184
g56
(g57
g58
NtRp185
(dp186
g61
(dp187
g69
I5
ssg70
g181
sg63
(lp188
S'127.0.0.1'
p189
asbasbasbag56
(g72
g58
NtRp190
(dp191
g61
(dp192
sg70
g66
sg63
(lp193
g56
(g77
g58
NtRp194
(dp195
g61
(dp196
g81
g82
ssg70
g190
sg63
(lp197
S'controller'
p198
asbag56
(g77
g58
NtRp199
(dp200
g61
(dp201
g88
g89
ssg70
g190
sg63
(lp202
S':'
asbag56
(g77
g58
NtRp203
(dp204
g61
(dp205
sg70
g190
sg63
(lp206
g56
(g57
g58
NtRp207
(dp208
g61
(dp209
g69
I5
ssg70
g203
sg63
(lp210
S'default'
p211
asbasbasbag56
(g72
g58
NtRp212
(dp213
g61
(dp214
sg70
g66
sg63
(lp215
g56
(g77
g58
NtRp216
(dp217
g61
(dp218
g81
g82
ssg70
g212
sg63
(lp219
S'cookies'
p220
asbag56
(g77
g58
NtRp221
(dp222
g61
(dp223
g88
g89
ssg70
g212
sg63
(lp224
S':'
asbag56
(g77
g58
NtRp225
(dp226
g61
(dp227
sg70
g212
sg63
(lp228
g56
(g57
g58
NtRp229
(dp230
g61
(dp231
g69
I5
ssg70
g225
sg63
(lp232
g56
(g65
g58
NtRp233
(dp234
g61
(dp235
g69
I4
ssg70
Nsg63
(lp236
g56
(g72
g58
NtRp237
(dp238
g61
(dp239
sg70
g233
sg63
(lp240
g56
(g77
g58
NtRp241
(dp242
g61
(dp243
g81
g82
ssg70
g237
sg63
(lp244
S'arp_scroll_position'
p245
asbag56
(g77
g58
NtRp246
(dp247
g61
(dp248
g88
g89
ssg70
g237
sg63
(lp249
S':'
asbag56
(g77
g58
NtRp250
(dp251
g61
(dp252
sg70
g237
sg63
(lp253
g56
(g57
g58
NtRp254
(dp255
g61
(dp256
g69
I4
ssg70
g250
sg63
(lp257
g56
(g65
g58
NtRp258
(dp259
g61
(dp260
g69
I3
ssg70
Nsg63
(lp261
g56
(g72
g58
NtRp262
(dp263
g61
(dp264
sg70
g258
sg63
(lp265
g56
(g77
g58
NtRp266
(dp267
g61
(dp268
g81
g82
ssg70
g262
sg63
(lp269
S'comment'
p270
asbag56
(g77
g58
NtRp271
(dp272
g61
(dp273
g88
g89
ssg70
g262
sg63
(lp274
S':'
asbag56
(g77
g58
NtRp275
(dp276
g61
(dp277
sg70
g262
sg63
(lp278
g56
(g57
g58
NtRp279
(dp280
g61
(dp281
g69
I3
ssg70
g275
sg63
(lp282
S''
asbasbasbag56
(g72
g58
NtRp283
(dp284
g61
(dp285
sg70
g258
sg63
(lp286
g56
(g77
g58
NtRp287
(dp288
g61
(dp289
g81
g82
ssg70
g283
sg63
(lp290
S'domain'
p291
asbag56
(g77
g58
NtRp292
(dp293
g61
(dp294
g88
g89
ssg70
g283
sg63
(lp295
S':'
asbag56
(g77
g58
NtRp296
(dp297
g61
(dp298
sg70
g283
sg63
(lp299
g56
(g57
g58
NtRp300
(dp301
g61
(dp302
g69
I3
ssg70
g296
sg63
(lp303
S''
asbasbasbag56
(g72
g58
NtRp304
(dp305
g61
(dp306
sg70
g258
sg63
(lp307
g56
(g77
g58
NtRp308
(dp309
g61
(dp310
g81
g82
ssg70
g304
sg63
(lp311
S'expires'
p312
asbag56
(g77
g58
NtRp313
(dp314
g61
(dp315
g88
g89
ssg70
g304
sg63
(lp316
S':'
asbag56
(g77
g58
NtRp317
(dp318
g61
(dp319
sg70
g304
sg63
(lp320
g56
(g57
g58
NtRp321
(dp322
g61
(dp323
g69
I3
ssg70
g317
sg63
(lp324
S''
asbasbasbag56
(g72
g58
NtRp325
(dp326
g61
(dp327
sg70
g258
sg63
(lp328
g56
(g77
g58
NtRp329
(dp330
g61
(dp331
g81
g82
ssg70
g325
sg63
(lp332
S'httponly'
p333
asbag56
(g77
g58
NtRp334
(dp335
g61
(dp336
g88
g89
ssg70
g325
sg63
(lp337
S':'
asbag56
(g77
g58
NtRp338
(dp339
g61
(dp340
sg70
g325
sg63
(lp341
g56
(g57
g58
NtRp342
(dp343
g61
(dp344
g69
I3
ssg70
g338
sg63
(lp345
S''
asbasbasbag56
(g72
g58
NtRp346
(dp347
g61
(dp348
sg70
g258
sg63
(lp349
g56
(g77
g58
NtRp350
(dp351
g61
(dp352
g81
g82
ssg70
g346
sg63
(lp353
S'max-age'
p354
asbag56
(g77
g58
NtRp355
(dp356
g61
(dp357
g88
g89
ssg70
g346
sg63
(lp358
S':'
asbag56
(g77
g58
NtRp359
(dp360
g61
(dp361
sg70
g346
sg63
(lp362
g56
(g57
g58
NtRp363
(dp364
g61
(dp365
g69
I3
ssg70
g359
sg63
(lp366
S''
asbasbasbag56
(g72
g58
NtRp367
(dp368
g61
(dp369
sg70
g258
sg63
(lp370
g56
(g77
g58
NtRp371
(dp372
g61
(dp373
g81
g82
ssg70
g367
sg63
(lp374
S'path'
p375
asbag56
(g77
g58
NtRp376
(dp377
g61
(dp378
g88
g89
ssg70
g367
sg63
(lp379
S':'
asbag56
(g77
g58
NtRp380
(dp381
g61
(dp382
sg70
g367
sg63
(lp383
g56
(g57
g58
NtRp384
(dp385
g61
(dp386
g69
I3
ssg70
g380
sg63
(lp387
S''
asbasbasbag56
(g72
g58
NtRp388
(dp389
g61
(dp390
sg70
g258
sg63
(lp391
g56
(g77
g58
NtRp392
(dp393
g61
(dp394
g81
g82
ssg70
g388
sg63
(lp395
S'secure'
p396
asbag56
(g77
g58
NtRp397
(dp398
g61
(dp399
g88
g89
ssg70
g388
sg63
(lp400
S':'
asbag56
(g77
g58
NtRp401
(dp402
g61
(dp403
sg70
g388
sg63
(lp404
g56
(g57
g58
NtRp405
(dp406
g61
(dp407
g69
I3
ssg70
g401
sg63
(lp408
S''
asbasbasbag56
(g72
g58
NtRp409
(dp410
g61
(dp411
sg70
g258
sg63
(lp412
g56
(g77
g58
NtRp413
(dp414
g61
(dp415
g81
g82
ssg70
g409
sg63
(lp416
S'version'
p417
asbag56
(g77
g58
NtRp418
(dp419
g61
(dp420
g88
g89
ssg70
g409
sg63
(lp421
S':'
asbag56
(g77
g58
NtRp422
(dp423
g61
(dp424
sg70
g409
sg63
(lp425
g56
(g57
g58
NtRp426
(dp427
g61
(dp428
g69
I3
ssg70
g422
sg63
(lp429
S''
asbasbasbasbasbasbasbag56
(g72
g58
NtRp430
(dp431
g61
(dp432
sg70
g233
sg63
(lp433
g56
(g77
g58
NtRp434
(dp435
g61
(dp436
g81
g82
ssg70
g430
sg63
(lp437
S'session_id_admin'
p438
asbag56
(g77
g58
NtRp439
(dp440
g61
(dp441
g88
g89
ssg70
g430
sg63
(lp442
S':'
asbag56
(g77
g58
NtRp443
(dp444
g61
(dp445
sg70
g430
sg63
(lp446
g56
(g57
g58
NtRp447
(dp448
g61
(dp449
g69
I4
ssg70
g443
sg63
(lp450
g56
(g65
g58
NtRp451
(dp452
g61
(dp453
g69
I3
ssg70
Nsg63
(lp454
g56
(g72
g58
NtRp455
(dp456
g61
(dp457
sg70
g451
sg63
(lp458
g56
(g77
g58
NtRp459
(dp460
g61
(dp461
g81
g82
ssg70
g455
sg63
(lp462
g270
asbag56
(g77
g58
NtRp463
(dp464
g61
(dp465
g88
g89
ssg70
g455
sg63
(lp466
S':'
asbag56
(g77
g58
NtRp467
(dp468
g61
(dp469
sg70
g455
sg63
(lp470
g56
(g57
g58
NtRp471
(dp472
g61
(dp473
g69
I3
ssg70
g467
sg63
(lp474
S''
asbasbasbag56
(g72
g58
NtRp475
(dp476
g61
(dp477
sg70
g451
sg63
(lp478
g56
(g77
g58
NtRp479
(dp480
g61
(dp481
g81
g82
ssg70
g475
sg63
(lp482
g291
asbag56
(g77
g58
NtRp483
(dp484
g61
(dp485
g88
g89
ssg70
g475
sg63
(lp486
S':'
asbag56
(g77
g58
NtRp487
(dp488
g61
(dp489
sg70
g475
sg63
(lp490
g56
(g57
g58
NtRp491
(dp492
g61
(dp493
g69
I3
ssg70
g487
sg63
(lp494
S''
asbasbasbag56
(g72
g58
NtRp495
(dp496
g61
(dp497
sg70
g451
sg63
(lp498
g56
(g77
g58
NtRp499
(dp500
g61
(dp501
g81
g82
ssg70
g495
sg63
(lp502
g312
asbag56
(g77
g58
NtRp503
(dp504
g61
(dp505
g88
g89
ssg70
g495
sg63
(lp506
S':'
asbag56
(g77
g58
NtRp507
(dp508
g61
(dp509
sg70
g495
sg63
(lp510
g56
(g57
g58
NtRp511
(dp512
g61
(dp513
g69
I3
ssg70
g507
sg63
(lp514
S''
asbasbasbag56
(g72
g58
NtRp515
(dp516
g61
(dp517
sg70
g451
sg63
(lp518
g56
(g77
g58
NtRp519
(dp520
g61
(dp521
g81
g82
ssg70
g515
sg63
(lp522
g333
asbag56
(g77
g58
NtRp523
(dp524
g61
(dp525
g88
g89
ssg70
g515
sg63
(lp526
S':'
asbag56
(g77
g58
NtRp527
(dp528
g61
(dp529
sg70
g515
sg63
(lp530
g56
(g57
g58
NtRp531
(dp532
g61
(dp533
g69
I3
ssg70
g527
sg63
(lp534
S''
asbasbasbag56
(g72
g58
NtRp535
(dp536
g61
(dp537
sg70
g451
sg63
(lp538
g56
(g77
g58
NtRp539
(dp540
g61
(dp541
g81
g82
ssg70
g535
sg63
(lp542
g354
asbag56
(g77
g58
NtRp543
(dp544
g61
(dp545
g88
g89
ssg70
g535
sg63
(lp546
S':'
asbag56
(g77
g58
NtRp547
(dp548
g61
(dp549
sg70
g535
sg63
(lp550
g56
(g57
g58
NtRp551
(dp552
g61
(dp553
g69
I3
ssg70
g547
sg63
(lp554
S''
asbasbasbag56
(g72
g58
NtRp555
(dp556
g61
(dp557
sg70
g451
sg63
(lp558
g56
(g77
g58
NtRp559
(dp560
g61
(dp561
g81
g82
ssg70
g555
sg63
(lp562
g375
asbag56
(g77
g58
NtRp563
(dp564
g61
(dp565
g88
g89
ssg70
g555
sg63
(lp566
S':'
asbag56
(g77
g58
NtRp567
(dp568
g61
(dp569
sg70
g555
sg63
(lp570
g56
(g57
g58
NtRp571
(dp572
g61
(dp573
g69
I3
ssg70
g567
sg63
(lp574
S''
asbasbasbag56
(g72
g58
NtRp575
(dp576
g61
(dp577
sg70
g451
sg63
(lp578
g56
(g77
g58
NtRp579
(dp580
g61
(dp581
g81
g82
ssg70
g575
sg63
(lp582
g396
asbag56
(g77
g58
NtRp583
(dp584
g61
(dp585
g88
g89
ssg70
g575
sg63
(lp586
S':'
asbag56
(g77
g58
NtRp587
(dp588
g61
(dp589
sg70
g575
sg63
(lp590
g56
(g57
g58
NtRp591
(dp592
g61
(dp593
g69
I3
ssg70
g587
sg63
(lp594
S''
asbasbasbag56
(g72
g58
NtRp595
(dp596
g61
(dp597
sg70
g451
sg63
(lp598
g56
(g77
g58
NtRp599
(dp600
g61
(dp601
g81
g82
ssg70
g595
sg63
(lp602
g417
asbag56
(g77
g58
NtRp603
(dp604
g61
(dp605
g88
g89
ssg70
g595
sg63
(lp606
S':'
asbag56
(g77
g58
NtRp607
(dp608
g61
(dp609
sg70
g595
sg63
(lp610
g56
(g57
g58
NtRp611
(dp612
g61
(dp613
g69
I3
ssg70
g607
sg63
(lp614
S''
asbasbasbasbasbasbasbag56
(g72
g58
NtRp615
(dp616
g61
(dp617
sg70
g233
sg63
(lp618
g56
(g77
g58
NtRp619
(dp620
g61
(dp621
g81
g82
ssg70
g615
sg63
(lp622
S'session_id_synopsis'
p623
asbag56
(g77
g58
NtRp624
(dp625
g61
(dp626
g88
g89
ssg70
g615
sg63
(lp627
S':'
asbag56
(g77
g58
NtRp628
(dp629
g61
(dp630
sg70
g615
sg63
(lp631
g56
(g57
g58
NtRp632
(dp633
g61
(dp634
g69
I4
ssg70
g628
sg63
(lp635
g56
(g65
g58
NtRp636
(dp637
g61
(dp638
g69
I3
ssg70
Nsg63
(lp639
g56
(g72
g58
NtRp640
(dp641
g61
(dp642
sg70
g636
sg63
(lp643
g56
(g77
g58
NtRp644
(dp645
g61
(dp646
g81
g82
ssg70
g640
sg63
(lp647
g270
asbag56
(g77
g58
NtRp648
(dp649
g61
(dp650
g88
g89
ssg70
g640
sg63
(lp651
S':'
asbag56
(g77
g58
NtRp652
(dp653
g61
(dp654
sg70
g640
sg63
(lp655
g56
(g57
g58
NtRp656
(dp657
g61
(dp658
g69
I3
ssg70
g652
sg63
(lp659
S''
asbasbasbag56
(g72
g58
NtRp660
(dp661
g61
(dp662
sg70
g636
sg63
(lp663
g56
(g77
g58
NtRp664
(dp665
g61
(dp666
g81
g82
ssg70
g660
sg63
(lp667
g291
asbag56
(g77
g58
NtRp668
(dp669
g61
(dp670
g88
g89
ssg70
g660
sg63
(lp671
S':'
asbag56
(g77
g58
NtRp672
(dp673
g61
(dp674
sg70
g660
sg63
(lp675
g56
(g57
g58
NtRp676
(dp677
g61
(dp678
g69
I3
ssg70
g672
sg63
(lp679
S''
asbasbasbag56
(g72
g58
NtRp680
(dp681
g61
(dp682
sg70
g636
sg63
(lp683
g56
(g77
g58
NtRp684
(dp685
g61
(dp686
g81
g82
ssg70
g680
sg63
(lp687
g312
asbag56
(g77
g58
NtRp688
(dp689
g61
(dp690
g88
g89
ssg70
g680
sg63
(lp691
S':'
asbag56
(g77
g58
NtRp692
(dp693
g61
(dp694
sg70
g680
sg63
(lp695
g56
(g57
g58
NtRp696
(dp697
g61
(dp698
g69
I3
ssg70
g692
sg63
(lp699
S''
asbasbasbag56
(g72
g58
NtRp700
(dp701
g61
(dp702
sg70
g636
sg63
(lp703
g56
(g77
g58
NtRp704
(dp705
g61
(dp706
g81
g82
ssg70
g700
sg63
(lp707
g333
asbag56
(g77
g58
NtRp708
(dp709
g61
(dp710
g88
g89
ssg70
g700
sg63
(lp711
S':'
asbag56
(g77
g58
NtRp712
(dp713
g61
(dp714
sg70
g700
sg63
(lp715
g56
(g57
g58
NtRp716
(dp717
g61
(dp718
g69
I3
ssg70
g712
sg63
(lp719
S''
asbasbasbag56
(g72
g58
NtRp720
(dp721
g61
(dp722
sg70
g636
sg63
(lp723
g56
(g77
g58
NtRp724
(dp725
g61
(dp726
g81
g82
ssg70
g720
sg63
(lp727
g354
asbag56
(g77
g58
NtRp728
(dp729
g61
(dp730
g88
g89
ssg70
g720
sg63
(lp731
S':'
asbag56
(g77
g58
NtRp732
(dp733
g61
(dp734
sg70
g720
sg63
(lp735
g56
(g57
g58
NtRp736
(dp737
g61
(dp738
g69
I3
ssg70
g732
sg63
(lp739
S''
asbasbasbag56
(g72
g58
NtRp740
(dp741
g61
(dp742
sg70
g636
sg63
(lp743
g56
(g77
g58
NtRp744
(dp745
g61
(dp746
g81
g82
ssg70
g740
sg63
(lp747
g375
asbag56
(g77
g58
NtRp748
(dp749
g61
(dp750
g88
g89
ssg70
g740
sg63
(lp751
S':'
asbag56
(g77
g58
NtRp752
(dp753
g61
(dp754
sg70
g740
sg63
(lp755
g56
(g57
g58
NtRp756
(dp757
g61
(dp758
g69
I3
ssg70
g752
sg63
(lp759
S''
asbasbasbag56
(g72
g58
NtRp760
(dp761
g61
(dp762
sg70
g636
sg63
(lp763
g56
(g77
g58
NtRp764
(dp765
g61
(dp766
g81
g82
ssg70
g760
sg63
(lp767
g396
asbag56
(g77
g58
NtRp768
(dp769
g61
(dp770
g88
g89
ssg70
g760
sg63
(lp771
S':'
asbag56
(g77
g58
NtRp772
(dp773
g61
(dp774
sg70
g760
sg63
(lp775
g56
(g57
g58
NtRp776
(dp777
g61
(dp778
g69
I3
ssg70
g772
sg63
(lp779
S''
asbasbasbag56
(g72
g58
NtRp780
(dp781
g61
(dp782
sg70
g636
sg63
(lp783
g56
(g77
g58
NtRp784
(dp785
g61
(dp786
g81
g82
ssg70
g780
sg63
(lp787
g417
asbag56
(g77
g58
NtRp788
(dp789
g61
(dp790
g88
g89
ssg70
g780
sg63
(lp791
S':'
asbag56
(g77
g58
NtRp792
(dp793
g61
(dp794
sg70
g780
sg63
(lp795
g56
(g57
g58
NtRp796
(dp797
g61
(dp798
g69
I3
ssg70
g792
sg63
(lp799
S''
asbasbasbasbasbasbasbag56
(g72
g58
NtRp800
(dp801
g61
(dp802
sg70
g233
sg63
(lp803
g56
(g77
g58
NtRp804
(dp805
g61
(dp806
g81
g82
ssg70
g800
sg63
(lp807
S'session_id_welcome'
p808
asbag56
(g77
g58
NtRp809
(dp810
g61
(dp811
g88
g89
ssg70
g800
sg63
(lp812
S':'
asbag56
(g77
g58
NtRp813
(dp814
g61
(dp815
sg70
g800
sg63
(lp816
g56
(g57
g58
NtRp817
(dp818
g61
(dp819
g69
I4
ssg70
g813
sg63
(lp820
g56
(g65
g58
NtRp821
(dp822
g61
(dp823
g69
I3
ssg70
Nsg63
(lp824
g56
(g72
g58
NtRp825
(dp826
g61
(dp827
sg70
g821
sg63
(lp828
g56
(g77
g58
NtRp829
(dp830
g61
(dp831
g81
g82
ssg70
g825
sg63
(lp832
g270
asbag56
(g77
g58
NtRp833
(dp834
g61
(dp835
g88
g89
ssg70
g825
sg63
(lp836
S':'
asbag56
(g77
g58
NtRp837
(dp838
g61
(dp839
sg70
g825
sg63
(lp840
g56
(g57
g58
NtRp841
(dp842
g61
(dp843
g69
I3
ssg70
g837
sg63
(lp844
S''
asbasbasbag56
(g72
g58
NtRp845
(dp846
g61
(dp847
sg70
g821
sg63
(lp848
g56
(g77
g58
NtRp849
(dp850
g61
(dp851
g81
g82
ssg70
g845
sg63
(lp852
g291
asbag56
(g77
g58
NtRp853
(dp854
g61
(dp855
g88
g89
ssg70
g845
sg63
(lp856
S':'
asbag56
(g77
g58
NtRp857
(dp858
g61
(dp859
sg70
g845
sg63
(lp860
g56
(g57
g58
NtRp861
(dp862
g61
(dp863
g69
I3
ssg70
g857
sg63
(lp864
S''
asbasbasbag56
(g72
g58
NtRp865
(dp866
g61
(dp867
sg70
g821
sg63
(lp868
g56
(g77
g58
NtRp869
(dp870
g61
(dp871
g81
g82
ssg70
g865
sg63
(lp872
g312
asbag56
(g77
g58
NtRp873
(dp874
g61
(dp875
g88
g89
ssg70
g865
sg63
(lp876
S':'
asbag56
(g77
g58
NtRp877
(dp878
g61
(dp879
sg70
g865
sg63
(lp880
g56
(g57
g58
NtRp881
(dp882
g61
(dp883
g69
I3
ssg70
g877
sg63
(lp884
S''
asbasbasbag56
(g72
g58
NtRp885
(dp886
g61
(dp887
sg70
g821
sg63
(lp888
g56
(g77
g58
NtRp889
(dp890
g61
(dp891
g81
g82
ssg70
g885
sg63
(lp892
g333
asbag56
(g77
g58
NtRp893
(dp894
g61
(dp895
g88
g89
ssg70
g885
sg63
(lp896
S':'
asbag56
(g77
g58
NtRp897
(dp898
g61
(dp899
sg70
g885
sg63
(lp900
g56
(g57
g58
NtRp901
(dp902
g61
(dp903
g69
I3
ssg70
g897
sg63
(lp904
S''
asbasbasbag56
(g72
g58
NtRp905
(dp906
g61
(dp907
sg70
g821
sg63
(lp908
g56
(g77
g58
NtRp909
(dp910
g61
(dp911
g81
g82
ssg70
g905
sg63
(lp912
g354
asbag56
(g77
g58
NtRp913
(dp914
g61
(dp915
g88
g89
ssg70
g905
sg63
(lp916
S':'
asbag56
(g77
g58
NtRp917
(dp918
g61
(dp919
sg70
g905
sg63
(lp920
g56
(g57
g58
NtRp921
(dp922
g61
(dp923
g69
I3
ssg70
g917
sg63
(lp924
S''
asbasbasbag56
(g72
g58
NtRp925
(dp926
g61
(dp927
sg70
g821
sg63
(lp928
g56
(g77
g58
NtRp929
(dp930
g61
(dp931
g81
g82
ssg70
g925
sg63
(lp932
g375
asbag56
(g77
g58
NtRp933
(dp934
g61
(dp935
g88
g89
ssg70
g925
sg63
(lp936
S':'
asbag56
(g77
g58
NtRp937
(dp938
g61
(dp939
sg70
g925
sg63
(lp940
g56
(g57
g58
NtRp941
(dp942
g61
(dp943
g69
I3
ssg70
g937
sg63
(lp944
S''
asbasbasbag56
(g72
g58
NtRp945
(dp946
g61
(dp947
sg70
g821
sg63
(lp948
g56
(g77
g58
NtRp949
(dp950
g61
(dp951
g81
g82
ssg70
g945
sg63
(lp952
g396
asbag56
(g77
g58
NtRp953
(dp954
g61
(dp955
g88
g89
ssg70
g945
sg63
(lp956
S':'
asbag56
(g77
g58
NtRp957
(dp958
g61
(dp959
sg70
g945
sg63
(lp960
g56
(g57
g58
NtRp961
(dp962
g61
(dp963
g69
I3
ssg70
g957
sg63
(lp964
S''
asbasbasbag56
(g72
g58
NtRp965
(dp966
g61
(dp967
sg70
g821
sg63
(lp968
g56
(g77
g58
NtRp969
(dp970
g61
(dp971
g81
g82
ssg70
g965
sg63
(lp972
g417
asbag56
(g77
g58
NtRp973
(dp974
g61
(dp975
g88
g89
ssg70
g965
sg63
(lp976
S':'
asbag56
(g77
g58
NtRp977
(dp978
g61
(dp979
sg70
g965
sg63
(lp980
g56
(g57
g58
NtRp981
(dp982
g61
(dp983
g69
I3
ssg70
g977
sg63
(lp984
S''
asbasbasbasbasbasbasbasbasbasbasbag56
(g72
g58
NtRp985
(dp986
g61
(dp987
sg70
g66
sg63
(lp988
g56
(g77
g58
NtRp989
(dp990
g61
(dp991
g81
g82
ssg70
g985
sg63
(lp992
S'env'
p993
asbag56
(g77
g58
NtRp994
(dp995
g61
(dp996
g88
g89
ssg70
g985
sg63
(lp997
S':'
asbag56
(g77
g58
NtRp998
(dp999
g61
(dp1000
sg70
g985
sg63
(lp1001
g56
(g57
g58
NtRp1002
(dp1003
g61
(dp1004
g69
I5
ssg70
g998
sg63
(lp1005
g56
(g65
g58
NtRp1006
(dp1007
g61
(dp1008
g69
I4
ssg70
Nsg63
(lp1009
g56
(g72
g58
NtRp1010
(dp1011
g61
(dp1012
sg70
g1006
sg63
(lp1013
g56
(g77
g58
NtRp1014
(dp1015
g61
(dp1016
g81
g82
ssg70
g1010
sg63
(lp1017
S'app_folders'
p1018
asbag56
(g77
g58
NtRp1019
(dp1020
g61
(dp1021
g88
g89
ssg70
g1010
sg63
(lp1022
S':'
asbag56
(g77
g58
NtRp1023
(dp1024
g61
(dp1025
sg70
g1010
sg63
(lp1026
g56
(g57
g58
NtRp1027
(dp1028
g61
(dp1029
g69
I4
ssg70
g1023
sg63
(lp1030
S"set(['/home/kaique/Projects/web2py/applications/welcome/', '/home/kaique/Projects/web2py/applications/admin/', '/home/kaique/Projects/web2py/applications/synopsis/'])"
p1031
asbasbasbag56
(g72
g58
NtRp1032
(dp1033
g61
(dp1034
sg70
g1006
sg63
(lp1035
g56
(g77
g58
NtRp1036
(dp1037
g61
(dp1038
g81
g82
ssg70
g1032
sg63
(lp1039
S'applications_parent'
p1040
asbag56
(g77
g58
NtRp1041
(dp1042
g61
(dp1043
g88
g89
ssg70
g1032
sg63
(lp1044
S':'
asbag56
(g77
g58
NtRp1045
(dp1046
g61
(dp1047
sg70
g1032
sg63
(lp1048
g56
(g57
g58
NtRp1049
(dp1050
g61
(dp1051
g69
I4
ssg70
g1045
sg63
(lp1052
S'/home/kaique/Projects/web2py'
p1053
asbasbasbag56
(g72
g58
NtRp1054
(dp1055
g61
(dp1056
sg70
g1006
sg63
(lp1057
g56
(g77
g58
NtRp1058
(dp1059
g61
(dp1060
g81
g82
ssg70
g1054
sg63
(lp1061
S'cmd_args'
p1062
asbag56
(g77
g58
NtRp1063
(dp1064
g61
(dp1065
g88
g89
ssg70
g1054
sg63
(lp1066
S':'
asbag56
(g77
g58
NtRp1067
(dp1068
g61
(dp1069
sg70
g1054
sg63
(lp1070
g56
(g57
g58
NtRp1071
(dp1072
g61
(dp1073
g69
I4
ssg70
g1067
sg63
(lp1074
g56
(g65
g58
NtRp1075
(dp1076
g61
(dp1077
g69
I3
ssg70
Nsg63
(lp1078
sbasbasbasbag56
(g72
g58
NtRp1079
(dp1080
g61
(dp1081
sg70
g1006
sg63
(lp1082
g56
(g77
g58
NtRp1083
(dp1084
g61
(dp1085
g81
g82
ssg70
g1079
sg63
(lp1086
S'cmd_options'
p1087
asbag56
(g77
g58
NtRp1088
(dp1089
g61
(dp1090
g88
g89
ssg70
g1079
sg63
(lp1091
S':'
asbag56
(g77
g58
NtRp1092
(dp1093
g61
(dp1094
sg70
g1079
sg63
(lp1095
g56
(g57
g58
NtRp1096
(dp1097
g61
(dp1098
g69
I4
ssg70
g1092
sg63
(lp1099
S"<Values at 0x2005998: {'verbose': False, 'ip': '127.0.0.1', 'shutdown_timeout': 5, 'taskbar': False, 'nocron': False, 'pid_filename': 'httpserver.pid', 'maxthreads': None, 'softcron': False, 'server_name': 'kaique-Pine-Trail-M', 'bpython': False, 'nogui': False, 'port': 8000, 'extcron': False, 'debuglevel': 30, 'test': None, 'folder': '/home/kaique/Projects/web2py', 'config': '', 'import_models': False, 'winservice': '', 'shell': None, 'run': '', 'log_filename': 'httpserver.log', 'args': [''], 'ssl_ca_certificate': None, 'scheduler': None, 'profiler_filename': None, 'ssl_private_key': '', 'password': 'dev', 'request_queue_size': 5, 'ssl_certificate': '', 'cronjob': False, 'plain': False, 'quiet': False, 'interfaces': None, 'minthreads': None, 'timeout': 10, 'numthreads': None, 'nobanner': False}>"
p1100
asbasbasbag56
(g72
g58
NtRp1101
(dp1102
g61
(dp1103
sg70
g1006
sg63
(lp1104
g56
(g77
g58
NtRp1105
(dp1106
g61
(dp1107
g81
g82
ssg70
g1101
sg63
(lp1108
S'db_sessions'
p1109
asbag56
(g77
g58
NtRp1110
(dp1111
g61
(dp1112
g88
g89
ssg70
g1101
sg63
(lp1113
S':'
asbag56
(g77
g58
NtRp1114
(dp1115
g61
(dp1116
sg70
g1101
sg63
(lp1117
g56
(g57
g58
NtRp1118
(dp1119
g61
(dp1120
g69
I4
ssg70
g1114
sg63
(lp1121
S'set([])'
p1122
asbasbasbag56
(g72
g58
NtRp1123
(dp1124
g61
(dp1125
sg70
g1006
sg63
(lp1126
g56
(g77
g58
NtRp1127
(dp1128
g61
(dp1129
g81
g82
ssg70
g1123
sg63
(lp1130
S'debugging'
p1131
asbag56
(g77
g58
NtRp1132
(dp1133
g61
(dp1134
g88
g89
ssg70
g1123
sg63
(lp1135
S':'
asbag56
(g77
g58
NtRp1136
(dp1137
g61
(dp1138
sg70
g1123
sg63
(lp1139
g56
(g57
g58
NtRp1140
(dp1141
g61
(dp1142
g69
I4
ssg70
g1136
sg63
(lp1143
g99
asbasbasbag56
(g72
g58
NtRp1144
(dp1145
g61
(dp1146
sg70
g1006
sg63
(lp1147
g56
(g77
g58
NtRp1148
(dp1149
g61
(dp1150
g81
g82
ssg70
g1144
sg63
(lp1151
S'gluon_parent'
p1152
asbag56
(g77
g58
NtRp1153
(dp1154
g61
(dp1155
g88
g89
ssg70
g1144
sg63
(lp1156
S':'
asbag56
(g77
g58
NtRp1157
(dp1158
g61
(dp1159
sg70
g1144
sg63
(lp1160
g56
(g57
g58
NtRp1161
(dp1162
g61
(dp1163
g69
I4
ssg70
g1157
sg63
(lp1164
S'/home/kaique/Projects/web2py'
p1165
asbasbasbag56
(g72
g58
NtRp1166
(dp1167
g61
(dp1168
sg70
g1006
sg63
(lp1169
g56
(g77
g58
NtRp1170
(dp1171
g61
(dp1172
g81
g82
ssg70
g1166
sg63
(lp1173
S'http_accept'
p1174
asbag56
(g77
g58
NtRp1175
(dp1176
g61
(dp1177
g88
g89
ssg70
g1166
sg63
(lp1178
S':'
asbag56
(g77
g58
NtRp1179
(dp1180
g61
(dp1181
sg70
g1166
sg63
(lp1182
g56
(g57
g58
NtRp1183
(dp1184
g61
(dp1185
g69
I4
ssg70
g1179
sg63
(lp1186
S'text/html,application/xhtml+xml,application/xml;q=0.9,*/*;q=0.8'
p1187
asbasbasbag56
(g72
g58
NtRp1188
(dp1189
g61
(dp1190
sg70
g1006
sg63
(lp1191
g56
(g77
g58
NtRp1192
(dp1193
g61
(dp1194
g81
g82
ssg70
g1188
sg63
(lp1195
S'http_accept_charset'
p1196
asbag56
(g77
g58
NtRp1197
(dp1198
g61
(dp1199
g88
g89
ssg70
g1188
sg63
(lp1200
S':'
asbag56
(g77
g58
NtRp1201
(dp1202
g61
(dp1203
sg70
g1188
sg63
(lp1204
g56
(g57
g58
NtRp1205
(dp1206
g61
(dp1207
g69
I4
ssg70
g1201
sg63
(lp1208
S'UTF-8,*;q=0.5'
p1209
asbasbasbag56
(g72
g58
NtRp1210
(dp1211
g61
(dp1212
sg70
g1006
sg63
(lp1213
g56
(g77
g58
NtRp1214
(dp1215
g61
(dp1216
g81
g82
ssg70
g1210
sg63
(lp1217
S'http_accept_encoding'
p1218
asbag56
(g77
g58
NtRp1219
(dp1220
g61
(dp1221
g88
g89
ssg70
g1210
sg63
(lp1222
S':'
asbag56
(g77
g58
NtRp1223
(dp1224
g61
(dp1225
sg70
g1210
sg63
(lp1226
g56
(g57
g58
NtRp1227
(dp1228
g61
(dp1229
g69
I4
ssg70
g1223
sg63
(lp1230
S'gzip,deflate,sdch'
p1231
asbasbasbag56
(g72
g58
NtRp1232
(dp1233
g61
(dp1234
sg70
g1006
sg63
(lp1235
g56
(g77
g58
NtRp1236
(dp1237
g61
(dp1238
g81
g82
ssg70
g1232
sg63
(lp1239
S'http_accept_language'
p1240
asbag56
(g77
g58
NtRp1241
(dp1242
g61
(dp1243
g88
g89
ssg70
g1232
sg63
(lp1244
S':'
asbag56
(g77
g58
NtRp1245
(dp1246
g61
(dp1247
sg70
g1232
sg63
(lp1248
g56
(g57
g58
NtRp1249
(dp1250
g61
(dp1251
g69
I4
ssg70
g1245
sg63
(lp1252
S'pt-BR,pt;q=0.8,en-US;q=0.6,en;q=0.4'
p1253
asbasbasbag56
(g72
g58
NtRp1254
(dp1255
g61
(dp1256
sg70
g1006
sg63
(lp1257
g56
(g77
g58
NtRp1258
(dp1259
g61
(dp1260
g81
g82
ssg70
g1254
sg63
(lp1261
S'http_cache_control'
p1262
asbag56
(g77
g58
NtRp1263
(dp1264
g61
(dp1265
g88
g89
ssg70
g1254
sg63
(lp1266
S':'
asbag56
(g77
g58
NtRp1267
(dp1268
g61
(dp1269
sg70
g1254
sg63
(lp1270
g56
(g57
g58
NtRp1271
(dp1272
g61
(dp1273
g69
I4
ssg70
g1267
sg63
(lp1274
S'max-age=0'
p1275
asbasbasbag56
(g72
g58
NtRp1276
(dp1277
g61
(dp1278
sg70
g1006
sg63
(lp1279
g56
(g77
g58
NtRp1280
(dp1281
g61
(dp1282
g81
g82
ssg70
g1276
sg63
(lp1283
S'http_connection'
p1284
asbag56
(g77
g58
NtRp1285
(dp1286
g61
(dp1287
g88
g89
ssg70
g1276
sg63
(lp1288
S':'
asbag56
(g77
g58
NtRp1289
(dp1290
g61
(dp1291
sg70
g1276
sg63
(lp1292
g56
(g57
g58
NtRp1293
(dp1294
g61
(dp1295
g69
I4
ssg70
g1289
sg63
(lp1296
S'keep-alive'
p1297
asbasbasbag56
(g72
g58
NtRp1298
(dp1299
g61
(dp1300
sg70
g1006
sg63
(lp1301
g56
(g77
g58
NtRp1302
(dp1303
g61
(dp1304
g81
g82
ssg70
g1298
sg63
(lp1305
S'http_cookie'
p1306
asbag56
(g77
g58
NtRp1307
(dp1308
g61
(dp1309
g88
g89
ssg70
g1298
sg63
(lp1310
S':'
asbag56
(g77
g58
NtRp1311
(dp1312
g61
(dp1313
sg70
g1298
sg63
(lp1314
g56
(g57
g58
NtRp1315
(dp1316
g61
(dp1317
g69
I4
ssg70
g1311
sg63
(lp1318
S'session_id_welcome=127.0.0.1-aa6c8b16-1c1c-4a37-91a3-1632032a30a4; session_id_synopsis=127.0.0.1-e40e1056-0c97-4101-beca-f6fff517534b; session_id_admin=127.0.0.1-79041277-f1a7-4d1d-997b-a25f6cc2b363; arp_scroll_position=160'
p1319
asbasbasbag56
(g72
g58
NtRp1320
(dp1321
g61
(dp1322
sg70
g1006
sg63
(lp1323
g56
(g77
g58
NtRp1324
(dp1325
g61
(dp1326
g81
g82
ssg70
g1320
sg63
(lp1327
S'http_host'
p1328
asbag56
(g77
g58
NtRp1329
(dp1330
g61
(dp1331
g88
g89
ssg70
g1320
sg63
(lp1332
S':'
asbag56
(g77
g58
NtRp1333
(dp1334
g61
(dp1335
sg70
g1320
sg63
(lp1336
g56
(g57
g58
NtRp1337
(dp1338
g61
(dp1339
g69
I4
ssg70
g1333
sg63
(lp1340
S'127.0.0.1:8000'
p1341
asbasbasbag56
(g72
g58
NtRp1342
(dp1343
g61
(dp1344
sg70
g1006
sg63
(lp1345
g56
(g77
g58
NtRp1346
(dp1347
g61
(dp1348
g81
g82
ssg70
g1342
sg63
(lp1349
S'http_referer'
p1350
asbag56
(g77
g58
NtRp1351
(dp1352
g61
(dp1353
g88
g89
ssg70
g1342
sg63
(lp1354
S':'
asbag56
(g77
g58
NtRp1355
(dp1356
g61
(dp1357
sg70
g1342
sg63
(lp1358
g56
(g57
g58
NtRp1359
(dp1360
g61
(dp1361
g69
I4
ssg70
g1355
sg63
(lp1362
S'http://127.0.0.1:8000/synopsis/default/user/register'
p1363
asbasbasbag56
(g72
g58
NtRp1364
(dp1365
g61
(dp1366
sg70
g1006
sg63
(lp1367
g56
(g77
g58
NtRp1368
(dp1369
g61
(dp1370
g81
g82
ssg70
g1364
sg63
(lp1371
S'http_user_agent'
p1372
asbag56
(g77
g58
NtRp1373
(dp1374
g61
(dp1375
g88
g89
ssg70
g1364
sg63
(lp1376
S':'
asbag56
(g77
g58
NtRp1377
(dp1378
g61
(dp1379
sg70
g1364
sg63
(lp1380
g56
(g57
g58
NtRp1381
(dp1382
g61
(dp1383
g69
I4
ssg70
g1377
sg63
(lp1384
S'Mozilla/5.0 (X11; Linux x86_64) AppleWebKit/535.7 (KHTML, like Gecko) Chrome/16.0.912.75 Safari/535.7'
p1385
asbasbasbag56
(g72
g58
NtRp1386
(dp1387
g61
(dp1388
sg70
g1006
sg63
(lp1389
g56
(g77
g58
NtRp1390
(dp1391
g61
(dp1392
g81
g82
ssg70
g1386
sg63
(lp1393
S'is_jython'
p1394
asbag56
(g77
g58
NtRp1395
(dp1396
g61
(dp1397
g88
g89
ssg70
g1386
sg63
(lp1398
S':'
asbag56
(g77
g58
NtRp1399
(dp1400
g61
(dp1401
sg70
g1386
sg63
(lp1402
g56
(g57
g58
NtRp1403
(dp1404
g61
(dp1405
g69
I4
ssg70
g1399
sg63
(lp1406
g99
asbasbasbag56
(g72
g58
NtRp1407
(dp1408
g61
(dp1409
sg70
g1006
sg63
(lp1410
g56
(g77
g58
NtRp1411
(dp1412
g61
(dp1413
g81
g82
ssg70
g1407
sg63
(lp1414
S'path_info'
p1415
asbag56
(g77
g58
NtRp1416
(dp1417
g61
(dp1418
g88
g89
ssg70
g1407
sg63
(lp1419
S':'
asbag56
(g77
g58
NtRp1420
(dp1421
g61
(dp1422
sg70
g1407
sg63
(lp1423
g56
(g57
g58
NtRp1424
(dp1425
g61
(dp1426
g69
I4
ssg70
g1420
sg63
(lp1427
S'/synopsis/default/index'
p1428
asbasbasbag56
(g72
g58
NtRp1429
(dp1430
g61
(dp1431
sg70
g1006
sg63
(lp1432
g56
(g77
g58
NtRp1433
(dp1434
g61
(dp1435
g81
g82
ssg70
g1429
sg63
(lp1436
S'query_string'
p1437
asbag56
(g77
g58
NtRp1438
(dp1439
g61
(dp1440
g88
g89
ssg70
g1429
sg63
(lp1441
S':'
asbag56
(g77
g58
NtRp1442
(dp1443
g61
(dp1444
sg70
g1429
sg63
(lp1445
g56
(g57
g58
NtRp1446
(dp1447
g61
(dp1448
g69
I4
ssg70
g1442
sg63
(lp1449
S''
asbasbasbag56
(g72
g58
NtRp1450
(dp1451
g61
(dp1452
sg70
g1006
sg63
(lp1453
g56
(g77
g58
NtRp1454
(dp1455
g61
(dp1456
g81
g82
ssg70
g1450
sg63
(lp1457
S'remote_addr'
p1458
asbag56
(g77
g58
NtRp1459
(dp1460
g61
(dp1461
g88
g89
ssg70
g1450
sg63
(lp1462
S':'
asbag56
(g77
g58
NtRp1463
(dp1464
g61
(dp1465
sg70
g1450
sg63
(lp1466
g56
(g57
g58
NtRp1467
(dp1468
g61
(dp1469
g69
I4
ssg70
g1463
sg63
(lp1470
g189
asbasbasbag56
(g72
g58
NtRp1471
(dp1472
g61
(dp1473
sg70
g1006
sg63
(lp1474
g56
(g77
g58
NtRp1475
(dp1476
g61
(dp1477
g81
g82
ssg70
g1471
sg63
(lp1478
S'remote_port'
p1479
asbag56
(g77
g58
NtRp1480
(dp1481
g61
(dp1482
g88
g89
ssg70
g1471
sg63
(lp1483
S':'
asbag56
(g77
g58
NtRp1484
(dp1485
g61
(dp1486
sg70
g1471
sg63
(lp1487
g56
(g57
g58
NtRp1488
(dp1489
g61
(dp1490
g69
I4
ssg70
g1484
sg63
(lp1491
S'49788'
p1492
asbasbasbag56
(g72
g58
NtRp1493
(dp1494
g61
(dp1495
sg70
g1006
sg63
(lp1496
g56
(g77
g58
NtRp1497
(dp1498
g61
(dp1499
g81
g82
ssg70
g1493
sg63
(lp1500
S'request_method'
p1501
asbag56
(g77
g58
NtRp1502
(dp1503
g61
(dp1504
g88
g89
ssg70
g1493
sg63
(lp1505
S':'
asbag56
(g77
g58
NtRp1506
(dp1507
g61
(dp1508
sg70
g1493
sg63
(lp1509
g56
(g57
g58
NtRp1510
(dp1511
g61
(dp1512
g69
I4
ssg70
g1506
sg63
(lp1513
S'GET'
p1514
asbasbasbag56
(g72
g58
NtRp1515
(dp1516
g61
(dp1517
sg70
g1006
sg63
(lp1518
g56
(g77
g58
NtRp1519
(dp1520
g61
(dp1521
g81
g82
ssg70
g1515
sg63
(lp1522
S'script_name'
p1523
asbag56
(g77
g58
NtRp1524
(dp1525
g61
(dp1526
g88
g89
ssg70
g1515
sg63
(lp1527
S':'
asbag56
(g77
g58
NtRp1528
(dp1529
g61
(dp1530
sg70
g1515
sg63
(lp1531
g56
(g57
g58
NtRp1532
(dp1533
g61
(dp1534
g69
I4
ssg70
g1528
sg63
(lp1535
S''
asbasbasbag56
(g72
g58
NtRp1536
(dp1537
g61
(dp1538
sg70
g1006
sg63
(lp1539
g56
(g77
g58
NtRp1540
(dp1541
g61
(dp1542
g81
g82
ssg70
g1536
sg63
(lp1543
S'server_name'
p1544
asbag56
(g77
g58
NtRp1545
(dp1546
g61
(dp1547
g88
g89
ssg70
g1536
sg63
(lp1548
S':'
asbag56
(g77
g58
NtRp1549
(dp1550
g61
(dp1551
sg70
g1536
sg63
(lp1552
g56
(g57
g58
NtRp1553
(dp1554
g61
(dp1555
g69
I4
ssg70
g1549
sg63
(lp1556
S'kaique-Pine-Trail-M'
p1557
asbasbasbag56
(g72
g58
NtRp1558
(dp1559
g61
(dp1560
sg70
g1006
sg63
(lp1561
g56
(g77
g58
NtRp1562
(dp1563
g61
(dp1564
g81
g82
ssg70
g1558
sg63
(lp1565
S'server_port'
p1566
asbag56
(g77
g58
NtRp1567
(dp1568
g61
(dp1569
g88
g89
ssg70
g1558
sg63
(lp1570
S':'
asbag56
(g77
g58
NtRp1571
(dp1572
g61
(dp1573
sg70
g1558
sg63
(lp1574
g56
(g57
g58
NtRp1575
(dp1576
g61
(dp1577
g69
I4
ssg70
g1571
sg63
(lp1578
S'8000'
p1579
asbasbasbag56
(g72
g58
NtRp1580
(dp1581
g61
(dp1582
sg70
g1006
sg63
(lp1583
g56
(g77
g58
NtRp1584
(dp1585
g61
(dp1586
g81
g82
ssg70
g1580
sg63
(lp1587
S'server_protocol'
p1588
asbag56
(g77
g58
NtRp1589
(dp1590
g61
(dp1591
g88
g89
ssg70
g1580
sg63
(lp1592
S':'
asbag56
(g77
g58
NtRp1593
(dp1594
g61
(dp1595
sg70
g1580
sg63
(lp1596
g56
(g57
g58
NtRp1597
(dp1598
g61
(dp1599
g69
I4
ssg70
g1593
sg63
(lp1600
S'HTTP/1.1'
p1601
asbasbasbag56
(g72
g58
NtRp1602
(dp1603
g61
(dp1604
sg70
g1006
sg63
(lp1605
g56
(g77
g58
NtRp1606
(dp1607
g61
(dp1608
g81
g82
ssg70
g1602
sg63
(lp1609
S'server_software'
p1610
asbag56
(g77
g58
NtRp1611
(dp1612
g61
(dp1613
g88
g89
ssg70
g1602
sg63
(lp1614
S':'
asbag56
(g77
g58
NtRp1615
(dp1616
g61
(dp1617
sg70
g1602
sg63
(lp1618
g56
(g57
g58
NtRp1619
(dp1620
g61
(dp1621
g69
I4
ssg70
g1615
sg63
(lp1622
S'Rocket 1.2.4'
p1623
asbasbasbag56
(g72
g58
NtRp1624
(dp1625
g61
(dp1626
sg70
g1006
sg63
(lp1627
g56
(g77
g58
NtRp1628
(dp1629
g61
(dp1630
g81
g82
ssg70
g1624
sg63
(lp1631
S'web2py_crontype'
p1632
asbag56
(g77
g58
NtRp1633
(dp1634
g61
(dp1635
g88
g89
ssg70
g1624
sg63
(lp1636
S':'
asbag56
(g77
g58
NtRp1637
(dp1638
g61
(dp1639
sg70
g1624
sg63
(lp1640
g56
(g57
g58
NtRp1641
(dp1642
g61
(dp1643
g69
I4
ssg70
g1637
sg63
(lp1644
S'hard'
p1645
asbasbasbag56
(g72
g58
NtRp1646
(dp1647
g61
(dp1648
sg70
g1006
sg63
(lp1649
g56
(g77
g58
NtRp1650
(dp1651
g61
(dp1652
g81
g82
ssg70
g1646
sg63
(lp1653
S'web2py_path'
p1654
asbag56
(g77
g58
NtRp1655
(dp1656
g61
(dp1657
g88
g89
ssg70
g1646
sg63
(lp1658
S':'
asbag56
(g77
g58
NtRp1659
(dp1660
g61
(dp1661
sg70
g1646
sg63
(lp1662
g56
(g57
g58
NtRp1663
(dp1664
g61
(dp1665
g69
I4
ssg70
g1659
sg63
(lp1666
g1053
asbasbasbag56
(g72
g58
NtRp1667
(dp1668
g61
(dp1669
sg70
g1006
sg63
(lp1670
g56
(g77
g58
NtRp1671
(dp1672
g61
(dp1673
g81
g82
ssg70
g1667
sg63
(lp1674
S'web2py_version'
p1675
asbag56
(g77
g58
NtRp1676
(dp1677
g61
(dp1678
g88
g89
ssg70
g1667
sg63
(lp1679
S':'
asbag56
(g77
g58
NtRp1680
(dp1681
g61
(dp1682
sg70
g1667
sg63
(lp1683
g56
(g57
g58
NtRp1684
(dp1685
g61
(dp1686
g69
I4
ssg70
g1680
sg63
(lp1687
g56
(g65
g58
NtRp1688
(dp1689
g61
(dp1690
g69
I3
ssg70
Nsg63
(lp1691
g56
(g72
g58
NtRp1692
(dp1693
g61
(dp1694
sg70
g1688
sg63
(lp1695
g56
(g77
g58
NtRp1696
(dp1697
g61
(dp1698
sg70
g1692
sg63
(lp1699
g56
(g57
g58
NtRp1700
(dp1701
g61
(dp1702
g69
I3
ssg70
g1696
sg63
(lp1703
S'1'
asbasbasbag56
(g72
g58
NtRp1704
(dp1705
g61
(dp1706
sg70
g1688
sg63
(lp1707
g56
(g77
g58
NtRp1708
(dp1709
g61
(dp1710
sg70
g1704
sg63
(lp1711
g56
(g57
g58
NtRp1712
(dp1713
g61
(dp1714
g69
I3
ssg70
g1708
sg63
(lp1715
S'99'
p1716
asbasbasbag56
(g72
g58
NtRp1717
(dp1718
g61
(dp1719
sg70
g1688
sg63
(lp1720
g56
(g77
g58
NtRp1721
(dp1722
g61
(dp1723
sg70
g1717
sg63
(lp1724
g56
(g57
g58
NtRp1725
(dp1726
g61
(dp1727
g69
I3
ssg70
g1721
sg63
(lp1728
S'2'
asbasbasbag56
(g72
g58
NtRp1729
(dp1730
g61
(dp1731
sg70
g1688
sg63
(lp1732
g56
(g77
g58
NtRp1733
(dp1734
g61
(dp1735
sg70
g1729
sg63
(lp1736
g56
(g57
g58
NtRp1737
(dp1738
g61
(dp1739
g69
I3
ssg70
g1733
sg63
(lp1740
S'datetime.datetime(2011, 9, 26, 6, 55, 33)'
p1741
asbasbasbag56
(g72
g58
NtRp1742
(dp1743
g61
(dp1744
sg70
g1688
sg63
(lp1745
g56
(g77
g58
NtRp1746
(dp1747
g61
(dp1748
sg70
g1742
sg63
(lp1749
g56
(g57
g58
NtRp1750
(dp1751
g61
(dp1752
g69
I3
ssg70
g1746
sg63
(lp1753
S'stable'
p1754
asbasbasbasbasbasbasbag56
(g72
g58
NtRp1755
(dp1756
g61
(dp1757
sg70
g1006
sg63
(lp1758
g56
(g77
g58
NtRp1759
(dp1760
g61
(dp1761
g81
g82
ssg70
g1755
sg63
(lp1762
S'wsgi_errors'
p1763
asbag56
(g77
g58
NtRp1764
(dp1765
g61
(dp1766
g88
g89
ssg70
g1755
sg63
(lp1767
S':'
asbag56
(g77
g58
NtRp1768
(dp1769
g61
(dp1770
sg70
g1755
sg63
(lp1771
g56
(g57
g58
NtRp1772
(dp1773
g61
(dp1774
g69
I4
ssg70
g1768
sg63
(lp1775
S"<open file '<stderr>', mode 'w' at 0x7f4e23883270>"
p1776
asbasbasbag56
(g72
g58
NtRp1777
(dp1778
g61
(dp1779
sg70
g1006
sg63
(lp1780
g56
(g77
g58
NtRp1781
(dp1782
g61
(dp1783
g81
g82
ssg70
g1777
sg63
(lp1784
S'wsgi_file_wrapper'
p1785
asbag56
(g77
g58
NtRp1786
(dp1787
g61
(dp1788
g88
g89
ssg70
g1777
sg63
(lp1789
S':'
asbag56
(g77
g58
NtRp1790
(dp1791
g61
(dp1792
sg70
g1777
sg63
(lp1793
g56
(g57
g58
NtRp1794
(dp1795
g61
(dp1796
g69
I4
ssg70
g1790
sg63
(lp1797
S'<class wsgiref.util.FileWrapper at 0x1ebcef0>'
p1798
asbasbasbag56
(g72
g58
NtRp1799
(dp1800
g61
(dp1801
sg70
g1006
sg63
(lp1802
g56
(g77
g58
NtRp1803
(dp1804
g61
(dp1805
g81
g82
ssg70
g1799
sg63
(lp1806
S'wsgi_input'
p1807
asbag56
(g77
g58
NtRp1808
(dp1809
g61
(dp1810
g88
g89
ssg70
g1799
sg63
(lp1811
S':'
asbag56
(g77
g58
NtRp1812
(dp1813
g61
(dp1814
sg70
g1799
sg63
(lp1815
g56
(g57
g58
NtRp1816
(dp1817
g61
(dp1818
g69
I4
ssg70
g1812
sg63
(lp1819
S'<socket._fileobject object at 0x22d0d50>'
p1820
asbasbasbag56
(g72
g58
NtRp1821
(dp1822
g61
(dp1823
sg70
g1006
sg63
(lp1824
g56
(g77
g58
NtRp1825
(dp1826
g61
(dp1827
g81
g82
ssg70
g1821
sg63
(lp1828
S'wsgi_multiprocess'
p1829
asbag56
(g77
g58
NtRp1830
(dp1831
g61
(dp1832
g88
g89
ssg70
g1821
sg63
(lp1833
S':'
asbag56
(g77
g58
NtRp1834
(dp1835
g61
(dp1836
sg70
g1821
sg63
(lp1837
g56
(g57
g58
NtRp1838
(dp1839
g61
(dp1840
g69
I4
ssg70
g1834
sg63
(lp1841
g99
asbasbasbag56
(g72
g58
NtRp1842
(dp1843
g61
(dp1844
sg70
g1006
sg63
(lp1845
g56
(g77
g58
NtRp1846
(dp1847
g61
(dp1848
g81
g82
ssg70
g1842
sg63
(lp1849
S'wsgi_multithread'
p1850
asbag56
(g77
g58
NtRp1851
(dp1852
g61
(dp1853
g88
g89
ssg70
g1842
sg63
(lp1854
S':'
asbag56
(g77
g58
NtRp1855
(dp1856
g61
(dp1857
sg70
g1842
sg63
(lp1858
g56
(g57
g58
NtRp1859
(dp1860
g61
(dp1861
g69
I4
ssg70
g1855
sg63
(lp1862
S'True'
p1863
asbasbasbag56
(g72
g58
NtRp1864
(dp1865
g61
(dp1866
sg70
g1006
sg63
(lp1867
g56
(g77
g58
NtRp1868
(dp1869
g61
(dp1870
g81
g82
ssg70
g1864
sg63
(lp1871
S'wsgi_run_once'
p1872
asbag56
(g77
g58
NtRp1873
(dp1874
g61
(dp1875
g88
g89
ssg70
g1864
sg63
(lp1876
S':'
asbag56
(g77
g58
NtRp1877
(dp1878
g61
(dp1879
sg70
g1864
sg63
(lp1880
g56
(g57
g58
NtRp1881
(dp1882
g61
(dp1883
g69
I4
ssg70
g1877
sg63
(lp1884
g99
asbasbasbag56
(g72
g58
NtRp1885
(dp1886
g61
(dp1887
sg70
g1006
sg63
(lp1888
g56
(g77
g58
NtRp1889
(dp1890
g61
(dp1891
g81
g82
ssg70
g1885
sg63
(lp1892
S'wsgi_url_scheme'
p1893
asbag56
(g77
g58
NtRp1894
(dp1895
g61
(dp1896
g88
g89
ssg70
g1885
sg63
(lp1897
S':'
asbag56
(g77
g58
NtRp1898
(dp1899
g61
(dp1900
sg70
g1885
sg63
(lp1901
g56
(g57
g58
NtRp1902
(dp1903
g61
(dp1904
g69
I4
ssg70
g1898
sg63
(lp1905
S'http'
p1906
asbasbasbag56
(g72
g58
NtRp1907
(dp1908
g61
(dp1909
sg70
g1006
sg63
(lp1910
g56
(g77
g58
NtRp1911
(dp1912
g61
(dp1913
g81
g82
ssg70
g1907
sg63
(lp1914
S'wsgi_version'
p1915
asbag56
(g77
g58
NtRp1916
(dp1917
g61
(dp1918
g88
g89
ssg70
g1907
sg63
(lp1919
S':'
asbag56
(g77
g58
NtRp1920
(dp1921
g61
(dp1922
sg70
g1907
sg63
(lp1923
g56
(g57
g58
NtRp1924
(dp1925
g61
(dp1926
g69
I4
ssg70
g1920
sg63
(lp1927
g56
(g65
g58
NtRp1928
(dp1929
g61
(dp1930
g69
I3
ssg70
Nsg63
(lp1931
g56
(g72
g58
NtRp1932
(dp1933
g61
(dp1934
sg70
g1928
sg63
(lp1935
g56
(g77
g58
NtRp1936
(dp1937
g61
(dp1938
sg70
g1932
sg63
(lp1939
g56
(g57
g58
NtRp1940
(dp1941
g61
(dp1942
g69
I3
ssg70
g1936
sg63
(lp1943
S'1'
asbasbasbag56
(g72
g58
NtRp1944
(dp1945
g61
(dp1946
sg70
g1928
sg63
(lp1947
g56
(g77
g58
NtRp1948
(dp1949
g61
(dp1950
sg70
g1944
sg63
(lp1951
g56
(g57
g58
NtRp1952
(dp1953
g61
(dp1954
g69
I3
ssg70
g1948
sg63
(lp1955
S'0'
asbasbasbasbasbasbasbasbasbasbasbag56
(g72
g58
NtRp1956
(dp1957
g61
(dp1958
sg70
g66
sg63
(lp1959
g56
(g77
g58
NtRp1960
(dp1961
g61
(dp1962
g81
g82
ssg70
g1956
sg63
(lp1963
S'extension'
p1964
asbag56
(g77
g58
NtRp1965
(dp1966
g61
(dp1967
g88
g89
ssg70
g1956
sg63
(lp1968
S':'
asbag56
(g77
g58
NtRp1969
(dp1970
g61
(dp1971
sg70
g1956
sg63
(lp1972
g56
(g57
g58
NtRp1973
(dp1974
g61
(dp1975
g69
I5
ssg70
g1969
sg63
(lp1976
S'html'
p1977
asbasbasbag56
(g72
g58
NtRp1978
(dp1979
g61
(dp1980
sg70
g66
sg63
(lp1981
g56
(g77
g58
NtRp1982
(dp1983
g61
(dp1984
g81
g82
ssg70
g1978
sg63
(lp1985
S'folder'
p1986
asbag56
(g77
g58
NtRp1987
(dp1988
g61
(dp1989
g88
g89
ssg70
g1978
sg63
(lp1990
S':'
asbag56
(g77
g58
NtRp1991
(dp1992
g61
(dp1993
sg70
g1978
sg63
(lp1994
g56
(g57
g58
NtRp1995
(dp1996
g61
(dp1997
g69
I5
ssg70
g1991
sg63
(lp1998
S'/home/kaique/Projects/web2py/applications/synopsis/'
p1999
asbasbasbag56
(g72
g58
NtRp2000
(dp2001
g61
(dp2002
sg70
g66
sg63
(lp2003
g56
(g77
g58
NtRp2004
(dp2005
g61
(dp2006
g81
g82
ssg70
g2000
sg63
(lp2007
S'function'
p2008
asbag56
(g77
g58
NtRp2009
(dp2010
g61
(dp2011
g88
g89
ssg70
g2000
sg63
(lp2012
S':'
asbag56
(g77
g58
NtRp2013
(dp2014
g61
(dp2015
sg70
g2000
sg63
(lp2016
g56
(g57
g58
NtRp2017
(dp2018
g61
(dp2019
g69
I5
ssg70
g2013
sg63
(lp2020
S'index'
p2021
asbasbasbag56
(g72
g58
NtRp2022
(dp2023
g61
(dp2024
sg70
g66
sg63
(lp2025
g56
(g77
g58
NtRp2026
(dp2027
g61
(dp2028
g81
g82
ssg70
g2022
sg63
(lp2029
S'get_vars'
p2030
asbag56
(g77
g58
NtRp2031
(dp2032
g61
(dp2033
g88
g89
ssg70
g2022
sg63
(lp2034
S':'
asbag56
(g77
g58
NtRp2035
(dp2036
g61
(dp2037
sg70
g2022
sg63
(lp2038
g56
(g57
g58
NtRp2039
(dp2040
g61
(dp2041
g69
I5
ssg70
g2035
sg63
(lp2042
g56
(g65
g58
NtRp2043
(dp2044
g61
(dp2045
g69
I4
ssg70
Nsg63
(lp2046
sbasbasbasbag56
(g72
g58
NtRp2047
(dp2048
g61
(dp2049
sg70
g66
sg63
(lp2050
g56
(g77
g58
NtRp2051
(dp2052
g61
(dp2053
g81
g82
ssg70
g2047
sg63
(lp2054
S'global_settings'
p2055
asbag56
(g77
g58
NtRp2056
(dp2057
g61
(dp2058
g88
g89
ssg70
g2047
sg63
(lp2059
S':'
asbag56
(g77
g58
NtRp2060
(dp2061
g61
(dp2062
sg70
g2047
sg63
(lp2063
g56
(g57
g58
NtRp2064
(dp2065
g61
(dp2066
g69
I5
ssg70
g2060
sg63
(lp2067
g56
(g65
g58
NtRp2068
(dp2069
g61
(dp2070
g69
I4
ssg70
Nsg63
(lp2071
g56
(g72
g58
NtRp2072
(dp2073
g61
(dp2074
sg70
g2068
sg63
(lp2075
g56
(g77
g58
NtRp2076
(dp2077
g61
(dp2078
g81
g82
ssg70
g2072
sg63
(lp2079
g1018
asbag56
(g77
g58
NtRp2080
(dp2081
g61
(dp2082
g88
g89
ssg70
g2072
sg63
(lp2083
S':'
asbag56
(g77
g58
NtRp2084
(dp2085
g61
(dp2086
sg70
g2072
sg63
(lp2087
g56
(g57
g58
NtRp2088
(dp2089
g61
(dp2090
g69
I4
ssg70
g2084
sg63
(lp2091
S"set(['/home/kaique/Projects/web2py/applications/welcome/', '/home/kaique/Projects/web2py/applications/admin/', '/home/kaique/Projects/web2py/applications/synopsis/'])"
p2092
asbasbasbag56
(g72
g58
NtRp2093
(dp2094
g61
(dp2095
sg70
g2068
sg63
(lp2096
g56
(g77
g58
NtRp2097
(dp2098
g61
(dp2099
g81
g82
ssg70
g2093
sg63
(lp2100
g1040
asbag56
(g77
g58
NtRp2101
(dp2102
g61
(dp2103
g88
g89
ssg70
g2093
sg63
(lp2104
S':'
asbag56
(g77
g58
NtRp2105
(dp2106
g61
(dp2107
sg70
g2093
sg63
(lp2108
g56
(g57
g58
NtRp2109
(dp2110
g61
(dp2111
g69
I4
ssg70
g2105
sg63
(lp2112
g1053
asbasbasbag56
(g72
g58
NtRp2113
(dp2114
g61
(dp2115
sg70
g2068
sg63
(lp2116
g56
(g77
g58
NtRp2117
(dp2118
g61
(dp2119
g81
g82
ssg70
g2113
sg63
(lp2120
g1062
asbag56
(g77
g58
NtRp2121
(dp2122
g61
(dp2123
g88
g89
ssg70
g2113
sg63
(lp2124
S':'
asbag56
(g77
g58
NtRp2125
(dp2126
g61
(dp2127
sg70
g2113
sg63
(lp2128
g56
(g57
g58
NtRp2129
(dp2130
g61
(dp2131
g69
I4
ssg70
g2125
sg63
(lp2132
g56
(g65
g58
NtRp2133
(dp2134
g61
(dp2135
g69
I3
ssg70
Nsg63
(lp2136
sbasbasbasbag56
(g72
g58
NtRp2137
(dp2138
g61
(dp2139
sg70
g2068
sg63
(lp2140
g56
(g77
g58
NtRp2141
(dp2142
g61
(dp2143
g81
g82
ssg70
g2137
sg63
(lp2144
g1087
asbag56
(g77
g58
NtRp2145
(dp2146
g61
(dp2147
g88
g89
ssg70
g2137
sg63
(lp2148
S':'
asbag56
(g77
g58
NtRp2149
(dp2150
g61
(dp2151
sg70
g2137
sg63
(lp2152
g56
(g57
g58
NtRp2153
(dp2154
g61
(dp2155
g69
I4
ssg70
g2149
sg63
(lp2156
S"<Values at 0x2005998: {'verbose': False, 'ip': '127.0.0.1', 'shutdown_timeout': 5, 'taskbar': False, 'nocron': False, 'pid_filename': 'httpserver.pid', 'maxthreads': None, 'softcron': False, 'server_name': 'kaique-Pine-Trail-M', 'bpython': False, 'nogui': False, 'port': 8000, 'extcron': False, 'debuglevel': 30, 'test': None, 'folder': '/home/kaique/Projects/web2py', 'config': '', 'import_models': False, 'winservice': '', 'shell': None, 'run': '', 'log_filename': 'httpserver.log', 'args': [''], 'ssl_ca_certificate': None, 'scheduler': None, 'profiler_filename': None, 'ssl_private_key': '', 'password': 'dev', 'request_queue_size': 5, 'ssl_certificate': '', 'cronjob': False, 'plain': False, 'quiet': False, 'interfaces': None, 'minthreads': None, 'timeout': 10, 'numthreads': None, 'nobanner': False}>"
p2157
asbasbasbag56
(g72
g58
NtRp2158
(dp2159
g61
(dp2160
sg70
g2068
sg63
(lp2161
g56
(g77
g58
NtRp2162
(dp2163
g61
(dp2164
g81
g82
ssg70
g2158
sg63
(lp2165
g1109
asbag56
(g77
g58
NtRp2166
(dp2167
g61
(dp2168
g88
g89
ssg70
g2158
sg63
(lp2169
S':'
asbag56
(g77
g58
NtRp2170
(dp2171
g61
(dp2172
sg70
g2158
sg63
(lp2173
g56
(g57
g58
NtRp2174
(dp2175
g61
(dp2176
g69
I4
ssg70
g2170
sg63
(lp2177
S'set([])'
p2178
asbasbasbag56
(g72
g58
NtRp2179
(dp2180
g61
(dp2181
sg70
g2068
sg63
(lp2182
g56
(g77
g58
NtRp2183
(dp2184
g61
(dp2185
g81
g82
ssg70
g2179
sg63
(lp2186
g1131
asbag56
(g77
g58
NtRp2187
(dp2188
g61
(dp2189
g88
g89
ssg70
g2179
sg63
(lp2190
S':'
asbag56
(g77
g58
NtRp2191
(dp2192
g61
(dp2193
sg70
g2179
sg63
(lp2194
g56
(g57
g58
NtRp2195
(dp2196
g61
(dp2197
g69
I4
ssg70
g2191
sg63
(lp2198
g99
asbasbasbag56
(g72
g58
NtRp2199
(dp2200
g61
(dp2201
sg70
g2068
sg63
(lp2202
g56
(g77
g58
NtRp2203
(dp2204
g61
(dp2205
g81
g82
ssg70
g2199
sg63
(lp2206
g1152
asbag56
(g77
g58
NtRp2207
(dp2208
g61
(dp2209
g88
g89
ssg70
g2199
sg63
(lp2210
S':'
asbag56
(g77
g58
NtRp2211
(dp2212
g61
(dp2213
sg70
g2199
sg63
(lp2214
g56
(g57
g58
NtRp2215
(dp2216
g61
(dp2217
g69
I4
ssg70
g2211
sg63
(lp2218
g1165
asbasbasbag56
(g72
g58
NtRp2219
(dp2220
g61
(dp2221
sg70
g2068
sg63
(lp2222
g56
(g77
g58
NtRp2223
(dp2224
g61
(dp2225
g81
g82
ssg70
g2219
sg63
(lp2226
g1394
asbag56
(g77
g58
NtRp2227
(dp2228
g61
(dp2229
g88
g89
ssg70
g2219
sg63
(lp2230
S':'
asbag56
(g77
g58
NtRp2231
(dp2232
g61
(dp2233
sg70
g2219
sg63
(lp2234
g56
(g57
g58
NtRp2235
(dp2236
g61
(dp2237
g69
I4
ssg70
g2231
sg63
(lp2238
g99
asbasbasbag56
(g72
g58
NtRp2239
(dp2240
g61
(dp2241
sg70
g2068
sg63
(lp2242
g56
(g77
g58
NtRp2243
(dp2244
g61
(dp2245
g81
g82
ssg70
g2239
sg63
(lp2246
g1632
asbag56
(g77
g58
NtRp2247
(dp2248
g61
(dp2249
g88
g89
ssg70
g2239
sg63
(lp2250
S':'
asbag56
(g77
g58
NtRp2251
(dp2252
g61
(dp2253
sg70
g2239
sg63
(lp2254
g56
(g57
g58
NtRp2255
(dp2256
g61
(dp2257
g69
I4
ssg70
g2251
sg63
(lp2258
g1645
asbasbasbag56
(g72
g58
NtRp2259
(dp2260
g61
(dp2261
sg70
g2068
sg63
(lp2262
g56
(g77
g58
NtRp2263
(dp2264
g61
(dp2265
g81
g82
ssg70
g2259
sg63
(lp2266
g1675
asbag56
(g77
g58
NtRp2267
(dp2268
g61
(dp2269
g88
g89
ssg70
g2259
sg63
(lp2270
S':'
asbag56
(g77
g58
NtRp2271
(dp2272
g61
(dp2273
sg70
g2259
sg63
(lp2274
g56
(g57
g58
NtRp2275
(dp2276
g61
(dp2277
g69
I4
ssg70
g2271
sg63
(lp2278
g56
(g65
g58
NtRp2279
(dp2280
g61
(dp2281
g69
I3
ssg70
Nsg63
(lp2282
g56
(g72
g58
NtRp2283
(dp2284
g61
(dp2285
sg70
g2279
sg63
(lp2286
g56
(g77
g58
NtRp2287
(dp2288
g61
(dp2289
sg70
g2283
sg63
(lp2290
g56
(g57
g58
NtRp2291
(dp2292
g61
(dp2293
g69
I3
ssg70
g2287
sg63
(lp2294
S'1'
asbasbasbag56
(g72
g58
NtRp2295
(dp2296
g61
(dp2297
sg70
g2279
sg63
(lp2298
g56
(g77
g58
NtRp2299
(dp2300
g61
(dp2301
sg70
g2295
sg63
(lp2302
g56
(g57
g58
NtRp2303
(dp2304
g61
(dp2305
g69
I3
ssg70
g2299
sg63
(lp2306
S'99'
p2307
asbasbasbag56
(g72
g58
NtRp2308
(dp2309
g61
(dp2310
sg70
g2279
sg63
(lp2311
g56
(g77
g58
NtRp2312
(dp2313
g61
(dp2314
sg70
g2308
sg63
(lp2315
g56
(g57
g58
NtRp2316
(dp2317
g61
(dp2318
g69
I3
ssg70
g2312
sg63
(lp2319
S'2'
asbasbasbag56
(g72
g58
NtRp2320
(dp2321
g61
(dp2322
sg70
g2279
sg63
(lp2323
g56
(g77
g58
NtRp2324
(dp2325
g61
(dp2326
sg70
g2320
sg63
(lp2327
g56
(g57
g58
NtRp2328
(dp2329
g61
(dp2330
g69
I3
ssg70
g2324
sg63
(lp2331
S'datetime.datetime(2011, 9, 26, 6, 55, 33)'
p2332
asbasbasbag56
(g72
g58
NtRp2333
(dp2334
g61
(dp2335
sg70
g2279
sg63
(lp2336
g56
(g77
g58
NtRp2337
(dp2338
g61
(dp2339
sg70
g2333
sg63
(lp2340
g56
(g57
g58
NtRp2341
(dp2342
g61
(dp2343
g69
I3
ssg70
g2337
sg63
(lp2344
g1754
asbasbasbasbasbasbasbasbasbasbasbag56
(g72
g58
NtRp2345
(dp2346
g61
(dp2347
sg70
g66
sg63
(lp2348
g56
(g77
g58
NtRp2349
(dp2350
g61
(dp2351
g81
g82
ssg70
g2345
sg63
(lp2352
S'is_https'
p2353
asbag56
(g77
g58
NtRp2354
(dp2355
g61
(dp2356
g88
g89
ssg70
g2345
sg63
(lp2357
S':'
asbag56
(g77
g58
NtRp2358
(dp2359
g61
(dp2360
sg70
g2345
sg63
(lp2361
g56
(g57
g58
NtRp2362
(dp2363
g61
(dp2364
g69
I5
ssg70
g2358
sg63
(lp2365
g99
asbasbasbag56
(g72
g58
NtRp2366
(dp2367
g61
(dp2368
sg70
g66
sg63
(lp2369
g56
(g77
g58
NtRp2370
(dp2371
g61
(dp2372
g81
g82
ssg70
g2366
sg63
(lp2373
S'is_local'
p2374
asbag56
(g77
g58
NtRp2375
(dp2376
g61
(dp2377
g88
g89
ssg70
g2366
sg63
(lp2378
S':'
asbag56
(g77
g58
NtRp2379
(dp2380
g61
(dp2381
sg70
g2366
sg63
(lp2382
g56
(g57
g58
NtRp2383
(dp2384
g61
(dp2385
g69
I5
ssg70
g2379
sg63
(lp2386
g1863
asbasbasbag56
(g72
g58
NtRp2387
(dp2388
g61
(dp2389
sg70
g66
sg63
(lp2390
g56
(g77
g58
NtRp2391
(dp2392
g61
(dp2393
g81
g82
ssg70
g2387
sg63
(lp2394
S'is_restful'
p2395
asbag56
(g77
g58
NtRp2396
(dp2397
g61
(dp2398
g88
g89
ssg70
g2387
sg63
(lp2399
S':'
asbag56
(g77
g58
NtRp2400
(dp2401
g61
(dp2402
sg70
g2387
sg63
(lp2403
g56
(g57
g58
NtRp2404
(dp2405
g61
(dp2406
g69
I5
ssg70
g2400
sg63
(lp2407
g99
asbasbasbag56
(g72
g58
NtRp2408
(dp2409
g61
(dp2410
sg70
g66
sg63
(lp2411
g56
(g77
g58
NtRp2412
(dp2413
g61
(dp2414
g81
g82
ssg70
g2408
sg63
(lp2415
S'now'
p2416
asbag56
(g77
g58
NtRp2417
(dp2418
g61
(dp2419
g88
g89
ssg70
g2408
sg63
(lp2420
S':'
asbag56
(g77
g58
NtRp2421
(dp2422
g61
(dp2423
sg70
g2408
sg63
(lp2424
g56
(g57
g58
NtRp2425
(dp2426
g61
(dp2427
g69
I5
ssg70
g2421
sg63
(lp2428
S'datetime.datetime(2012, 1, 11, 18, 48, 52, 570423)'
p2429
asbasbasbag56
(g72
g58
NtRp2430
(dp2431
g61
(dp2432
sg70
g66
sg63
(lp2433
g56
(g77
g58
NtRp2434
(dp2435
g61
(dp2436
g81
g82
ssg70
g2430
sg63
(lp2437
S'post_vars'
p2438
asbag56
(g77
g58
NtRp2439
(dp2440
g61
(dp2441
g88
g89
ssg70
g2430
sg63
(lp2442
S':'
asbag56
(g77
g58
NtRp2443
(dp2444
g61
(dp2445
sg70
g2430
sg63
(lp2446
g56
(g57
g58
NtRp2447
(dp2448
g61
(dp2449
g69
I5
ssg70
g2443
sg63
(lp2450
g56
(g65
g58
NtRp2451
(dp2452
g61
(dp2453
g69
I4
ssg70
Nsg63
(lp2454
sbasbasbasbag56
(g72
g58
NtRp2455
(dp2456
g61
(dp2457
sg70
g66
sg63
(lp2458
g56
(g77
g58
NtRp2459
(dp2460
g61
(dp2461
g81
g82
ssg70
g2455
sg63
(lp2462
S'url'
p2463
asbag56
(g77
g58
NtRp2464
(dp2465
g61
(dp2466
g88
g89
ssg70
g2455
sg63
(lp2467
S':'
asbag56
(g77
g58
NtRp2468
(dp2469
g61
(dp2470
sg70
g2455
sg63
(lp2471
g56
(g57
g58
NtRp2472
(dp2473
g61
(dp2474
g69
I5
ssg70
g2468
sg63
(lp2475
S'/synopsis/default/index'
p2476
asbasbasbag56
(g72
g58
NtRp2477
(dp2478
g61
(dp2479
sg70
g66
sg63
(lp2480
g56
(g77
g58
NtRp2481
(dp2482
g61
(dp2483
g81
g82
ssg70
g2477
sg63
(lp2484
S'utcnow'
p2485
asbag56
(g77
g58
NtRp2486
(dp2487
g61
(dp2488
g88
g89
ssg70
g2477
sg63
(lp2489
S':'
asbag56
(g77
g58
NtRp2490
(dp2491
g61
(dp2492
sg70
g2477
sg63
(lp2493
g56
(g57
g58
NtRp2494
(dp2495
g61
(dp2496
g69
I5
ssg70
g2490
sg63
(lp2497
S'datetime.datetime(2012, 1, 11, 20, 48, 52, 570499)'
p2498
asbasbasbag56
(g72
g58
NtRp2499
(dp2500
g61
(dp2501
sg70
g66
sg63
(lp2502
g56
(g77
g58
NtRp2503
(dp2504
g61
(dp2505
g81
g82
ssg70
g2499
sg63
(lp2506
S'uuid'
p2507
asbag56
(g77
g58
NtRp2508
(dp2509
g61
(dp2510
g88
g89
ssg70
g2499
sg63
(lp2511
S':'
asbag56
(g77
g58
NtRp2512
(dp2513
g61
(dp2514
sg70
g2499
sg63
(lp2515
g56
(g57
g58
NtRp2516
(dp2517
g61
(dp2518
g69
I5
ssg70
g2512
sg63
(lp2519
S'synopsis/127.0.0.1.2012-01-11.18-48-52.ffbaa325-2a40-4454-b0d5-d24ca3374f07'
p2520
asbasbasbag56
(g72
g58
NtRp2521
(dp2522
g61
(dp2523
sg70
g66
sg63
(lp2524
g56
(g77
g58
NtRp2525
(dp2526
g61
(dp2527
g81
g82
ssg70
g2521
sg63
(lp2528
S'vars'
p2529
asbag56
(g77
g58
NtRp2530
(dp2531
g61
(dp2532
g88
g89
ssg70
g2521
sg63
(lp2533
S':'
asbag56
(g77
g58
NtRp2534
(dp2535
g61
(dp2536
sg70
g2521
sg63
(lp2537
g56
(g57
g58
NtRp2538
(dp2539
g61
(dp2540
g69
I5
ssg70
g2534
sg63
(lp2541
g56
(g65
g58
NtRp2542
(dp2543
g61
(dp2544
g69
I4
ssg70
Nsg63
(lp2545
sbasbasbasbag56
(g72
g58
NtRp2546
(dp2547
g61
(dp2548
sg70
g66
sg63
(lp2549
g56
(g77
g58
NtRp2550
(dp2551
g61
(dp2552
g81
g82
ssg70
g2546
sg63
(lp2553
S'wsgi'
p2554
asbag56
(g77
g58
NtRp2555
(dp2556
g61
(dp2557
g88
g89
ssg70
g2546
sg63
(lp2558
S':'
asbag56
(g77
g58
NtRp2559
(dp2560
g61
(dp2561
sg70
g2546
sg63
(lp2562
g56
(g57
g58
NtRp2563
(dp2564
g61
(dp2565
g69
I5
ssg70
g2559
sg63
(lp2566
g56
(g65
g58
NtRp2567
(dp2568
g61
(dp2569
g69
I4
ssg70
Nsg63
(lp2570
g56
(g72
g58
NtRp2571
(dp2572
g61
(dp2573
sg70
g2567
sg63
(lp2574
g56
(g77
g58
NtRp2575
(dp2576
g61
(dp2577
g81
g82
ssg70
g2571
sg63
(lp2578
S'environ'
p2579
asbag56
(g77
g58
NtRp2580
(dp2581
g61
(dp2582
g88
g89
ssg70
g2571
sg63
(lp2583
S':'
asbag56
(g77
g58
NtRp2584
(dp2585
g61
(dp2586
sg70
g2571
sg63
(lp2587
g56
(g57
g58
NtRp2588
(dp2589
g61
(dp2590
g69
I4
ssg70
g2584
sg63
(lp2591
g56
(g65
g58
NtRp2592
(dp2593
g61
(dp2594
g69
I3
ssg70
Nsg63
(lp2595
g56
(g72
g58
NtRp2596
(dp2597
g61
(dp2598
sg70
g2592
sg63
(lp2599
g56
(g77
g58
NtRp2600
(dp2601
g61
(dp2602
g81
g82
ssg70
g2596
sg63
(lp2603
S'HTTP_ACCEPT'
p2604
asbag56
(g77
g58
NtRp2605
(dp2606
g61
(dp2607
g88
g89
ssg70
g2596
sg63
(lp2608
S':'
asbag56
(g77
g58
NtRp2609
(dp2610
g61
(dp2611
sg70
g2596
sg63
(lp2612
g56
(g57
g58
NtRp2613
(dp2614
g61
(dp2615
g69
I3
ssg70
g2609
sg63
(lp2616
g1187
asbasbasbag56
(g72
g58
NtRp2617
(dp2618
g61
(dp2619
sg70
g2592
sg63
(lp2620
g56
(g77
g58
NtRp2621
(dp2622
g61
(dp2623
g81
g82
ssg70
g2617
sg63
(lp2624
S'HTTP_ACCEPT_CHARSET'
p2625
asbag56
(g77
g58
NtRp2626
(dp2627
g61
(dp2628
g88
g89
ssg70
g2617
sg63
(lp2629
S':'
asbag56
(g77
g58
NtRp2630
(dp2631
g61
(dp2632
sg70
g2617
sg63
(lp2633
g56
(g57
g58
NtRp2634
(dp2635
g61
(dp2636
g69
I3
ssg70
g2630
sg63
(lp2637
g1209
asbasbasbag56
(g72
g58
NtRp2638
(dp2639
g61
(dp2640
sg70
g2592
sg63
(lp2641
g56
(g77
g58
NtRp2642
(dp2643
g61
(dp2644
g81
g82
ssg70
g2638
sg63
(lp2645
S'HTTP_ACCEPT_ENCODING'
p2646
asbag56
(g77
g58
NtRp2647
(dp2648
g61
(dp2649
g88
g89
ssg70
g2638
sg63
(lp2650
S':'
asbag56
(g77
g58
NtRp2651
(dp2652
g61
(dp2653
sg70
g2638
sg63
(lp2654
g56
(g57
g58
NtRp2655
(dp2656
g61
(dp2657
g69
I3
ssg70
g2651
sg63
(lp2658
g1231
asbasbasbag56
(g72
g58
NtRp2659
(dp2660
g61
(dp2661
sg70
g2592
sg63
(lp2662
g56
(g77
g58
NtRp2663
(dp2664
g61
(dp2665
g81
g82
ssg70
g2659
sg63
(lp2666
S'HTTP_ACCEPT_LANGUAGE'
p2667
asbag56
(g77
g58
NtRp2668
(dp2669
g61
(dp2670
g88
g89
ssg70
g2659
sg63
(lp2671
S':'
asbag56
(g77
g58
NtRp2672
(dp2673
g61
(dp2674
sg70
g2659
sg63
(lp2675
g56
(g57
g58
NtRp2676
(dp2677
g61
(dp2678
g69
I3
ssg70
g2672
sg63
(lp2679
g1253
asbasbasbag56
(g72
g58
NtRp2680
(dp2681
g61
(dp2682
sg70
g2592
sg63
(lp2683
g56
(g77
g58
NtRp2684
(dp2685
g61
(dp2686
g81
g82
ssg70
g2680
sg63
(lp2687
S'HTTP_CACHE_CONTROL'
p2688
asbag56
(g77
g58
NtRp2689
(dp2690
g61
(dp2691
g88
g89
ssg70
g2680
sg63
(lp2692
S':'
asbag56
(g77
g58
NtRp2693
(dp2694
g61
(dp2695
sg70
g2680
sg63
(lp2696
g56
(g57
g58
NtRp2697
(dp2698
g61
(dp2699
g69
I3
ssg70
g2693
sg63
(lp2700
g1275
asbasbasbag56
(g72
g58
NtRp2701
(dp2702
g61
(dp2703
sg70
g2592
sg63
(lp2704
g56
(g77
g58
NtRp2705
(dp2706
g61
(dp2707
g81
g82
ssg70
g2701
sg63
(lp2708
S'HTTP_CONNECTION'
p2709
asbag56
(g77
g58
NtRp2710
(dp2711
g61
(dp2712
g88
g89
ssg70
g2701
sg63
(lp2713
S':'
asbag56
(g77
g58
NtRp2714
(dp2715
g61
(dp2716
sg70
g2701
sg63
(lp2717
g56
(g57
g58
NtRp2718
(dp2719
g61
(dp2720
g69
I3
ssg70
g2714
sg63
(lp2721
g1297
asbasbasbag56
(g72
g58
NtRp2722
(dp2723
g61
(dp2724
sg70
g2592
sg63
(lp2725
g56
(g77
g58
NtRp2726
(dp2727
g61
(dp2728
g81
g82
ssg70
g2722
sg63
(lp2729
S'HTTP_COOKIE'
p2730
asbag56
(g77
g58
NtRp2731
(dp2732
g61
(dp2733
g88
g89
ssg70
g2722
sg63
(lp2734
S':'
asbag56
(g77
g58
NtRp2735
(dp2736
g61
(dp2737
sg70
g2722
sg63
(lp2738
g56
(g57
g58
NtRp2739
(dp2740
g61
(dp2741
g69
I3
ssg70
g2735
sg63
(lp2742
g1319
asbasbasbag56
(g72
g58
NtRp2743
(dp2744
g61
(dp2745
sg70
g2592
sg63
(lp2746
g56
(g77
g58
NtRp2747
(dp2748
g61
(dp2749
g81
g82
ssg70
g2743
sg63
(lp2750
S'HTTP_HOST'
p2751
asbag56
(g77
g58
NtRp2752
(dp2753
g61
(dp2754
g88
g89
ssg70
g2743
sg63
(lp2755
S':'
asbag56
(g77
g58
NtRp2756
(dp2757
g61
(dp2758
sg70
g2743
sg63
(lp2759
g56
(g57
g58
NtRp2760
(dp2761
g61
(dp2762
g69
I3
ssg70
g2756
sg63
(lp2763
g1341
asbasbasbag56
(g72
g58
NtRp2764
(dp2765
g61
(dp2766
sg70
g2592
sg63
(lp2767
g56
(g77
g58
NtRp2768
(dp2769
g61
(dp2770
g81
g82
ssg70
g2764
sg63
(lp2771
S'HTTP_REFERER'
p2772
asbag56
(g77
g58
NtRp2773
(dp2774
g61
(dp2775
g88
g89
ssg70
g2764
sg63
(lp2776
S':'
asbag56
(g77
g58
NtRp2777
(dp2778
g61
(dp2779
sg70
g2764
sg63
(lp2780
g56
(g57
g58
NtRp2781
(dp2782
g61
(dp2783
g69
I3
ssg70
g2777
sg63
(lp2784
g1363
asbasbasbag56
(g72
g58
NtRp2785
(dp2786
g61
(dp2787
sg70
g2592
sg63
(lp2788
g56
(g77
g58
NtRp2789
(dp2790
g61
(dp2791
g81
g82
ssg70
g2785
sg63
(lp2792
S'HTTP_USER_AGENT'
p2793
asbag56
(g77
g58
NtRp2794
(dp2795
g61
(dp2796
g88
g89
ssg70
g2785
sg63
(lp2797
S':'
asbag56
(g77
g58
NtRp2798
(dp2799
g61
(dp2800
sg70
g2785
sg63
(lp2801
g56
(g57
g58
NtRp2802
(dp2803
g61
(dp2804
g69
I3
ssg70
g2798
sg63
(lp2805
g1385
asbasbasbag56
(g72
g58
NtRp2806
(dp2807
g61
(dp2808
sg70
g2592
sg63
(lp2809
g56
(g77
g58
NtRp2810
(dp2811
g61
(dp2812
g81
g82
ssg70
g2806
sg63
(lp2813
S'PATH_INFO'
p2814
asbag56
(g77
g58
NtRp2815
(dp2816
g61
(dp2817
g88
g89
ssg70
g2806
sg63
(lp2818
S':'
asbag56
(g77
g58
NtRp2819
(dp2820
g61
(dp2821
sg70
g2806
sg63
(lp2822
g56
(g57
g58
NtRp2823
(dp2824
g61
(dp2825
g69
I3
ssg70
g2819
sg63
(lp2826
g1428
asbasbasbag56
(g72
g58
NtRp2827
(dp2828
g61
(dp2829
sg70
g2592
sg63
(lp2830
g56
(g77
g58
NtRp2831
(dp2832
g61
(dp2833
g81
g82
ssg70
g2827
sg63
(lp2834
S'QUERY_STRING'
p2835
asbag56
(g77
g58
NtRp2836
(dp2837
g61
(dp2838
g88
g89
ssg70
g2827
sg63
(lp2839
S':'
asbag56
(g77
g58
NtRp2840
(dp2841
g61
(dp2842
sg70
g2827
sg63
(lp2843
g56
(g57
g58
NtRp2844
(dp2845
g61
(dp2846
g69
I3
ssg70
g2840
sg63
(lp2847
S''
asbasbasbag56
(g72
g58
NtRp2848
(dp2849
g61
(dp2850
sg70
g2592
sg63
(lp2851
g56
(g77
g58
NtRp2852
(dp2853
g61
(dp2854
g81
g82
ssg70
g2848
sg63
(lp2855
S'REMOTE_ADDR'
p2856
asbag56
(g77
g58
NtRp2857
(dp2858
g61
(dp2859
g88
g89
ssg70
g2848
sg63
(lp2860
S':'
asbag56
(g77
g58
NtRp2861
(dp2862
g61
(dp2863
sg70
g2848
sg63
(lp2864
g56
(g57
g58
NtRp2865
(dp2866
g61
(dp2867
g69
I3
ssg70
g2861
sg63
(lp2868
g189
asbasbasbag56
(g72
g58
NtRp2869
(dp2870
g61
(dp2871
sg70
g2592
sg63
(lp2872
g56
(g77
g58
NtRp2873
(dp2874
g61
(dp2875
g81
g82
ssg70
g2869
sg63
(lp2876
S'REMOTE_PORT'
p2877
asbag56
(g77
g58
NtRp2878
(dp2879
g61
(dp2880
g88
g89
ssg70
g2869
sg63
(lp2881
S':'
asbag56
(g77
g58
NtRp2882
(dp2883
g61
(dp2884
sg70
g2869
sg63
(lp2885
g56
(g57
g58
NtRp2886
(dp2887
g61
(dp2888
g69
I3
ssg70
g2882
sg63
(lp2889
g1492
asbasbasbag56
(g72
g58
NtRp2890
(dp2891
g61
(dp2892
sg70
g2592
sg63
(lp2893
g56
(g77
g58
NtRp2894
(dp2895
g61
(dp2896
g81
g82
ssg70
g2890
sg63
(lp2897
S'REQUEST_METHOD'
p2898
asbag56
(g77
g58
NtRp2899
(dp2900
g61
(dp2901
g88
g89
ssg70
g2890
sg63
(lp2902
S':'
asbag56
(g77
g58
NtRp2903
(dp2904
g61
(dp2905
sg70
g2890
sg63
(lp2906
g56
(g57
g58
NtRp2907
(dp2908
g61
(dp2909
g69
I3
ssg70
g2903
sg63
(lp2910
g1514
asbasbasbag56
(g72
g58
NtRp2911
(dp2912
g61
(dp2913
sg70
g2592
sg63
(lp2914
g56
(g77
g58
NtRp2915
(dp2916
g61
(dp2917
g81
g82
ssg70
g2911
sg63
(lp2918
S'SCRIPT_NAME'
p2919
asbag56
(g77
g58
NtRp2920
(dp2921
g61
(dp2922
g88
g89
ssg70
g2911
sg63
(lp2923
S':'
asbag56
(g77
g58
NtRp2924
(dp2925
g61
(dp2926
sg70
g2911
sg63
(lp2927
g56
(g57
g58
NtRp2928
(dp2929
g61
(dp2930
g69
I3
ssg70
g2924
sg63
(lp2931
S''
asbasbasbag56
(g72
g58
NtRp2932
(dp2933
g61
(dp2934
sg70
g2592
sg63
(lp2935
g56
(g77
g58
NtRp2936
(dp2937
g61
(dp2938
g81
g82
ssg70
g2932
sg63
(lp2939
S'SERVER_NAME'
p2940
asbag56
(g77
g58
NtRp2941
(dp2942
g61
(dp2943
g88
g89
ssg70
g2932
sg63
(lp2944
S':'
asbag56
(g77
g58
NtRp2945
(dp2946
g61
(dp2947
sg70
g2932
sg63
(lp2948
g56
(g57
g58
NtRp2949
(dp2950
g61
(dp2951
g69
I3
ssg70
g2945
sg63
(lp2952
g1557
asbasbasbag56
(g72
g58
NtRp2953
(dp2954
g61
(dp2955
sg70
g2592
sg63
(lp2956
g56
(g77
g58
NtRp2957
(dp2958
g61
(dp2959
g81
g82
ssg70
g2953
sg63
(lp2960
S'SERVER_PORT'
p2961
asbag56
(g77
g58
NtRp2962
(dp2963
g61
(dp2964
g88
g89
ssg70
g2953
sg63
(lp2965
S':'
asbag56
(g77
g58
NtRp2966
(dp2967
g61
(dp2968
sg70
g2953
sg63
(lp2969
g56
(g57
g58
NtRp2970
(dp2971
g61
(dp2972
g69
I3
ssg70
g2966
sg63
(lp2973
g1579
asbasbasbag56
(g72
g58
NtRp2974
(dp2975
g61
(dp2976
sg70
g2592
sg63
(lp2977
g56
(g77
g58
NtRp2978
(dp2979
g61
(dp2980
g81
g82
ssg70
g2974
sg63
(lp2981
S'SERVER_PROTOCOL'
p2982
asbag56
(g77
g58
NtRp2983
(dp2984
g61
(dp2985
g88
g89
ssg70
g2974
sg63
(lp2986
S':'
asbag56
(g77
g58
NtRp2987
(dp2988
g61
(dp2989
sg70
g2974
sg63
(lp2990
g56
(g57
g58
NtRp2991
(dp2992
g61
(dp2993
g69
I3
ssg70
g2987
sg63
(lp2994
g1601
asbasbasbag56
(g72
g58
NtRp2995
(dp2996
g61
(dp2997
sg70
g2592
sg63
(lp2998
g56
(g77
g58
NtRp2999
(dp3000
g61
(dp3001
g81
g82
ssg70
g2995
sg63
(lp3002
S'SERVER_SOFTWARE'
p3003
asbag56
(g77
g58
NtRp3004
(dp3005
g61
(dp3006
g88
g89
ssg70
g2995
sg63
(lp3007
S':'
asbag56
(g77
g58
NtRp3008
(dp3009
g61
(dp3010
sg70
g2995
sg63
(lp3011
g56
(g57
g58
NtRp3012
(dp3013
g61
(dp3014
g69
I3
ssg70
g3008
sg63
(lp3015
g1623
asbasbasbag56
(g72
g58
NtRp3016
(dp3017
g61
(dp3018
sg70
g2592
sg63
(lp3019
g56
(g77
g58
NtRp3020
(dp3021
g61
(dp3022
g81
g82
ssg70
g3016
sg63
(lp3023
S'wsgi.errors'
p3024
asbag56
(g77
g58
NtRp3025
(dp3026
g61
(dp3027
g88
g89
ssg70
g3016
sg63
(lp3028
S':'
asbag56
(g77
g58
NtRp3029
(dp3030
g61
(dp3031
sg70
g3016
sg63
(lp3032
g56
(g57
g58
NtRp3033
(dp3034
g61
(dp3035
g69
I3
ssg70
g3029
sg63
(lp3036
S"<open file '<stderr>', mode 'w' at 0x7f4e23883270>"
p3037
asbasbasbag56
(g72
g58
NtRp3038
(dp3039
g61
(dp3040
sg70
g2592
sg63
(lp3041
g56
(g77
g58
NtRp3042
(dp3043
g61
(dp3044
g81
g82
ssg70
g3038
sg63
(lp3045
S'wsgi.file_wrapper'
p3046
asbag56
(g77
g58
NtRp3047
(dp3048
g61
(dp3049
g88
g89
ssg70
g3038
sg63
(lp3050
S':'
asbag56
(g77
g58
NtRp3051
(dp3052
g61
(dp3053
sg70
g3038
sg63
(lp3054
g56
(g57
g58
NtRp3055
(dp3056
g61
(dp3057
g69
I3
ssg70
g3051
sg63
(lp3058
S'<class wsgiref.util.FileWrapper at 0x1ebcef0>'
p3059
asbasbasbag56
(g72
g58
NtRp3060
(dp3061
g61
(dp3062
sg70
g2592
sg63
(lp3063
g56
(g77
g58
NtRp3064
(dp3065
g61
(dp3066
g81
g82
ssg70
g3060
sg63
(lp3067
S'wsgi.input'
p3068
asbag56
(g77
g58
NtRp3069
(dp3070
g61
(dp3071
g88
g89
ssg70
g3060
sg63
(lp3072
S':'
asbag56
(g77
g58
NtRp3073
(dp3074
g61
(dp3075
sg70
g3060
sg63
(lp3076
g56
(g57
g58
NtRp3077
(dp3078
g61
(dp3079
g69
I3
ssg70
g3073
sg63
(lp3080
S'<cStringIO.StringO object at 0x2653538>'
p3081
asbasbasbag56
(g72
g58
NtRp3082
(dp3083
g61
(dp3084
sg70
g2592
sg63
(lp3085
g56
(g77
g58
NtRp3086
(dp3087
g61
(dp3088
g81
g82
ssg70
g3082
sg63
(lp3089
S'wsgi.multiprocess'
p3090
asbag56
(g77
g58
NtRp3091
(dp3092
g61
(dp3093
g88
g89
ssg70
g3082
sg63
(lp3094
S':'
asbag56
(g77
g58
NtRp3095
(dp3096
g61
(dp3097
sg70
g3082
sg63
(lp3098
g56
(g57
g58
NtRp3099
(dp3100
g61
(dp3101
g69
I3
ssg70
g3095
sg63
(lp3102
g99
asbasbasbag56
(g72
g58
NtRp3103
(dp3104
g61
(dp3105
sg70
g2592
sg63
(lp3106
g56
(g77
g58
NtRp3107
(dp3108
g61
(dp3109
g81
g82
ssg70
g3103
sg63
(lp3110
S'wsgi.multithread'
p3111
asbag56
(g77
g58
NtRp3112
(dp3113
g61
(dp3114
g88
g89
ssg70
g3103
sg63
(lp3115
S':'
asbag56
(g77
g58
NtRp3116
(dp3117
g61
(dp3118
sg70
g3103
sg63
(lp3119
g56
(g57
g58
NtRp3120
(dp3121
g61
(dp3122
g69
I3
ssg70
g3116
sg63
(lp3123
g1863
asbasbasbag56
(g72
g58
NtRp3124
(dp3125
g61
(dp3126
sg70
g2592
sg63
(lp3127
g56
(g77
g58
NtRp3128
(dp3129
g61
(dp3130
g81
g82
ssg70
g3124
sg63
(lp3131
S'wsgi.run_once'
p3132
asbag56
(g77
g58
NtRp3133
(dp3134
g61
(dp3135
g88
g89
ssg70
g3124
sg63
(lp3136
S':'
asbag56
(g77
g58
NtRp3137
(dp3138
g61
(dp3139
sg70
g3124
sg63
(lp3140
g56
(g57
g58
NtRp3141
(dp3142
g61
(dp3143
g69
I3
ssg70
g3137
sg63
(lp3144
g99
asbasbasbag56
(g72
g58
NtRp3145
(dp3146
g61
(dp3147
sg70
g2592
sg63
(lp3148
g56
(g77
g58
NtRp3149
(dp3150
g61
(dp3151
g81
g82
ssg70
g3145
sg63
(lp3152
S'wsgi.url_scheme'
p3153
asbag56
(g77
g58
NtRp3154
(dp3155
g61
(dp3156
g88
g89
ssg70
g3145
sg63
(lp3157
S':'
asbag56
(g77
g58
NtRp3158
(dp3159
g61
(dp3160
sg70
g3145
sg63
(lp3161
g56
(g57
g58
NtRp3162
(dp3163
g61
(dp3164
g69
I3
ssg70
g3158
sg63
(lp3165
g1906
asbasbasbag56
(g72
g58
NtRp3166
(dp3167
g61
(dp3168
sg70
g2592
sg63
(lp3169
g56
(g77
g58
NtRp3170
(dp3171
g61
(dp3172
g81
g82
ssg70
g3166
sg63
(lp3173
S'wsgi.version'
p3174
asbag56
(g77
g58
NtRp3175
(dp3176
g61
(dp3177
g88
g89
ssg70
g3166
sg63
(lp3178
S':'
asbag56
(g77
g58
NtRp3179
(dp3180
g61
(dp3181
sg70
g3166
sg63
(lp3182
g56
(g57
g58
NtRp3183
(dp3184
g61
(dp3185
g69
I3
ssg70
g3179
sg63
(lp3186
S'1'
asbasbasbasbasbasbasbasbasbasbasbasbasbsS'frames'
p3187
(lp3188
(dp3189
S'file'
p3190
S'/home/kaique/Projects/web2py/gluon/restricted.py'
p3191
sS'dump'
p3192
(dp3193
S'environment'
p3194
S"{'A': <class 'gluon.html.A'>, 'Auth': <class 'gluon.tools.Auth'>, 'B': <class 'gluon.html.B'>, 'BEAUTIFY': <class 'gluon.html.BEAUTIFY'>, 'BODY': <class 'gluon.html.BODY'>, 'BR': <class 'gluon.html.BR'>, 'BUTTON': <class 'gluon.html.BUTTON'>, 'CAT': <class 'gluon.html.CAT'>, 'CENTER': <class 'gluon.html.CENTER'>, 'CLEANUP': <class 'gluon.validators.CLEANUP'>, ...}"
p3195
sS'ccode'
p3196
S'<code object <module> at 0x2ad64b0, file "/home/...cations/synopsis/controllers/default.py", line 2>'
p3197
ssS'lnum'
p3198
I194
sS'lines'
p3199
(dp3200
I192
S'        else:'
p3201
sI193
S'            ccode = compile2(code,layer)'
p3202
sI194
S'        exec ccode in environment'
p3203
sI195
S'    except HTTP:'
p3204
sI196
S'        raise'
p3205
sI197
S'    except Exception, error:'
p3206
sI198
S'        # XXX Show exception in Wing IDE if running in debugger'
p3207
sI189
S'    try:'
p3208
sI190
S'        if type(code) == types.CodeType:'
p3209
sI191
S'            ccode = code'
p3210
ssS'call'
p3211
S"(code='# -*- coding: utf-8 -*-\\nimport functions as f\\n\\n\\n...=crud())\\n\\nresponse._vars=response._caller(index)\\n', environment={'A': <class 'gluon.html.A'>, 'Auth': <class 'gluon.tools.Auth'>, 'B': <class 'gluon.html.B'>, 'BEAUTIFY': <class 'gluon.html.BEAUTIFY'>, 'BODY': <class 'gluon.html.BODY'>, 'BR': <class 'gluon.html.BR'>, 'BUTTON': <class 'gluon.html.BUTTON'>, 'CAT': <class 'gluon.html.CAT'>, 'CENTER': <class 'gluon.html.CENTER'>, 'CLEANUP': <class 'gluon.validators.CLEANUP'>, ...}, layer='/home/kaique/Projects/web2py/applications/synopsis/controllers/default.py')"
p3212
sS'func'
p3213
S'restricted'
p3214
sa(dp3215
g3190
S'/home/kaique/Projects/web2py/applications/synopsis/controllers/default.py'
p3216
sg3192
(dp3217
sg3198
I39
sg3199
(dp3218
I32
S'    but URLs bust be signed, i.e. linked with'
p3219
sI33
S"      A('table',_href=URL('data/tables',user_signature=True))"
p3220
sI34
S'    or with the signed load operator'
p3221
sI35
S"      LOAD('default','data.load',args='tables',ajax=True,user_signature=True)"
p3222
sI36
S'    """'
p3223
sI37
S'    return dict(form=crud())'
p3224
sI28
S'    http://..../[app]/default/data/update/[table]/[id]'
p3225
sI29
S'    http://..../[app]/default/data/delete/[table]/[id]'
p3226
sI30
S'    http://..../[app]/default/data/select/[table]'
p3227
sI31
S'    http://..../[app]/default/data/search/[table]'
p3228
ssg3211
S'()'
p3229
sg3213
S'<module>'
p3230
sa(dp3231
g3190
S'/home/kaique/Projects/web2py/gluon/globals.py'
p3232
sg3192
(dp3233
S'self'
p3234
S'undefined'
p3235
sS'f'
S'<function index>'
p3236
ssg3198
I149
sg3199
(dp3237
I144
S'        self.meta = Storage()      # used by web2py_ajax.html'
p3238
sI145
S'        self.menu = []             # used by the default view layout'
p3239
sI146
S'        self.files = []            # used by web2py_ajax.html'
p3240
sI147
S'        self.generic_patterns = [] # patterns to allow generic views'
p3241
sI148
S'        self._vars = None'
p3242
sI149
S'        self._caller = lambda f: f()'
p3243
sI150
S'        self._view_environment = None'
p3244
sI151
S'        self._custom_commit = None'
p3245
sI152
S'        self._custom_rollback = None'
p3246
sI153
S''
ssg3211
S'(f=<function index>)'
p3247
sg3213
S'<lambda>'
p3248
sa(dp3249
g3190
S'/home/kaique/Projects/web2py/gluon/tools.py'
p3250
sg3192
(dp3251
S'action'
p3252
S'<function index>'
p3253
sS'a'
S'()'
p3254
sS'b'
g44
ssg3198
I2456
sg3199
(dp3255
I2451
S"                            '?_next='+urllib.quote(next))"
p3256
sI2452
S'                if not condition:'
p3257
sI2453
S'                    current.session.flash = self.messages.access_denied'
p3258
sI2454
S'                    return call_or_redirect('
p3259
sI2455
S'                        self.settings.on_failed_authorization)'
p3260
sI2456
S'                return action(*a, **b)'
p3261
sI2457
S'            f.__doc__ = action.__doc__'
p3262
sI2458
S'            f.__name__ = action.__name__'
p3263
sI2459
S'            f.__dict__.update(action.__dict__)'
p3264
sI2460
S'            return f'
p3265
ssg3211
S'(*a=(), **b={})'
p3266
sg3213
S'f'
sa(dp3267
g3190
S'/home/kaique/Projects/web2py/applications/synopsis/controllers/default.py'
p3268
sg3192
(dp3269
S'global f'
p3270
S"<module 'applications.synopsis.modules.functions' from 'applications/synopsis/modules/functions.py'>"
p3271
sS'f.get_publications'
p3272
S'<function get_publications>'
p3273
sS'publications'
p3274
g3235
sS'order'
p3275
g3235
ssg3198
I7
sg3199
(dp3276
I2
S'import functions as f'
p3277
sI3
S''
sI4
S''
sI5
S"@auth.requires_membership('admin')"
p3278
sI6
S'def index():'
p3279
sI7
S"\tpublications = f.get_publications(order='created_on')"
p3280
sI8
S"\treturn { 'publications':publications }"
p3281
sI9
S''
sI10
S'def user():'
p3282
sI11
S'    return dict(form=auth())'
p3283
ssg3211
S'()'
p3284
sg3213
S'index'
p3285
sasS'pyver'
p3286
S'Python 2.7.2+: /usr/bin/python'
p3287
sS'session'
p3288
g56
(g57
g58
NtRp3289
(dp3290
g61
(dp3291
sg63
(lp3292
g56
(g65
g58
NtRp3293
(dp3294
g61
(dp3295
g69
I5
ssg70
Nsg63
(lp3296
g56
(g72
g58
NtRp3297
(dp3298
g61
(dp3299
sg70
g3293
sg63
(lp3300
g56
(g77
g58
NtRp3301
(dp3302
g61
(dp3303
g81
g82
ssg70
g3297
sg63
(lp3304
S'auth'
p3305
asbag56
(g77
g58
NtRp3306
(dp3307
g61
(dp3308
g88
g89
ssg70
g3297
sg63
(lp3309
S':'
asbag56
(g77
g58
NtRp3310
(dp3311
g61
(dp3312
sg70
g3297
sg63
(lp3313
g56
(g57
g58
NtRp3314
(dp3315
g61
(dp3316
g69
I5
ssg70
g3310
sg63
(lp3317
g56
(g65
g58
NtRp3318
(dp3319
g61
(dp3320
g69
I4
ssg70
Nsg63
(lp3321
g56
(g72
g58
NtRp3322
(dp3323
g61
(dp3324
sg70
g3318
sg63
(lp3325
g56
(g77
g58
NtRp3326
(dp3327
g61
(dp3328
g81
g82
ssg70
g3322
sg63
(lp3329
S'expiration'
p3330
asbag56
(g77
g58
NtRp3331
(dp3332
g61
(dp3333
g88
g89
ssg70
g3322
sg63
(lp3334
S':'
asbag56
(g77
g58
NtRp3335
(dp3336
g61
(dp3337
sg70
g3322
sg63
(lp3338
g56
(g57
g58
NtRp3339
(dp3340
g61
(dp3341
g69
I4
ssg70
g3335
sg63
(lp3342
S'3600'
p3343
asbasbasbag56
(g72
g58
NtRp3344
(dp3345
g61
(dp3346
sg70
g3318
sg63
(lp3347
g56
(g77
g58
NtRp3348
(dp3349
g61
(dp3350
g81
g82
ssg70
g3344
sg63
(lp3351
S'hmac_key'
p3352
asbag56
(g77
g58
NtRp3353
(dp3354
g61
(dp3355
g88
g89
ssg70
g3344
sg63
(lp3356
S':'
asbag56
(g77
g58
NtRp3357
(dp3358
g61
(dp3359
sg70
g3344
sg63
(lp3360
g56
(g57
g58
NtRp3361
(dp3362
g61
(dp3363
g69
I4
ssg70
g3357
sg63
(lp3364
S'31e928d6-595b-4fe3-9fff-48a448d5f711'
p3365
asbasbasbag56
(g72
g58
NtRp3366
(dp3367
g61
(dp3368
sg70
g3318
sg63
(lp3369
g56
(g77
g58
NtRp3370
(dp3371
g61
(dp3372
g81
g82
ssg70
g3366
sg63
(lp3373
S'last_visit'
p3374
asbag56
(g77
g58
NtRp3375
(dp3376
g61
(dp3377
g88
g89
ssg70
g3366
sg63
(lp3378
S':'
asbag56
(g77
g58
NtRp3379
(dp3380
g61
(dp3381
sg70
g3366
sg63
(lp3382
g56
(g57
g58
NtRp3383
(dp3384
g61
(dp3385
g69
I4
ssg70
g3379
sg63
(lp3386
S'datetime.datetime(2012, 1, 11, 18, 48, 52, 570423)'
p3387
asbasbasbag56
(g72
g58
NtRp3388
(dp3389
g61
(dp3390
sg70
g3318
sg63
(lp3391
g56
(g77
g58
NtRp3392
(dp3393
g61
(dp3394
g81
g82
ssg70
g3388
sg63
(lp3395
S'user'
p3396
asbag56
(g77
g58
NtRp3397
(dp3398
g61
(dp3399
g88
g89
ssg70
g3388
sg63
(lp3400
S':'
asbag56
(g77
g58
NtRp3401
(dp3402
g61
(dp3403
sg70
g3388
sg63
(lp3404
g56
(g57
g58
NtRp3405
(dp3406
g61
(dp3407
g69
I4
ssg70
g3401
sg63
(lp3408
g56
(g65
g58
NtRp3409
(dp3410
g61
(dp3411
g69
I3
ssg70
Nsg63
(lp3412
g56
(g72
g58
NtRp3413
(dp3414
g61
(dp3415
sg70
g3409
sg63
(lp3416
g56
(g77
g58
NtRp3417
(dp3418
g61
(dp3419
g81
g82
ssg70
g3413
sg63
(lp3420
S'email'
p3421
asbag56
(g77
g58
NtRp3422
(dp3423
g61
(dp3424
g88
g89
ssg70
g3413
sg63
(lp3425
S':'
asbag56
(g77
g58
NtRp3426
(dp3427
g61
(dp3428
sg70
g3413
sg63
(lp3429
g56
(g57
g58
NtRp3430
(dp3431
g61
(dp3432
g69
I3
ssg70
g3426
sg63
(lp3433
S'kaique.developer@gmail.com'
p3434
asbasbasbag56
(g72
g58
NtRp3435
(dp3436
g61
(dp3437
sg70
g3409
sg63
(lp3438
g56
(g77
g58
NtRp3439
(dp3440
g61
(dp3441
g81
g82
ssg70
g3435
sg63
(lp3442
S'first_name'
p3443
asbag56
(g77
g58
NtRp3444
(dp3445
g61
(dp3446
g88
g89
ssg70
g3435
sg63
(lp3447
S':'
asbag56
(g77
g58
NtRp3448
(dp3449
g61
(dp3450
sg70
g3435
sg63
(lp3451
g56
(g57
g58
NtRp3452
(dp3453
g61
(dp3454
g69
I3
ssg70
g3448
sg63
(lp3455
S'kaique'
p3456
asbasbasbag56
(g72
g58
NtRp3457
(dp3458
g61
(dp3459
sg70
g3409
sg63
(lp3460
g56
(g77
g58
NtRp3461
(dp3462
g61
(dp3463
g81
g82
ssg70
g3457
sg63
(lp3464
S'id'
p3465
asbag56
(g77
g58
NtRp3466
(dp3467
g61
(dp3468
g88
g89
ssg70
g3457
sg63
(lp3469
S':'
asbag56
(g77
g58
NtRp3470
(dp3471
g61
(dp3472
sg70
g3457
sg63
(lp3473
g56
(g57
g58
NtRp3474
(dp3475
g61
(dp3476
g69
I3
ssg70
g3470
sg63
(lp3477
S'1'
asbasbasbag56
(g72
g58
NtRp3478
(dp3479
g61
(dp3480
sg70
g3409
sg63
(lp3481
g56
(g77
g58
NtRp3482
(dp3483
g61
(dp3484
g81
g82
ssg70
g3478
sg63
(lp3485
S'last_name'
p3486
asbag56
(g77
g58
NtRp3487
(dp3488
g61
(dp3489
g88
g89
ssg70
g3478
sg63
(lp3490
S':'
asbag56
(g77
g58
NtRp3491
(dp3492
g61
(dp3493
sg70
g3478
sg63
(lp3494
g56
(g57
g58
NtRp3495
(dp3496
g61
(dp3497
g69
I3
ssg70
g3491
sg63
(lp3498
S'silva'
p3499
asbasbasbag56
(g72
g58
NtRp3500
(dp3501
g61
(dp3502
sg70
g3409
sg63
(lp3503
g56
(g77
g58
NtRp3504
(dp3505
g61
(dp3506
g81
g82
ssg70
g3500
sg63
(lp3507
S'password'
p3508
asbag56
(g77
g58
NtRp3509
(dp3510
g61
(dp3511
g88
g89
ssg70
g3500
sg63
(lp3512
S':'
asbag56
(g77
g58
NtRp3513
(dp3514
g61
(dp3515
sg70
g3500
sg63
(lp3516
g56
(g57
g58
NtRp3517
(dp3518
g61
(dp3519
g69
I3
ssg70
g3513
sg63
(lp3520
S'72c6a018d62d3fb47d95389e4a062cd2'
p3521
asbasbasbag56
(g72
g58
NtRp3522
(dp3523
g61
(dp3524
sg70
g3409
sg63
(lp3525
g56
(g77
g58
NtRp3526
(dp3527
g61
(dp3528
g81
g82
ssg70
g3522
sg63
(lp3529
S'registration_key'
p3530
asbag56
(g77
g58
NtRp3531
(dp3532
g61
(dp3533
g88
g89
ssg70
g3522
sg63
(lp3534
S':'
asbag56
(g77
g58
NtRp3535
(dp3536
g61
(dp3537
sg70
g3522
sg63
(lp3538
g56
(g57
g58
NtRp3539
(dp3540
g61
(dp3541
g69
I3
ssg70
g3535
sg63
(lp3542
S''
asbasbasbag56
(g72
g58
NtRp3543
(dp3544
g61
(dp3545
sg70
g3409
sg63
(lp3546
g56
(g77
g58
NtRp3547
(dp3548
g61
(dp3549
g81
g82
ssg70
g3543
sg63
(lp3550
S'reset_password_key'
p3551
asbag56
(g77
g58
NtRp3552
(dp3553
g61
(dp3554
g88
g89
ssg70
g3543
sg63
(lp3555
S':'
asbag56
(g77
g58
NtRp3556
(dp3557
g61
(dp3558
sg70
g3543
sg63
(lp3559
g56
(g57
g58
NtRp3560
(dp3561
g61
(dp3562
g69
I3
ssg70
g3556
sg63
(lp3563
S''
asbasbasbasbasbasbasbasbasbasbasbag56
(g72
g58
NtRp3564
(dp3565
g61
(dp3566
sg70
g3293
sg63
(lp3567
g56
(g77
g58
NtRp3568
(dp3569
g61
(dp3570
g81
g82
ssg70
g3564
sg63
(lp3571
S'last_query'
p3572
asbag56
(g77
g58
NtRp3573
(dp3574
g61
(dp3575
g88
g89
ssg70
g3564
sg63
(lp3576
S':'
asbag56
(g77
g58
NtRp3577
(dp3578
g61
(dp3579
sg70
g3564
sg63
(lp3580
g56
(g57
g58
NtRp3581
(dp3582
g61
(dp3583
g69
I5
ssg70
g3577
sg63
(lp3584
S'db.row.column_id==1'
p3585
asbasbasbasbasbsS'etype'
p3586
S"<type 'exceptions.TypeError'>"
p3587
sS'date'
p3588
S'Wed Jan 11 18:48:52 2012'
p3589
sS'response'
p3590
g56
(g57
g58
NtRp3591
(dp3592
g61
(dp3593
sg63
(lp3594
g56
(g65
g58
NtRp3595
(dp3596
g61
(dp3597
g69
I5
ssg70
Nsg63
(lp3598
g56
(g72
g58
NtRp3599
(dp3600
g61
(dp3601
sg70
g3595
sg63
(lp3602
g56
(g77
g58
NtRp3603
(dp3604
g61
(dp3605
g81
g82
ssg70
g3599
sg63
(lp3606
g154
asbag56
(g77
g58
NtRp3607
(dp3608
g61
(dp3609
g88
g89
ssg70
g3599
sg63
(lp3610
S':'
asbag56
(g77
g58
NtRp3611
(dp3612
g61
(dp3613
sg70
g3599
sg63
(lp3614
g56
(g57
g58
NtRp3615
(dp3616
g61
(dp3617
g69
I5
ssg70
g3611
sg63
(lp3618
S'<cStringIO.StringO object at 0x280ea08>'
p3619
asbasbasbag56
(g72
g58
NtRp3620
(dp3621
g61
(dp3622
sg70
g3595
sg63
(lp3623
g56
(g77
g58
NtRp3624
(dp3625
g61
(dp3626
g81
g82
ssg70
g3620
sg63
(lp3627
g220
asbag56
(g77
g58
NtRp3628
(dp3629
g61
(dp3630
g88
g89
ssg70
g3620
sg63
(lp3631
S':'
asbag56
(g77
g58
NtRp3632
(dp3633
g61
(dp3634
sg70
g3620
sg63
(lp3635
g56
(g57
g58
NtRp3636
(dp3637
g61
(dp3638
g69
I5
ssg70
g3632
sg63
(lp3639
g56
(g65
g58
NtRp3640
(dp3641
g61
(dp3642
g69
I4
ssg70
Nsg63
(lp3643
g56
(g72
g58
NtRp3644
(dp3645
g61
(dp3646
sg70
g3640
sg63
(lp3647
g56
(g77
g58
NtRp3648
(dp3649
g61
(dp3650
g81
g82
ssg70
g3644
sg63
(lp3651
S'session_id_synopsis'
p3652
asbag56
(g77
g58
NtRp3653
(dp3654
g61
(dp3655
g88
g89
ssg70
g3644
sg63
(lp3656
S':'
asbag56
(g77
g58
NtRp3657
(dp3658
g61
(dp3659
sg70
g3644
sg63
(lp3660
g56
(g57
g58
NtRp3661
(dp3662
g61
(dp3663
g69
I4
ssg70
g3657
sg63
(lp3664
g56
(g65
g58
NtRp3665
(dp3666
g61
(dp3667
g69
I3
ssg70
Nsg63
(lp3668
g56
(g72
g58
NtRp3669
(dp3670
g61
(dp3671
sg70
g3665
sg63
(lp3672
g56
(g77
g58
NtRp3673
(dp3674
g61
(dp3675
g81
g82
ssg70
g3669
sg63
(lp3676
g270
asbag56
(g77
g58
NtRp3677
(dp3678
g61
(dp3679
g88
g89
ssg70
g3669
sg63
(lp3680
S':'
asbag56
(g77
g58
NtRp3681
(dp3682
g61
(dp3683
sg70
g3669
sg63
(lp3684
g56
(g57
g58
NtRp3685
(dp3686
g61
(dp3687
g69
I3
ssg70
g3681
sg63
(lp3688
S''
asbasbasbag56
(g72
g58
NtRp3689
(dp3690
g61
(dp3691
sg70
g3665
sg63
(lp3692
g56
(g77
g58
NtRp3693
(dp3694
g61
(dp3695
g81
g82
ssg70
g3689
sg63
(lp3696
g291
asbag56
(g77
g58
NtRp3697
(dp3698
g61
(dp3699
g88
g89
ssg70
g3689
sg63
(lp3700
S':'
asbag56
(g77
g58
NtRp3701
(dp3702
g61
(dp3703
sg70
g3689
sg63
(lp3704
g56
(g57
g58
NtRp3705
(dp3706
g61
(dp3707
g69
I3
ssg70
g3701
sg63
(lp3708
S''
asbasbasbag56
(g72
g58
NtRp3709
(dp3710
g61
(dp3711
sg70
g3665
sg63
(lp3712
g56
(g77
g58
NtRp3713
(dp3714
g61
(dp3715
g81
g82
ssg70
g3709
sg63
(lp3716
g312
asbag56
(g77
g58
NtRp3717
(dp3718
g61
(dp3719
g88
g89
ssg70
g3709
sg63
(lp3720
S':'
asbag56
(g77
g58
NtRp3721
(dp3722
g61
(dp3723
sg70
g3709
sg63
(lp3724
g56
(g57
g58
NtRp3725
(dp3726
g61
(dp3727
g69
I3
ssg70
g3721
sg63
(lp3728
S''
asbasbasbag56
(g72
g58
NtRp3729
(dp3730
g61
(dp3731
sg70
g3665
sg63
(lp3732
g56
(g77
g58
NtRp3733
(dp3734
g61
(dp3735
g81
g82
ssg70
g3729
sg63
(lp3736
g333
asbag56
(g77
g58
NtRp3737
(dp3738
g61
(dp3739
g88
g89
ssg70
g3729
sg63
(lp3740
S':'
asbag56
(g77
g58
NtRp3741
(dp3742
g61
(dp3743
sg70
g3729
sg63
(lp3744
g56
(g57
g58
NtRp3745
(dp3746
g61
(dp3747
g69
I3
ssg70
g3741
sg63
(lp3748
S''
asbasbasbag56
(g72
g58
NtRp3749
(dp3750
g61
(dp3751
sg70
g3665
sg63
(lp3752
g56
(g77
g58
NtRp3753
(dp3754
g61
(dp3755
g81
g82
ssg70
g3749
sg63
(lp3756
g354
asbag56
(g77
g58
NtRp3757
(dp3758
g61
(dp3759
g88
g89
ssg70
g3749
sg63
(lp3760
S':'
asbag56
(g77
g58
NtRp3761
(dp3762
g61
(dp3763
sg70
g3749
sg63
(lp3764
g56
(g57
g58
NtRp3765
(dp3766
g61
(dp3767
g69
I3
ssg70
g3761
sg63
(lp3768
S''
asbasbasbag56
(g72
g58
NtRp3769
(dp3770
g61
(dp3771
sg70
g3665
sg63
(lp3772
g56
(g77
g58
NtRp3773
(dp3774
g61
(dp3775
g81
g82
ssg70
g3769
sg63
(lp3776
g375
asbag56
(g77
g58
NtRp3777
(dp3778
g61
(dp3779
g88
g89
ssg70
g3769
sg63
(lp3780
S':'
asbag56
(g77
g58
NtRp3781
(dp3782
g61
(dp3783
sg70
g3769
sg63
(lp3784
g56
(g57
g58
NtRp3785
(dp3786
g61
(dp3787
g69
I3
ssg70
g3781
sg63
(lp3788
S'/'
asbasbasbag56
(g72
g58
NtRp3789
(dp3790
g61
(dp3791
sg70
g3665
sg63
(lp3792
g56
(g77
g58
NtRp3793
(dp3794
g61
(dp3795
g81
g82
ssg70
g3789
sg63
(lp3796
g396
asbag56
(g77
g58
NtRp3797
(dp3798
g61
(dp3799
g88
g89
ssg70
g3789
sg63
(lp3800
S':'
asbag56
(g77
g58
NtRp3801
(dp3802
g61
(dp3803
sg70
g3789
sg63
(lp3804
g56
(g57
g58
NtRp3805
(dp3806
g61
(dp3807
g69
I3
ssg70
g3801
sg63
(lp3808
S''
asbasbasbag56
(g72
g58
NtRp3809
(dp3810
g61
(dp3811
sg70
g3665
sg63
(lp3812
g56
(g77
g58
NtRp3813
(dp3814
g61
(dp3815
g81
g82
ssg70
g3809
sg63
(lp3816
g417
asbag56
(g77
g58
NtRp3817
(dp3818
g61
(dp3819
g88
g89
ssg70
g3809
sg63
(lp3820
S':'
asbag56
(g77
g58
NtRp3821
(dp3822
g61
(dp3823
sg70
g3809
sg63
(lp3824
g56
(g57
g58
NtRp3825
(dp3826
g61
(dp3827
g69
I3
ssg70
g3821
sg63
(lp3828
S''
asbasbasbasbasbasbasbasbasbasbasbag56
(g72
g58
NtRp3829
(dp3830
g61
(dp3831
sg70
g3595
sg63
(lp3832
g56
(g77
g58
NtRp3833
(dp3834
g61
(dp3835
g81
g82
ssg70
g3829
sg63
(lp3836
S'files'
p3837
asbag56
(g77
g58
NtRp3838
(dp3839
g61
(dp3840
g88
g89
ssg70
g3829
sg63
(lp3841
S':'
asbag56
(g77
g58
NtRp3842
(dp3843
g61
(dp3844
sg70
g3829
sg63
(lp3845
g56
(g57
g58
NtRp3846
(dp3847
g61
(dp3848
g69
I5
ssg70
g3842
sg63
(lp3849
g56
(g65
g58
NtRp3850
(dp3851
g61
(dp3852
g69
I4
ssg70
Nsg63
(lp3853
sbasbasbasbag56
(g72
g58
NtRp3854
(dp3855
g61
(dp3856
sg70
g3595
sg63
(lp3857
g56
(g77
g58
NtRp3858
(dp3859
g61
(dp3860
g81
g82
ssg70
g3854
sg63
(lp3861
S'flash'
p3862
asbag56
(g77
g58
NtRp3863
(dp3864
g61
(dp3865
g88
g89
ssg70
g3854
sg63
(lp3866
S':'
asbag56
(g77
g58
NtRp3867
(dp3868
g61
(dp3869
sg70
g3854
sg63
(lp3870
g56
(g57
g58
NtRp3871
(dp3872
g61
(dp3873
g69
I5
ssg70
g3867
sg63
(lp3874
S''
asbasbasbag56
(g72
g58
NtRp3875
(dp3876
g61
(dp3877
sg70
g3595
sg63
(lp3878
g56
(g77
g58
NtRp3879
(dp3880
g61
(dp3881
g81
g82
ssg70
g3875
sg63
(lp3882
S'generic_patterns'
p3883
asbag56
(g77
g58
NtRp3884
(dp3885
g61
(dp3886
g88
g89
ssg70
g3875
sg63
(lp3887
S':'
asbag56
(g77
g58
NtRp3888
(dp3889
g61
(dp3890
sg70
g3875
sg63
(lp3891
g56
(g57
g58
NtRp3892
(dp3893
g61
(dp3894
g69
I5
ssg70
g3888
sg63
(lp3895
g56
(g65
g58
NtRp3896
(dp3897
g61
(dp3898
g69
I4
ssg70
Nsg63
(lp3899
g56
(g72
g58
NtRp3900
(dp3901
g61
(dp3902
sg70
g3896
sg63
(lp3903
g56
(g77
g58
NtRp3904
(dp3905
g61
(dp3906
sg70
g3900
sg63
(lp3907
g56
(g57
g58
NtRp3908
(dp3909
g61
(dp3910
g69
I4
ssg70
g3904
sg63
(lp3911
S'*'
asbasbasbasbasbasbasbag56
(g72
g58
NtRp3912
(dp3913
g61
(dp3914
sg70
g3595
sg63
(lp3915
g56
(g77
g58
NtRp3916
(dp3917
g61
(dp3918
g81
g82
ssg70
g3912
sg63
(lp3919
S'headers'
p3920
asbag56
(g77
g58
NtRp3921
(dp3922
g61
(dp3923
g88
g89
ssg70
g3912
sg63
(lp3924
S':'
asbag56
(g77
g58
NtRp3925
(dp3926
g61
(dp3927
sg70
g3912
sg63
(lp3928
g56
(g57
g58
NtRp3929
(dp3930
g61
(dp3931
g69
I5
ssg70
g3925
sg63
(lp3932
g56
(g65
g58
NtRp3933
(dp3934
g61
(dp3935
g69
I4
ssg70
Nsg63
(lp3936
g56
(g72
g58
NtRp3937
(dp3938
g61
(dp3939
sg70
g3933
sg63
(lp3940
g56
(g77
g58
NtRp3941
(dp3942
g61
(dp3943
g81
g82
ssg70
g3937
sg63
(lp3944
S'Cache-Control'
p3945
asbag56
(g77
g58
NtRp3946
(dp3947
g61
(dp3948
g88
g89
ssg70
g3937
sg63
(lp3949
S':'
asbag56
(g77
g58
NtRp3950
(dp3951
g61
(dp3952
sg70
g3937
sg63
(lp3953
g56
(g57
g58
NtRp3954
(dp3955
g61
(dp3956
g69
I4
ssg70
g3950
sg63
(lp3957
S'no-store, no-cache, must-revalidate, post-check=0, pre-check=0'
p3958
asbasbasbag56
(g72
g58
NtRp3959
(dp3960
g61
(dp3961
sg70
g3933
sg63
(lp3962
g56
(g77
g58
NtRp3963
(dp3964
g61
(dp3965
g81
g82
ssg70
g3959
sg63
(lp3966
S'Content-Type'
p3967
asbag56
(g77
g58
NtRp3968
(dp3969
g61
(dp3970
g88
g89
ssg70
g3959
sg63
(lp3971
S':'
asbag56
(g77
g58
NtRp3972
(dp3973
g61
(dp3974
sg70
g3959
sg63
(lp3975
g56
(g57
g58
NtRp3976
(dp3977
g61
(dp3978
g69
I4
ssg70
g3972
sg63
(lp3979
S'text/html; charset=utf-8'
p3980
asbasbasbag56
(g72
g58
NtRp3981
(dp3982
g61
(dp3983
sg70
g3933
sg63
(lp3984
g56
(g77
g58
NtRp3985
(dp3986
g61
(dp3987
g81
g82
ssg70
g3981
sg63
(lp3988
S'Expires'
p3989
asbag56
(g77
g58
NtRp3990
(dp3991
g61
(dp3992
g88
g89
ssg70
g3981
sg63
(lp3993
S':'
asbag56
(g77
g58
NtRp3994
(dp3995
g61
(dp3996
sg70
g3981
sg63
(lp3997
g56
(g57
g58
NtRp3998
(dp3999
g61
(dp4000
g69
I4
ssg70
g3994
sg63
(lp4001
S'Wed, 11 Jan 2012 20:48:52 GMT'
p4002
asbasbasbag56
(g72
g58
NtRp4003
(dp4004
g61
(dp4005
sg70
g3933
sg63
(lp4006
g56
(g77
g58
NtRp4007
(dp4008
g61
(dp4009
g81
g82
ssg70
g4003
sg63
(lp4010
S'Pragma'
p4011
asbag56
(g77
g58
NtRp4012
(dp4013
g61
(dp4014
g88
g89
ssg70
g4003
sg63
(lp4015
S':'
asbag56
(g77
g58
NtRp4016
(dp4017
g61
(dp4018
sg70
g4003
sg63
(lp4019
g56
(g57
g58
NtRp4020
(dp4021
g61
(dp4022
g69
I4
ssg70
g4016
sg63
(lp4023
S'no-cache'
p4024
asbasbasbag56
(g72
g58
NtRp4025
(dp4026
g61
(dp4027
sg70
g3933
sg63
(lp4028
g56
(g77
g58
NtRp4029
(dp4030
g61
(dp4031
g81
g82
ssg70
g4025
sg63
(lp4032
S'X-Powered-By'
p4033
asbag56
(g77
g58
NtRp4034
(dp4035
g61
(dp4036
g88
g89
ssg70
g4025
sg63
(lp4037
S':'
asbag56
(g77
g58
NtRp4038
(dp4039
g61
(dp4040
sg70
g4025
sg63
(lp4041
g56
(g57
g58
NtRp4042
(dp4043
g61
(dp4044
g69
I4
ssg70
g4038
sg63
(lp4045
S'web2py'
p4046
asbasbasbasbasbasbasbag56
(g72
g58
NtRp4047
(dp4048
g61
(dp4049
sg70
g3595
sg63
(lp4050
g56
(g77
g58
NtRp4051
(dp4052
g61
(dp4053
g81
g82
ssg70
g4047
sg63
(lp4054
S'menu'
p4055
asbag56
(g77
g58
NtRp4056
(dp4057
g61
(dp4058
g88
g89
ssg70
g4047
sg63
(lp4059
S':'
asbag56
(g77
g58
NtRp4060
(dp4061
g61
(dp4062
sg70
g4047
sg63
(lp4063
g56
(g57
g58
NtRp4064
(dp4065
g61
(dp4066
g69
I5
ssg70
g4060
sg63
(lp4067
g56
(g65
g58
NtRp4068
(dp4069
g61
(dp4070
g69
I4
ssg70
Nsg63
(lp4071
g56
(g72
g58
NtRp4072
(dp4073
g61
(dp4074
sg70
g4068
sg63
(lp4075
g56
(g77
g58
NtRp4076
(dp4077
g61
(dp4078
sg70
g4072
sg63
(lp4079
g56
(g57
g58
NtRp4080
(dp4081
g61
(dp4082
g69
I4
ssg70
g4076
sg63
(lp4083
g56
(g65
g58
NtRp4084
(dp4085
g61
(dp4086
g69
I3
ssg70
Nsg63
(lp4087
g56
(g72
g58
NtRp4088
(dp4089
g61
(dp4090
sg70
g4084
sg63
(lp4091
g56
(g77
g58
NtRp4092
(dp4093
g61
(dp4094
sg70
g4088
sg63
(lp4095
g56
(g57
g58
NtRp4096
(dp4097
g61
(dp4098
g69
I3
ssg70
g4092
sg63
(lp4099
cgluon.languages
lazyT_unpickle
p4100
(S't\x04\x00\x00\x00Home'
tRp4101
asbasbasbag56
(g72
g58
NtRp4102
(dp4103
g61
(dp4104
sg70
g4084
sg63
(lp4105
g56
(g77
g58
NtRp4106
(dp4107
g61
(dp4108
sg70
g4102
sg63
(lp4109
g56
(g57
g58
NtRp4110
(dp4111
g61
(dp4112
g69
I3
ssg70
g4106
sg63
(lp4113
g99
asbasbasbag56
(g72
g58
NtRp4114
(dp4115
g61
(dp4116
sg70
g4084
sg63
(lp4117
g56
(g77
g58
NtRp4118
(dp4119
g61
(dp4120
sg70
g4114
sg63
(lp4121
g56
(g57
g58
NtRp4122
(dp4123
g61
(dp4124
g69
I3
ssg70
g4118
sg63
(lp4125
S'/synopsis/default/index'
p4126
asbasbasbag56
(g72
g58
NtRp4127
(dp4128
g61
(dp4129
sg70
g4084
sg63
(lp4130
g56
(g77
g58
NtRp4131
(dp4132
g61
(dp4133
sg70
g4127
sg63
(lp4134
g56
(g57
g58
NtRp4135
(dp4136
g61
(dp4137
g69
I3
ssg70
g4131
sg63
(lp4138
g56
(g65
g58
NtRp4139
(dp4140
g61
(dp4141
g69
I2
ssg70
Nsg63
(lp4142
sbasbasbasbasbasbasbasbag56
(g72
g58
NtRp4143
(dp4144
g61
(dp4145
sg70
g4068
sg63
(lp4146
g56
(g77
g58
NtRp4147
(dp4148
g61
(dp4149
sg70
g4143
sg63
(lp4150
g56
(g57
g58
NtRp4151
(dp4152
g61
(dp4153
g69
I4
ssg70
g4147
sg63
(lp4154
g56
(g65
g58
NtRp4155
(dp4156
g61
(dp4157
g69
I3
ssg70
Nsg63
(lp4158
g56
(g72
g58
NtRp4159
(dp4160
g61
(dp4161
sg70
g4155
sg63
(lp4162
g56
(g77
g58
NtRp4163
(dp4164
g61
(dp4165
sg70
g4159
sg63
(lp4166
g56
(g57
g58
NtRp4167
(dp4168
g61
(dp4169
g69
I3
ssg70
g4163
sg63
(lp4170
g4100
(S't\x0b\x00\x00\x00Information'
tRp4171
asbasbasbag56
(g72
g58
NtRp4172
(dp4173
g61
(dp4174
sg70
g4155
sg63
(lp4175
g56
(g77
g58
NtRp4176
(dp4177
g61
(dp4178
sg70
g4172
sg63
(lp4179
g56
(g57
g58
NtRp4180
(dp4181
g61
(dp4182
g69
I3
ssg70
g4176
sg63
(lp4183
g99
asbasbasbag56
(g72
g58
NtRp4184
(dp4185
g61
(dp4186
sg70
g4155
sg63
(lp4187
g56
(g77
g58
NtRp4188
(dp4189
g61
(dp4190
sg70
g4184
sg63
(lp4191
g56
(g57
g58
NtRp4192
(dp4193
g61
(dp4194
g69
I3
ssg70
g4188
sg63
(lp4195
S'/synopsis/information/index'
p4196
asbasbasbag56
(g72
g58
NtRp4197
(dp4198
g61
(dp4199
sg70
g4155
sg63
(lp4200
g56
(g77
g58
NtRp4201
(dp4202
g61
(dp4203
sg70
g4197
sg63
(lp4204
g56
(g57
g58
NtRp4205
(dp4206
g61
(dp4207
g69
I3
ssg70
g4201
sg63
(lp4208
g56
(g65
g58
NtRp4209
(dp4210
g61
(dp4211
g69
I2
ssg70
Nsg63
(lp4212
sbasbasbasbasbasbasbasbasbasbasbasbag56
(g72
g58
NtRp4213
(dp4214
g61
(dp4215
sg70
g3595
sg63
(lp4216
g56
(g77
g58
NtRp4217
(dp4218
g61
(dp4219
g81
g82
ssg70
g4213
sg63
(lp4220
S'meta'
p4221
asbag56
(g77
g58
NtRp4222
(dp4223
g61
(dp4224
g88
g89
ssg70
g4213
sg63
(lp4225
S':'
asbag56
(g77
g58
NtRp4226
(dp4227
g61
(dp4228
sg70
g4213
sg63
(lp4229
g56
(g57
g58
NtRp4230
(dp4231
g61
(dp4232
g69
I5
ssg70
g4226
sg63
(lp4233
g56
(g65
g58
NtRp4234
(dp4235
g61
(dp4236
g69
I4
ssg70
Nsg63
(lp4237
g56
(g72
g58
NtRp4238
(dp4239
g61
(dp4240
sg70
g4234
sg63
(lp4241
g56
(g77
g58
NtRp4242
(dp4243
g61
(dp4244
g81
g82
ssg70
g4238
sg63
(lp4245
S'author'
p4246
asbag56
(g77
g58
NtRp4247
(dp4248
g61
(dp4249
g88
g89
ssg70
g4238
sg63
(lp4250
S':'
asbag56
(g77
g58
NtRp4251
(dp4252
g61
(dp4253
sg70
g4238
sg63
(lp4254
g56
(g57
g58
NtRp4255
(dp4256
g61
(dp4257
g69
I4
ssg70
g4251
sg63
(lp4258
S'Your Name <you@example.com>'
p4259
asbasbasbag56
(g72
g58
NtRp4260
(dp4261
g61
(dp4262
sg70
g4234
sg63
(lp4263
g56
(g77
g58
NtRp4264
(dp4265
g61
(dp4266
g81
g82
ssg70
g4260
sg63
(lp4267
S'copyright'
p4268
asbag56
(g77
g58
NtRp4269
(dp4270
g61
(dp4271
g88
g89
ssg70
g4260
sg63
(lp4272
S':'
asbag56
(g77
g58
NtRp4273
(dp4274
g61
(dp4275
sg70
g4260
sg63
(lp4276
g56
(g57
g58
NtRp4277
(dp4278
g61
(dp4279
g69
I4
ssg70
g4273
sg63
(lp4280
S'Copyright 2011'
p4281
asbasbasbag56
(g72
g58
NtRp4282
(dp4283
g61
(dp4284
sg70
g4234
sg63
(lp4285
g56
(g77
g58
NtRp4286
(dp4287
g61
(dp4288
g81
g82
ssg70
g4282
sg63
(lp4289
S'description'
p4290
asbag56
(g77
g58
NtRp4291
(dp4292
g61
(dp4293
g88
g89
ssg70
g4282
sg63
(lp4294
S':'
asbag56
(g77
g58
NtRp4295
(dp4296
g61
(dp4297
sg70
g4282
sg63
(lp4298
g56
(g57
g58
NtRp4299
(dp4300
g61
(dp4301
g69
I4
ssg70
g4295
sg63
(lp4302
S'a cool new app'
p4303
asbasbasbag56
(g72
g58
NtRp4304
(dp4305
g61
(dp4306
sg70
g4234
sg63
(lp4307
g56
(g77
g58
NtRp4308
(dp4309
g61
(dp4310
g81
g82
ssg70
g4304
sg63
(lp4311
S'generator'
p4312
asbag56
(g77
g58
NtRp4313
(dp4314
g61
(dp4315
g88
g89
ssg70
g4304
sg63
(lp4316
S':'
asbag56
(g77
g58
NtRp4317
(dp4318
g61
(dp4319
sg70
g4304
sg63
(lp4320
g56
(g57
g58
NtRp4321
(dp4322
g61
(dp4323
g69
I4
ssg70
g4317
sg63
(lp4324
S'Web2py Web Framework'
p4325
asbasbasbag56
(g72
g58
NtRp4326
(dp4327
g61
(dp4328
sg70
g4234
sg63
(lp4329
g56
(g77
g58
NtRp4330
(dp4331
g61
(dp4332
g81
g82
ssg70
g4326
sg63
(lp4333
S'keywords'
p4334
asbag56
(g77
g58
NtRp4335
(dp4336
g61
(dp4337
g88
g89
ssg70
g4326
sg63
(lp4338
S':'
asbag56
(g77
g58
NtRp4339
(dp4340
g61
(dp4341
sg70
g4326
sg63
(lp4342
g56
(g57
g58
NtRp4343
(dp4344
g61
(dp4345
g69
I4
ssg70
g4339
sg63
(lp4346
S'web2py, python, framework'
p4347
asbasbasbasbasbasbasbag56
(g72
g58
NtRp4348
(dp4349
g61
(dp4350
sg70
g3595
sg63
(lp4351
g56
(g77
g58
NtRp4352
(dp4353
g61
(dp4354
g81
g82
ssg70
g4348
sg63
(lp4355
S'postprocessing'
p4356
asbag56
(g77
g58
NtRp4357
(dp4358
g61
(dp4359
g88
g89
ssg70
g4348
sg63
(lp4360
S':'
asbag56
(g77
g58
NtRp4361
(dp4362
g61
(dp4363
sg70
g4348
sg63
(lp4364
g56
(g57
g58
NtRp4365
(dp4366
g61
(dp4367
g69
I5
ssg70
g4361
sg63
(lp4368
g56
(g65
g58
NtRp4369
(dp4370
g61
(dp4371
g69
I4
ssg70
Nsg63
(lp4372
sbasbasbasbag56
(g72
g58
NtRp4373
(dp4374
g61
(dp4375
sg70
g3595
sg63
(lp4376
g56
(g77
g58
NtRp4377
(dp4378
g61
(dp4379
g81
g82
ssg70
g4373
sg63
(lp4380
S'session_file'
p4381
asbag56
(g77
g58
NtRp4382
(dp4383
g61
(dp4384
g88
g89
ssg70
g4373
sg63
(lp4385
S':'
asbag56
(g77
g58
NtRp4386
(dp4387
g61
(dp4388
sg70
g4373
sg63
(lp4389
g56
(g57
g58
NtRp4390
(dp4391
g61
(dp4392
g69
I5
ssg70
g4386
sg63
(lp4393
S"<open file '/home/kaique/Projects/web2py/applications/synopsis/sessions/127.0.0.1-e40e1056-0c97-4101-beca-f6fff517534b', mode 'rb+' at 0x27afc90>"
p4394
asbasbasbag56
(g72
g58
NtRp4395
(dp4396
g61
(dp4397
sg70
g3595
sg63
(lp4398
g56
(g77
g58
NtRp4399
(dp4400
g61
(dp4401
g81
g82
ssg70
g4395
sg63
(lp4402
S'session_filename'
p4403
asbag56
(g77
g58
NtRp4404
(dp4405
g61
(dp4406
g88
g89
ssg70
g4395
sg63
(lp4407
S':'
asbag56
(g77
g58
NtRp4408
(dp4409
g61
(dp4410
sg70
g4395
sg63
(lp4411
g56
(g57
g58
NtRp4412
(dp4413
g61
(dp4414
g69
I5
ssg70
g4408
sg63
(lp4415
S'/home/kaique/Projects/web2py/applications/synopsis/sessions/127.0.0.1-e40e1056-0c97-4101-beca-f6fff517534b'
p4416
asbasbasbag56
(g72
g58
NtRp4417
(dp4418
g61
(dp4419
sg70
g3595
sg63
(lp4420
g56
(g77
g58
NtRp4421
(dp4422
g61
(dp4423
g81
g82
ssg70
g4417
sg63
(lp4424
S'session_id'
p4425
asbag56
(g77
g58
NtRp4426
(dp4427
g61
(dp4428
g88
g89
ssg70
g4417
sg63
(lp4429
S':'
asbag56
(g77
g58
NtRp4430
(dp4431
g61
(dp4432
sg70
g4417
sg63
(lp4433
g56
(g57
g58
NtRp4434
(dp4435
g61
(dp4436
g69
I5
ssg70
g4430
sg63
(lp4437
S'127.0.0.1-e40e1056-0c97-4101-beca-f6fff517534b'
p4438
asbasbasbag56
(g72
g58
NtRp4439
(dp4440
g61
(dp4441
sg70
g3595
sg63
(lp4442
g56
(g77
g58
NtRp4443
(dp4444
g61
(dp4445
g81
g82
ssg70
g4439
sg63
(lp4446
S'session_id_name'
p4447
asbag56
(g77
g58
NtRp4448
(dp4449
g61
(dp4450
g88
g89
ssg70
g4439
sg63
(lp4451
S':'
asbag56
(g77
g58
NtRp4452
(dp4453
g61
(dp4454
sg70
g4439
sg63
(lp4455
g56
(g57
g58
NtRp4456
(dp4457
g61
(dp4458
g69
I5
ssg70
g4452
sg63
(lp4459
g3652
asbasbasbag56
(g72
g58
NtRp4460
(dp4461
g61
(dp4462
sg70
g3595
sg63
(lp4463
g56
(g77
g58
NtRp4464
(dp4465
g61
(dp4466
g81
g82
ssg70
g4460
sg63
(lp4467
S'session_locked'
p4468
asbag56
(g77
g58
NtRp4469
(dp4470
g61
(dp4471
g88
g89
ssg70
g4460
sg63
(lp4472
S':'
asbag56
(g77
g58
NtRp4473
(dp4474
g61
(dp4475
sg70
g4460
sg63
(lp4476
g56
(g57
g58
NtRp4477
(dp4478
g61
(dp4479
g69
I5
ssg70
g4473
sg63
(lp4480
g1863
asbasbasbag56
(g72
g58
NtRp4481
(dp4482
g61
(dp4483
sg70
g3595
sg63
(lp4484
g56
(g77
g58
NtRp4485
(dp4486
g61
(dp4487
g81
g82
ssg70
g4481
sg63
(lp4488
S'session_new'
p4489
asbag56
(g77
g58
NtRp4490
(dp4491
g61
(dp4492
g88
g89
ssg70
g4481
sg63
(lp4493
S':'
asbag56
(g77
g58
NtRp4494
(dp4495
g61
(dp4496
sg70
g4481
sg63
(lp4497
g56
(g57
g58
NtRp4498
(dp4499
g61
(dp4500
g69
I5
ssg70
g4494
sg63
(lp4501
g99
asbasbasbag56
(g72
g58
NtRp4502
(dp4503
g61
(dp4504
sg70
g3595
sg63
(lp4505
g56
(g77
g58
NtRp4506
(dp4507
g61
(dp4508
g81
g82
ssg70
g4502
sg63
(lp4509
S'status'
p4510
asbag56
(g77
g58
NtRp4511
(dp4512
g61
(dp4513
g88
g89
ssg70
g4502
sg63
(lp4514
S':'
asbag56
(g77
g58
NtRp4515
(dp4516
g61
(dp4517
sg70
g4502
sg63
(lp4518
g56
(g57
g58
NtRp4519
(dp4520
g61
(dp4521
g69
I5
ssg70
g4515
sg63
(lp4522
S'200'
p4523
asbasbasbag56
(g72
g58
NtRp4524
(dp4525
g61
(dp4526
sg70
g3595
sg63
(lp4527
g56
(g77
g58
NtRp4528
(dp4529
g61
(dp4530
g81
g82
ssg70
g4524
sg63
(lp4531
S'subtitle'
p4532
asbag56
(g77
g58
NtRp4533
(dp4534
g61
(dp4535
g88
g89
ssg70
g4524
sg63
(lp4536
S':'
asbag56
(g77
g58
NtRp4537
(dp4538
g61
(dp4539
sg70
g4524
sg63
(lp4540
g56
(g57
g58
NtRp4541
(dp4542
g61
(dp4543
g69
I5
ssg70
g4537
sg63
(lp4544
g4100
(S's\x0f\x00\x00\x00Personalize-me!'
tRp4545
asbasbasbag56
(g72
g58
NtRp4546
(dp4547
g61
(dp4548
sg70
g3595
sg63
(lp4549
g56
(g77
g58
NtRp4550
(dp4551
g61
(dp4552
g81
g82
ssg70
g4546
sg63
(lp4553
S'title'
p4554
asbag56
(g77
g58
NtRp4555
(dp4556
g61
(dp4557
g88
g89
ssg70
g4546
sg63
(lp4558
S':'
asbag56
(g77
g58
NtRp4559
(dp4560
g61
(dp4561
sg70
g4546
sg63
(lp4562
g56
(g57
g58
NtRp4563
(dp4564
g61
(dp4565
g69
I5
ssg70
g4559
sg63
(lp4566
g121
asbasbasbag56
(g72
g58
NtRp4567
(dp4568
g61
(dp4569
sg70
g3595
sg63
(lp4570
g56
(g77
g58
NtRp4571
(dp4572
g61
(dp4573
g81
g82
ssg70
g4567
sg63
(lp4574
g2507
asbag56
(g77
g58
NtRp4575
(dp4576
g61
(dp4577
g88
g89
ssg70
g4567
sg63
(lp4578
S':'
asbag56
(g77
g58
NtRp4579
(dp4580
g61
(dp4581
sg70
g4567
sg63
(lp4582
g56
(g57
g58
NtRp4583
(dp4584
g61
(dp4585
g69
I5
ssg70
g4579
sg63
(lp4586
g2520
asbasbasbag56
(g72
g58
NtRp4587
(dp4588
g61
(dp4589
sg70
g3595
sg63
(lp4590
g56
(g77
g58
NtRp4591
(dp4592
g61
(dp4593
g81
g82
ssg70
g4587
sg63
(lp4594
S'view'
p4595
asbag56
(g77
g58
NtRp4596
(dp4597
g61
(dp4598
g88
g89
ssg70
g4587
sg63
(lp4599
S':'
asbag56
(g77
g58
NtRp4600
(dp4601
g61
(dp4602
sg70
g4587
sg63
(lp4603
g56
(g57
g58
NtRp4604
(dp4605
g61
(dp4606
g69
I5
ssg70
g4600
sg63
(lp4607
S'default/index.html'
p4608
asbasbasbasbasbsS'locals'
p4609
(dp4610
ssS'traceback'
p4611
S'Traceback (most recent call last):\n  File "/home/kaique/Projects/web2py/gluon/restricted.py", line 194, in restricted\n    exec ccode in environment\n  File "/home/kaique/Projects/web2py/applications/synopsis/controllers/default.py", line 39, in <module>\n  File "/home/kaique/Projects/web2py/gluon/globals.py", line 149, in <lambda>\n    self._caller = lambda f: f()\n  File "/home/kaique/Projects/web2py/gluon/tools.py", line 2456, in f\n    return action(*a, **b)\n  File "/home/kaique/Projects/web2py/applications/synopsis/controllers/default.py", line 7, in index\n    publications = f.get_publications(order=\'created_on\')\nTypeError: get_publications() takes at least 1 argument (1 given)\n'
p4612
s.