(dp1
S'output'
p2
S''
sS'layer'
p3
S'/home/kaique/Projects/web2py/applications/synopsis/views/information/index.html'
p4
sS'code'
p5
S'response.write(\'<!DOCTYPE html>\\n<html lang="\', escape=False)\nresponse.write(T.accepted_language or \'en\')\nresponse.write(\'" class="no-js"><!-- no-js need it for modernzr -->\\n  <head>\\n    \\n    <meta charset="utf-8" />        \\n    <!-- www.phpied.com/conditional-comments-block-downloads/ -->\\n    <!--[if IE]>\\n      <!-- Always force latest IE rendering engine \\n       (even in intranet) & Chrome Frame \\n       Remove this if you use the .htaccess -->\\n      <meta http-equiv="X-UA-Compatible" content="IE=edge,chrome=1">\\n    <![endif]-->    \\n\\n    <title>\', escape=False)\nresponse.write(response.title or request.application)\nresponse.write(\'</title>\\n    \\n    <!-- http://dev.w3.org/html5/markup/meta.name.html -->\\n    <meta name="application-name" content="\', escape=False)\nresponse.write(request.application)\nresponse.write(\'" /> \\n    \\n    <!-- Speaking of Google, don\\\'t forget to set your site up: \\n     http://google.com/webmasters -->\\n    <meta name="google-site-verification" content="" />\\n    \\n    <!--  Mobile Viewport Fix\\n      j.mp/mobileviewport & davidbcalhoun.com/2010/viewport-metatag \\n      device-width: Occupy full width of the screen in its current orientation\\n      initial-scale = 1.0 retains dimensions instead of zooming out if page height > device height\\n      maximum-scale = 1.0 retains dimensions instead of zooming in if page width < device width\\n      -->\\n    <meta name="viewport" content="width=device-width, initial-scale=1.0, maximum-scale=1.0">\\n    \\n    <!-- Place favicon.ico and apple-touch-icon.png in the root of your domain and delete these references -->\\n    <link rel="shortcut icon" href="\', escape=False)\nresponse.write(URL(\'static\',\'favicon.ico\'))\nresponse.write(\'" type="image/x-icon">\\n    <link rel="apple-touch-icon" href="\', escape=False)\nresponse.write(URL(\'static\',\'favicon.png\'))\nresponse.write(\'">\\n\\n    <!-- For the less-enabled mobile browsers like Opera Mini -->\\n    <link rel="stylesheet" media="handheld" href="\', escape=False)\nresponse.write(URL(\'static\',\'css/handheld.css\'))\nresponse.write(\'">\\n    \\n    <!-- All JavaScript at the bottom, except for Modernizr which enables HTML5 elements & feature detects -->\\n    <script src="\', escape=False)\nresponse.write(URL(\'static\',\'js/modernizr-1.7.min.js\'))\nresponse.write(\'"></script>\\n    \\n    \', escape=False)\n#------  require CSS and JS files for this page (read info in base.css) ------\nresponse.write(\'\\n    \', escape=False)\nresponse.files.append(URL(\'static\',\'css/base.css\'))\nresponse.write(\'\\n    \', escape=False)\nresponse.files.append(URL(\'static\',\'css/superfish.css\'))\nresponse.write(\'\\n    \', escape=False)\nresponse.files.append(URL(\'static\',\'js/superfish.js\'))\nresponse.write(\'\\n    \', escape=False)\n#------ include web2py specific js code (jquery, calendar, form stuff) ------\nresponse.write(\'\\n    \', escape=False)\nresponse.files.insert(0,URL(\'static\',\'js/jquery.js\'))\nresponse.files.insert(1,URL(\'static\',\'css/anytime.css\'))\nresponse.files.insert(2,URL(\'static\',\'js/anytime.js\'))\nresponse.include_meta()\nresponse.include_files()\nresponse.write(\'\\n<script type="text/javascript"><!--\\n    // These variables are used by the web2py_ajax_init function in web2py_ajax.js (which is loaded below).\\n    var w2p_ajax_confirm_message = "\', escape=False)\nresponse.write(T(\'Are you sure you want to delete this object?\'))\nresponse.write(\'";\\n    var w2p_ajax_date_format = "\', escape=False)\nresponse.write(T(\'%Y-%m-%d\'))\nresponse.write(\'";\\n    var w2p_ajax_datetime_format = "\', escape=False)\nresponse.write(T(\'%Y-%m-%d %H:%M:%S\'))\nresponse.write(\'";\\n    //--></script>\\n    <script src="\', escape=False)\nresponse.write(URL(\'static\',\'js/web2py_ajax.js\'))\nresponse.write(\'" type="text/javascript"></script>\\n\', escape=False)\nresponse.write(\'\\n\\n    \', escape=False)\n#using sidebars need to know what sidebar you want to use\n#prior of using it, because of static width size of content, you can use\n#left_sidebar, right_sidebar, both or none (False left and right)\nleft_sidebar_enabled = globals().get(\'left_sidebar_enabled\',False)\nright_sidebar_enabled = globals().get(\'right_sidebar_enabled\',False)\nif left_sidebar_enabled and right_sidebar_enabled: width_content=\'63%\'\nelif left_sidebar_enabled != right_sidebar_enabled: width_content=\'740px\'\nelse: width_content=\'100%\'\nif left_sidebar_enabled: left_sidebar_style = \'style="display: block;"\'\nelse: left_sidebar_style = \'style="display: none;"\'\nif right_sidebar_enabled: right_sidebar_style = \'style="display: block;"\'\nelse: right_sidebar_style = \'style="display: none;"\'\nstyle_content = \'style="width: %s"\' % width_content\nresponse.write(\'\\n    \\n    <!-- uncomment here to load jquery-ui -->\\n    \\n    <link rel="stylesheet" href="http://ajax.googleapis.com/ajax/libs/jqueryui/1.8.16/themes/base/jquery-ui.css" type="text/css" media="all" />\\n    <script src="http://ajax.googleapis.com/ajax/libs/jqueryui/1.8.16/jquery-ui.min.js" type="text/javascript"></script>\\n    \\n   <!-- uncomment to load jquery-ui -->\\n    \\n    \\n  </head>\\n  \\n  <!-- paulirish.com/2008/conditional-stylesheets-vs-css-hacks-answer-neither/ -->  \\n  <!--[if lt IE 7 ]> <body class="ie6"> <![endif]-->\\n  <!--[if IE 7 ]>    <body class="ie7"> <![endif]-->\\n  <!--[if IE 8 ]>    <body class="ie8"> <![endif]-->\\n  <!--[if IE 9 ]>    <body class="ie9"> <![endif]-->\\n  <!--[if (gt IE 9)|!(IE)]><!--> <body> <!--<![endif]-->\\n    \\n    <div class="flash">\', escape=False)\nresponse.write(response.flash or \'\')\nresponse.write(\'</div> <!-- notification div -->\\n\\n        \\n\\n    <div id="container">                        \\n      \\n      <div id="wrapper">        \\n      \', escape=False)\ntry:\n    response.write(auth.navbar(action=URL(\'default\',\'user\')))\nexcept:pass\nresponse.write(\'\\n    \\n    <div id="header"> <!-- header and login nav -->\\n      \', escape=False)\nresponse.write(\' <!-- this is default header -->\\n      \\n      <h1>\\n        <span id="appname">\', escape=False)\nresponse.write(request.application.capitalize())\nresponse.write(\'</span>App\\n      </h1>\\n      <div style="clear: both;"></div><!-- Clear the divs -->\\n      \', escape=False)\nresponse.write(\'\\n    </div><!-- header  -->\\n    \\n    <div id="statusbar"><!-- statusbar is menu zone -->\\n      \', escape=False)\nresponse.write(\' <!-- this is default statusbar -->\\n      \', escape=False)\n#------ superfish menu ------\nresponse.write(\'\\n      \', escape=False)\nresponse.write(MENU(response.menu,_class=\'sf-menu\'))\nresponse.write(\'\\n      <script type="text/javascript">\\n        jQuery(document).ready(function(){\\n        jQuery(\\\'ul.sf-menu\\\').superfish();});\\n      </script>\\n\\n      <!-- AddToAny BEGIN -->\\n      <div style="padding: 7px; float:right;" class="a2a_kit a2a_default_style"><a class="a2a_dd" href="http://www.addtoany.com/share_save">Share</a></div><script type="text/javascript" src="http://static.addtoany.com/menu/page.js"></script>\\n      <!-- AddToAny END -->\\n\\n      <div style="clear: both;"></div><!-- Clear the divs -->   \\n      \', escape=False)\nresponse.write(\'               \\n    </div><!-- statusbar -->\\n    \\n    <div id="page"> <!-- Here my central body -->     \\n\\n      \', escape=False)\nif left_sidebar_enabled:\n    response.write(\'\\n          <div id="left_sidebar" \', escape=False)\n    response.write(XML(left_sidebar_style))\n    response.write(\' >\\n            <div style="padding: 4px;">\\n          \', escape=False)\n    response.write(\'Content Left Sidebar\', escape=False)\n    response.write(\'       \\n            </div>\\n          </div><!-- left_sidebar -->\\n      \', escape=False)\n    pass\nresponse.write(\'\\n\\n      <!-- content -->\\n      <div id="content" \', escape=False)\nresponse.write(XML(style_content))\nresponse.write(\' >\\n        \', escape=False)\nresponse.write(\'\\n\\n<div class="content">\\n\\t<section>\\n\\t\\t<article>\\n\\t\\t\\t<header>\\n\\t\\t\\t\\t\', escape=False)\nresponse.write(A(T(\'Create a new\'), _href=URL(\'new\')))\nresponse.write(\'\\n\\t\\t\\t\\t<hr />\\n\\t\\t\\t\\t<h1>\', escape=False)\nresponse.write(T(\'Synopses\'))\nresponse.write(\'</h1>\\n\\t\\t\\t\\t<hr />\\n\\t\\t\\t</header>\\n\\t\\t\\t\\n\\t\\t\\t<div>\\n\\t\\t\\t\\t\', escape=False)\nif subject:\n    response.write(\'\\n\\t\\t\\t\\t\\t<table style="border: 1px solid #ccc;">\\n\\t\\t\\t\\t\\t\\t<thead>\\n\\t\\t\\t\\t\\t\\t\\t<tr>\\n\\t\\t\\t\\t\\t\\t\\t\\t<td>\', escape=False)\n    response.write(T(\'Title of subject\'))\n    response.write(\'</td>\\n\\t\\t\\t\\t\\t\\t\\t\\t<td></td>\\n\\t\\t\\t\\t\\t\\t\\t</tr>\\n\\t\\t\\t\\t\\t\\t</thead>\\n\\t\\t\\t\\t\\t\\t\\n\\t\\t\\t\\t\\t\\t<tbody>\\n\\t\\t\\t\\t\\t\\t\\t\', escape=False)\n    for row in subject:\n        response.write(\'\\n\\t\\t\\t\\t\\t\\t\\t\\t<tr>\\n\\t\\t\\t\\t\\t\\t\\t\\t\\t<td>\\n\\t\\t\\t\\t\\t\\t\\t\\t\\t\\t\', escape=False)\n        response.write(row.name)\n        response.write(\'\\n\\t\\t\\t\\t\\t\\t\\t\\t\\t</td>\\n\\t\\t\\t\\t\\t\\t\\t\\t\\t<td>\\n\\t\\t\\t\\t\\t\\t\\t\\t\\t\\t\', escape=False)\n        response.write(A( T(\'Visualize\'), _href = URL(\'information\', \'profile\', args = [row.id])))\n        response.write(\'\\n\\t\\t\\t\\t\\t\\t\\t\\t\\t</td>\\n\\t\\t\\t\\t\\t\\t\\t\\t</tr>\\n\\t\\t\\t\\t\\t\\t\\t\', escape=False)\n        pass\n    response.write(\'\\n\\t\\t\\t\\t\\t\\t</tbody>\\n\\t\\t\\t\\t\\t</table>\\n\\t\\t\\t\\t\', escape=False)\nelse:\n    response.write(\'\\n\\t\\t\\t\\t\\t\', escape=False)\n    response.write(P( T(\'{0} {1}\'.format(\'Not synopse, registred!\', \'<a href="URL(\'information\', \'new\')"> {2} </a>\', \'Create a new\') ))\n    response.write(\'\\n\\t\\t\\t\\t\', escape=False)\n    pass\nresponse.write(\'\\n\\t\\t\\t</div>\\n\\t\\t</article>\\n\\t</section>\\n</div>\\n\', escape=False)\nresponse.write(\' \\n      </div>\\n      <!-- content -->\\n\\n      \', escape=False)\nif right_sidebar_enabled:\n    response.write(\'\\n          <div id="right_sidebar" \', escape=False)\n    response.write(XML(right_sidebar_style))\n    response.write(\' >\\n            <div style="padding: 4px;">\\n              \', escape=False)\n    response.write(\'Content Right Sidebar\', escape=False)\n    response.write(\'\\n            </div>\\n      </div><!-- right_sidebar -->\\n          \', escape=False)\n    pass\nresponse.write(\'\\n\\n\\n      <div style="clear: both;"></div><!-- Clear the divs -->\\n      \\n    </div><!-- page -->                         \\n    \\n    <div id="footer">\\n      \', escape=False)\nresponse.write(\' <!-- this is default footer -->\\n      <a href="http://www.web2py.com/" style="float: left; padding-right: 6px;">\\n        <img src="\', escape=False)\nresponse.write(URL(\'static\',\'images/poweredby.png\'))\nresponse.write(\'"/>\\n      </a>\\n      \', escape=False)\nresponse.write(T(\'Copyright\'))\nresponse.write(\' &#169; 2011               \\n      <div style="clear: both;"></div><!-- Clear the divs -->\\n      \', escape=False)\nresponse.write(\'\\n\\n    </div><!-- footer -->           \\n      </div><!-- wrapper -->\\n    </div><!-- container -->        \\n    \\n    <!--[if lt IE 7 ]>\\n    <script src="\', escape=False)\nresponse.write(URL(\'static\',\'js/dd_belatedpng.js\'))\nresponse.write(\'"></script>\\n    <script> DD_belatedPNG.fix(\\\'img, .png_bg\\\'); //fix any <img> or .png_bg background-images </script>\\n    <![endif]-->\\n    \', escape=False)\nif response.google_analytics_id:\n    response.write("<script>/* http://mathiasbynens.be/notes/async-analytics-snippet */ var _gaq=[[\'_setAccount\',\'", escape=False)\n    response.write(response.google_analyitics_id)\n    response.write("\'],[\'_trackPageview\']];(function(d,t){var g=d.createElement(t),s=d.getElementsByTagName(t)[0];g.src=\'//www.google-analytics.com/ga.js\';s.parentNode.insertBefore(g,s)}(document,\'script\')) </script>", escape=False)\n    pass\nresponse.write(\'\\n  </body>\\n</html>\\n\', escape=False)'
p6
sS'snapshot'
p7
(dp8
S'exception'
p9
(dp10
S'__getslice__'
p11
S"<method-wrapper '__getslice__' of exceptions.SyntaxError object>"
p12
sS'text'
p13
S'\'    response.write(P( T(\\\'{0} {1}\\\'.format(\\\'Not sy...rmation\\\', \\\'new\\\')"> {2} </a>\\\', \\\'Create a new\\\') ))\\n\''
p14
sS'__str__'
p15
S"<method-wrapper '__str__' of exceptions.SyntaxError object>"
p16
sS'__reduce__'
p17
S'<built-in method __reduce__ of exceptions.SyntaxError object>'
p18
sS'__dict__'
p19
S'{}'
p20
sS'__sizeof__'
p21
S'<built-in method __sizeof__ of exceptions.SyntaxError object>'
p22
sS'__init__'
p23
S"<method-wrapper '__init__' of exceptions.SyntaxError object>"
p24
sS'__setattr__'
p25
S"<method-wrapper '__setattr__' of exceptions.SyntaxError object>"
p26
sS'__reduce_ex__'
p27
S'<built-in method __reduce_ex__ of exceptions.SyntaxError object>'
p28
sS'__new__'
p29
S'<built-in method __new__ of type object>'
p30
sS'__format__'
p31
S'<built-in method __format__ of exceptions.SyntaxError object>'
p32
sS'__class__'
p33
S"<type 'exceptions.SyntaxError'>"
p34
sS'filename'
p35
S"'/home/kaique/Projects/web2py/applications/synopsis/views/information/index.html'"
p36
sS'lineno'
p37
S'100'
p38
sS'msg'
p39
S"'invalid syntax'"
p40
sS'__doc__'
p41
S"'Invalid syntax.'"
p42
sS'__getitem__'
p43
S"<method-wrapper '__getitem__' of exceptions.SyntaxError object>"
p44
sS'__setstate__'
p45
S'<built-in method __setstate__ of exceptions.SyntaxError object>'
p46
sS'__getattribute__'
p47
S"<method-wrapper '__getattribute__' of exceptions.SyntaxError object>"
p48
sS'print_file_and_line'
p49
S'None'
p50
sS'args'
p51
S'(\'invalid syntax\', (\'/home/kaique/Projects/web2py/applications/synopsis/views/information/index.html\', 100, 94, \'    response.write(P( T(\\\'{0} {1}\\\'.format(\\\'Not sy...rmation\\\', \\\'new\\\')"> {2} </a>\\\', \\\'Create a new\\\') ))\\n\'))'
p52
sS'__subclasshook__'
p53
S'<built-in method __subclasshook__ of type object>'
p54
sS'offset'
p55
S'94'
p56
sS'__unicode__'
p57
S'<built-in method __unicode__ of exceptions.SyntaxError object>'
p58
sS'__delattr__'
p59
S"<method-wrapper '__delattr__' of exceptions.SyntaxError object>"
p60
sS'__repr__'
p61
S"<method-wrapper '__repr__' of exceptions.SyntaxError object>"
p62
sS'__hash__'
p63
S"<method-wrapper '__hash__' of exceptions.SyntaxError object>"
p64
ssS'evalue'
p65
S'invalid syntax (index.html, line 100)'
p66
sS'request'
p67
ccopy_reg
_reconstructor
p68
(cgluon.html
BEAUTIFY
p69
c__builtin__
object
p70
NtRp71
(dp72
S'attributes'
p73
(dp74
sS'components'
p75
(lp76
g68
(cgluon.html
TABLE
p77
g70
NtRp78
(dp79
g73
(dp80
S'level'
p81
I5
ssS'parent'
p82
Nsg75
(lp83
g68
(cgluon.html
TR
p84
g70
NtRp85
(dp86
g73
(dp87
sg82
g78
sg75
(lp88
g68
(cgluon.html
TD
p89
g70
NtRp90
(dp91
g73
(dp92
S'_style'
p93
S'font-weight:bold;'
p94
ssg82
g85
sg75
(lp95
S'ajax'
p96
asbag68
(g89
g70
NtRp97
(dp98
g73
(dp99
S'_valign'
p100
S'top'
p101
ssg82
g85
sg75
(lp102
S':'
asbag68
(g89
g70
NtRp103
(dp104
g73
(dp105
sg82
g85
sg75
(lp106
g68
(g69
g70
NtRp107
(dp108
g73
(dp109
g81
I5
ssg82
g103
sg75
(lp110
S'False'
p111
asbasbasbag68
(g84
g70
NtRp112
(dp113
g73
(dp114
sg82
g78
sg75
(lp115
g68
(g89
g70
NtRp116
(dp117
g73
(dp118
g93
g94
ssg82
g112
sg75
(lp119
S'application'
p120
asbag68
(g89
g70
NtRp121
(dp122
g73
(dp123
g100
g101
ssg82
g112
sg75
(lp124
S':'
asbag68
(g89
g70
NtRp125
(dp126
g73
(dp127
sg82
g112
sg75
(lp128
g68
(g69
g70
NtRp129
(dp130
g73
(dp131
g81
I5
ssg82
g125
sg75
(lp132
S'synopsis'
p133
asbasbasbag68
(g84
g70
NtRp134
(dp135
g73
(dp136
sg82
g78
sg75
(lp137
g68
(g89
g70
NtRp138
(dp139
g73
(dp140
g93
g94
ssg82
g134
sg75
(lp141
g51
asbag68
(g89
g70
NtRp142
(dp143
g73
(dp144
g100
g101
ssg82
g134
sg75
(lp145
S':'
asbag68
(g89
g70
NtRp146
(dp147
g73
(dp148
sg82
g134
sg75
(lp149
g68
(g69
g70
NtRp150
(dp151
g73
(dp152
g81
I5
ssg82
g146
sg75
(lp153
g68
(g77
g70
NtRp154
(dp155
g73
(dp156
g81
I4
ssg82
Nsg75
(lp157
sbasbasbasbag68
(g84
g70
NtRp158
(dp159
g73
(dp160
sg82
g78
sg75
(lp161
g68
(g89
g70
NtRp162
(dp163
g73
(dp164
g93
g94
ssg82
g158
sg75
(lp165
S'body'
p166
asbag68
(g89
g70
NtRp167
(dp168
g73
(dp169
g100
g101
ssg82
g158
sg75
(lp170
S':'
asbag68
(g89
g70
NtRp171
(dp172
g73
(dp173
sg82
g158
sg75
(lp174
g68
(g69
g70
NtRp175
(dp176
g73
(dp177
g81
I5
ssg82
g171
sg75
(lp178
S'<cStringIO.StringO object at 0x3ab56c0>'
p179
asbasbasbag68
(g84
g70
NtRp180
(dp181
g73
(dp182
sg82
g78
sg75
(lp183
g68
(g89
g70
NtRp184
(dp185
g73
(dp186
g93
g94
ssg82
g180
sg75
(lp187
S'client'
p188
asbag68
(g89
g70
NtRp189
(dp190
g73
(dp191
g100
g101
ssg82
g180
sg75
(lp192
S':'
asbag68
(g89
g70
NtRp193
(dp194
g73
(dp195
sg82
g180
sg75
(lp196
g68
(g69
g70
NtRp197
(dp198
g73
(dp199
g81
I5
ssg82
g193
sg75
(lp200
S'127.0.0.1'
p201
asbasbasbag68
(g84
g70
NtRp202
(dp203
g73
(dp204
sg82
g78
sg75
(lp205
g68
(g89
g70
NtRp206
(dp207
g73
(dp208
g93
g94
ssg82
g202
sg75
(lp209
S'controller'
p210
asbag68
(g89
g70
NtRp211
(dp212
g73
(dp213
g100
g101
ssg82
g202
sg75
(lp214
S':'
asbag68
(g89
g70
NtRp215
(dp216
g73
(dp217
sg82
g202
sg75
(lp218
g68
(g69
g70
NtRp219
(dp220
g73
(dp221
g81
I5
ssg82
g215
sg75
(lp222
S'information'
p223
asbasbasbag68
(g84
g70
NtRp224
(dp225
g73
(dp226
sg82
g78
sg75
(lp227
g68
(g89
g70
NtRp228
(dp229
g73
(dp230
g93
g94
ssg82
g224
sg75
(lp231
S'cookies'
p232
asbag68
(g89
g70
NtRp233
(dp234
g73
(dp235
g100
g101
ssg82
g224
sg75
(lp236
S':'
asbag68
(g89
g70
NtRp237
(dp238
g73
(dp239
sg82
g224
sg75
(lp240
g68
(g69
g70
NtRp241
(dp242
g73
(dp243
g81
I5
ssg82
g237
sg75
(lp244
g68
(g77
g70
NtRp245
(dp246
g73
(dp247
g81
I4
ssg82
Nsg75
(lp248
g68
(g84
g70
NtRp249
(dp250
g73
(dp251
sg82
g245
sg75
(lp252
g68
(g89
g70
NtRp253
(dp254
g73
(dp255
g93
g94
ssg82
g249
sg75
(lp256
S'currency'
p257
asbag68
(g89
g70
NtRp258
(dp259
g73
(dp260
g100
g101
ssg82
g249
sg75
(lp261
S':'
asbag68
(g89
g70
NtRp262
(dp263
g73
(dp264
sg82
g249
sg75
(lp265
g68
(g69
g70
NtRp266
(dp267
g73
(dp268
g81
I4
ssg82
g262
sg75
(lp269
g68
(g77
g70
NtRp270
(dp271
g73
(dp272
g81
I3
ssg82
Nsg75
(lp273
g68
(g84
g70
NtRp274
(dp275
g73
(dp276
sg82
g270
sg75
(lp277
g68
(g89
g70
NtRp278
(dp279
g73
(dp280
g93
g94
ssg82
g274
sg75
(lp281
S'comment'
p282
asbag68
(g89
g70
NtRp283
(dp284
g73
(dp285
g100
g101
ssg82
g274
sg75
(lp286
S':'
asbag68
(g89
g70
NtRp287
(dp288
g73
(dp289
sg82
g274
sg75
(lp290
g68
(g69
g70
NtRp291
(dp292
g73
(dp293
g81
I3
ssg82
g287
sg75
(lp294
S''
asbasbasbag68
(g84
g70
NtRp295
(dp296
g73
(dp297
sg82
g270
sg75
(lp298
g68
(g89
g70
NtRp299
(dp300
g73
(dp301
g93
g94
ssg82
g295
sg75
(lp302
S'domain'
p303
asbag68
(g89
g70
NtRp304
(dp305
g73
(dp306
g100
g101
ssg82
g295
sg75
(lp307
S':'
asbag68
(g89
g70
NtRp308
(dp309
g73
(dp310
sg82
g295
sg75
(lp311
g68
(g69
g70
NtRp312
(dp313
g73
(dp314
g81
I3
ssg82
g308
sg75
(lp315
S''
asbasbasbag68
(g84
g70
NtRp316
(dp317
g73
(dp318
sg82
g270
sg75
(lp319
g68
(g89
g70
NtRp320
(dp321
g73
(dp322
g93
g94
ssg82
g316
sg75
(lp323
S'expires'
p324
asbag68
(g89
g70
NtRp325
(dp326
g73
(dp327
g100
g101
ssg82
g316
sg75
(lp328
S':'
asbag68
(g89
g70
NtRp329
(dp330
g73
(dp331
sg82
g316
sg75
(lp332
g68
(g69
g70
NtRp333
(dp334
g73
(dp335
g81
I3
ssg82
g329
sg75
(lp336
S''
asbasbasbag68
(g84
g70
NtRp337
(dp338
g73
(dp339
sg82
g270
sg75
(lp340
g68
(g89
g70
NtRp341
(dp342
g73
(dp343
g93
g94
ssg82
g337
sg75
(lp344
S'httponly'
p345
asbag68
(g89
g70
NtRp346
(dp347
g73
(dp348
g100
g101
ssg82
g337
sg75
(lp349
S':'
asbag68
(g89
g70
NtRp350
(dp351
g73
(dp352
sg82
g337
sg75
(lp353
g68
(g69
g70
NtRp354
(dp355
g73
(dp356
g81
I3
ssg82
g350
sg75
(lp357
S''
asbasbasbag68
(g84
g70
NtRp358
(dp359
g73
(dp360
sg82
g270
sg75
(lp361
g68
(g89
g70
NtRp362
(dp363
g73
(dp364
g93
g94
ssg82
g358
sg75
(lp365
S'max-age'
p366
asbag68
(g89
g70
NtRp367
(dp368
g73
(dp369
g100
g101
ssg82
g358
sg75
(lp370
S':'
asbag68
(g89
g70
NtRp371
(dp372
g73
(dp373
sg82
g358
sg75
(lp374
g68
(g69
g70
NtRp375
(dp376
g73
(dp377
g81
I3
ssg82
g371
sg75
(lp378
S''
asbasbasbag68
(g84
g70
NtRp379
(dp380
g73
(dp381
sg82
g270
sg75
(lp382
g68
(g89
g70
NtRp383
(dp384
g73
(dp385
g93
g94
ssg82
g379
sg75
(lp386
S'path'
p387
asbag68
(g89
g70
NtRp388
(dp389
g73
(dp390
g100
g101
ssg82
g379
sg75
(lp391
S':'
asbag68
(g89
g70
NtRp392
(dp393
g73
(dp394
sg82
g379
sg75
(lp395
g68
(g69
g70
NtRp396
(dp397
g73
(dp398
g81
I3
ssg82
g392
sg75
(lp399
S''
asbasbasbag68
(g84
g70
NtRp400
(dp401
g73
(dp402
sg82
g270
sg75
(lp403
g68
(g89
g70
NtRp404
(dp405
g73
(dp406
g93
g94
ssg82
g400
sg75
(lp407
S'secure'
p408
asbag68
(g89
g70
NtRp409
(dp410
g73
(dp411
g100
g101
ssg82
g400
sg75
(lp412
S':'
asbag68
(g89
g70
NtRp413
(dp414
g73
(dp415
sg82
g400
sg75
(lp416
g68
(g69
g70
NtRp417
(dp418
g73
(dp419
g81
I3
ssg82
g413
sg75
(lp420
S''
asbasbasbag68
(g84
g70
NtRp421
(dp422
g73
(dp423
sg82
g270
sg75
(lp424
g68
(g89
g70
NtRp425
(dp426
g73
(dp427
g93
g94
ssg82
g421
sg75
(lp428
S'version'
p429
asbag68
(g89
g70
NtRp430
(dp431
g73
(dp432
g100
g101
ssg82
g421
sg75
(lp433
S':'
asbag68
(g89
g70
NtRp434
(dp435
g73
(dp436
sg82
g421
sg75
(lp437
g68
(g69
g70
NtRp438
(dp439
g73
(dp440
g81
I3
ssg82
g434
sg75
(lp441
S''
asbasbasbasbasbasbasbag68
(g84
g70
NtRp442
(dp443
g73
(dp444
sg82
g245
sg75
(lp445
g68
(g89
g70
NtRp446
(dp447
g73
(dp448
g93
g94
ssg82
g442
sg75
(lp449
S'session_id_admin'
p450
asbag68
(g89
g70
NtRp451
(dp452
g73
(dp453
g100
g101
ssg82
g442
sg75
(lp454
S':'
asbag68
(g89
g70
NtRp455
(dp456
g73
(dp457
sg82
g442
sg75
(lp458
g68
(g69
g70
NtRp459
(dp460
g73
(dp461
g81
I4
ssg82
g455
sg75
(lp462
g68
(g77
g70
NtRp463
(dp464
g73
(dp465
g81
I3
ssg82
Nsg75
(lp466
g68
(g84
g70
NtRp467
(dp468
g73
(dp469
sg82
g463
sg75
(lp470
g68
(g89
g70
NtRp471
(dp472
g73
(dp473
g93
g94
ssg82
g467
sg75
(lp474
g282
asbag68
(g89
g70
NtRp475
(dp476
g73
(dp477
g100
g101
ssg82
g467
sg75
(lp478
S':'
asbag68
(g89
g70
NtRp479
(dp480
g73
(dp481
sg82
g467
sg75
(lp482
g68
(g69
g70
NtRp483
(dp484
g73
(dp485
g81
I3
ssg82
g479
sg75
(lp486
S''
asbasbasbag68
(g84
g70
NtRp487
(dp488
g73
(dp489
sg82
g463
sg75
(lp490
g68
(g89
g70
NtRp491
(dp492
g73
(dp493
g93
g94
ssg82
g487
sg75
(lp494
g303
asbag68
(g89
g70
NtRp495
(dp496
g73
(dp497
g100
g101
ssg82
g487
sg75
(lp498
S':'
asbag68
(g89
g70
NtRp499
(dp500
g73
(dp501
sg82
g487
sg75
(lp502
g68
(g69
g70
NtRp503
(dp504
g73
(dp505
g81
I3
ssg82
g499
sg75
(lp506
S''
asbasbasbag68
(g84
g70
NtRp507
(dp508
g73
(dp509
sg82
g463
sg75
(lp510
g68
(g89
g70
NtRp511
(dp512
g73
(dp513
g93
g94
ssg82
g507
sg75
(lp514
g324
asbag68
(g89
g70
NtRp515
(dp516
g73
(dp517
g100
g101
ssg82
g507
sg75
(lp518
S':'
asbag68
(g89
g70
NtRp519
(dp520
g73
(dp521
sg82
g507
sg75
(lp522
g68
(g69
g70
NtRp523
(dp524
g73
(dp525
g81
I3
ssg82
g519
sg75
(lp526
S''
asbasbasbag68
(g84
g70
NtRp527
(dp528
g73
(dp529
sg82
g463
sg75
(lp530
g68
(g89
g70
NtRp531
(dp532
g73
(dp533
g93
g94
ssg82
g527
sg75
(lp534
g345
asbag68
(g89
g70
NtRp535
(dp536
g73
(dp537
g100
g101
ssg82
g527
sg75
(lp538
S':'
asbag68
(g89
g70
NtRp539
(dp540
g73
(dp541
sg82
g527
sg75
(lp542
g68
(g69
g70
NtRp543
(dp544
g73
(dp545
g81
I3
ssg82
g539
sg75
(lp546
S''
asbasbasbag68
(g84
g70
NtRp547
(dp548
g73
(dp549
sg82
g463
sg75
(lp550
g68
(g89
g70
NtRp551
(dp552
g73
(dp553
g93
g94
ssg82
g547
sg75
(lp554
g366
asbag68
(g89
g70
NtRp555
(dp556
g73
(dp557
g100
g101
ssg82
g547
sg75
(lp558
S':'
asbag68
(g89
g70
NtRp559
(dp560
g73
(dp561
sg82
g547
sg75
(lp562
g68
(g69
g70
NtRp563
(dp564
g73
(dp565
g81
I3
ssg82
g559
sg75
(lp566
S''
asbasbasbag68
(g84
g70
NtRp567
(dp568
g73
(dp569
sg82
g463
sg75
(lp570
g68
(g89
g70
NtRp571
(dp572
g73
(dp573
g93
g94
ssg82
g567
sg75
(lp574
g387
asbag68
(g89
g70
NtRp575
(dp576
g73
(dp577
g100
g101
ssg82
g567
sg75
(lp578
S':'
asbag68
(g89
g70
NtRp579
(dp580
g73
(dp581
sg82
g567
sg75
(lp582
g68
(g69
g70
NtRp583
(dp584
g73
(dp585
g81
I3
ssg82
g579
sg75
(lp586
S''
asbasbasbag68
(g84
g70
NtRp587
(dp588
g73
(dp589
sg82
g463
sg75
(lp590
g68
(g89
g70
NtRp591
(dp592
g73
(dp593
g93
g94
ssg82
g587
sg75
(lp594
g408
asbag68
(g89
g70
NtRp595
(dp596
g73
(dp597
g100
g101
ssg82
g587
sg75
(lp598
S':'
asbag68
(g89
g70
NtRp599
(dp600
g73
(dp601
sg82
g587
sg75
(lp602
g68
(g69
g70
NtRp603
(dp604
g73
(dp605
g81
I3
ssg82
g599
sg75
(lp606
S''
asbasbasbag68
(g84
g70
NtRp607
(dp608
g73
(dp609
sg82
g463
sg75
(lp610
g68
(g89
g70
NtRp611
(dp612
g73
(dp613
g93
g94
ssg82
g607
sg75
(lp614
g429
asbag68
(g89
g70
NtRp615
(dp616
g73
(dp617
g100
g101
ssg82
g607
sg75
(lp618
S':'
asbag68
(g89
g70
NtRp619
(dp620
g73
(dp621
sg82
g607
sg75
(lp622
g68
(g69
g70
NtRp623
(dp624
g73
(dp625
g81
I3
ssg82
g619
sg75
(lp626
S''
asbasbasbasbasbasbasbag68
(g84
g70
NtRp627
(dp628
g73
(dp629
sg82
g245
sg75
(lp630
g68
(g89
g70
NtRp631
(dp632
g73
(dp633
g93
g94
ssg82
g627
sg75
(lp634
S'session_id_synopsis'
p635
asbag68
(g89
g70
NtRp636
(dp637
g73
(dp638
g100
g101
ssg82
g627
sg75
(lp639
S':'
asbag68
(g89
g70
NtRp640
(dp641
g73
(dp642
sg82
g627
sg75
(lp643
g68
(g69
g70
NtRp644
(dp645
g73
(dp646
g81
I4
ssg82
g640
sg75
(lp647
g68
(g77
g70
NtRp648
(dp649
g73
(dp650
g81
I3
ssg82
Nsg75
(lp651
g68
(g84
g70
NtRp652
(dp653
g73
(dp654
sg82
g648
sg75
(lp655
g68
(g89
g70
NtRp656
(dp657
g73
(dp658
g93
g94
ssg82
g652
sg75
(lp659
g282
asbag68
(g89
g70
NtRp660
(dp661
g73
(dp662
g100
g101
ssg82
g652
sg75
(lp663
S':'
asbag68
(g89
g70
NtRp664
(dp665
g73
(dp666
sg82
g652
sg75
(lp667
g68
(g69
g70
NtRp668
(dp669
g73
(dp670
g81
I3
ssg82
g664
sg75
(lp671
S''
asbasbasbag68
(g84
g70
NtRp672
(dp673
g73
(dp674
sg82
g648
sg75
(lp675
g68
(g89
g70
NtRp676
(dp677
g73
(dp678
g93
g94
ssg82
g672
sg75
(lp679
g303
asbag68
(g89
g70
NtRp680
(dp681
g73
(dp682
g100
g101
ssg82
g672
sg75
(lp683
S':'
asbag68
(g89
g70
NtRp684
(dp685
g73
(dp686
sg82
g672
sg75
(lp687
g68
(g69
g70
NtRp688
(dp689
g73
(dp690
g81
I3
ssg82
g684
sg75
(lp691
S''
asbasbasbag68
(g84
g70
NtRp692
(dp693
g73
(dp694
sg82
g648
sg75
(lp695
g68
(g89
g70
NtRp696
(dp697
g73
(dp698
g93
g94
ssg82
g692
sg75
(lp699
g324
asbag68
(g89
g70
NtRp700
(dp701
g73
(dp702
g100
g101
ssg82
g692
sg75
(lp703
S':'
asbag68
(g89
g70
NtRp704
(dp705
g73
(dp706
sg82
g692
sg75
(lp707
g68
(g69
g70
NtRp708
(dp709
g73
(dp710
g81
I3
ssg82
g704
sg75
(lp711
S''
asbasbasbag68
(g84
g70
NtRp712
(dp713
g73
(dp714
sg82
g648
sg75
(lp715
g68
(g89
g70
NtRp716
(dp717
g73
(dp718
g93
g94
ssg82
g712
sg75
(lp719
g345
asbag68
(g89
g70
NtRp720
(dp721
g73
(dp722
g100
g101
ssg82
g712
sg75
(lp723
S':'
asbag68
(g89
g70
NtRp724
(dp725
g73
(dp726
sg82
g712
sg75
(lp727
g68
(g69
g70
NtRp728
(dp729
g73
(dp730
g81
I3
ssg82
g724
sg75
(lp731
S''
asbasbasbag68
(g84
g70
NtRp732
(dp733
g73
(dp734
sg82
g648
sg75
(lp735
g68
(g89
g70
NtRp736
(dp737
g73
(dp738
g93
g94
ssg82
g732
sg75
(lp739
g366
asbag68
(g89
g70
NtRp740
(dp741
g73
(dp742
g100
g101
ssg82
g732
sg75
(lp743
S':'
asbag68
(g89
g70
NtRp744
(dp745
g73
(dp746
sg82
g732
sg75
(lp747
g68
(g69
g70
NtRp748
(dp749
g73
(dp750
g81
I3
ssg82
g744
sg75
(lp751
S''
asbasbasbag68
(g84
g70
NtRp752
(dp753
g73
(dp754
sg82
g648
sg75
(lp755
g68
(g89
g70
NtRp756
(dp757
g73
(dp758
g93
g94
ssg82
g752
sg75
(lp759
g387
asbag68
(g89
g70
NtRp760
(dp761
g73
(dp762
g100
g101
ssg82
g752
sg75
(lp763
S':'
asbag68
(g89
g70
NtRp764
(dp765
g73
(dp766
sg82
g752
sg75
(lp767
g68
(g69
g70
NtRp768
(dp769
g73
(dp770
g81
I3
ssg82
g764
sg75
(lp771
S''
asbasbasbag68
(g84
g70
NtRp772
(dp773
g73
(dp774
sg82
g648
sg75
(lp775
g68
(g89
g70
NtRp776
(dp777
g73
(dp778
g93
g94
ssg82
g772
sg75
(lp779
g408
asbag68
(g89
g70
NtRp780
(dp781
g73
(dp782
g100
g101
ssg82
g772
sg75
(lp783
S':'
asbag68
(g89
g70
NtRp784
(dp785
g73
(dp786
sg82
g772
sg75
(lp787
g68
(g69
g70
NtRp788
(dp789
g73
(dp790
g81
I3
ssg82
g784
sg75
(lp791
S''
asbasbasbag68
(g84
g70
NtRp792
(dp793
g73
(dp794
sg82
g648
sg75
(lp795
g68
(g89
g70
NtRp796
(dp797
g73
(dp798
g93
g94
ssg82
g792
sg75
(lp799
g429
asbag68
(g89
g70
NtRp800
(dp801
g73
(dp802
g100
g101
ssg82
g792
sg75
(lp803
S':'
asbag68
(g89
g70
NtRp804
(dp805
g73
(dp806
sg82
g792
sg75
(lp807
g68
(g69
g70
NtRp808
(dp809
g73
(dp810
g81
I3
ssg82
g804
sg75
(lp811
S''
asbasbasbasbasbasbasbasbasbasbasbag68
(g84
g70
NtRp812
(dp813
g73
(dp814
sg82
g78
sg75
(lp815
g68
(g89
g70
NtRp816
(dp817
g73
(dp818
g93
g94
ssg82
g812
sg75
(lp819
S'env'
p820
asbag68
(g89
g70
NtRp821
(dp822
g73
(dp823
g100
g101
ssg82
g812
sg75
(lp824
S':'
asbag68
(g89
g70
NtRp825
(dp826
g73
(dp827
sg82
g812
sg75
(lp828
g68
(g69
g70
NtRp829
(dp830
g73
(dp831
g81
I5
ssg82
g825
sg75
(lp832
g68
(g77
g70
NtRp833
(dp834
g73
(dp835
g81
I4
ssg82
Nsg75
(lp836
g68
(g84
g70
NtRp837
(dp838
g73
(dp839
sg82
g833
sg75
(lp840
g68
(g89
g70
NtRp841
(dp842
g73
(dp843
g93
g94
ssg82
g837
sg75
(lp844
S'app_folders'
p845
asbag68
(g89
g70
NtRp846
(dp847
g73
(dp848
g100
g101
ssg82
g837
sg75
(lp849
S':'
asbag68
(g89
g70
NtRp850
(dp851
g73
(dp852
sg82
g837
sg75
(lp853
g68
(g69
g70
NtRp854
(dp855
g73
(dp856
g81
I4
ssg82
g850
sg75
(lp857
S"set(['/home/kaique/Projects/web2py/applications/synopsis/', '/home/kaique/Projects/web2py/applications/admin/'])"
p858
asbasbasbag68
(g84
g70
NtRp859
(dp860
g73
(dp861
sg82
g833
sg75
(lp862
g68
(g89
g70
NtRp863
(dp864
g73
(dp865
g93
g94
ssg82
g859
sg75
(lp866
S'applications_parent'
p867
asbag68
(g89
g70
NtRp868
(dp869
g73
(dp870
g100
g101
ssg82
g859
sg75
(lp871
S':'
asbag68
(g89
g70
NtRp872
(dp873
g73
(dp874
sg82
g859
sg75
(lp875
g68
(g69
g70
NtRp876
(dp877
g73
(dp878
g81
I4
ssg82
g872
sg75
(lp879
S'/home/kaique/Projects/web2py'
p880
asbasbasbag68
(g84
g70
NtRp881
(dp882
g73
(dp883
sg82
g833
sg75
(lp884
g68
(g89
g70
NtRp885
(dp886
g73
(dp887
g93
g94
ssg82
g881
sg75
(lp888
S'cmd_args'
p889
asbag68
(g89
g70
NtRp890
(dp891
g73
(dp892
g100
g101
ssg82
g881
sg75
(lp893
S':'
asbag68
(g89
g70
NtRp894
(dp895
g73
(dp896
sg82
g881
sg75
(lp897
g68
(g69
g70
NtRp898
(dp899
g73
(dp900
g81
I4
ssg82
g894
sg75
(lp901
g68
(g77
g70
NtRp902
(dp903
g73
(dp904
g81
I3
ssg82
Nsg75
(lp905
sbasbasbasbag68
(g84
g70
NtRp906
(dp907
g73
(dp908
sg82
g833
sg75
(lp909
g68
(g89
g70
NtRp910
(dp911
g73
(dp912
g93
g94
ssg82
g906
sg75
(lp913
S'cmd_options'
p914
asbag68
(g89
g70
NtRp915
(dp916
g73
(dp917
g100
g101
ssg82
g906
sg75
(lp918
S':'
asbag68
(g89
g70
NtRp919
(dp920
g73
(dp921
sg82
g906
sg75
(lp922
g68
(g69
g70
NtRp923
(dp924
g73
(dp925
g81
I4
ssg82
g919
sg75
(lp926
S"<Values at 0x25b6998: {'verbose': False, 'ip': '127.0.0.1', 'shutdown_timeout': 5, 'taskbar': False, 'nocron': False, 'pid_filename': 'httpserver.pid', 'maxthreads': None, 'softcron': False, 'server_name': 'kaique-Pine-Trail-M', 'bpython': False, 'nogui': False, 'port': 8000, 'extcron': False, 'debuglevel': 30, 'test': None, 'folder': '/home/kaique/Projects/web2py', 'config': '', 'import_models': False, 'winservice': '', 'shell': None, 'run': '', 'log_filename': 'httpserver.log', 'args': [''], 'ssl_ca_certificate': None, 'scheduler': None, 'profiler_filename': None, 'ssl_private_key': '', 'password': 'dev', 'request_queue_size': 5, 'ssl_certificate': '', 'cronjob': False, 'plain': False, 'quiet': False, 'interfaces': None, 'minthreads': None, 'timeout': 10, 'numthreads': None, 'nobanner': False}>"
p927
asbasbasbag68
(g84
g70
NtRp928
(dp929
g73
(dp930
sg82
g833
sg75
(lp931
g68
(g89
g70
NtRp932
(dp933
g73
(dp934
g93
g94
ssg82
g928
sg75
(lp935
S'db_sessions'
p936
asbag68
(g89
g70
NtRp937
(dp938
g73
(dp939
g100
g101
ssg82
g928
sg75
(lp940
S':'
asbag68
(g89
g70
NtRp941
(dp942
g73
(dp943
sg82
g928
sg75
(lp944
g68
(g69
g70
NtRp945
(dp946
g73
(dp947
g81
I4
ssg82
g941
sg75
(lp948
S'set([])'
p949
asbasbasbag68
(g84
g70
NtRp950
(dp951
g73
(dp952
sg82
g833
sg75
(lp953
g68
(g89
g70
NtRp954
(dp955
g73
(dp956
g93
g94
ssg82
g950
sg75
(lp957
S'debugging'
p958
asbag68
(g89
g70
NtRp959
(dp960
g73
(dp961
g100
g101
ssg82
g950
sg75
(lp962
S':'
asbag68
(g89
g70
NtRp963
(dp964
g73
(dp965
sg82
g950
sg75
(lp966
g68
(g69
g70
NtRp967
(dp968
g73
(dp969
g81
I4
ssg82
g963
sg75
(lp970
g111
asbasbasbag68
(g84
g70
NtRp971
(dp972
g73
(dp973
sg82
g833
sg75
(lp974
g68
(g89
g70
NtRp975
(dp976
g73
(dp977
g93
g94
ssg82
g971
sg75
(lp978
S'gluon_parent'
p979
asbag68
(g89
g70
NtRp980
(dp981
g73
(dp982
g100
g101
ssg82
g971
sg75
(lp983
S':'
asbag68
(g89
g70
NtRp984
(dp985
g73
(dp986
sg82
g971
sg75
(lp987
g68
(g69
g70
NtRp988
(dp989
g73
(dp990
g81
I4
ssg82
g984
sg75
(lp991
S'/home/kaique/Projects/web2py'
p992
asbasbasbag68
(g84
g70
NtRp993
(dp994
g73
(dp995
sg82
g833
sg75
(lp996
g68
(g89
g70
NtRp997
(dp998
g73
(dp999
g93
g94
ssg82
g993
sg75
(lp1000
S'http_accept'
p1001
asbag68
(g89
g70
NtRp1002
(dp1003
g73
(dp1004
g100
g101
ssg82
g993
sg75
(lp1005
S':'
asbag68
(g89
g70
NtRp1006
(dp1007
g73
(dp1008
sg82
g993
sg75
(lp1009
g68
(g69
g70
NtRp1010
(dp1011
g73
(dp1012
g81
I4
ssg82
g1006
sg75
(lp1013
S'text/html,application/xhtml+xml,application/xml;q=0.9,*/*;q=0.8'
p1014
asbasbasbag68
(g84
g70
NtRp1015
(dp1016
g73
(dp1017
sg82
g833
sg75
(lp1018
g68
(g89
g70
NtRp1019
(dp1020
g73
(dp1021
g93
g94
ssg82
g1015
sg75
(lp1022
S'http_accept_charset'
p1023
asbag68
(g89
g70
NtRp1024
(dp1025
g73
(dp1026
g100
g101
ssg82
g1015
sg75
(lp1027
S':'
asbag68
(g89
g70
NtRp1028
(dp1029
g73
(dp1030
sg82
g1015
sg75
(lp1031
g68
(g69
g70
NtRp1032
(dp1033
g73
(dp1034
g81
I4
ssg82
g1028
sg75
(lp1035
S'ISO-8859-1,utf-8;q=0.7,*;q=0.7'
p1036
asbasbasbag68
(g84
g70
NtRp1037
(dp1038
g73
(dp1039
sg82
g833
sg75
(lp1040
g68
(g89
g70
NtRp1041
(dp1042
g73
(dp1043
g93
g94
ssg82
g1037
sg75
(lp1044
S'http_accept_encoding'
p1045
asbag68
(g89
g70
NtRp1046
(dp1047
g73
(dp1048
g100
g101
ssg82
g1037
sg75
(lp1049
S':'
asbag68
(g89
g70
NtRp1050
(dp1051
g73
(dp1052
sg82
g1037
sg75
(lp1053
g68
(g69
g70
NtRp1054
(dp1055
g73
(dp1056
g81
I4
ssg82
g1050
sg75
(lp1057
S'gzip, deflate'
p1058
asbasbasbag68
(g84
g70
NtRp1059
(dp1060
g73
(dp1061
sg82
g833
sg75
(lp1062
g68
(g89
g70
NtRp1063
(dp1064
g73
(dp1065
g93
g94
ssg82
g1059
sg75
(lp1066
S'http_accept_language'
p1067
asbag68
(g89
g70
NtRp1068
(dp1069
g73
(dp1070
g100
g101
ssg82
g1059
sg75
(lp1071
S':'
asbag68
(g89
g70
NtRp1072
(dp1073
g73
(dp1074
sg82
g1059
sg75
(lp1075
g68
(g69
g70
NtRp1076
(dp1077
g73
(dp1078
g81
I4
ssg82
g1072
sg75
(lp1079
S'pt-br,pt;q=0.8,en-us;q=0.5,en;q=0.3'
p1080
asbasbasbag68
(g84
g70
NtRp1081
(dp1082
g73
(dp1083
sg82
g833
sg75
(lp1084
g68
(g89
g70
NtRp1085
(dp1086
g73
(dp1087
g93
g94
ssg82
g1081
sg75
(lp1088
S'http_cache_control'
p1089
asbag68
(g89
g70
NtRp1090
(dp1091
g73
(dp1092
g100
g101
ssg82
g1081
sg75
(lp1093
S':'
asbag68
(g89
g70
NtRp1094
(dp1095
g73
(dp1096
sg82
g1081
sg75
(lp1097
g68
(g69
g70
NtRp1098
(dp1099
g73
(dp1100
g81
I4
ssg82
g1094
sg75
(lp1101
S'max-age=0'
p1102
asbasbasbag68
(g84
g70
NtRp1103
(dp1104
g73
(dp1105
sg82
g833
sg75
(lp1106
g68
(g89
g70
NtRp1107
(dp1108
g73
(dp1109
g93
g94
ssg82
g1103
sg75
(lp1110
S'http_connection'
p1111
asbag68
(g89
g70
NtRp1112
(dp1113
g73
(dp1114
g100
g101
ssg82
g1103
sg75
(lp1115
S':'
asbag68
(g89
g70
NtRp1116
(dp1117
g73
(dp1118
sg82
g1103
sg75
(lp1119
g68
(g69
g70
NtRp1120
(dp1121
g73
(dp1122
g81
I4
ssg82
g1116
sg75
(lp1123
S'keep-alive'
p1124
asbasbasbag68
(g84
g70
NtRp1125
(dp1126
g73
(dp1127
sg82
g833
sg75
(lp1128
g68
(g89
g70
NtRp1129
(dp1130
g73
(dp1131
g93
g94
ssg82
g1125
sg75
(lp1132
S'http_cookie'
p1133
asbag68
(g89
g70
NtRp1134
(dp1135
g73
(dp1136
g100
g101
ssg82
g1125
sg75
(lp1137
S':'
asbag68
(g89
g70
NtRp1138
(dp1139
g73
(dp1140
sg82
g1125
sg75
(lp1141
g68
(g69
g70
NtRp1142
(dp1143
g73
(dp1144
g81
I4
ssg82
g1138
sg75
(lp1145
S'currency=GBP; session_id_synopsis=127.0.0.1-939daf95-14ab-422d-8204-c5411c18373a; session_id_admin=127.0.0.1-6481ad8b-2a76-4988-9858-8d3496f2eb68'
p1146
asbasbasbag68
(g84
g70
NtRp1147
(dp1148
g73
(dp1149
sg82
g833
sg75
(lp1150
g68
(g89
g70
NtRp1151
(dp1152
g73
(dp1153
g93
g94
ssg82
g1147
sg75
(lp1154
S'http_host'
p1155
asbag68
(g89
g70
NtRp1156
(dp1157
g73
(dp1158
g100
g101
ssg82
g1147
sg75
(lp1159
S':'
asbag68
(g89
g70
NtRp1160
(dp1161
g73
(dp1162
sg82
g1147
sg75
(lp1163
g68
(g69
g70
NtRp1164
(dp1165
g73
(dp1166
g81
I4
ssg82
g1160
sg75
(lp1167
S'localhost:8000'
p1168
asbasbasbag68
(g84
g70
NtRp1169
(dp1170
g73
(dp1171
sg82
g833
sg75
(lp1172
g68
(g89
g70
NtRp1173
(dp1174
g73
(dp1175
g93
g94
ssg82
g1169
sg75
(lp1176
S'http_referer'
p1177
asbag68
(g89
g70
NtRp1178
(dp1179
g73
(dp1180
g100
g101
ssg82
g1169
sg75
(lp1181
S':'
asbag68
(g89
g70
NtRp1182
(dp1183
g73
(dp1184
sg82
g1169
sg75
(lp1185
g68
(g69
g70
NtRp1186
(dp1187
g73
(dp1188
g81
I4
ssg82
g1182
sg75
(lp1189
S'http://localhost:8000/synopsis/default/index'
p1190
asbasbasbag68
(g84
g70
NtRp1191
(dp1192
g73
(dp1193
sg82
g833
sg75
(lp1194
g68
(g89
g70
NtRp1195
(dp1196
g73
(dp1197
g93
g94
ssg82
g1191
sg75
(lp1198
S'http_user_agent'
p1199
asbag68
(g89
g70
NtRp1200
(dp1201
g73
(dp1202
g100
g101
ssg82
g1191
sg75
(lp1203
S':'
asbag68
(g89
g70
NtRp1204
(dp1205
g73
(dp1206
sg82
g1191
sg75
(lp1207
g68
(g69
g70
NtRp1208
(dp1209
g73
(dp1210
g81
I4
ssg82
g1204
sg75
(lp1211
S'Mozilla/5.0 (Ubuntu; X11; Linux x86_64; rv:9.0.1) Gecko/20100101 Firefox/9.0.1'
p1212
asbasbasbag68
(g84
g70
NtRp1213
(dp1214
g73
(dp1215
sg82
g833
sg75
(lp1216
g68
(g89
g70
NtRp1217
(dp1218
g73
(dp1219
g93
g94
ssg82
g1213
sg75
(lp1220
S'is_jython'
p1221
asbag68
(g89
g70
NtRp1222
(dp1223
g73
(dp1224
g100
g101
ssg82
g1213
sg75
(lp1225
S':'
asbag68
(g89
g70
NtRp1226
(dp1227
g73
(dp1228
sg82
g1213
sg75
(lp1229
g68
(g69
g70
NtRp1230
(dp1231
g73
(dp1232
g81
I4
ssg82
g1226
sg75
(lp1233
g111
asbasbasbag68
(g84
g70
NtRp1234
(dp1235
g73
(dp1236
sg82
g833
sg75
(lp1237
g68
(g89
g70
NtRp1238
(dp1239
g73
(dp1240
g93
g94
ssg82
g1234
sg75
(lp1241
S'path_info'
p1242
asbag68
(g89
g70
NtRp1243
(dp1244
g73
(dp1245
g100
g101
ssg82
g1234
sg75
(lp1246
S':'
asbag68
(g89
g70
NtRp1247
(dp1248
g73
(dp1249
sg82
g1234
sg75
(lp1250
g68
(g69
g70
NtRp1251
(dp1252
g73
(dp1253
g81
I4
ssg82
g1247
sg75
(lp1254
S'/synopsis/information/index'
p1255
asbasbasbag68
(g84
g70
NtRp1256
(dp1257
g73
(dp1258
sg82
g833
sg75
(lp1259
g68
(g89
g70
NtRp1260
(dp1261
g73
(dp1262
g93
g94
ssg82
g1256
sg75
(lp1263
S'query_string'
p1264
asbag68
(g89
g70
NtRp1265
(dp1266
g73
(dp1267
g100
g101
ssg82
g1256
sg75
(lp1268
S':'
asbag68
(g89
g70
NtRp1269
(dp1270
g73
(dp1271
sg82
g1256
sg75
(lp1272
g68
(g69
g70
NtRp1273
(dp1274
g73
(dp1275
g81
I4
ssg82
g1269
sg75
(lp1276
S''
asbasbasbag68
(g84
g70
NtRp1277
(dp1278
g73
(dp1279
sg82
g833
sg75
(lp1280
g68
(g89
g70
NtRp1281
(dp1282
g73
(dp1283
g93
g94
ssg82
g1277
sg75
(lp1284
S'remote_addr'
p1285
asbag68
(g89
g70
NtRp1286
(dp1287
g73
(dp1288
g100
g101
ssg82
g1277
sg75
(lp1289
S':'
asbag68
(g89
g70
NtRp1290
(dp1291
g73
(dp1292
sg82
g1277
sg75
(lp1293
g68
(g69
g70
NtRp1294
(dp1295
g73
(dp1296
g81
I4
ssg82
g1290
sg75
(lp1297
g201
asbasbasbag68
(g84
g70
NtRp1298
(dp1299
g73
(dp1300
sg82
g833
sg75
(lp1301
g68
(g89
g70
NtRp1302
(dp1303
g73
(dp1304
g93
g94
ssg82
g1298
sg75
(lp1305
S'remote_port'
p1306
asbag68
(g89
g70
NtRp1307
(dp1308
g73
(dp1309
g100
g101
ssg82
g1298
sg75
(lp1310
S':'
asbag68
(g89
g70
NtRp1311
(dp1312
g73
(dp1313
sg82
g1298
sg75
(lp1314
g68
(g69
g70
NtRp1315
(dp1316
g73
(dp1317
g81
I4
ssg82
g1311
sg75
(lp1318
S'42351'
p1319
asbasbasbag68
(g84
g70
NtRp1320
(dp1321
g73
(dp1322
sg82
g833
sg75
(lp1323
g68
(g89
g70
NtRp1324
(dp1325
g73
(dp1326
g93
g94
ssg82
g1320
sg75
(lp1327
S'request_method'
p1328
asbag68
(g89
g70
NtRp1329
(dp1330
g73
(dp1331
g100
g101
ssg82
g1320
sg75
(lp1332
S':'
asbag68
(g89
g70
NtRp1333
(dp1334
g73
(dp1335
sg82
g1320
sg75
(lp1336
g68
(g69
g70
NtRp1337
(dp1338
g73
(dp1339
g81
I4
ssg82
g1333
sg75
(lp1340
S'GET'
p1341
asbasbasbag68
(g84
g70
NtRp1342
(dp1343
g73
(dp1344
sg82
g833
sg75
(lp1345
g68
(g89
g70
NtRp1346
(dp1347
g73
(dp1348
g93
g94
ssg82
g1342
sg75
(lp1349
S'script_name'
p1350
asbag68
(g89
g70
NtRp1351
(dp1352
g73
(dp1353
g100
g101
ssg82
g1342
sg75
(lp1354
S':'
asbag68
(g89
g70
NtRp1355
(dp1356
g73
(dp1357
sg82
g1342
sg75
(lp1358
g68
(g69
g70
NtRp1359
(dp1360
g73
(dp1361
g81
I4
ssg82
g1355
sg75
(lp1362
S''
asbasbasbag68
(g84
g70
NtRp1363
(dp1364
g73
(dp1365
sg82
g833
sg75
(lp1366
g68
(g89
g70
NtRp1367
(dp1368
g73
(dp1369
g93
g94
ssg82
g1363
sg75
(lp1370
S'server_name'
p1371
asbag68
(g89
g70
NtRp1372
(dp1373
g73
(dp1374
g100
g101
ssg82
g1363
sg75
(lp1375
S':'
asbag68
(g89
g70
NtRp1376
(dp1377
g73
(dp1378
sg82
g1363
sg75
(lp1379
g68
(g69
g70
NtRp1380
(dp1381
g73
(dp1382
g81
I4
ssg82
g1376
sg75
(lp1383
S'kaique-Pine-Trail-M'
p1384
asbasbasbag68
(g84
g70
NtRp1385
(dp1386
g73
(dp1387
sg82
g833
sg75
(lp1388
g68
(g89
g70
NtRp1389
(dp1390
g73
(dp1391
g93
g94
ssg82
g1385
sg75
(lp1392
S'server_port'
p1393
asbag68
(g89
g70
NtRp1394
(dp1395
g73
(dp1396
g100
g101
ssg82
g1385
sg75
(lp1397
S':'
asbag68
(g89
g70
NtRp1398
(dp1399
g73
(dp1400
sg82
g1385
sg75
(lp1401
g68
(g69
g70
NtRp1402
(dp1403
g73
(dp1404
g81
I4
ssg82
g1398
sg75
(lp1405
S'8000'
p1406
asbasbasbag68
(g84
g70
NtRp1407
(dp1408
g73
(dp1409
sg82
g833
sg75
(lp1410
g68
(g89
g70
NtRp1411
(dp1412
g73
(dp1413
g93
g94
ssg82
g1407
sg75
(lp1414
S'server_protocol'
p1415
asbag68
(g89
g70
NtRp1416
(dp1417
g73
(dp1418
g100
g101
ssg82
g1407
sg75
(lp1419
S':'
asbag68
(g89
g70
NtRp1420
(dp1421
g73
(dp1422
sg82
g1407
sg75
(lp1423
g68
(g69
g70
NtRp1424
(dp1425
g73
(dp1426
g81
I4
ssg82
g1420
sg75
(lp1427
S'HTTP/1.1'
p1428
asbasbasbag68
(g84
g70
NtRp1429
(dp1430
g73
(dp1431
sg82
g833
sg75
(lp1432
g68
(g89
g70
NtRp1433
(dp1434
g73
(dp1435
g93
g94
ssg82
g1429
sg75
(lp1436
S'server_software'
p1437
asbag68
(g89
g70
NtRp1438
(dp1439
g73
(dp1440
g100
g101
ssg82
g1429
sg75
(lp1441
S':'
asbag68
(g89
g70
NtRp1442
(dp1443
g73
(dp1444
sg82
g1429
sg75
(lp1445
g68
(g69
g70
NtRp1446
(dp1447
g73
(dp1448
g81
I4
ssg82
g1442
sg75
(lp1449
S'Rocket 1.2.4'
p1450
asbasbasbag68
(g84
g70
NtRp1451
(dp1452
g73
(dp1453
sg82
g833
sg75
(lp1454
g68
(g89
g70
NtRp1455
(dp1456
g73
(dp1457
g93
g94
ssg82
g1451
sg75
(lp1458
S'web2py_crontype'
p1459
asbag68
(g89
g70
NtRp1460
(dp1461
g73
(dp1462
g100
g101
ssg82
g1451
sg75
(lp1463
S':'
asbag68
(g89
g70
NtRp1464
(dp1465
g73
(dp1466
sg82
g1451
sg75
(lp1467
g68
(g69
g70
NtRp1468
(dp1469
g73
(dp1470
g81
I4
ssg82
g1464
sg75
(lp1471
S'hard'
p1472
asbasbasbag68
(g84
g70
NtRp1473
(dp1474
g73
(dp1475
sg82
g833
sg75
(lp1476
g68
(g89
g70
NtRp1477
(dp1478
g73
(dp1479
g93
g94
ssg82
g1473
sg75
(lp1480
S'web2py_path'
p1481
asbag68
(g89
g70
NtRp1482
(dp1483
g73
(dp1484
g100
g101
ssg82
g1473
sg75
(lp1485
S':'
asbag68
(g89
g70
NtRp1486
(dp1487
g73
(dp1488
sg82
g1473
sg75
(lp1489
g68
(g69
g70
NtRp1490
(dp1491
g73
(dp1492
g81
I4
ssg82
g1486
sg75
(lp1493
g880
asbasbasbag68
(g84
g70
NtRp1494
(dp1495
g73
(dp1496
sg82
g833
sg75
(lp1497
g68
(g89
g70
NtRp1498
(dp1499
g73
(dp1500
g93
g94
ssg82
g1494
sg75
(lp1501
S'web2py_version'
p1502
asbag68
(g89
g70
NtRp1503
(dp1504
g73
(dp1505
g100
g101
ssg82
g1494
sg75
(lp1506
S':'
asbag68
(g89
g70
NtRp1507
(dp1508
g73
(dp1509
sg82
g1494
sg75
(lp1510
g68
(g69
g70
NtRp1511
(dp1512
g73
(dp1513
g81
I4
ssg82
g1507
sg75
(lp1514
g68
(g77
g70
NtRp1515
(dp1516
g73
(dp1517
g81
I3
ssg82
Nsg75
(lp1518
g68
(g84
g70
NtRp1519
(dp1520
g73
(dp1521
sg82
g1515
sg75
(lp1522
g68
(g89
g70
NtRp1523
(dp1524
g73
(dp1525
sg82
g1519
sg75
(lp1526
g68
(g69
g70
NtRp1527
(dp1528
g73
(dp1529
g81
I3
ssg82
g1523
sg75
(lp1530
S'1'
asbasbasbag68
(g84
g70
NtRp1531
(dp1532
g73
(dp1533
sg82
g1515
sg75
(lp1534
g68
(g89
g70
NtRp1535
(dp1536
g73
(dp1537
sg82
g1531
sg75
(lp1538
g68
(g69
g70
NtRp1539
(dp1540
g73
(dp1541
g81
I3
ssg82
g1535
sg75
(lp1542
S'99'
p1543
asbasbasbag68
(g84
g70
NtRp1544
(dp1545
g73
(dp1546
sg82
g1515
sg75
(lp1547
g68
(g89
g70
NtRp1548
(dp1549
g73
(dp1550
sg82
g1544
sg75
(lp1551
g68
(g69
g70
NtRp1552
(dp1553
g73
(dp1554
g81
I3
ssg82
g1548
sg75
(lp1555
S'2'
asbasbasbag68
(g84
g70
NtRp1556
(dp1557
g73
(dp1558
sg82
g1515
sg75
(lp1559
g68
(g89
g70
NtRp1560
(dp1561
g73
(dp1562
sg82
g1556
sg75
(lp1563
g68
(g69
g70
NtRp1564
(dp1565
g73
(dp1566
g81
I3
ssg82
g1560
sg75
(lp1567
S'datetime.datetime(2011, 9, 26, 6, 55, 33)'
p1568
asbasbasbag68
(g84
g70
NtRp1569
(dp1570
g73
(dp1571
sg82
g1515
sg75
(lp1572
g68
(g89
g70
NtRp1573
(dp1574
g73
(dp1575
sg82
g1569
sg75
(lp1576
g68
(g69
g70
NtRp1577
(dp1578
g73
(dp1579
g81
I3
ssg82
g1573
sg75
(lp1580
S'stable'
p1581
asbasbasbasbasbasbasbag68
(g84
g70
NtRp1582
(dp1583
g73
(dp1584
sg82
g833
sg75
(lp1585
g68
(g89
g70
NtRp1586
(dp1587
g73
(dp1588
g93
g94
ssg82
g1582
sg75
(lp1589
S'wsgi_errors'
p1590
asbag68
(g89
g70
NtRp1591
(dp1592
g73
(dp1593
g100
g101
ssg82
g1582
sg75
(lp1594
S':'
asbag68
(g89
g70
NtRp1595
(dp1596
g73
(dp1597
sg82
g1582
sg75
(lp1598
g68
(g69
g70
NtRp1599
(dp1600
g73
(dp1601
g81
I4
ssg82
g1595
sg75
(lp1602
S"<open file '<stderr>', mode 'w' at 0x7f1864587270>"
p1603
asbasbasbag68
(g84
g70
NtRp1604
(dp1605
g73
(dp1606
sg82
g833
sg75
(lp1607
g68
(g89
g70
NtRp1608
(dp1609
g73
(dp1610
g93
g94
ssg82
g1604
sg75
(lp1611
S'wsgi_file_wrapper'
p1612
asbag68
(g89
g70
NtRp1613
(dp1614
g73
(dp1615
g100
g101
ssg82
g1604
sg75
(lp1616
S':'
asbag68
(g89
g70
NtRp1617
(dp1618
g73
(dp1619
sg82
g1604
sg75
(lp1620
g68
(g69
g70
NtRp1621
(dp1622
g73
(dp1623
g81
I4
ssg82
g1617
sg75
(lp1624
S'<class wsgiref.util.FileWrapper at 0x246def0>'
p1625
asbasbasbag68
(g84
g70
NtRp1626
(dp1627
g73
(dp1628
sg82
g833
sg75
(lp1629
g68
(g89
g70
NtRp1630
(dp1631
g73
(dp1632
g93
g94
ssg82
g1626
sg75
(lp1633
S'wsgi_input'
p1634
asbag68
(g89
g70
NtRp1635
(dp1636
g73
(dp1637
g100
g101
ssg82
g1626
sg75
(lp1638
S':'
asbag68
(g89
g70
NtRp1639
(dp1640
g73
(dp1641
sg82
g1626
sg75
(lp1642
g68
(g69
g70
NtRp1643
(dp1644
g73
(dp1645
g81
I4
ssg82
g1639
sg75
(lp1646
S'<socket._fileobject object at 0x3bda650>'
p1647
asbasbasbag68
(g84
g70
NtRp1648
(dp1649
g73
(dp1650
sg82
g833
sg75
(lp1651
g68
(g89
g70
NtRp1652
(dp1653
g73
(dp1654
g93
g94
ssg82
g1648
sg75
(lp1655
S'wsgi_multiprocess'
p1656
asbag68
(g89
g70
NtRp1657
(dp1658
g73
(dp1659
g100
g101
ssg82
g1648
sg75
(lp1660
S':'
asbag68
(g89
g70
NtRp1661
(dp1662
g73
(dp1663
sg82
g1648
sg75
(lp1664
g68
(g69
g70
NtRp1665
(dp1666
g73
(dp1667
g81
I4
ssg82
g1661
sg75
(lp1668
g111
asbasbasbag68
(g84
g70
NtRp1669
(dp1670
g73
(dp1671
sg82
g833
sg75
(lp1672
g68
(g89
g70
NtRp1673
(dp1674
g73
(dp1675
g93
g94
ssg82
g1669
sg75
(lp1676
S'wsgi_multithread'
p1677
asbag68
(g89
g70
NtRp1678
(dp1679
g73
(dp1680
g100
g101
ssg82
g1669
sg75
(lp1681
S':'
asbag68
(g89
g70
NtRp1682
(dp1683
g73
(dp1684
sg82
g1669
sg75
(lp1685
g68
(g69
g70
NtRp1686
(dp1687
g73
(dp1688
g81
I4
ssg82
g1682
sg75
(lp1689
S'True'
p1690
asbasbasbag68
(g84
g70
NtRp1691
(dp1692
g73
(dp1693
sg82
g833
sg75
(lp1694
g68
(g89
g70
NtRp1695
(dp1696
g73
(dp1697
g93
g94
ssg82
g1691
sg75
(lp1698
S'wsgi_run_once'
p1699
asbag68
(g89
g70
NtRp1700
(dp1701
g73
(dp1702
g100
g101
ssg82
g1691
sg75
(lp1703
S':'
asbag68
(g89
g70
NtRp1704
(dp1705
g73
(dp1706
sg82
g1691
sg75
(lp1707
g68
(g69
g70
NtRp1708
(dp1709
g73
(dp1710
g81
I4
ssg82
g1704
sg75
(lp1711
g111
asbasbasbag68
(g84
g70
NtRp1712
(dp1713
g73
(dp1714
sg82
g833
sg75
(lp1715
g68
(g89
g70
NtRp1716
(dp1717
g73
(dp1718
g93
g94
ssg82
g1712
sg75
(lp1719
S'wsgi_url_scheme'
p1720
asbag68
(g89
g70
NtRp1721
(dp1722
g73
(dp1723
g100
g101
ssg82
g1712
sg75
(lp1724
S':'
asbag68
(g89
g70
NtRp1725
(dp1726
g73
(dp1727
sg82
g1712
sg75
(lp1728
g68
(g69
g70
NtRp1729
(dp1730
g73
(dp1731
g81
I4
ssg82
g1725
sg75
(lp1732
S'http'
p1733
asbasbasbag68
(g84
g70
NtRp1734
(dp1735
g73
(dp1736
sg82
g833
sg75
(lp1737
g68
(g89
g70
NtRp1738
(dp1739
g73
(dp1740
g93
g94
ssg82
g1734
sg75
(lp1741
S'wsgi_version'
p1742
asbag68
(g89
g70
NtRp1743
(dp1744
g73
(dp1745
g100
g101
ssg82
g1734
sg75
(lp1746
S':'
asbag68
(g89
g70
NtRp1747
(dp1748
g73
(dp1749
sg82
g1734
sg75
(lp1750
g68
(g69
g70
NtRp1751
(dp1752
g73
(dp1753
g81
I4
ssg82
g1747
sg75
(lp1754
g68
(g77
g70
NtRp1755
(dp1756
g73
(dp1757
g81
I3
ssg82
Nsg75
(lp1758
g68
(g84
g70
NtRp1759
(dp1760
g73
(dp1761
sg82
g1755
sg75
(lp1762
g68
(g89
g70
NtRp1763
(dp1764
g73
(dp1765
sg82
g1759
sg75
(lp1766
g68
(g69
g70
NtRp1767
(dp1768
g73
(dp1769
g81
I3
ssg82
g1763
sg75
(lp1770
S'1'
asbasbasbag68
(g84
g70
NtRp1771
(dp1772
g73
(dp1773
sg82
g1755
sg75
(lp1774
g68
(g89
g70
NtRp1775
(dp1776
g73
(dp1777
sg82
g1771
sg75
(lp1778
g68
(g69
g70
NtRp1779
(dp1780
g73
(dp1781
g81
I3
ssg82
g1775
sg75
(lp1782
S'0'
asbasbasbasbasbasbasbasbasbasbasbag68
(g84
g70
NtRp1783
(dp1784
g73
(dp1785
sg82
g78
sg75
(lp1786
g68
(g89
g70
NtRp1787
(dp1788
g73
(dp1789
g93
g94
ssg82
g1783
sg75
(lp1790
S'extension'
p1791
asbag68
(g89
g70
NtRp1792
(dp1793
g73
(dp1794
g100
g101
ssg82
g1783
sg75
(lp1795
S':'
asbag68
(g89
g70
NtRp1796
(dp1797
g73
(dp1798
sg82
g1783
sg75
(lp1799
g68
(g69
g70
NtRp1800
(dp1801
g73
(dp1802
g81
I5
ssg82
g1796
sg75
(lp1803
S'html'
p1804
asbasbasbag68
(g84
g70
NtRp1805
(dp1806
g73
(dp1807
sg82
g78
sg75
(lp1808
g68
(g89
g70
NtRp1809
(dp1810
g73
(dp1811
g93
g94
ssg82
g1805
sg75
(lp1812
S'folder'
p1813
asbag68
(g89
g70
NtRp1814
(dp1815
g73
(dp1816
g100
g101
ssg82
g1805
sg75
(lp1817
S':'
asbag68
(g89
g70
NtRp1818
(dp1819
g73
(dp1820
sg82
g1805
sg75
(lp1821
g68
(g69
g70
NtRp1822
(dp1823
g73
(dp1824
g81
I5
ssg82
g1818
sg75
(lp1825
S'/home/kaique/Projects/web2py/applications/synopsis/'
p1826
asbasbasbag68
(g84
g70
NtRp1827
(dp1828
g73
(dp1829
sg82
g78
sg75
(lp1830
g68
(g89
g70
NtRp1831
(dp1832
g73
(dp1833
g93
g94
ssg82
g1827
sg75
(lp1834
S'function'
p1835
asbag68
(g89
g70
NtRp1836
(dp1837
g73
(dp1838
g100
g101
ssg82
g1827
sg75
(lp1839
S':'
asbag68
(g89
g70
NtRp1840
(dp1841
g73
(dp1842
sg82
g1827
sg75
(lp1843
g68
(g69
g70
NtRp1844
(dp1845
g73
(dp1846
g81
I5
ssg82
g1840
sg75
(lp1847
S'index'
p1848
asbasbasbag68
(g84
g70
NtRp1849
(dp1850
g73
(dp1851
sg82
g78
sg75
(lp1852
g68
(g89
g70
NtRp1853
(dp1854
g73
(dp1855
g93
g94
ssg82
g1849
sg75
(lp1856
S'get_vars'
p1857
asbag68
(g89
g70
NtRp1858
(dp1859
g73
(dp1860
g100
g101
ssg82
g1849
sg75
(lp1861
S':'
asbag68
(g89
g70
NtRp1862
(dp1863
g73
(dp1864
sg82
g1849
sg75
(lp1865
g68
(g69
g70
NtRp1866
(dp1867
g73
(dp1868
g81
I5
ssg82
g1862
sg75
(lp1869
g68
(g77
g70
NtRp1870
(dp1871
g73
(dp1872
g81
I4
ssg82
Nsg75
(lp1873
sbasbasbasbag68
(g84
g70
NtRp1874
(dp1875
g73
(dp1876
sg82
g78
sg75
(lp1877
g68
(g89
g70
NtRp1878
(dp1879
g73
(dp1880
g93
g94
ssg82
g1874
sg75
(lp1881
S'global_settings'
p1882
asbag68
(g89
g70
NtRp1883
(dp1884
g73
(dp1885
g100
g101
ssg82
g1874
sg75
(lp1886
S':'
asbag68
(g89
g70
NtRp1887
(dp1888
g73
(dp1889
sg82
g1874
sg75
(lp1890
g68
(g69
g70
NtRp1891
(dp1892
g73
(dp1893
g81
I5
ssg82
g1887
sg75
(lp1894
g68
(g77
g70
NtRp1895
(dp1896
g73
(dp1897
g81
I4
ssg82
Nsg75
(lp1898
g68
(g84
g70
NtRp1899
(dp1900
g73
(dp1901
sg82
g1895
sg75
(lp1902
g68
(g89
g70
NtRp1903
(dp1904
g73
(dp1905
g93
g94
ssg82
g1899
sg75
(lp1906
g845
asbag68
(g89
g70
NtRp1907
(dp1908
g73
(dp1909
g100
g101
ssg82
g1899
sg75
(lp1910
S':'
asbag68
(g89
g70
NtRp1911
(dp1912
g73
(dp1913
sg82
g1899
sg75
(lp1914
g68
(g69
g70
NtRp1915
(dp1916
g73
(dp1917
g81
I4
ssg82
g1911
sg75
(lp1918
S"set(['/home/kaique/Projects/web2py/applications/synopsis/', '/home/kaique/Projects/web2py/applications/admin/'])"
p1919
asbasbasbag68
(g84
g70
NtRp1920
(dp1921
g73
(dp1922
sg82
g1895
sg75
(lp1923
g68
(g89
g70
NtRp1924
(dp1925
g73
(dp1926
g93
g94
ssg82
g1920
sg75
(lp1927
g867
asbag68
(g89
g70
NtRp1928
(dp1929
g73
(dp1930
g100
g101
ssg82
g1920
sg75
(lp1931
S':'
asbag68
(g89
g70
NtRp1932
(dp1933
g73
(dp1934
sg82
g1920
sg75
(lp1935
g68
(g69
g70
NtRp1936
(dp1937
g73
(dp1938
g81
I4
ssg82
g1932
sg75
(lp1939
g880
asbasbasbag68
(g84
g70
NtRp1940
(dp1941
g73
(dp1942
sg82
g1895
sg75
(lp1943
g68
(g89
g70
NtRp1944
(dp1945
g73
(dp1946
g93
g94
ssg82
g1940
sg75
(lp1947
g889
asbag68
(g89
g70
NtRp1948
(dp1949
g73
(dp1950
g100
g101
ssg82
g1940
sg75
(lp1951
S':'
asbag68
(g89
g70
NtRp1952
(dp1953
g73
(dp1954
sg82
g1940
sg75
(lp1955
g68
(g69
g70
NtRp1956
(dp1957
g73
(dp1958
g81
I4
ssg82
g1952
sg75
(lp1959
g68
(g77
g70
NtRp1960
(dp1961
g73
(dp1962
g81
I3
ssg82
Nsg75
(lp1963
sbasbasbasbag68
(g84
g70
NtRp1964
(dp1965
g73
(dp1966
sg82
g1895
sg75
(lp1967
g68
(g89
g70
NtRp1968
(dp1969
g73
(dp1970
g93
g94
ssg82
g1964
sg75
(lp1971
g914
asbag68
(g89
g70
NtRp1972
(dp1973
g73
(dp1974
g100
g101
ssg82
g1964
sg75
(lp1975
S':'
asbag68
(g89
g70
NtRp1976
(dp1977
g73
(dp1978
sg82
g1964
sg75
(lp1979
g68
(g69
g70
NtRp1980
(dp1981
g73
(dp1982
g81
I4
ssg82
g1976
sg75
(lp1983
S"<Values at 0x25b6998: {'verbose': False, 'ip': '127.0.0.1', 'shutdown_timeout': 5, 'taskbar': False, 'nocron': False, 'pid_filename': 'httpserver.pid', 'maxthreads': None, 'softcron': False, 'server_name': 'kaique-Pine-Trail-M', 'bpython': False, 'nogui': False, 'port': 8000, 'extcron': False, 'debuglevel': 30, 'test': None, 'folder': '/home/kaique/Projects/web2py', 'config': '', 'import_models': False, 'winservice': '', 'shell': None, 'run': '', 'log_filename': 'httpserver.log', 'args': [''], 'ssl_ca_certificate': None, 'scheduler': None, 'profiler_filename': None, 'ssl_private_key': '', 'password': 'dev', 'request_queue_size': 5, 'ssl_certificate': '', 'cronjob': False, 'plain': False, 'quiet': False, 'interfaces': None, 'minthreads': None, 'timeout': 10, 'numthreads': None, 'nobanner': False}>"
p1984
asbasbasbag68
(g84
g70
NtRp1985
(dp1986
g73
(dp1987
sg82
g1895
sg75
(lp1988
g68
(g89
g70
NtRp1989
(dp1990
g73
(dp1991
g93
g94
ssg82
g1985
sg75
(lp1992
g936
asbag68
(g89
g70
NtRp1993
(dp1994
g73
(dp1995
g100
g101
ssg82
g1985
sg75
(lp1996
S':'
asbag68
(g89
g70
NtRp1997
(dp1998
g73
(dp1999
sg82
g1985
sg75
(lp2000
g68
(g69
g70
NtRp2001
(dp2002
g73
(dp2003
g81
I4
ssg82
g1997
sg75
(lp2004
S'set([])'
p2005
asbasbasbag68
(g84
g70
NtRp2006
(dp2007
g73
(dp2008
sg82
g1895
sg75
(lp2009
g68
(g89
g70
NtRp2010
(dp2011
g73
(dp2012
g93
g94
ssg82
g2006
sg75
(lp2013
g958
asbag68
(g89
g70
NtRp2014
(dp2015
g73
(dp2016
g100
g101
ssg82
g2006
sg75
(lp2017
S':'
asbag68
(g89
g70
NtRp2018
(dp2019
g73
(dp2020
sg82
g2006
sg75
(lp2021
g68
(g69
g70
NtRp2022
(dp2023
g73
(dp2024
g81
I4
ssg82
g2018
sg75
(lp2025
g111
asbasbasbag68
(g84
g70
NtRp2026
(dp2027
g73
(dp2028
sg82
g1895
sg75
(lp2029
g68
(g89
g70
NtRp2030
(dp2031
g73
(dp2032
g93
g94
ssg82
g2026
sg75
(lp2033
g979
asbag68
(g89
g70
NtRp2034
(dp2035
g73
(dp2036
g100
g101
ssg82
g2026
sg75
(lp2037
S':'
asbag68
(g89
g70
NtRp2038
(dp2039
g73
(dp2040
sg82
g2026
sg75
(lp2041
g68
(g69
g70
NtRp2042
(dp2043
g73
(dp2044
g81
I4
ssg82
g2038
sg75
(lp2045
g992
asbasbasbag68
(g84
g70
NtRp2046
(dp2047
g73
(dp2048
sg82
g1895
sg75
(lp2049
g68
(g89
g70
NtRp2050
(dp2051
g73
(dp2052
g93
g94
ssg82
g2046
sg75
(lp2053
g1221
asbag68
(g89
g70
NtRp2054
(dp2055
g73
(dp2056
g100
g101
ssg82
g2046
sg75
(lp2057
S':'
asbag68
(g89
g70
NtRp2058
(dp2059
g73
(dp2060
sg82
g2046
sg75
(lp2061
g68
(g69
g70
NtRp2062
(dp2063
g73
(dp2064
g81
I4
ssg82
g2058
sg75
(lp2065
g111
asbasbasbag68
(g84
g70
NtRp2066
(dp2067
g73
(dp2068
sg82
g1895
sg75
(lp2069
g68
(g89
g70
NtRp2070
(dp2071
g73
(dp2072
g93
g94
ssg82
g2066
sg75
(lp2073
g1459
asbag68
(g89
g70
NtRp2074
(dp2075
g73
(dp2076
g100
g101
ssg82
g2066
sg75
(lp2077
S':'
asbag68
(g89
g70
NtRp2078
(dp2079
g73
(dp2080
sg82
g2066
sg75
(lp2081
g68
(g69
g70
NtRp2082
(dp2083
g73
(dp2084
g81
I4
ssg82
g2078
sg75
(lp2085
g1472
asbasbasbag68
(g84
g70
NtRp2086
(dp2087
g73
(dp2088
sg82
g1895
sg75
(lp2089
g68
(g89
g70
NtRp2090
(dp2091
g73
(dp2092
g93
g94
ssg82
g2086
sg75
(lp2093
g1502
asbag68
(g89
g70
NtRp2094
(dp2095
g73
(dp2096
g100
g101
ssg82
g2086
sg75
(lp2097
S':'
asbag68
(g89
g70
NtRp2098
(dp2099
g73
(dp2100
sg82
g2086
sg75
(lp2101
g68
(g69
g70
NtRp2102
(dp2103
g73
(dp2104
g81
I4
ssg82
g2098
sg75
(lp2105
g68
(g77
g70
NtRp2106
(dp2107
g73
(dp2108
g81
I3
ssg82
Nsg75
(lp2109
g68
(g84
g70
NtRp2110
(dp2111
g73
(dp2112
sg82
g2106
sg75
(lp2113
g68
(g89
g70
NtRp2114
(dp2115
g73
(dp2116
sg82
g2110
sg75
(lp2117
g68
(g69
g70
NtRp2118
(dp2119
g73
(dp2120
g81
I3
ssg82
g2114
sg75
(lp2121
S'1'
asbasbasbag68
(g84
g70
NtRp2122
(dp2123
g73
(dp2124
sg82
g2106
sg75
(lp2125
g68
(g89
g70
NtRp2126
(dp2127
g73
(dp2128
sg82
g2122
sg75
(lp2129
g68
(g69
g70
NtRp2130
(dp2131
g73
(dp2132
g81
I3
ssg82
g2126
sg75
(lp2133
S'99'
p2134
asbasbasbag68
(g84
g70
NtRp2135
(dp2136
g73
(dp2137
sg82
g2106
sg75
(lp2138
g68
(g89
g70
NtRp2139
(dp2140
g73
(dp2141
sg82
g2135
sg75
(lp2142
g68
(g69
g70
NtRp2143
(dp2144
g73
(dp2145
g81
I3
ssg82
g2139
sg75
(lp2146
S'2'
asbasbasbag68
(g84
g70
NtRp2147
(dp2148
g73
(dp2149
sg82
g2106
sg75
(lp2150
g68
(g89
g70
NtRp2151
(dp2152
g73
(dp2153
sg82
g2147
sg75
(lp2154
g68
(g69
g70
NtRp2155
(dp2156
g73
(dp2157
g81
I3
ssg82
g2151
sg75
(lp2158
S'datetime.datetime(2011, 9, 26, 6, 55, 33)'
p2159
asbasbasbag68
(g84
g70
NtRp2160
(dp2161
g73
(dp2162
sg82
g2106
sg75
(lp2163
g68
(g89
g70
NtRp2164
(dp2165
g73
(dp2166
sg82
g2160
sg75
(lp2167
g68
(g69
g70
NtRp2168
(dp2169
g73
(dp2170
g81
I3
ssg82
g2164
sg75
(lp2171
g1581
asbasbasbasbasbasbasbasbasbasbasbag68
(g84
g70
NtRp2172
(dp2173
g73
(dp2174
sg82
g78
sg75
(lp2175
g68
(g89
g70
NtRp2176
(dp2177
g73
(dp2178
g93
g94
ssg82
g2172
sg75
(lp2179
S'is_https'
p2180
asbag68
(g89
g70
NtRp2181
(dp2182
g73
(dp2183
g100
g101
ssg82
g2172
sg75
(lp2184
S':'
asbag68
(g89
g70
NtRp2185
(dp2186
g73
(dp2187
sg82
g2172
sg75
(lp2188
g68
(g69
g70
NtRp2189
(dp2190
g73
(dp2191
g81
I5
ssg82
g2185
sg75
(lp2192
g111
asbasbasbag68
(g84
g70
NtRp2193
(dp2194
g73
(dp2195
sg82
g78
sg75
(lp2196
g68
(g89
g70
NtRp2197
(dp2198
g73
(dp2199
g93
g94
ssg82
g2193
sg75
(lp2200
S'is_local'
p2201
asbag68
(g89
g70
NtRp2202
(dp2203
g73
(dp2204
g100
g101
ssg82
g2193
sg75
(lp2205
S':'
asbag68
(g89
g70
NtRp2206
(dp2207
g73
(dp2208
sg82
g2193
sg75
(lp2209
g68
(g69
g70
NtRp2210
(dp2211
g73
(dp2212
g81
I5
ssg82
g2206
sg75
(lp2213
g1690
asbasbasbag68
(g84
g70
NtRp2214
(dp2215
g73
(dp2216
sg82
g78
sg75
(lp2217
g68
(g89
g70
NtRp2218
(dp2219
g73
(dp2220
g93
g94
ssg82
g2214
sg75
(lp2221
S'is_restful'
p2222
asbag68
(g89
g70
NtRp2223
(dp2224
g73
(dp2225
g100
g101
ssg82
g2214
sg75
(lp2226
S':'
asbag68
(g89
g70
NtRp2227
(dp2228
g73
(dp2229
sg82
g2214
sg75
(lp2230
g68
(g69
g70
NtRp2231
(dp2232
g73
(dp2233
g81
I5
ssg82
g2227
sg75
(lp2234
g111
asbasbasbag68
(g84
g70
NtRp2235
(dp2236
g73
(dp2237
sg82
g78
sg75
(lp2238
g68
(g89
g70
NtRp2239
(dp2240
g73
(dp2241
g93
g94
ssg82
g2235
sg75
(lp2242
S'now'
p2243
asbag68
(g89
g70
NtRp2244
(dp2245
g73
(dp2246
g100
g101
ssg82
g2235
sg75
(lp2247
S':'
asbag68
(g89
g70
NtRp2248
(dp2249
g73
(dp2250
sg82
g2235
sg75
(lp2251
g68
(g69
g70
NtRp2252
(dp2253
g73
(dp2254
g81
I5
ssg82
g2248
sg75
(lp2255
S'datetime.datetime(2012, 1, 17, 9, 48, 37, 825656)'
p2256
asbasbasbag68
(g84
g70
NtRp2257
(dp2258
g73
(dp2259
sg82
g78
sg75
(lp2260
g68
(g89
g70
NtRp2261
(dp2262
g73
(dp2263
g93
g94
ssg82
g2257
sg75
(lp2264
S'post_vars'
p2265
asbag68
(g89
g70
NtRp2266
(dp2267
g73
(dp2268
g100
g101
ssg82
g2257
sg75
(lp2269
S':'
asbag68
(g89
g70
NtRp2270
(dp2271
g73
(dp2272
sg82
g2257
sg75
(lp2273
g68
(g69
g70
NtRp2274
(dp2275
g73
(dp2276
g81
I5
ssg82
g2270
sg75
(lp2277
g68
(g77
g70
NtRp2278
(dp2279
g73
(dp2280
g81
I4
ssg82
Nsg75
(lp2281
sbasbasbasbag68
(g84
g70
NtRp2282
(dp2283
g73
(dp2284
sg82
g78
sg75
(lp2285
g68
(g89
g70
NtRp2286
(dp2287
g73
(dp2288
g93
g94
ssg82
g2282
sg75
(lp2289
S'url'
p2290
asbag68
(g89
g70
NtRp2291
(dp2292
g73
(dp2293
g100
g101
ssg82
g2282
sg75
(lp2294
S':'
asbag68
(g89
g70
NtRp2295
(dp2296
g73
(dp2297
sg82
g2282
sg75
(lp2298
g68
(g69
g70
NtRp2299
(dp2300
g73
(dp2301
g81
I5
ssg82
g2295
sg75
(lp2302
S'/synopsis/information/index'
p2303
asbasbasbag68
(g84
g70
NtRp2304
(dp2305
g73
(dp2306
sg82
g78
sg75
(lp2307
g68
(g89
g70
NtRp2308
(dp2309
g73
(dp2310
g93
g94
ssg82
g2304
sg75
(lp2311
S'utcnow'
p2312
asbag68
(g89
g70
NtRp2313
(dp2314
g73
(dp2315
g100
g101
ssg82
g2304
sg75
(lp2316
S':'
asbag68
(g89
g70
NtRp2317
(dp2318
g73
(dp2319
sg82
g2304
sg75
(lp2320
g68
(g69
g70
NtRp2321
(dp2322
g73
(dp2323
g81
I5
ssg82
g2317
sg75
(lp2324
S'datetime.datetime(2012, 1, 17, 11, 48, 37, 825733)'
p2325
asbasbasbag68
(g84
g70
NtRp2326
(dp2327
g73
(dp2328
sg82
g78
sg75
(lp2329
g68
(g89
g70
NtRp2330
(dp2331
g73
(dp2332
g93
g94
ssg82
g2326
sg75
(lp2333
S'uuid'
p2334
asbag68
(g89
g70
NtRp2335
(dp2336
g73
(dp2337
g100
g101
ssg82
g2326
sg75
(lp2338
S':'
asbag68
(g89
g70
NtRp2339
(dp2340
g73
(dp2341
sg82
g2326
sg75
(lp2342
g68
(g69
g70
NtRp2343
(dp2344
g73
(dp2345
g81
I5
ssg82
g2339
sg75
(lp2346
S'synopsis/127.0.0.1.2012-01-17.09-48-37.dd04164a-aad0-46e5-916d-6e992c4c61d1'
p2347
asbasbasbag68
(g84
g70
NtRp2348
(dp2349
g73
(dp2350
sg82
g78
sg75
(lp2351
g68
(g89
g70
NtRp2352
(dp2353
g73
(dp2354
g93
g94
ssg82
g2348
sg75
(lp2355
S'vars'
p2356
asbag68
(g89
g70
NtRp2357
(dp2358
g73
(dp2359
g100
g101
ssg82
g2348
sg75
(lp2360
S':'
asbag68
(g89
g70
NtRp2361
(dp2362
g73
(dp2363
sg82
g2348
sg75
(lp2364
g68
(g69
g70
NtRp2365
(dp2366
g73
(dp2367
g81
I5
ssg82
g2361
sg75
(lp2368
g68
(g77
g70
NtRp2369
(dp2370
g73
(dp2371
g81
I4
ssg82
Nsg75
(lp2372
sbasbasbasbag68
(g84
g70
NtRp2373
(dp2374
g73
(dp2375
sg82
g78
sg75
(lp2376
g68
(g89
g70
NtRp2377
(dp2378
g73
(dp2379
g93
g94
ssg82
g2373
sg75
(lp2380
S'wsgi'
p2381
asbag68
(g89
g70
NtRp2382
(dp2383
g73
(dp2384
g100
g101
ssg82
g2373
sg75
(lp2385
S':'
asbag68
(g89
g70
NtRp2386
(dp2387
g73
(dp2388
sg82
g2373
sg75
(lp2389
g68
(g69
g70
NtRp2390
(dp2391
g73
(dp2392
g81
I5
ssg82
g2386
sg75
(lp2393
g68
(g77
g70
NtRp2394
(dp2395
g73
(dp2396
g81
I4
ssg82
Nsg75
(lp2397
g68
(g84
g70
NtRp2398
(dp2399
g73
(dp2400
sg82
g2394
sg75
(lp2401
g68
(g89
g70
NtRp2402
(dp2403
g73
(dp2404
g93
g94
ssg82
g2398
sg75
(lp2405
S'environ'
p2406
asbag68
(g89
g70
NtRp2407
(dp2408
g73
(dp2409
g100
g101
ssg82
g2398
sg75
(lp2410
S':'
asbag68
(g89
g70
NtRp2411
(dp2412
g73
(dp2413
sg82
g2398
sg75
(lp2414
g68
(g69
g70
NtRp2415
(dp2416
g73
(dp2417
g81
I4
ssg82
g2411
sg75
(lp2418
g68
(g77
g70
NtRp2419
(dp2420
g73
(dp2421
g81
I3
ssg82
Nsg75
(lp2422
g68
(g84
g70
NtRp2423
(dp2424
g73
(dp2425
sg82
g2419
sg75
(lp2426
g68
(g89
g70
NtRp2427
(dp2428
g73
(dp2429
g93
g94
ssg82
g2423
sg75
(lp2430
S'HTTP_ACCEPT'
p2431
asbag68
(g89
g70
NtRp2432
(dp2433
g73
(dp2434
g100
g101
ssg82
g2423
sg75
(lp2435
S':'
asbag68
(g89
g70
NtRp2436
(dp2437
g73
(dp2438
sg82
g2423
sg75
(lp2439
g68
(g69
g70
NtRp2440
(dp2441
g73
(dp2442
g81
I3
ssg82
g2436
sg75
(lp2443
g1014
asbasbasbag68
(g84
g70
NtRp2444
(dp2445
g73
(dp2446
sg82
g2419
sg75
(lp2447
g68
(g89
g70
NtRp2448
(dp2449
g73
(dp2450
g93
g94
ssg82
g2444
sg75
(lp2451
S'HTTP_ACCEPT_CHARSET'
p2452
asbag68
(g89
g70
NtRp2453
(dp2454
g73
(dp2455
g100
g101
ssg82
g2444
sg75
(lp2456
S':'
asbag68
(g89
g70
NtRp2457
(dp2458
g73
(dp2459
sg82
g2444
sg75
(lp2460
g68
(g69
g70
NtRp2461
(dp2462
g73
(dp2463
g81
I3
ssg82
g2457
sg75
(lp2464
g1036
asbasbasbag68
(g84
g70
NtRp2465
(dp2466
g73
(dp2467
sg82
g2419
sg75
(lp2468
g68
(g89
g70
NtRp2469
(dp2470
g73
(dp2471
g93
g94
ssg82
g2465
sg75
(lp2472
S'HTTP_ACCEPT_ENCODING'
p2473
asbag68
(g89
g70
NtRp2474
(dp2475
g73
(dp2476
g100
g101
ssg82
g2465
sg75
(lp2477
S':'
asbag68
(g89
g70
NtRp2478
(dp2479
g73
(dp2480
sg82
g2465
sg75
(lp2481
g68
(g69
g70
NtRp2482
(dp2483
g73
(dp2484
g81
I3
ssg82
g2478
sg75
(lp2485
g1058
asbasbasbag68
(g84
g70
NtRp2486
(dp2487
g73
(dp2488
sg82
g2419
sg75
(lp2489
g68
(g89
g70
NtRp2490
(dp2491
g73
(dp2492
g93
g94
ssg82
g2486
sg75
(lp2493
S'HTTP_ACCEPT_LANGUAGE'
p2494
asbag68
(g89
g70
NtRp2495
(dp2496
g73
(dp2497
g100
g101
ssg82
g2486
sg75
(lp2498
S':'
asbag68
(g89
g70
NtRp2499
(dp2500
g73
(dp2501
sg82
g2486
sg75
(lp2502
g68
(g69
g70
NtRp2503
(dp2504
g73
(dp2505
g81
I3
ssg82
g2499
sg75
(lp2506
g1080
asbasbasbag68
(g84
g70
NtRp2507
(dp2508
g73
(dp2509
sg82
g2419
sg75
(lp2510
g68
(g89
g70
NtRp2511
(dp2512
g73
(dp2513
g93
g94
ssg82
g2507
sg75
(lp2514
S'HTTP_CACHE_CONTROL'
p2515
asbag68
(g89
g70
NtRp2516
(dp2517
g73
(dp2518
g100
g101
ssg82
g2507
sg75
(lp2519
S':'
asbag68
(g89
g70
NtRp2520
(dp2521
g73
(dp2522
sg82
g2507
sg75
(lp2523
g68
(g69
g70
NtRp2524
(dp2525
g73
(dp2526
g81
I3
ssg82
g2520
sg75
(lp2527
g1102
asbasbasbag68
(g84
g70
NtRp2528
(dp2529
g73
(dp2530
sg82
g2419
sg75
(lp2531
g68
(g89
g70
NtRp2532
(dp2533
g73
(dp2534
g93
g94
ssg82
g2528
sg75
(lp2535
S'HTTP_CONNECTION'
p2536
asbag68
(g89
g70
NtRp2537
(dp2538
g73
(dp2539
g100
g101
ssg82
g2528
sg75
(lp2540
S':'
asbag68
(g89
g70
NtRp2541
(dp2542
g73
(dp2543
sg82
g2528
sg75
(lp2544
g68
(g69
g70
NtRp2545
(dp2546
g73
(dp2547
g81
I3
ssg82
g2541
sg75
(lp2548
g1124
asbasbasbag68
(g84
g70
NtRp2549
(dp2550
g73
(dp2551
sg82
g2419
sg75
(lp2552
g68
(g89
g70
NtRp2553
(dp2554
g73
(dp2555
g93
g94
ssg82
g2549
sg75
(lp2556
S'HTTP_COOKIE'
p2557
asbag68
(g89
g70
NtRp2558
(dp2559
g73
(dp2560
g100
g101
ssg82
g2549
sg75
(lp2561
S':'
asbag68
(g89
g70
NtRp2562
(dp2563
g73
(dp2564
sg82
g2549
sg75
(lp2565
g68
(g69
g70
NtRp2566
(dp2567
g73
(dp2568
g81
I3
ssg82
g2562
sg75
(lp2569
g1146
asbasbasbag68
(g84
g70
NtRp2570
(dp2571
g73
(dp2572
sg82
g2419
sg75
(lp2573
g68
(g89
g70
NtRp2574
(dp2575
g73
(dp2576
g93
g94
ssg82
g2570
sg75
(lp2577
S'HTTP_HOST'
p2578
asbag68
(g89
g70
NtRp2579
(dp2580
g73
(dp2581
g100
g101
ssg82
g2570
sg75
(lp2582
S':'
asbag68
(g89
g70
NtRp2583
(dp2584
g73
(dp2585
sg82
g2570
sg75
(lp2586
g68
(g69
g70
NtRp2587
(dp2588
g73
(dp2589
g81
I3
ssg82
g2583
sg75
(lp2590
g1168
asbasbasbag68
(g84
g70
NtRp2591
(dp2592
g73
(dp2593
sg82
g2419
sg75
(lp2594
g68
(g89
g70
NtRp2595
(dp2596
g73
(dp2597
g93
g94
ssg82
g2591
sg75
(lp2598
S'HTTP_REFERER'
p2599
asbag68
(g89
g70
NtRp2600
(dp2601
g73
(dp2602
g100
g101
ssg82
g2591
sg75
(lp2603
S':'
asbag68
(g89
g70
NtRp2604
(dp2605
g73
(dp2606
sg82
g2591
sg75
(lp2607
g68
(g69
g70
NtRp2608
(dp2609
g73
(dp2610
g81
I3
ssg82
g2604
sg75
(lp2611
g1190
asbasbasbag68
(g84
g70
NtRp2612
(dp2613
g73
(dp2614
sg82
g2419
sg75
(lp2615
g68
(g89
g70
NtRp2616
(dp2617
g73
(dp2618
g93
g94
ssg82
g2612
sg75
(lp2619
S'HTTP_USER_AGENT'
p2620
asbag68
(g89
g70
NtRp2621
(dp2622
g73
(dp2623
g100
g101
ssg82
g2612
sg75
(lp2624
S':'
asbag68
(g89
g70
NtRp2625
(dp2626
g73
(dp2627
sg82
g2612
sg75
(lp2628
g68
(g69
g70
NtRp2629
(dp2630
g73
(dp2631
g81
I3
ssg82
g2625
sg75
(lp2632
g1212
asbasbasbag68
(g84
g70
NtRp2633
(dp2634
g73
(dp2635
sg82
g2419
sg75
(lp2636
g68
(g89
g70
NtRp2637
(dp2638
g73
(dp2639
g93
g94
ssg82
g2633
sg75
(lp2640
S'PATH_INFO'
p2641
asbag68
(g89
g70
NtRp2642
(dp2643
g73
(dp2644
g100
g101
ssg82
g2633
sg75
(lp2645
S':'
asbag68
(g89
g70
NtRp2646
(dp2647
g73
(dp2648
sg82
g2633
sg75
(lp2649
g68
(g69
g70
NtRp2650
(dp2651
g73
(dp2652
g81
I3
ssg82
g2646
sg75
(lp2653
g1255
asbasbasbag68
(g84
g70
NtRp2654
(dp2655
g73
(dp2656
sg82
g2419
sg75
(lp2657
g68
(g89
g70
NtRp2658
(dp2659
g73
(dp2660
g93
g94
ssg82
g2654
sg75
(lp2661
S'QUERY_STRING'
p2662
asbag68
(g89
g70
NtRp2663
(dp2664
g73
(dp2665
g100
g101
ssg82
g2654
sg75
(lp2666
S':'
asbag68
(g89
g70
NtRp2667
(dp2668
g73
(dp2669
sg82
g2654
sg75
(lp2670
g68
(g69
g70
NtRp2671
(dp2672
g73
(dp2673
g81
I3
ssg82
g2667
sg75
(lp2674
S''
asbasbasbag68
(g84
g70
NtRp2675
(dp2676
g73
(dp2677
sg82
g2419
sg75
(lp2678
g68
(g89
g70
NtRp2679
(dp2680
g73
(dp2681
g93
g94
ssg82
g2675
sg75
(lp2682
S'REMOTE_ADDR'
p2683
asbag68
(g89
g70
NtRp2684
(dp2685
g73
(dp2686
g100
g101
ssg82
g2675
sg75
(lp2687
S':'
asbag68
(g89
g70
NtRp2688
(dp2689
g73
(dp2690
sg82
g2675
sg75
(lp2691
g68
(g69
g70
NtRp2692
(dp2693
g73
(dp2694
g81
I3
ssg82
g2688
sg75
(lp2695
g201
asbasbasbag68
(g84
g70
NtRp2696
(dp2697
g73
(dp2698
sg82
g2419
sg75
(lp2699
g68
(g89
g70
NtRp2700
(dp2701
g73
(dp2702
g93
g94
ssg82
g2696
sg75
(lp2703
S'REMOTE_PORT'
p2704
asbag68
(g89
g70
NtRp2705
(dp2706
g73
(dp2707
g100
g101
ssg82
g2696
sg75
(lp2708
S':'
asbag68
(g89
g70
NtRp2709
(dp2710
g73
(dp2711
sg82
g2696
sg75
(lp2712
g68
(g69
g70
NtRp2713
(dp2714
g73
(dp2715
g81
I3
ssg82
g2709
sg75
(lp2716
g1319
asbasbasbag68
(g84
g70
NtRp2717
(dp2718
g73
(dp2719
sg82
g2419
sg75
(lp2720
g68
(g89
g70
NtRp2721
(dp2722
g73
(dp2723
g93
g94
ssg82
g2717
sg75
(lp2724
S'REQUEST_METHOD'
p2725
asbag68
(g89
g70
NtRp2726
(dp2727
g73
(dp2728
g100
g101
ssg82
g2717
sg75
(lp2729
S':'
asbag68
(g89
g70
NtRp2730
(dp2731
g73
(dp2732
sg82
g2717
sg75
(lp2733
g68
(g69
g70
NtRp2734
(dp2735
g73
(dp2736
g81
I3
ssg82
g2730
sg75
(lp2737
g1341
asbasbasbag68
(g84
g70
NtRp2738
(dp2739
g73
(dp2740
sg82
g2419
sg75
(lp2741
g68
(g89
g70
NtRp2742
(dp2743
g73
(dp2744
g93
g94
ssg82
g2738
sg75
(lp2745
S'SCRIPT_NAME'
p2746
asbag68
(g89
g70
NtRp2747
(dp2748
g73
(dp2749
g100
g101
ssg82
g2738
sg75
(lp2750
S':'
asbag68
(g89
g70
NtRp2751
(dp2752
g73
(dp2753
sg82
g2738
sg75
(lp2754
g68
(g69
g70
NtRp2755
(dp2756
g73
(dp2757
g81
I3
ssg82
g2751
sg75
(lp2758
S''
asbasbasbag68
(g84
g70
NtRp2759
(dp2760
g73
(dp2761
sg82
g2419
sg75
(lp2762
g68
(g89
g70
NtRp2763
(dp2764
g73
(dp2765
g93
g94
ssg82
g2759
sg75
(lp2766
S'SERVER_NAME'
p2767
asbag68
(g89
g70
NtRp2768
(dp2769
g73
(dp2770
g100
g101
ssg82
g2759
sg75
(lp2771
S':'
asbag68
(g89
g70
NtRp2772
(dp2773
g73
(dp2774
sg82
g2759
sg75
(lp2775
g68
(g69
g70
NtRp2776
(dp2777
g73
(dp2778
g81
I3
ssg82
g2772
sg75
(lp2779
g1384
asbasbasbag68
(g84
g70
NtRp2780
(dp2781
g73
(dp2782
sg82
g2419
sg75
(lp2783
g68
(g89
g70
NtRp2784
(dp2785
g73
(dp2786
g93
g94
ssg82
g2780
sg75
(lp2787
S'SERVER_PORT'
p2788
asbag68
(g89
g70
NtRp2789
(dp2790
g73
(dp2791
g100
g101
ssg82
g2780
sg75
(lp2792
S':'
asbag68
(g89
g70
NtRp2793
(dp2794
g73
(dp2795
sg82
g2780
sg75
(lp2796
g68
(g69
g70
NtRp2797
(dp2798
g73
(dp2799
g81
I3
ssg82
g2793
sg75
(lp2800
g1406
asbasbasbag68
(g84
g70
NtRp2801
(dp2802
g73
(dp2803
sg82
g2419
sg75
(lp2804
g68
(g89
g70
NtRp2805
(dp2806
g73
(dp2807
g93
g94
ssg82
g2801
sg75
(lp2808
S'SERVER_PROTOCOL'
p2809
asbag68
(g89
g70
NtRp2810
(dp2811
g73
(dp2812
g100
g101
ssg82
g2801
sg75
(lp2813
S':'
asbag68
(g89
g70
NtRp2814
(dp2815
g73
(dp2816
sg82
g2801
sg75
(lp2817
g68
(g69
g70
NtRp2818
(dp2819
g73
(dp2820
g81
I3
ssg82
g2814
sg75
(lp2821
g1428
asbasbasbag68
(g84
g70
NtRp2822
(dp2823
g73
(dp2824
sg82
g2419
sg75
(lp2825
g68
(g89
g70
NtRp2826
(dp2827
g73
(dp2828
g93
g94
ssg82
g2822
sg75
(lp2829
S'SERVER_SOFTWARE'
p2830
asbag68
(g89
g70
NtRp2831
(dp2832
g73
(dp2833
g100
g101
ssg82
g2822
sg75
(lp2834
S':'
asbag68
(g89
g70
NtRp2835
(dp2836
g73
(dp2837
sg82
g2822
sg75
(lp2838
g68
(g69
g70
NtRp2839
(dp2840
g73
(dp2841
g81
I3
ssg82
g2835
sg75
(lp2842
g1450
asbasbasbag68
(g84
g70
NtRp2843
(dp2844
g73
(dp2845
sg82
g2419
sg75
(lp2846
g68
(g89
g70
NtRp2847
(dp2848
g73
(dp2849
g93
g94
ssg82
g2843
sg75
(lp2850
S'wsgi.errors'
p2851
asbag68
(g89
g70
NtRp2852
(dp2853
g73
(dp2854
g100
g101
ssg82
g2843
sg75
(lp2855
S':'
asbag68
(g89
g70
NtRp2856
(dp2857
g73
(dp2858
sg82
g2843
sg75
(lp2859
g68
(g69
g70
NtRp2860
(dp2861
g73
(dp2862
g81
I3
ssg82
g2856
sg75
(lp2863
S"<open file '<stderr>', mode 'w' at 0x7f1864587270>"
p2864
asbasbasbag68
(g84
g70
NtRp2865
(dp2866
g73
(dp2867
sg82
g2419
sg75
(lp2868
g68
(g89
g70
NtRp2869
(dp2870
g73
(dp2871
g93
g94
ssg82
g2865
sg75
(lp2872
S'wsgi.file_wrapper'
p2873
asbag68
(g89
g70
NtRp2874
(dp2875
g73
(dp2876
g100
g101
ssg82
g2865
sg75
(lp2877
S':'
asbag68
(g89
g70
NtRp2878
(dp2879
g73
(dp2880
sg82
g2865
sg75
(lp2881
g68
(g69
g70
NtRp2882
(dp2883
g73
(dp2884
g81
I3
ssg82
g2878
sg75
(lp2885
S'<class wsgiref.util.FileWrapper at 0x246def0>'
p2886
asbasbasbag68
(g84
g70
NtRp2887
(dp2888
g73
(dp2889
sg82
g2419
sg75
(lp2890
g68
(g89
g70
NtRp2891
(dp2892
g73
(dp2893
g93
g94
ssg82
g2887
sg75
(lp2894
S'wsgi.input'
p2895
asbag68
(g89
g70
NtRp2896
(dp2897
g73
(dp2898
g100
g101
ssg82
g2887
sg75
(lp2899
S':'
asbag68
(g89
g70
NtRp2900
(dp2901
g73
(dp2902
sg82
g2887
sg75
(lp2903
g68
(g69
g70
NtRp2904
(dp2905
g73
(dp2906
g81
I3
ssg82
g2900
sg75
(lp2907
S'<cStringIO.StringO object at 0x3ab56c0>'
p2908
asbasbasbag68
(g84
g70
NtRp2909
(dp2910
g73
(dp2911
sg82
g2419
sg75
(lp2912
g68
(g89
g70
NtRp2913
(dp2914
g73
(dp2915
g93
g94
ssg82
g2909
sg75
(lp2916
S'wsgi.multiprocess'
p2917
asbag68
(g89
g70
NtRp2918
(dp2919
g73
(dp2920
g100
g101
ssg82
g2909
sg75
(lp2921
S':'
asbag68
(g89
g70
NtRp2922
(dp2923
g73
(dp2924
sg82
g2909
sg75
(lp2925
g68
(g69
g70
NtRp2926
(dp2927
g73
(dp2928
g81
I3
ssg82
g2922
sg75
(lp2929
g111
asbasbasbag68
(g84
g70
NtRp2930
(dp2931
g73
(dp2932
sg82
g2419
sg75
(lp2933
g68
(g89
g70
NtRp2934
(dp2935
g73
(dp2936
g93
g94
ssg82
g2930
sg75
(lp2937
S'wsgi.multithread'
p2938
asbag68
(g89
g70
NtRp2939
(dp2940
g73
(dp2941
g100
g101
ssg82
g2930
sg75
(lp2942
S':'
asbag68
(g89
g70
NtRp2943
(dp2944
g73
(dp2945
sg82
g2930
sg75
(lp2946
g68
(g69
g70
NtRp2947
(dp2948
g73
(dp2949
g81
I3
ssg82
g2943
sg75
(lp2950
g1690
asbasbasbag68
(g84
g70
NtRp2951
(dp2952
g73
(dp2953
sg82
g2419
sg75
(lp2954
g68
(g89
g70
NtRp2955
(dp2956
g73
(dp2957
g93
g94
ssg82
g2951
sg75
(lp2958
S'wsgi.run_once'
p2959
asbag68
(g89
g70
NtRp2960
(dp2961
g73
(dp2962
g100
g101
ssg82
g2951
sg75
(lp2963
S':'
asbag68
(g89
g70
NtRp2964
(dp2965
g73
(dp2966
sg82
g2951
sg75
(lp2967
g68
(g69
g70
NtRp2968
(dp2969
g73
(dp2970
g81
I3
ssg82
g2964
sg75
(lp2971
g111
asbasbasbag68
(g84
g70
NtRp2972
(dp2973
g73
(dp2974
sg82
g2419
sg75
(lp2975
g68
(g89
g70
NtRp2976
(dp2977
g73
(dp2978
g93
g94
ssg82
g2972
sg75
(lp2979
S'wsgi.url_scheme'
p2980
asbag68
(g89
g70
NtRp2981
(dp2982
g73
(dp2983
g100
g101
ssg82
g2972
sg75
(lp2984
S':'
asbag68
(g89
g70
NtRp2985
(dp2986
g73
(dp2987
sg82
g2972
sg75
(lp2988
g68
(g69
g70
NtRp2989
(dp2990
g73
(dp2991
g81
I3
ssg82
g2985
sg75
(lp2992
g1733
asbasbasbag68
(g84
g70
NtRp2993
(dp2994
g73
(dp2995
sg82
g2419
sg75
(lp2996
g68
(g89
g70
NtRp2997
(dp2998
g73
(dp2999
g93
g94
ssg82
g2993
sg75
(lp3000
S'wsgi.version'
p3001
asbag68
(g89
g70
NtRp3002
(dp3003
g73
(dp3004
g100
g101
ssg82
g2993
sg75
(lp3005
S':'
asbag68
(g89
g70
NtRp3006
(dp3007
g73
(dp3008
sg82
g2993
sg75
(lp3009
g68
(g69
g70
NtRp3010
(dp3011
g73
(dp3012
g81
I3
ssg82
g3006
sg75
(lp3013
S'1'
asbasbasbasbasbasbasbasbasbasbasbasbasbsS'frames'
p3014
(lp3015
(dp3016
S'file'
p3017
S'/home/kaique/Projects/web2py/gluon/restricted.py'
p3018
sS'dump'
p3019
(dp3020
S'code'
p3021
S'\'response.write(\\\'<!DOCTYPE html>\\\\n<html lang="\\\', ...nse.write(\\\'\\\\n  </body>\\\\n</html>\\\\n\\\', escape=False)\''
p3022
sS'layer'
p3023
S"'/home/kaique/Projects/web2py/applications/synopsis/views/information/index.html'"
p3024
sS'global compile2'
p3025
S'<function compile2>'
p3026
sS'ccode'
p3027
S'undefined'
p3028
ssS'lnum'
p3029
I193
sS'lines'
p3030
(dp3031
I192
S'        else:'
p3032
sI193
S'            ccode = compile2(code,layer)'
p3033
sI194
S'        exec ccode in environment'
p3034
sI195
S'    except HTTP:'
p3035
sI196
S'        raise'
p3036
sI197
S'    except Exception, error:'
p3037
sI188
S"    environment['__file__'] = layer"
p3038
sI189
S'    try:'
p3039
sI190
S'        if type(code) == types.CodeType:'
p3040
sI191
S'            ccode = code'
p3041
ssS'call'
p3042
S'(code=\'response.write(\\\'<!DOCTYPE html>\\\\n<html lang="\\\', ...nse.write(\\\'\\\\n  </body>\\\\n</html>\\\\n\\\', escape=False)\', environment={\'A\': <class \'gluon.html.A\'>, \'Auth\': <class \'gluon.tools.Auth\'>, \'B\': <class \'gluon.html.B\'>, \'BEAUTIFY\': <class \'gluon.html.BEAUTIFY\'>, \'BODY\': <class \'gluon.html.BODY\'>, \'BR\': <class \'gluon.html.BR\'>, \'BUTTON\': <class \'gluon.html.BUTTON\'>, \'CAT\': <class \'gluon.html.CAT\'>, \'CENTER\': <class \'gluon.html.CENTER\'>, \'CLEANUP\': <class \'gluon.validators.CLEANUP\'>, ...}, layer=\'/home/kaique/Projects/web2py/applications/synopsis/views/information/index.html\')'
p3043
sS'func'
p3044
S'restricted'
p3045
sa(dp3046
g3017
S'/home/kaique/Projects/web2py/gluon/restricted.py'
p3047
sg3019
(dp3048
S'builtincompile'
p3049
S'<built-in function compile>'
p3050
sS'code'
p3051
S'\'response.write(\\\'<!DOCTYPE html>\\\\n<html lang="\\\', ...nse.write(\\\'\\\\n  </body>\\\\n</html>\\\\n\\\', escape=False)\''
p3052
sS'code.rstrip'
p3053
S'<built-in method rstrip of str object>'
p3054
sS').replace'
p3055
g3028
sS'layer'
p3056
S"'/home/kaique/Projects/web2py/applications/synopsis/views/information/index.html'"
p3057
ssg3029
I179
sg3030
(dp3058
I174
S''
sI175
S'def compile2(code,layer):'
p3059
sI176
S'    """'
p3060
sI177
S"    The +'\\n' is necessary else compile fails when code ends in a comment."
p3061
sI178
S'    """'
p3062
sI179
S"    return compile(code.rstrip().replace('\\r\\n','\\n')+'\\n', layer, 'exec')"
p3063
sI180
S''
sI181
S"def restricted(code, environment=None, layer='Unknown'):"
p3064
sI182
S'    """'
p3065
sI183
S'    runs code in environment and returns the output. if an exception occurs'
p3066
ssg3042
S'(code=\'response.write(\\\'<!DOCTYPE html>\\\\n<html lang="\\\', ...nse.write(\\\'\\\\n  </body>\\\\n</html>\\\\n\\\', escape=False)\', layer=\'/home/kaique/Projects/web2py/applications/synopsis/views/information/index.html\')'
p3067
sg3044
S'compile2'
p3068
sasS'pyver'
p3069
S'Python 2.7.2+: /usr/bin/python'
p3070
sS'session'
p3071
g68
(g69
g70
NtRp3072
(dp3073
g73
(dp3074
sg75
(lp3075
g68
(g77
g70
NtRp3076
(dp3077
g73
(dp3078
g81
I5
ssg82
Nsg75
(lp3079
g68
(g84
g70
NtRp3080
(dp3081
g73
(dp3082
sg82
g3076
sg75
(lp3083
g68
(g89
g70
NtRp3084
(dp3085
g73
(dp3086
g93
g94
ssg82
g3080
sg75
(lp3087
S'auth'
p3088
asbag68
(g89
g70
NtRp3089
(dp3090
g73
(dp3091
g100
g101
ssg82
g3080
sg75
(lp3092
S':'
asbag68
(g89
g70
NtRp3093
(dp3094
g73
(dp3095
sg82
g3080
sg75
(lp3096
g68
(g69
g70
NtRp3097
(dp3098
g73
(dp3099
g81
I5
ssg82
g3093
sg75
(lp3100
g68
(g77
g70
NtRp3101
(dp3102
g73
(dp3103
g81
I4
ssg82
Nsg75
(lp3104
g68
(g84
g70
NtRp3105
(dp3106
g73
(dp3107
sg82
g3101
sg75
(lp3108
g68
(g89
g70
NtRp3109
(dp3110
g73
(dp3111
g93
g94
ssg82
g3105
sg75
(lp3112
S'expiration'
p3113
asbag68
(g89
g70
NtRp3114
(dp3115
g73
(dp3116
g100
g101
ssg82
g3105
sg75
(lp3117
S':'
asbag68
(g89
g70
NtRp3118
(dp3119
g73
(dp3120
sg82
g3105
sg75
(lp3121
g68
(g69
g70
NtRp3122
(dp3123
g73
(dp3124
g81
I4
ssg82
g3118
sg75
(lp3125
S'2592000'
p3126
asbasbasbag68
(g84
g70
NtRp3127
(dp3128
g73
(dp3129
sg82
g3101
sg75
(lp3130
g68
(g89
g70
NtRp3131
(dp3132
g73
(dp3133
g93
g94
ssg82
g3127
sg75
(lp3134
S'hmac_key'
p3135
asbag68
(g89
g70
NtRp3136
(dp3137
g73
(dp3138
g100
g101
ssg82
g3127
sg75
(lp3139
S':'
asbag68
(g89
g70
NtRp3140
(dp3141
g73
(dp3142
sg82
g3127
sg75
(lp3143
g68
(g69
g70
NtRp3144
(dp3145
g73
(dp3146
g81
I4
ssg82
g3140
sg75
(lp3147
S'eeb302cc-2736-437e-a66e-358ba65bbfc1'
p3148
asbasbasbag68
(g84
g70
NtRp3149
(dp3150
g73
(dp3151
sg82
g3101
sg75
(lp3152
g68
(g89
g70
NtRp3153
(dp3154
g73
(dp3155
g93
g94
ssg82
g3149
sg75
(lp3156
S'last_visit'
p3157
asbag68
(g89
g70
NtRp3158
(dp3159
g73
(dp3160
g100
g101
ssg82
g3149
sg75
(lp3161
S':'
asbag68
(g89
g70
NtRp3162
(dp3163
g73
(dp3164
sg82
g3149
sg75
(lp3165
g68
(g69
g70
NtRp3166
(dp3167
g73
(dp3168
g81
I4
ssg82
g3162
sg75
(lp3169
S'datetime.datetime(2012, 1, 17, 8, 50, 18, 73373)'
p3170
asbasbasbag68
(g84
g70
NtRp3171
(dp3172
g73
(dp3173
sg82
g3101
sg75
(lp3174
g68
(g89
g70
NtRp3175
(dp3176
g73
(dp3177
g93
g94
ssg82
g3171
sg75
(lp3178
S'remember'
p3179
asbag68
(g89
g70
NtRp3180
(dp3181
g73
(dp3182
g100
g101
ssg82
g3171
sg75
(lp3183
S':'
asbag68
(g89
g70
NtRp3184
(dp3185
g73
(dp3186
sg82
g3171
sg75
(lp3187
g68
(g69
g70
NtRp3188
(dp3189
g73
(dp3190
g81
I4
ssg82
g3184
sg75
(lp3191
g111
asbasbasbag68
(g84
g70
NtRp3192
(dp3193
g73
(dp3194
sg82
g3101
sg75
(lp3195
g68
(g89
g70
NtRp3196
(dp3197
g73
(dp3198
g93
g94
ssg82
g3192
sg75
(lp3199
S'user'
p3200
asbag68
(g89
g70
NtRp3201
(dp3202
g73
(dp3203
g100
g101
ssg82
g3192
sg75
(lp3204
S':'
asbag68
(g89
g70
NtRp3205
(dp3206
g73
(dp3207
sg82
g3192
sg75
(lp3208
g68
(g69
g70
NtRp3209
(dp3210
g73
(dp3211
g81
I4
ssg82
g3205
sg75
(lp3212
g68
(g77
g70
NtRp3213
(dp3214
g73
(dp3215
g81
I3
ssg82
Nsg75
(lp3216
g68
(g84
g70
NtRp3217
(dp3218
g73
(dp3219
sg82
g3213
sg75
(lp3220
g68
(g89
g70
NtRp3221
(dp3222
g73
(dp3223
g93
g94
ssg82
g3217
sg75
(lp3224
S'email'
p3225
asbag68
(g89
g70
NtRp3226
(dp3227
g73
(dp3228
g100
g101
ssg82
g3217
sg75
(lp3229
S':'
asbag68
(g89
g70
NtRp3230
(dp3231
g73
(dp3232
sg82
g3217
sg75
(lp3233
g68
(g69
g70
NtRp3234
(dp3235
g73
(dp3236
g81
I3
ssg82
g3230
sg75
(lp3237
S'kaique.developer@gmail.com'
p3238
asbasbasbag68
(g84
g70
NtRp3239
(dp3240
g73
(dp3241
sg82
g3213
sg75
(lp3242
g68
(g89
g70
NtRp3243
(dp3244
g73
(dp3245
g93
g94
ssg82
g3239
sg75
(lp3246
S'first_name'
p3247
asbag68
(g89
g70
NtRp3248
(dp3249
g73
(dp3250
g100
g101
ssg82
g3239
sg75
(lp3251
S':'
asbag68
(g89
g70
NtRp3252
(dp3253
g73
(dp3254
sg82
g3239
sg75
(lp3255
g68
(g69
g70
NtRp3256
(dp3257
g73
(dp3258
g81
I3
ssg82
g3252
sg75
(lp3259
S'kaique'
p3260
asbasbasbag68
(g84
g70
NtRp3261
(dp3262
g73
(dp3263
sg82
g3213
sg75
(lp3264
g68
(g89
g70
NtRp3265
(dp3266
g73
(dp3267
g93
g94
ssg82
g3261
sg75
(lp3268
S'id'
p3269
asbag68
(g89
g70
NtRp3270
(dp3271
g73
(dp3272
g100
g101
ssg82
g3261
sg75
(lp3273
S':'
asbag68
(g89
g70
NtRp3274
(dp3275
g73
(dp3276
sg82
g3261
sg75
(lp3277
g68
(g69
g70
NtRp3278
(dp3279
g73
(dp3280
g81
I3
ssg82
g3274
sg75
(lp3281
S'1'
asbasbasbag68
(g84
g70
NtRp3282
(dp3283
g73
(dp3284
sg82
g3213
sg75
(lp3285
g68
(g89
g70
NtRp3286
(dp3287
g73
(dp3288
g93
g94
ssg82
g3282
sg75
(lp3289
S'last_name'
p3290
asbag68
(g89
g70
NtRp3291
(dp3292
g73
(dp3293
g100
g101
ssg82
g3282
sg75
(lp3294
S':'
asbag68
(g89
g70
NtRp3295
(dp3296
g73
(dp3297
sg82
g3282
sg75
(lp3298
g68
(g69
g70
NtRp3299
(dp3300
g73
(dp3301
g81
I3
ssg82
g3295
sg75
(lp3302
S'silva'
p3303
asbasbasbag68
(g84
g70
NtRp3304
(dp3305
g73
(dp3306
sg82
g3213
sg75
(lp3307
g68
(g89
g70
NtRp3308
(dp3309
g73
(dp3310
g93
g94
ssg82
g3304
sg75
(lp3311
S'password'
p3312
asbag68
(g89
g70
NtRp3313
(dp3314
g73
(dp3315
g100
g101
ssg82
g3304
sg75
(lp3316
S':'
asbag68
(g89
g70
NtRp3317
(dp3318
g73
(dp3319
sg82
g3304
sg75
(lp3320
g68
(g69
g70
NtRp3321
(dp3322
g73
(dp3323
g81
I3
ssg82
g3317
sg75
(lp3324
S'72c6a018d62d3fb47d95389e4a062cd2'
p3325
asbasbasbag68
(g84
g70
NtRp3326
(dp3327
g73
(dp3328
sg82
g3213
sg75
(lp3329
g68
(g89
g70
NtRp3330
(dp3331
g73
(dp3332
g93
g94
ssg82
g3326
sg75
(lp3333
S'registration_key'
p3334
asbag68
(g89
g70
NtRp3335
(dp3336
g73
(dp3337
g100
g101
ssg82
g3326
sg75
(lp3338
S':'
asbag68
(g89
g70
NtRp3339
(dp3340
g73
(dp3341
sg82
g3326
sg75
(lp3342
g68
(g69
g70
NtRp3343
(dp3344
g73
(dp3345
g81
I3
ssg82
g3339
sg75
(lp3346
S''
asbasbasbag68
(g84
g70
NtRp3347
(dp3348
g73
(dp3349
sg82
g3213
sg75
(lp3350
g68
(g89
g70
NtRp3351
(dp3352
g73
(dp3353
g93
g94
ssg82
g3347
sg75
(lp3354
S'reset_password_key'
p3355
asbag68
(g89
g70
NtRp3356
(dp3357
g73
(dp3358
g100
g101
ssg82
g3347
sg75
(lp3359
S':'
asbag68
(g89
g70
NtRp3360
(dp3361
g73
(dp3362
sg82
g3347
sg75
(lp3363
g68
(g69
g70
NtRp3364
(dp3365
g73
(dp3366
g81
I3
ssg82
g3360
sg75
(lp3367
S''
asbasbasbasbasbasbasbasbasbasbasbag68
(g84
g70
NtRp3368
(dp3369
g73
(dp3370
sg82
g3076
sg75
(lp3371
g68
(g89
g70
NtRp3372
(dp3373
g73
(dp3374
g93
g94
ssg82
g3368
sg75
(lp3375
S'back'
p3376
asbag68
(g89
g70
NtRp3377
(dp3378
g73
(dp3379
g100
g101
ssg82
g3368
sg75
(lp3380
S':'
asbag68
(g89
g70
NtRp3381
(dp3382
g73
(dp3383
sg82
g3368
sg75
(lp3384
g68
(g69
g70
NtRp3385
(dp3386
g73
(dp3387
g81
I5
ssg82
g3381
sg75
(lp3388
S'7'
asbasbasbag68
(g84
g70
NtRp3389
(dp3390
g73
(dp3391
sg82
g3076
sg75
(lp3392
g68
(g89
g70
NtRp3393
(dp3394
g73
(dp3395
g93
g94
ssg82
g3389
sg75
(lp3396
S'index'
p3397
asbag68
(g89
g70
NtRp3398
(dp3399
g73
(dp3400
g100
g101
ssg82
g3389
sg75
(lp3401
S':'
asbag68
(g89
g70
NtRp3402
(dp3403
g73
(dp3404
sg82
g3389
sg75
(lp3405
g68
(g69
g70
NtRp3406
(dp3407
g73
(dp3408
g81
I5
ssg82
g3402
sg75
(lp3409
S'1'
asbasbasbag68
(g84
g70
NtRp3410
(dp3411
g73
(dp3412
sg82
g3076
sg75
(lp3413
g68
(g89
g70
NtRp3414
(dp3415
g73
(dp3416
g93
g94
ssg82
g3410
sg75
(lp3417
S'last_query'
p3418
asbag68
(g89
g70
NtRp3419
(dp3420
g73
(dp3421
g100
g101
ssg82
g3410
sg75
(lp3422
S':'
asbag68
(g89
g70
NtRp3423
(dp3424
g73
(dp3425
sg82
g3410
sg75
(lp3426
g68
(g69
g70
NtRp3427
(dp3428
g73
(dp3429
g81
I5
ssg82
g3423
sg75
(lp3430
S'db.quote.id>0'
p3431
asbasbasbasbasbsS'etype'
p3432
S"<type 'exceptions.SyntaxError'>"
p3433
sS'date'
p3434
S'Tue Jan 17 09:48:38 2012'
p3435
sS'response'
p3436
g68
(g69
g70
NtRp3437
(dp3438
g73
(dp3439
sg75
(lp3440
g68
(g77
g70
NtRp3441
(dp3442
g73
(dp3443
g81
I5
ssg82
Nsg75
(lp3444
g68
(g84
g70
NtRp3445
(dp3446
g73
(dp3447
sg82
g3441
sg75
(lp3448
g68
(g89
g70
NtRp3449
(dp3450
g73
(dp3451
g93
g94
ssg82
g3445
sg75
(lp3452
g166
asbag68
(g89
g70
NtRp3453
(dp3454
g73
(dp3455
g100
g101
ssg82
g3445
sg75
(lp3456
S':'
asbag68
(g89
g70
NtRp3457
(dp3458
g73
(dp3459
sg82
g3445
sg75
(lp3460
g68
(g69
g70
NtRp3461
(dp3462
g73
(dp3463
g81
I5
ssg82
g3457
sg75
(lp3464
S'<cStringIO.StringO object at 0x3eb2a78>'
p3465
asbasbasbag68
(g84
g70
NtRp3466
(dp3467
g73
(dp3468
sg82
g3441
sg75
(lp3469
g68
(g89
g70
NtRp3470
(dp3471
g73
(dp3472
g93
g94
ssg82
g3466
sg75
(lp3473
g232
asbag68
(g89
g70
NtRp3474
(dp3475
g73
(dp3476
g100
g101
ssg82
g3466
sg75
(lp3477
S':'
asbag68
(g89
g70
NtRp3478
(dp3479
g73
(dp3480
sg82
g3466
sg75
(lp3481
g68
(g69
g70
NtRp3482
(dp3483
g73
(dp3484
g81
I5
ssg82
g3478
sg75
(lp3485
g68
(g77
g70
NtRp3486
(dp3487
g73
(dp3488
g81
I4
ssg82
Nsg75
(lp3489
g68
(g84
g70
NtRp3490
(dp3491
g73
(dp3492
sg82
g3486
sg75
(lp3493
g68
(g89
g70
NtRp3494
(dp3495
g73
(dp3496
g93
g94
ssg82
g3490
sg75
(lp3497
S'session_id_synopsis'
p3498
asbag68
(g89
g70
NtRp3499
(dp3500
g73
(dp3501
g100
g101
ssg82
g3490
sg75
(lp3502
S':'
asbag68
(g89
g70
NtRp3503
(dp3504
g73
(dp3505
sg82
g3490
sg75
(lp3506
g68
(g69
g70
NtRp3507
(dp3508
g73
(dp3509
g81
I4
ssg82
g3503
sg75
(lp3510
g68
(g77
g70
NtRp3511
(dp3512
g73
(dp3513
g81
I3
ssg82
Nsg75
(lp3514
g68
(g84
g70
NtRp3515
(dp3516
g73
(dp3517
sg82
g3511
sg75
(lp3518
g68
(g89
g70
NtRp3519
(dp3520
g73
(dp3521
g93
g94
ssg82
g3515
sg75
(lp3522
g282
asbag68
(g89
g70
NtRp3523
(dp3524
g73
(dp3525
g100
g101
ssg82
g3515
sg75
(lp3526
S':'
asbag68
(g89
g70
NtRp3527
(dp3528
g73
(dp3529
sg82
g3515
sg75
(lp3530
g68
(g69
g70
NtRp3531
(dp3532
g73
(dp3533
g81
I3
ssg82
g3527
sg75
(lp3534
S''
asbasbasbag68
(g84
g70
NtRp3535
(dp3536
g73
(dp3537
sg82
g3511
sg75
(lp3538
g68
(g89
g70
NtRp3539
(dp3540
g73
(dp3541
g93
g94
ssg82
g3535
sg75
(lp3542
g303
asbag68
(g89
g70
NtRp3543
(dp3544
g73
(dp3545
g100
g101
ssg82
g3535
sg75
(lp3546
S':'
asbag68
(g89
g70
NtRp3547
(dp3548
g73
(dp3549
sg82
g3535
sg75
(lp3550
g68
(g69
g70
NtRp3551
(dp3552
g73
(dp3553
g81
I3
ssg82
g3547
sg75
(lp3554
S''
asbasbasbag68
(g84
g70
NtRp3555
(dp3556
g73
(dp3557
sg82
g3511
sg75
(lp3558
g68
(g89
g70
NtRp3559
(dp3560
g73
(dp3561
g93
g94
ssg82
g3555
sg75
(lp3562
g324
asbag68
(g89
g70
NtRp3563
(dp3564
g73
(dp3565
g100
g101
ssg82
g3555
sg75
(lp3566
S':'
asbag68
(g89
g70
NtRp3567
(dp3568
g73
(dp3569
sg82
g3555
sg75
(lp3570
g68
(g69
g70
NtRp3571
(dp3572
g73
(dp3573
g81
I3
ssg82
g3567
sg75
(lp3574
S''
asbasbasbag68
(g84
g70
NtRp3575
(dp3576
g73
(dp3577
sg82
g3511
sg75
(lp3578
g68
(g89
g70
NtRp3579
(dp3580
g73
(dp3581
g93
g94
ssg82
g3575
sg75
(lp3582
g345
asbag68
(g89
g70
NtRp3583
(dp3584
g73
(dp3585
g100
g101
ssg82
g3575
sg75
(lp3586
S':'
asbag68
(g89
g70
NtRp3587
(dp3588
g73
(dp3589
sg82
g3575
sg75
(lp3590
g68
(g69
g70
NtRp3591
(dp3592
g73
(dp3593
g81
I3
ssg82
g3587
sg75
(lp3594
S''
asbasbasbag68
(g84
g70
NtRp3595
(dp3596
g73
(dp3597
sg82
g3511
sg75
(lp3598
g68
(g89
g70
NtRp3599
(dp3600
g73
(dp3601
g93
g94
ssg82
g3595
sg75
(lp3602
g366
asbag68
(g89
g70
NtRp3603
(dp3604
g73
(dp3605
g100
g101
ssg82
g3595
sg75
(lp3606
S':'
asbag68
(g89
g70
NtRp3607
(dp3608
g73
(dp3609
sg82
g3595
sg75
(lp3610
g68
(g69
g70
NtRp3611
(dp3612
g73
(dp3613
g81
I3
ssg82
g3607
sg75
(lp3614
S''
asbasbasbag68
(g84
g70
NtRp3615
(dp3616
g73
(dp3617
sg82
g3511
sg75
(lp3618
g68
(g89
g70
NtRp3619
(dp3620
g73
(dp3621
g93
g94
ssg82
g3615
sg75
(lp3622
g387
asbag68
(g89
g70
NtRp3623
(dp3624
g73
(dp3625
g100
g101
ssg82
g3615
sg75
(lp3626
S':'
asbag68
(g89
g70
NtRp3627
(dp3628
g73
(dp3629
sg82
g3615
sg75
(lp3630
g68
(g69
g70
NtRp3631
(dp3632
g73
(dp3633
g81
I3
ssg82
g3627
sg75
(lp3634
S'/'
asbasbasbag68
(g84
g70
NtRp3635
(dp3636
g73
(dp3637
sg82
g3511
sg75
(lp3638
g68
(g89
g70
NtRp3639
(dp3640
g73
(dp3641
g93
g94
ssg82
g3635
sg75
(lp3642
g408
asbag68
(g89
g70
NtRp3643
(dp3644
g73
(dp3645
g100
g101
ssg82
g3635
sg75
(lp3646
S':'
asbag68
(g89
g70
NtRp3647
(dp3648
g73
(dp3649
sg82
g3635
sg75
(lp3650
g68
(g69
g70
NtRp3651
(dp3652
g73
(dp3653
g81
I3
ssg82
g3647
sg75
(lp3654
S''
asbasbasbag68
(g84
g70
NtRp3655
(dp3656
g73
(dp3657
sg82
g3511
sg75
(lp3658
g68
(g89
g70
NtRp3659
(dp3660
g73
(dp3661
g93
g94
ssg82
g3655
sg75
(lp3662
g429
asbag68
(g89
g70
NtRp3663
(dp3664
g73
(dp3665
g100
g101
ssg82
g3655
sg75
(lp3666
S':'
asbag68
(g89
g70
NtRp3667
(dp3668
g73
(dp3669
sg82
g3655
sg75
(lp3670
g68
(g69
g70
NtRp3671
(dp3672
g73
(dp3673
g81
I3
ssg82
g3667
sg75
(lp3674
S''
asbasbasbasbasbasbasbasbasbasbasbag68
(g84
g70
NtRp3675
(dp3676
g73
(dp3677
sg82
g3441
sg75
(lp3678
g68
(g89
g70
NtRp3679
(dp3680
g73
(dp3681
g93
g94
ssg82
g3675
sg75
(lp3682
S'files'
p3683
asbag68
(g89
g70
NtRp3684
(dp3685
g73
(dp3686
g100
g101
ssg82
g3675
sg75
(lp3687
S':'
asbag68
(g89
g70
NtRp3688
(dp3689
g73
(dp3690
sg82
g3675
sg75
(lp3691
g68
(g69
g70
NtRp3692
(dp3693
g73
(dp3694
g81
I5
ssg82
g3688
sg75
(lp3695
g68
(g77
g70
NtRp3696
(dp3697
g73
(dp3698
g81
I4
ssg82
Nsg75
(lp3699
sbasbasbasbag68
(g84
g70
NtRp3700
(dp3701
g73
(dp3702
sg82
g3441
sg75
(lp3703
g68
(g89
g70
NtRp3704
(dp3705
g73
(dp3706
g93
g94
ssg82
g3700
sg75
(lp3707
S'flash'
p3708
asbag68
(g89
g70
NtRp3709
(dp3710
g73
(dp3711
g100
g101
ssg82
g3700
sg75
(lp3712
S':'
asbag68
(g89
g70
NtRp3713
(dp3714
g73
(dp3715
sg82
g3700
sg75
(lp3716
g68
(g69
g70
NtRp3717
(dp3718
g73
(dp3719
g81
I5
ssg82
g3713
sg75
(lp3720
S''
asbasbasbag68
(g84
g70
NtRp3721
(dp3722
g73
(dp3723
sg82
g3441
sg75
(lp3724
g68
(g89
g70
NtRp3725
(dp3726
g73
(dp3727
g93
g94
ssg82
g3721
sg75
(lp3728
S'generic_patterns'
p3729
asbag68
(g89
g70
NtRp3730
(dp3731
g73
(dp3732
g100
g101
ssg82
g3721
sg75
(lp3733
S':'
asbag68
(g89
g70
NtRp3734
(dp3735
g73
(dp3736
sg82
g3721
sg75
(lp3737
g68
(g69
g70
NtRp3738
(dp3739
g73
(dp3740
g81
I5
ssg82
g3734
sg75
(lp3741
g68
(g77
g70
NtRp3742
(dp3743
g73
(dp3744
g81
I4
ssg82
Nsg75
(lp3745
g68
(g84
g70
NtRp3746
(dp3747
g73
(dp3748
sg82
g3742
sg75
(lp3749
g68
(g89
g70
NtRp3750
(dp3751
g73
(dp3752
sg82
g3746
sg75
(lp3753
g68
(g69
g70
NtRp3754
(dp3755
g73
(dp3756
g81
I4
ssg82
g3750
sg75
(lp3757
S'*'
asbasbasbasbasbasbasbag68
(g84
g70
NtRp3758
(dp3759
g73
(dp3760
sg82
g3441
sg75
(lp3761
g68
(g89
g70
NtRp3762
(dp3763
g73
(dp3764
g93
g94
ssg82
g3758
sg75
(lp3765
S'headers'
p3766
asbag68
(g89
g70
NtRp3767
(dp3768
g73
(dp3769
g100
g101
ssg82
g3758
sg75
(lp3770
S':'
asbag68
(g89
g70
NtRp3771
(dp3772
g73
(dp3773
sg82
g3758
sg75
(lp3774
g68
(g69
g70
NtRp3775
(dp3776
g73
(dp3777
g81
I5
ssg82
g3771
sg75
(lp3778
g68
(g77
g70
NtRp3779
(dp3780
g73
(dp3781
g81
I4
ssg82
Nsg75
(lp3782
g68
(g84
g70
NtRp3783
(dp3784
g73
(dp3785
sg82
g3779
sg75
(lp3786
g68
(g89
g70
NtRp3787
(dp3788
g73
(dp3789
g93
g94
ssg82
g3783
sg75
(lp3790
S'Cache-Control'
p3791
asbag68
(g89
g70
NtRp3792
(dp3793
g73
(dp3794
g100
g101
ssg82
g3783
sg75
(lp3795
S':'
asbag68
(g89
g70
NtRp3796
(dp3797
g73
(dp3798
sg82
g3783
sg75
(lp3799
g68
(g69
g70
NtRp3800
(dp3801
g73
(dp3802
g81
I4
ssg82
g3796
sg75
(lp3803
S'no-store, no-cache, must-revalidate, post-check=0, pre-check=0'
p3804
asbasbasbag68
(g84
g70
NtRp3805
(dp3806
g73
(dp3807
sg82
g3779
sg75
(lp3808
g68
(g89
g70
NtRp3809
(dp3810
g73
(dp3811
g93
g94
ssg82
g3805
sg75
(lp3812
S'Content-Type'
p3813
asbag68
(g89
g70
NtRp3814
(dp3815
g73
(dp3816
g100
g101
ssg82
g3805
sg75
(lp3817
S':'
asbag68
(g89
g70
NtRp3818
(dp3819
g73
(dp3820
sg82
g3805
sg75
(lp3821
g68
(g69
g70
NtRp3822
(dp3823
g73
(dp3824
g81
I4
ssg82
g3818
sg75
(lp3825
S'text/html; charset=utf-8'
p3826
asbasbasbag68
(g84
g70
NtRp3827
(dp3828
g73
(dp3829
sg82
g3779
sg75
(lp3830
g68
(g89
g70
NtRp3831
(dp3832
g73
(dp3833
g93
g94
ssg82
g3827
sg75
(lp3834
S'Expires'
p3835
asbag68
(g89
g70
NtRp3836
(dp3837
g73
(dp3838
g100
g101
ssg82
g3827
sg75
(lp3839
S':'
asbag68
(g89
g70
NtRp3840
(dp3841
g73
(dp3842
sg82
g3827
sg75
(lp3843
g68
(g69
g70
NtRp3844
(dp3845
g73
(dp3846
g81
I4
ssg82
g3840
sg75
(lp3847
S'Tue, 17 Jan 2012 11:48:37 GMT'
p3848
asbasbasbag68
(g84
g70
NtRp3849
(dp3850
g73
(dp3851
sg82
g3779
sg75
(lp3852
g68
(g89
g70
NtRp3853
(dp3854
g73
(dp3855
g93
g94
ssg82
g3849
sg75
(lp3856
S'Pragma'
p3857
asbag68
(g89
g70
NtRp3858
(dp3859
g73
(dp3860
g100
g101
ssg82
g3849
sg75
(lp3861
S':'
asbag68
(g89
g70
NtRp3862
(dp3863
g73
(dp3864
sg82
g3849
sg75
(lp3865
g68
(g69
g70
NtRp3866
(dp3867
g73
(dp3868
g81
I4
ssg82
g3862
sg75
(lp3869
S'no-cache'
p3870
asbasbasbag68
(g84
g70
NtRp3871
(dp3872
g73
(dp3873
sg82
g3779
sg75
(lp3874
g68
(g89
g70
NtRp3875
(dp3876
g73
(dp3877
g93
g94
ssg82
g3871
sg75
(lp3878
S'X-Powered-By'
p3879
asbag68
(g89
g70
NtRp3880
(dp3881
g73
(dp3882
g100
g101
ssg82
g3871
sg75
(lp3883
S':'
asbag68
(g89
g70
NtRp3884
(dp3885
g73
(dp3886
sg82
g3871
sg75
(lp3887
g68
(g69
g70
NtRp3888
(dp3889
g73
(dp3890
g81
I4
ssg82
g3884
sg75
(lp3891
S'web2py'
p3892
asbasbasbasbasbasbasbag68
(g84
g70
NtRp3893
(dp3894
g73
(dp3895
sg82
g3441
sg75
(lp3896
g68
(g89
g70
NtRp3897
(dp3898
g73
(dp3899
g93
g94
ssg82
g3893
sg75
(lp3900
S'menu'
p3901
asbag68
(g89
g70
NtRp3902
(dp3903
g73
(dp3904
g100
g101
ssg82
g3893
sg75
(lp3905
S':'
asbag68
(g89
g70
NtRp3906
(dp3907
g73
(dp3908
sg82
g3893
sg75
(lp3909
g68
(g69
g70
NtRp3910
(dp3911
g73
(dp3912
g81
I5
ssg82
g3906
sg75
(lp3913
g68
(g77
g70
NtRp3914
(dp3915
g73
(dp3916
g81
I4
ssg82
Nsg75
(lp3917
g68
(g84
g70
NtRp3918
(dp3919
g73
(dp3920
sg82
g3914
sg75
(lp3921
g68
(g89
g70
NtRp3922
(dp3923
g73
(dp3924
sg82
g3918
sg75
(lp3925
g68
(g69
g70
NtRp3926
(dp3927
g73
(dp3928
g81
I4
ssg82
g3922
sg75
(lp3929
g68
(g77
g70
NtRp3930
(dp3931
g73
(dp3932
g81
I3
ssg82
Nsg75
(lp3933
g68
(g84
g70
NtRp3934
(dp3935
g73
(dp3936
sg82
g3930
sg75
(lp3937
g68
(g89
g70
NtRp3938
(dp3939
g73
(dp3940
sg82
g3934
sg75
(lp3941
g68
(g69
g70
NtRp3942
(dp3943
g73
(dp3944
g81
I3
ssg82
g3938
sg75
(lp3945
cgluon.languages
lazyT_unpickle
p3946
(S't\x06\x00\x00\x00Inicio'
tRp3947
asbasbasbag68
(g84
g70
NtRp3948
(dp3949
g73
(dp3950
sg82
g3930
sg75
(lp3951
g68
(g89
g70
NtRp3952
(dp3953
g73
(dp3954
sg82
g3948
sg75
(lp3955
g68
(g69
g70
NtRp3956
(dp3957
g73
(dp3958
g81
I3
ssg82
g3952
sg75
(lp3959
g111
asbasbasbag68
(g84
g70
NtRp3960
(dp3961
g73
(dp3962
sg82
g3930
sg75
(lp3963
g68
(g89
g70
NtRp3964
(dp3965
g73
(dp3966
sg82
g3960
sg75
(lp3967
g68
(g69
g70
NtRp3968
(dp3969
g73
(dp3970
g81
I3
ssg82
g3964
sg75
(lp3971
S'/synopsis/default/index'
p3972
asbasbasbag68
(g84
g70
NtRp3973
(dp3974
g73
(dp3975
sg82
g3930
sg75
(lp3976
g68
(g89
g70
NtRp3977
(dp3978
g73
(dp3979
sg82
g3973
sg75
(lp3980
g68
(g69
g70
NtRp3981
(dp3982
g73
(dp3983
g81
I3
ssg82
g3977
sg75
(lp3984
g68
(g77
g70
NtRp3985
(dp3986
g73
(dp3987
g81
I2
ssg82
Nsg75
(lp3988
sbasbasbasbasbasbasbasbag68
(g84
g70
NtRp3989
(dp3990
g73
(dp3991
sg82
g3914
sg75
(lp3992
g68
(g89
g70
NtRp3993
(dp3994
g73
(dp3995
sg82
g3989
sg75
(lp3996
g68
(g69
g70
NtRp3997
(dp3998
g73
(dp3999
g81
I4
ssg82
g3993
sg75
(lp4000
g68
(g77
g70
NtRp4001
(dp4002
g73
(dp4003
g81
I3
ssg82
Nsg75
(lp4004
g68
(g84
g70
NtRp4005
(dp4006
g73
(dp4007
sg82
g4001
sg75
(lp4008
g68
(g89
g70
NtRp4009
(dp4010
g73
(dp4011
sg82
g4005
sg75
(lp4012
g68
(g69
g70
NtRp4013
(dp4014
g73
(dp4015
g81
I3
ssg82
g4009
sg75
(lp4016
g3946
(S's\r\x00\x00\x00Informa\xc3\xa7\xc3\xb5es'
tRp4017
asbasbasbag68
(g84
g70
NtRp4018
(dp4019
g73
(dp4020
sg82
g4001
sg75
(lp4021
g68
(g89
g70
NtRp4022
(dp4023
g73
(dp4024
sg82
g4018
sg75
(lp4025
g68
(g69
g70
NtRp4026
(dp4027
g73
(dp4028
g81
I3
ssg82
g4022
sg75
(lp4029
g111
asbasbasbag68
(g84
g70
NtRp4030
(dp4031
g73
(dp4032
sg82
g4001
sg75
(lp4033
g68
(g89
g70
NtRp4034
(dp4035
g73
(dp4036
sg82
g4030
sg75
(lp4037
g68
(g69
g70
NtRp4038
(dp4039
g73
(dp4040
g81
I3
ssg82
g4034
sg75
(lp4041
S'/synopsis/information/index'
p4042
asbasbasbag68
(g84
g70
NtRp4043
(dp4044
g73
(dp4045
sg82
g4001
sg75
(lp4046
g68
(g89
g70
NtRp4047
(dp4048
g73
(dp4049
sg82
g4043
sg75
(lp4050
g68
(g69
g70
NtRp4051
(dp4052
g73
(dp4053
g81
I3
ssg82
g4047
sg75
(lp4054
g68
(g77
g70
NtRp4055
(dp4056
g73
(dp4057
g81
I2
ssg82
Nsg75
(lp4058
sbasbasbasbasbasbasbasbag68
(g84
g70
NtRp4059
(dp4060
g73
(dp4061
sg82
g3914
sg75
(lp4062
g68
(g89
g70
NtRp4063
(dp4064
g73
(dp4065
sg82
g4059
sg75
(lp4066
g68
(g69
g70
NtRp4067
(dp4068
g73
(dp4069
g81
I4
ssg82
g4063
sg75
(lp4070
g68
(g77
g70
NtRp4071
(dp4072
g73
(dp4073
g81
I3
ssg82
Nsg75
(lp4074
g68
(g84
g70
NtRp4075
(dp4076
g73
(dp4077
sg82
g4071
sg75
(lp4078
g68
(g89
g70
NtRp4079
(dp4080
g73
(dp4081
sg82
g4075
sg75
(lp4082
g68
(g69
g70
NtRp4083
(dp4084
g73
(dp4085
g81
I3
ssg82
g4079
sg75
(lp4086
g3946
(S't\x05\x00\x00\x00Sobre'
tRp4087
asbasbasbag68
(g84
g70
NtRp4088
(dp4089
g73
(dp4090
sg82
g4071
sg75
(lp4091
g68
(g89
g70
NtRp4092
(dp4093
g73
(dp4094
sg82
g4088
sg75
(lp4095
g68
(g69
g70
NtRp4096
(dp4097
g73
(dp4098
g81
I3
ssg82
g4092
sg75
(lp4099
g111
asbasbasbag68
(g84
g70
NtRp4100
(dp4101
g73
(dp4102
sg82
g4071
sg75
(lp4103
g68
(g89
g70
NtRp4104
(dp4105
g73
(dp4106
sg82
g4100
sg75
(lp4107
g68
(g69
g70
NtRp4108
(dp4109
g73
(dp4110
g81
I3
ssg82
g4104
sg75
(lp4111
S'/synopsis/default/about'
p4112
asbasbasbag68
(g84
g70
NtRp4113
(dp4114
g73
(dp4115
sg82
g4071
sg75
(lp4116
g68
(g89
g70
NtRp4117
(dp4118
g73
(dp4119
sg82
g4113
sg75
(lp4120
g68
(g69
g70
NtRp4121
(dp4122
g73
(dp4123
g81
I3
ssg82
g4117
sg75
(lp4124
g68
(g77
g70
NtRp4125
(dp4126
g73
(dp4127
g81
I2
ssg82
Nsg75
(lp4128
sbasbasbasbasbasbasbasbasbasbasbasbag68
(g84
g70
NtRp4129
(dp4130
g73
(dp4131
sg82
g3441
sg75
(lp4132
g68
(g89
g70
NtRp4133
(dp4134
g73
(dp4135
g93
g94
ssg82
g4129
sg75
(lp4136
S'meta'
p4137
asbag68
(g89
g70
NtRp4138
(dp4139
g73
(dp4140
g100
g101
ssg82
g4129
sg75
(lp4141
S':'
asbag68
(g89
g70
NtRp4142
(dp4143
g73
(dp4144
sg82
g4129
sg75
(lp4145
g68
(g69
g70
NtRp4146
(dp4147
g73
(dp4148
g81
I5
ssg82
g4142
sg75
(lp4149
g68
(g77
g70
NtRp4150
(dp4151
g73
(dp4152
g81
I4
ssg82
Nsg75
(lp4153
g68
(g84
g70
NtRp4154
(dp4155
g73
(dp4156
sg82
g4150
sg75
(lp4157
g68
(g89
g70
NtRp4158
(dp4159
g73
(dp4160
g93
g94
ssg82
g4154
sg75
(lp4161
S'author'
p4162
asbag68
(g89
g70
NtRp4163
(dp4164
g73
(dp4165
g100
g101
ssg82
g4154
sg75
(lp4166
S':'
asbag68
(g89
g70
NtRp4167
(dp4168
g73
(dp4169
sg82
g4154
sg75
(lp4170
g68
(g69
g70
NtRp4171
(dp4172
g73
(dp4173
g81
I4
ssg82
g4167
sg75
(lp4174
S'Your Name <you@example.com>'
p4175
asbasbasbag68
(g84
g70
NtRp4176
(dp4177
g73
(dp4178
sg82
g4150
sg75
(lp4179
g68
(g89
g70
NtRp4180
(dp4181
g73
(dp4182
g93
g94
ssg82
g4176
sg75
(lp4183
S'copyright'
p4184
asbag68
(g89
g70
NtRp4185
(dp4186
g73
(dp4187
g100
g101
ssg82
g4176
sg75
(lp4188
S':'
asbag68
(g89
g70
NtRp4189
(dp4190
g73
(dp4191
sg82
g4176
sg75
(lp4192
g68
(g69
g70
NtRp4193
(dp4194
g73
(dp4195
g81
I4
ssg82
g4189
sg75
(lp4196
S'Copyright 2011'
p4197
asbasbasbag68
(g84
g70
NtRp4198
(dp4199
g73
(dp4200
sg82
g4150
sg75
(lp4201
g68
(g89
g70
NtRp4202
(dp4203
g73
(dp4204
g93
g94
ssg82
g4198
sg75
(lp4205
S'description'
p4206
asbag68
(g89
g70
NtRp4207
(dp4208
g73
(dp4209
g100
g101
ssg82
g4198
sg75
(lp4210
S':'
asbag68
(g89
g70
NtRp4211
(dp4212
g73
(dp4213
sg82
g4198
sg75
(lp4214
g68
(g69
g70
NtRp4215
(dp4216
g73
(dp4217
g81
I4
ssg82
g4211
sg75
(lp4218
S'a cool new app'
p4219
asbasbasbag68
(g84
g70
NtRp4220
(dp4221
g73
(dp4222
sg82
g4150
sg75
(lp4223
g68
(g89
g70
NtRp4224
(dp4225
g73
(dp4226
g93
g94
ssg82
g4220
sg75
(lp4227
S'generator'
p4228
asbag68
(g89
g70
NtRp4229
(dp4230
g73
(dp4231
g100
g101
ssg82
g4220
sg75
(lp4232
S':'
asbag68
(g89
g70
NtRp4233
(dp4234
g73
(dp4235
sg82
g4220
sg75
(lp4236
g68
(g69
g70
NtRp4237
(dp4238
g73
(dp4239
g81
I4
ssg82
g4233
sg75
(lp4240
S'Web2py Web Framework'
p4241
asbasbasbag68
(g84
g70
NtRp4242
(dp4243
g73
(dp4244
sg82
g4150
sg75
(lp4245
g68
(g89
g70
NtRp4246
(dp4247
g73
(dp4248
g93
g94
ssg82
g4242
sg75
(lp4249
S'keywords'
p4250
asbag68
(g89
g70
NtRp4251
(dp4252
g73
(dp4253
g100
g101
ssg82
g4242
sg75
(lp4254
S':'
asbag68
(g89
g70
NtRp4255
(dp4256
g73
(dp4257
sg82
g4242
sg75
(lp4258
g68
(g69
g70
NtRp4259
(dp4260
g73
(dp4261
g81
I4
ssg82
g4255
sg75
(lp4262
S'web2py, python, framework'
p4263
asbasbasbasbasbasbasbag68
(g84
g70
NtRp4264
(dp4265
g73
(dp4266
sg82
g3441
sg75
(lp4267
g68
(g89
g70
NtRp4268
(dp4269
g73
(dp4270
g93
g94
ssg82
g4264
sg75
(lp4271
S'postprocessing'
p4272
asbag68
(g89
g70
NtRp4273
(dp4274
g73
(dp4275
g100
g101
ssg82
g4264
sg75
(lp4276
S':'
asbag68
(g89
g70
NtRp4277
(dp4278
g73
(dp4279
sg82
g4264
sg75
(lp4280
g68
(g69
g70
NtRp4281
(dp4282
g73
(dp4283
g81
I5
ssg82
g4277
sg75
(lp4284
g68
(g77
g70
NtRp4285
(dp4286
g73
(dp4287
g81
I4
ssg82
Nsg75
(lp4288
sbasbasbasbag68
(g84
g70
NtRp4289
(dp4290
g73
(dp4291
sg82
g3441
sg75
(lp4292
g68
(g89
g70
NtRp4293
(dp4294
g73
(dp4295
g93
g94
ssg82
g4289
sg75
(lp4296
S'session_file'
p4297
asbag68
(g89
g70
NtRp4298
(dp4299
g73
(dp4300
g100
g101
ssg82
g4289
sg75
(lp4301
S':'
asbag68
(g89
g70
NtRp4302
(dp4303
g73
(dp4304
sg82
g4289
sg75
(lp4305
g68
(g69
g70
NtRp4306
(dp4307
g73
(dp4308
g81
I5
ssg82
g4302
sg75
(lp4309
S"<open file '/home/kaique/Projects/web2py/applications/synopsis/sessions/127.0.0.1-939daf95-14ab-422d-8204-c5411c18373a', mode 'rb+' at 0x39b5780>"
p4310
asbasbasbag68
(g84
g70
NtRp4311
(dp4312
g73
(dp4313
sg82
g3441
sg75
(lp4314
g68
(g89
g70
NtRp4315
(dp4316
g73
(dp4317
g93
g94
ssg82
g4311
sg75
(lp4318
S'session_filename'
p4319
asbag68
(g89
g70
NtRp4320
(dp4321
g73
(dp4322
g100
g101
ssg82
g4311
sg75
(lp4323
S':'
asbag68
(g89
g70
NtRp4324
(dp4325
g73
(dp4326
sg82
g4311
sg75
(lp4327
g68
(g69
g70
NtRp4328
(dp4329
g73
(dp4330
g81
I5
ssg82
g4324
sg75
(lp4331
S'/home/kaique/Projects/web2py/applications/synopsis/sessions/127.0.0.1-939daf95-14ab-422d-8204-c5411c18373a'
p4332
asbasbasbag68
(g84
g70
NtRp4333
(dp4334
g73
(dp4335
sg82
g3441
sg75
(lp4336
g68
(g89
g70
NtRp4337
(dp4338
g73
(dp4339
g93
g94
ssg82
g4333
sg75
(lp4340
S'session_id'
p4341
asbag68
(g89
g70
NtRp4342
(dp4343
g73
(dp4344
g100
g101
ssg82
g4333
sg75
(lp4345
S':'
asbag68
(g89
g70
NtRp4346
(dp4347
g73
(dp4348
sg82
g4333
sg75
(lp4349
g68
(g69
g70
NtRp4350
(dp4351
g73
(dp4352
g81
I5
ssg82
g4346
sg75
(lp4353
S'127.0.0.1-939daf95-14ab-422d-8204-c5411c18373a'
p4354
asbasbasbag68
(g84
g70
NtRp4355
(dp4356
g73
(dp4357
sg82
g3441
sg75
(lp4358
g68
(g89
g70
NtRp4359
(dp4360
g73
(dp4361
g93
g94
ssg82
g4355
sg75
(lp4362
S'session_id_name'
p4363
asbag68
(g89
g70
NtRp4364
(dp4365
g73
(dp4366
g100
g101
ssg82
g4355
sg75
(lp4367
S':'
asbag68
(g89
g70
NtRp4368
(dp4369
g73
(dp4370
sg82
g4355
sg75
(lp4371
g68
(g69
g70
NtRp4372
(dp4373
g73
(dp4374
g81
I5
ssg82
g4368
sg75
(lp4375
g3498
asbasbasbag68
(g84
g70
NtRp4376
(dp4377
g73
(dp4378
sg82
g3441
sg75
(lp4379
g68
(g89
g70
NtRp4380
(dp4381
g73
(dp4382
g93
g94
ssg82
g4376
sg75
(lp4383
S'session_locked'
p4384
asbag68
(g89
g70
NtRp4385
(dp4386
g73
(dp4387
g100
g101
ssg82
g4376
sg75
(lp4388
S':'
asbag68
(g89
g70
NtRp4389
(dp4390
g73
(dp4391
sg82
g4376
sg75
(lp4392
g68
(g69
g70
NtRp4393
(dp4394
g73
(dp4395
g81
I5
ssg82
g4389
sg75
(lp4396
g1690
asbasbasbag68
(g84
g70
NtRp4397
(dp4398
g73
(dp4399
sg82
g3441
sg75
(lp4400
g68
(g89
g70
NtRp4401
(dp4402
g73
(dp4403
g93
g94
ssg82
g4397
sg75
(lp4404
S'session_new'
p4405
asbag68
(g89
g70
NtRp4406
(dp4407
g73
(dp4408
g100
g101
ssg82
g4397
sg75
(lp4409
S':'
asbag68
(g89
g70
NtRp4410
(dp4411
g73
(dp4412
sg82
g4397
sg75
(lp4413
g68
(g69
g70
NtRp4414
(dp4415
g73
(dp4416
g81
I5
ssg82
g4410
sg75
(lp4417
g111
asbasbasbag68
(g84
g70
NtRp4418
(dp4419
g73
(dp4420
sg82
g3441
sg75
(lp4421
g68
(g89
g70
NtRp4422
(dp4423
g73
(dp4424
g93
g94
ssg82
g4418
sg75
(lp4425
S'status'
p4426
asbag68
(g89
g70
NtRp4427
(dp4428
g73
(dp4429
g100
g101
ssg82
g4418
sg75
(lp4430
S':'
asbag68
(g89
g70
NtRp4431
(dp4432
g73
(dp4433
sg82
g4418
sg75
(lp4434
g68
(g69
g70
NtRp4435
(dp4436
g73
(dp4437
g81
I5
ssg82
g4431
sg75
(lp4438
S'200'
p4439
asbasbasbag68
(g84
g70
NtRp4440
(dp4441
g73
(dp4442
sg82
g3441
sg75
(lp4443
g68
(g89
g70
NtRp4444
(dp4445
g73
(dp4446
g93
g94
ssg82
g4440
sg75
(lp4447
S'subtitle'
p4448
asbag68
(g89
g70
NtRp4449
(dp4450
g73
(dp4451
g100
g101
ssg82
g4440
sg75
(lp4452
S':'
asbag68
(g89
g70
NtRp4453
(dp4454
g73
(dp4455
sg82
g4440
sg75
(lp4456
g68
(g69
g70
NtRp4457
(dp4458
g73
(dp4459
g81
I5
ssg82
g4453
sg75
(lp4460
g3946
(S's\x0f\x00\x00\x00Personalize-me!'
tRp4461
asbasbasbag68
(g84
g70
NtRp4462
(dp4463
g73
(dp4464
sg82
g3441
sg75
(lp4465
g68
(g89
g70
NtRp4466
(dp4467
g73
(dp4468
g93
g94
ssg82
g4462
sg75
(lp4469
S'title'
p4470
asbag68
(g89
g70
NtRp4471
(dp4472
g73
(dp4473
g100
g101
ssg82
g4462
sg75
(lp4474
S':'
asbag68
(g89
g70
NtRp4475
(dp4476
g73
(dp4477
sg82
g4462
sg75
(lp4478
g68
(g69
g70
NtRp4479
(dp4480
g73
(dp4481
g81
I5
ssg82
g4475
sg75
(lp4482
g133
asbasbasbag68
(g84
g70
NtRp4483
(dp4484
g73
(dp4485
sg82
g3441
sg75
(lp4486
g68
(g89
g70
NtRp4487
(dp4488
g73
(dp4489
g93
g94
ssg82
g4483
sg75
(lp4490
g2334
asbag68
(g89
g70
NtRp4491
(dp4492
g73
(dp4493
g100
g101
ssg82
g4483
sg75
(lp4494
S':'
asbag68
(g89
g70
NtRp4495
(dp4496
g73
(dp4497
sg82
g4483
sg75
(lp4498
g68
(g69
g70
NtRp4499
(dp4500
g73
(dp4501
g81
I5
ssg82
g4495
sg75
(lp4502
g2347
asbasbasbag68
(g84
g70
NtRp4503
(dp4504
g73
(dp4505
sg82
g3441
sg75
(lp4506
g68
(g89
g70
NtRp4507
(dp4508
g73
(dp4509
g93
g94
ssg82
g4503
sg75
(lp4510
S'view'
p4511
asbag68
(g89
g70
NtRp4512
(dp4513
g73
(dp4514
g100
g101
ssg82
g4503
sg75
(lp4515
S':'
asbag68
(g89
g70
NtRp4516
(dp4517
g73
(dp4518
sg82
g4503
sg75
(lp4519
g68
(g69
g70
NtRp4520
(dp4521
g73
(dp4522
g81
I5
ssg82
g4516
sg75
(lp4523
S'information/index.html'
p4524
asbasbasbasbasbsS'locals'
p4525
(dp4526
g3
S"'/home/kaique/Projects/web2py/applications/synopsis/views/information/index.html'"
p4527
sg5
S'\'response.write(\\\'<!DOCTYPE html>\\\\n<html lang="\\\', ...nse.write(\\\'\\\\n  </body>\\\\n</html>\\\\n\\\', escape=False)\''
p4528
sssS'traceback'
p4529
S'Traceback (most recent call last):\n  File "/home/kaique/Projects/web2py/gluon/restricted.py", line 193, in restricted\n    ccode = compile2(code,layer)\n  File "/home/kaique/Projects/web2py/gluon/restricted.py", line 179, in compile2\n    return compile(code.rstrip().replace(\'\\r\\n\',\'\\n\')+\'\\n\', layer, \'exec\')\n  File "/home/kaique/Projects/web2py/applications/synopsis/views/information/index.html", line 100\n    response.write(P( T(\'{0} {1}\'.format(\'Not synopse, registred!\', \'<a href="URL(\'information\', \'new\')"> {2} </a>\', \'Create a new\') ))\n                                                                                             ^\nSyntaxError: invalid syntax\n'
p4530
s.