(dp1
S'output'
p2
S''
sS'layer'
p3
S'/home/kaique/Projects/web2py/applications/synopsis/controllers/information.py'
p4
sS'code'
p5
S"# -*- coding: utf-8 -*-\nimport functions as f # shorthand function\n\n@auth.requires_membership('admin')\ndef index(): # Show the all content for redirect to profile\n\tsubject = f.get_table(db, 'subject', order='created_on')\n\treturn { 'subject': subject }\n\n@auth.requires_membership('admin')\ndef profile(): # Show the profile of subject\n\targs = request.args # query url's\n\tif args: \n\t\tprofile = f.get_table(db, 'subject', id=args[0]) \n\t\tsession.index = args[0] \n\tif not args or not profile: return redirect( URL('index') )\n\treturn { 'profile': profile }\n\n@auth.requires_membership('admin')\ndef publication(): # Show the publication profile\n\targs = request.args # query url's\n\tcount_equals = f.count_equals\n\tif args: \n\t\tpublication = f.get_table(db, 'publication', id=args[0])\n\t\tsession.back = args[0] \n\tif not args or not publication: return redirect( URL('profile') )\n\treturn { 'publication': publication, \n\t\t\t 'count_equals': count_equals }\n\n@auth.requires_membership('admin')\ndef new(): # Create a new subject\n\targs = request.args\n\t\n\tif not args:\n\t\ttitle = 'Subject'\n\t\tsubject = SQLFORM(db.subject, fields=['name'])\n\t\tsubject.elements(_type='submit')[0]['_value'] = 'Create'\n\t\t\n\t\tif subject.process().accepted:\n\t\t\tresponse.flash = T('{0} {1} {2}'.format('New', title.lower(), 'inserted!'))\n\t\telif subject.errors:\n\t\t\tresponse.flash = T('Sorry, try again!')\n\t\telse:\n\t\t\tresponse.flah = T('Please, fill the field...')\n\t\t\t\n\t\treturn { 'form': subject, \n\t\t\t \t 'title': title }\n\t\n\telif args[0] == 'publication':\n\t\ttitle = 'Publication'\n\t\tpublication = SQLFORM(db.publication, fields=['title', 'sub_title'])\n\t\tpublication.vars.subject_id = args[1]\n\t\tif publication.process().accepted:\n\t\t\tresponse.flash = T(T('{0} {1} {2}'.format('New', title.lower(), 'inserted!')))\n\t\telif publication.errors:\n\t\t\tresponse.flash = T('Sorry, try again!')\n\t\telse:\n\t\t\tresponse.flahs = T('Please, fill the field...')\n\t\n\t\treturn { 'form': publication,\n\t\t\t\t 'title': title }\n\telif args[0] == 'column':\n\t\ttitle = 'Topic'\n\t\tcolumn = SQLFORM(db.column, fields=['title'])\n\t\tcolumn.vars.publication_id = args[1]\n\t\tif column.process().accepted:\n\t\t\tresponse.flash = T(T('{0} {1} {2}'.format('New', title.lower(), 'inserted!')))\n\t\telif column.errors:\n\t\t\tresponse.flash = T('Sorry, try again!')\n\t\telse:\n\t\t\tresponse.flahs = T('Please, fill the field...')\n\t\n\t\treturn { 'form': column,\n\t\t\t\t 'title': title }\n\telif args[0] == 'row':\n\t\ttitle = 'Row for {0}'.format(db.column(args[1])['title'])\n\t\trow = SQLFORM(db.row, fields=['content'])\n\t\trow.vars.column_id = args[1]\n\t\tif row.process().accepted:\n\t\t\tresponse.flash = T(T('{0} {1} {2}'.format('New', title.lower(), 'inserted!')))\n\t\telif row.errors:\n\t\t\tresponse.flash = T('Sorry, try again!')\n\t\telse:\n\t\t\tresponse.flahs = T('Please, fill the field...')\n\t\n\t\treturn { 'form': row,\n\t\t\t\t 'title': title }\n\t\t\t \t \n@auth.requires_membership('admin')\ndef edit(): # Edit the subject\n\treturn {}\n\nresponse._vars=response._caller(publication)\n"
p6
sS'snapshot'
p7
(dp8
S'exception'
p9
(dp10
S'__hash__'
p11
S"<method-wrapper '__hash__' of exceptions.AttributeError object>"
p12
sS'__setattr__'
p13
S"<method-wrapper '__setattr__' of exceptions.AttributeError object>"
p14
sS'__reduce_ex__'
p15
S'<built-in method __reduce_ex__ of exceptions.AttributeError object>'
p16
sS'__getslice__'
p17
S"<method-wrapper '__getslice__' of exceptions.AttributeError object>"
p18
sS'__getitem__'
p19
S"<method-wrapper '__getitem__' of exceptions.AttributeError object>"
p20
sS'__setstate__'
p21
S'<built-in method __setstate__ of exceptions.AttributeError object>'
p22
sS'args'
p23
S'("\'module\' object has no attribute \'count_equals\'",)'
p24
sS'__reduce__'
p25
S'<built-in method __reduce__ of exceptions.AttributeError object>'
p26
sS'__str__'
p27
S"<method-wrapper '__str__' of exceptions.AttributeError object>"
p28
sS'__format__'
p29
S'<built-in method __format__ of exceptions.AttributeError object>'
p30
sS'__getattribute__'
p31
S"<method-wrapper '__getattribute__' of exceptions.AttributeError object>"
p32
sS'__class__'
p33
S"<type 'exceptions.AttributeError'>"
p34
sS'__unicode__'
p35
S'<built-in method __unicode__ of exceptions.AttributeError object>'
p36
sS'__delattr__'
p37
S"<method-wrapper '__delattr__' of exceptions.AttributeError object>"
p38
sS'__subclasshook__'
p39
S'<built-in method __subclasshook__ of type object>'
p40
sS'__repr__'
p41
S"<method-wrapper '__repr__' of exceptions.AttributeError object>"
p42
sS'__dict__'
p43
S'{}'
p44
sS'__sizeof__'
p45
S'<built-in method __sizeof__ of exceptions.AttributeError object>'
p46
sS'__doc__'
p47
S"'Attribute not found.'"
p48
sS'__init__'
p49
S"<method-wrapper '__init__' of exceptions.AttributeError object>"
p50
sS'__new__'
p51
S'<built-in method __new__ of type object>'
p52
ssS'evalue'
p53
S"'module' object has no attribute 'count_equals'"
p54
sS'request'
p55
ccopy_reg
_reconstructor
p56
(cgluon.html
BEAUTIFY
p57
c__builtin__
object
p58
NtRp59
(dp60
S'attributes'
p61
(dp62
sS'components'
p63
(lp64
g56
(cgluon.html
TABLE
p65
g58
NtRp66
(dp67
g61
(dp68
S'level'
p69
I5
ssS'parent'
p70
Nsg63
(lp71
g56
(cgluon.html
TR
p72
g58
NtRp73
(dp74
g61
(dp75
sg70
g66
sg63
(lp76
g56
(cgluon.html
TD
p77
g58
NtRp78
(dp79
g61
(dp80
S'_style'
p81
S'font-weight:bold;'
p82
ssg70
g73
sg63
(lp83
S'ajax'
p84
asbag56
(g77
g58
NtRp85
(dp86
g61
(dp87
S'_valign'
p88
S'top'
p89
ssg70
g73
sg63
(lp90
S':'
asbag56
(g77
g58
NtRp91
(dp92
g61
(dp93
sg70
g73
sg63
(lp94
g56
(g57
g58
NtRp95
(dp96
g61
(dp97
g69
I5
ssg70
g91
sg63
(lp98
S'False'
p99
asbasbasbag56
(g72
g58
NtRp100
(dp101
g61
(dp102
sg70
g66
sg63
(lp103
g56
(g77
g58
NtRp104
(dp105
g61
(dp106
g81
g82
ssg70
g100
sg63
(lp107
S'application'
p108
asbag56
(g77
g58
NtRp109
(dp110
g61
(dp111
g88
g89
ssg70
g100
sg63
(lp112
S':'
asbag56
(g77
g58
NtRp113
(dp114
g61
(dp115
sg70
g100
sg63
(lp116
g56
(g57
g58
NtRp117
(dp118
g61
(dp119
g69
I5
ssg70
g113
sg63
(lp120
S'synopsis'
p121
asbasbasbag56
(g72
g58
NtRp122
(dp123
g61
(dp124
sg70
g66
sg63
(lp125
g56
(g77
g58
NtRp126
(dp127
g61
(dp128
g81
g82
ssg70
g122
sg63
(lp129
g23
asbag56
(g77
g58
NtRp130
(dp131
g61
(dp132
g88
g89
ssg70
g122
sg63
(lp133
S':'
asbag56
(g77
g58
NtRp134
(dp135
g61
(dp136
sg70
g122
sg63
(lp137
g56
(g57
g58
NtRp138
(dp139
g61
(dp140
g69
I5
ssg70
g134
sg63
(lp141
g56
(g65
g58
NtRp142
(dp143
g61
(dp144
g69
I4
ssg70
Nsg63
(lp145
g56
(g72
g58
NtRp146
(dp147
g61
(dp148
sg70
g142
sg63
(lp149
g56
(g77
g58
NtRp150
(dp151
g61
(dp152
sg70
g146
sg63
(lp153
g56
(g57
g58
NtRp154
(dp155
g61
(dp156
g69
I4
ssg70
g150
sg63
(lp157
S'7'
asbasbasbasbasbasbasbag56
(g72
g58
NtRp158
(dp159
g61
(dp160
sg70
g66
sg63
(lp161
g56
(g77
g58
NtRp162
(dp163
g61
(dp164
g81
g82
ssg70
g158
sg63
(lp165
S'body'
p166
asbag56
(g77
g58
NtRp167
(dp168
g61
(dp169
g88
g89
ssg70
g158
sg63
(lp170
S':'
asbag56
(g77
g58
NtRp171
(dp172
g61
(dp173
sg70
g158
sg63
(lp174
g56
(g57
g58
NtRp175
(dp176
g61
(dp177
g69
I5
ssg70
g171
sg63
(lp178
S'<cStringIO.StringO object at 0x24e8c00>'
p179
asbasbasbag56
(g72
g58
NtRp180
(dp181
g61
(dp182
sg70
g66
sg63
(lp183
g56
(g77
g58
NtRp184
(dp185
g61
(dp186
g81
g82
ssg70
g180
sg63
(lp187
S'client'
p188
asbag56
(g77
g58
NtRp189
(dp190
g61
(dp191
g88
g89
ssg70
g180
sg63
(lp192
S':'
asbag56
(g77
g58
NtRp193
(dp194
g61
(dp195
sg70
g180
sg63
(lp196
g56
(g57
g58
NtRp197
(dp198
g61
(dp199
g69
I5
ssg70
g193
sg63
(lp200
S'127.0.0.1'
p201
asbasbasbag56
(g72
g58
NtRp202
(dp203
g61
(dp204
sg70
g66
sg63
(lp205
g56
(g77
g58
NtRp206
(dp207
g61
(dp208
g81
g82
ssg70
g202
sg63
(lp209
S'controller'
p210
asbag56
(g77
g58
NtRp211
(dp212
g61
(dp213
g88
g89
ssg70
g202
sg63
(lp214
S':'
asbag56
(g77
g58
NtRp215
(dp216
g61
(dp217
sg70
g202
sg63
(lp218
g56
(g57
g58
NtRp219
(dp220
g61
(dp221
g69
I5
ssg70
g215
sg63
(lp222
S'information'
p223
asbasbasbag56
(g72
g58
NtRp224
(dp225
g61
(dp226
sg70
g66
sg63
(lp227
g56
(g77
g58
NtRp228
(dp229
g61
(dp230
g81
g82
ssg70
g224
sg63
(lp231
S'cookies'
p232
asbag56
(g77
g58
NtRp233
(dp234
g61
(dp235
g88
g89
ssg70
g224
sg63
(lp236
S':'
asbag56
(g77
g58
NtRp237
(dp238
g61
(dp239
sg70
g224
sg63
(lp240
g56
(g57
g58
NtRp241
(dp242
g61
(dp243
g69
I5
ssg70
g237
sg63
(lp244
g56
(g65
g58
NtRp245
(dp246
g61
(dp247
g69
I4
ssg70
Nsg63
(lp248
g56
(g72
g58
NtRp249
(dp250
g61
(dp251
sg70
g245
sg63
(lp252
g56
(g77
g58
NtRp253
(dp254
g61
(dp255
g81
g82
ssg70
g249
sg63
(lp256
S'session_id_admin'
p257
asbag56
(g77
g58
NtRp258
(dp259
g61
(dp260
g88
g89
ssg70
g249
sg63
(lp261
S':'
asbag56
(g77
g58
NtRp262
(dp263
g61
(dp264
sg70
g249
sg63
(lp265
g56
(g57
g58
NtRp266
(dp267
g61
(dp268
g69
I4
ssg70
g262
sg63
(lp269
g56
(g65
g58
NtRp270
(dp271
g61
(dp272
g69
I3
ssg70
Nsg63
(lp273
g56
(g72
g58
NtRp274
(dp275
g61
(dp276
sg70
g270
sg63
(lp277
g56
(g77
g58
NtRp278
(dp279
g61
(dp280
g81
g82
ssg70
g274
sg63
(lp281
S'comment'
p282
asbag56
(g77
g58
NtRp283
(dp284
g61
(dp285
g88
g89
ssg70
g274
sg63
(lp286
S':'
asbag56
(g77
g58
NtRp287
(dp288
g61
(dp289
sg70
g274
sg63
(lp290
g56
(g57
g58
NtRp291
(dp292
g61
(dp293
g69
I3
ssg70
g287
sg63
(lp294
S''
asbasbasbag56
(g72
g58
NtRp295
(dp296
g61
(dp297
sg70
g270
sg63
(lp298
g56
(g77
g58
NtRp299
(dp300
g61
(dp301
g81
g82
ssg70
g295
sg63
(lp302
S'domain'
p303
asbag56
(g77
g58
NtRp304
(dp305
g61
(dp306
g88
g89
ssg70
g295
sg63
(lp307
S':'
asbag56
(g77
g58
NtRp308
(dp309
g61
(dp310
sg70
g295
sg63
(lp311
g56
(g57
g58
NtRp312
(dp313
g61
(dp314
g69
I3
ssg70
g308
sg63
(lp315
S''
asbasbasbag56
(g72
g58
NtRp316
(dp317
g61
(dp318
sg70
g270
sg63
(lp319
g56
(g77
g58
NtRp320
(dp321
g61
(dp322
g81
g82
ssg70
g316
sg63
(lp323
S'expires'
p324
asbag56
(g77
g58
NtRp325
(dp326
g61
(dp327
g88
g89
ssg70
g316
sg63
(lp328
S':'
asbag56
(g77
g58
NtRp329
(dp330
g61
(dp331
sg70
g316
sg63
(lp332
g56
(g57
g58
NtRp333
(dp334
g61
(dp335
g69
I3
ssg70
g329
sg63
(lp336
S''
asbasbasbag56
(g72
g58
NtRp337
(dp338
g61
(dp339
sg70
g270
sg63
(lp340
g56
(g77
g58
NtRp341
(dp342
g61
(dp343
g81
g82
ssg70
g337
sg63
(lp344
S'httponly'
p345
asbag56
(g77
g58
NtRp346
(dp347
g61
(dp348
g88
g89
ssg70
g337
sg63
(lp349
S':'
asbag56
(g77
g58
NtRp350
(dp351
g61
(dp352
sg70
g337
sg63
(lp353
g56
(g57
g58
NtRp354
(dp355
g61
(dp356
g69
I3
ssg70
g350
sg63
(lp357
S''
asbasbasbag56
(g72
g58
NtRp358
(dp359
g61
(dp360
sg70
g270
sg63
(lp361
g56
(g77
g58
NtRp362
(dp363
g61
(dp364
g81
g82
ssg70
g358
sg63
(lp365
S'max-age'
p366
asbag56
(g77
g58
NtRp367
(dp368
g61
(dp369
g88
g89
ssg70
g358
sg63
(lp370
S':'
asbag56
(g77
g58
NtRp371
(dp372
g61
(dp373
sg70
g358
sg63
(lp374
g56
(g57
g58
NtRp375
(dp376
g61
(dp377
g69
I3
ssg70
g371
sg63
(lp378
S''
asbasbasbag56
(g72
g58
NtRp379
(dp380
g61
(dp381
sg70
g270
sg63
(lp382
g56
(g77
g58
NtRp383
(dp384
g61
(dp385
g81
g82
ssg70
g379
sg63
(lp386
S'path'
p387
asbag56
(g77
g58
NtRp388
(dp389
g61
(dp390
g88
g89
ssg70
g379
sg63
(lp391
S':'
asbag56
(g77
g58
NtRp392
(dp393
g61
(dp394
sg70
g379
sg63
(lp395
g56
(g57
g58
NtRp396
(dp397
g61
(dp398
g69
I3
ssg70
g392
sg63
(lp399
S''
asbasbasbag56
(g72
g58
NtRp400
(dp401
g61
(dp402
sg70
g270
sg63
(lp403
g56
(g77
g58
NtRp404
(dp405
g61
(dp406
g81
g82
ssg70
g400
sg63
(lp407
S'secure'
p408
asbag56
(g77
g58
NtRp409
(dp410
g61
(dp411
g88
g89
ssg70
g400
sg63
(lp412
S':'
asbag56
(g77
g58
NtRp413
(dp414
g61
(dp415
sg70
g400
sg63
(lp416
g56
(g57
g58
NtRp417
(dp418
g61
(dp419
g69
I3
ssg70
g413
sg63
(lp420
S''
asbasbasbag56
(g72
g58
NtRp421
(dp422
g61
(dp423
sg70
g270
sg63
(lp424
g56
(g77
g58
NtRp425
(dp426
g61
(dp427
g81
g82
ssg70
g421
sg63
(lp428
S'version'
p429
asbag56
(g77
g58
NtRp430
(dp431
g61
(dp432
g88
g89
ssg70
g421
sg63
(lp433
S':'
asbag56
(g77
g58
NtRp434
(dp435
g61
(dp436
sg70
g421
sg63
(lp437
g56
(g57
g58
NtRp438
(dp439
g61
(dp440
g69
I3
ssg70
g434
sg63
(lp441
S''
asbasbasbasbasbasbasbag56
(g72
g58
NtRp442
(dp443
g61
(dp444
sg70
g245
sg63
(lp445
g56
(g77
g58
NtRp446
(dp447
g61
(dp448
g81
g82
ssg70
g442
sg63
(lp449
S'session_id_synopsis'
p450
asbag56
(g77
g58
NtRp451
(dp452
g61
(dp453
g88
g89
ssg70
g442
sg63
(lp454
S':'
asbag56
(g77
g58
NtRp455
(dp456
g61
(dp457
sg70
g442
sg63
(lp458
g56
(g57
g58
NtRp459
(dp460
g61
(dp461
g69
I4
ssg70
g455
sg63
(lp462
g56
(g65
g58
NtRp463
(dp464
g61
(dp465
g69
I3
ssg70
Nsg63
(lp466
g56
(g72
g58
NtRp467
(dp468
g61
(dp469
sg70
g463
sg63
(lp470
g56
(g77
g58
NtRp471
(dp472
g61
(dp473
g81
g82
ssg70
g467
sg63
(lp474
g282
asbag56
(g77
g58
NtRp475
(dp476
g61
(dp477
g88
g89
ssg70
g467
sg63
(lp478
S':'
asbag56
(g77
g58
NtRp479
(dp480
g61
(dp481
sg70
g467
sg63
(lp482
g56
(g57
g58
NtRp483
(dp484
g61
(dp485
g69
I3
ssg70
g479
sg63
(lp486
S''
asbasbasbag56
(g72
g58
NtRp487
(dp488
g61
(dp489
sg70
g463
sg63
(lp490
g56
(g77
g58
NtRp491
(dp492
g61
(dp493
g81
g82
ssg70
g487
sg63
(lp494
g303
asbag56
(g77
g58
NtRp495
(dp496
g61
(dp497
g88
g89
ssg70
g487
sg63
(lp498
S':'
asbag56
(g77
g58
NtRp499
(dp500
g61
(dp501
sg70
g487
sg63
(lp502
g56
(g57
g58
NtRp503
(dp504
g61
(dp505
g69
I3
ssg70
g499
sg63
(lp506
S''
asbasbasbag56
(g72
g58
NtRp507
(dp508
g61
(dp509
sg70
g463
sg63
(lp510
g56
(g77
g58
NtRp511
(dp512
g61
(dp513
g81
g82
ssg70
g507
sg63
(lp514
g324
asbag56
(g77
g58
NtRp515
(dp516
g61
(dp517
g88
g89
ssg70
g507
sg63
(lp518
S':'
asbag56
(g77
g58
NtRp519
(dp520
g61
(dp521
sg70
g507
sg63
(lp522
g56
(g57
g58
NtRp523
(dp524
g61
(dp525
g69
I3
ssg70
g519
sg63
(lp526
S''
asbasbasbag56
(g72
g58
NtRp527
(dp528
g61
(dp529
sg70
g463
sg63
(lp530
g56
(g77
g58
NtRp531
(dp532
g61
(dp533
g81
g82
ssg70
g527
sg63
(lp534
g345
asbag56
(g77
g58
NtRp535
(dp536
g61
(dp537
g88
g89
ssg70
g527
sg63
(lp538
S':'
asbag56
(g77
g58
NtRp539
(dp540
g61
(dp541
sg70
g527
sg63
(lp542
g56
(g57
g58
NtRp543
(dp544
g61
(dp545
g69
I3
ssg70
g539
sg63
(lp546
S''
asbasbasbag56
(g72
g58
NtRp547
(dp548
g61
(dp549
sg70
g463
sg63
(lp550
g56
(g77
g58
NtRp551
(dp552
g61
(dp553
g81
g82
ssg70
g547
sg63
(lp554
g366
asbag56
(g77
g58
NtRp555
(dp556
g61
(dp557
g88
g89
ssg70
g547
sg63
(lp558
S':'
asbag56
(g77
g58
NtRp559
(dp560
g61
(dp561
sg70
g547
sg63
(lp562
g56
(g57
g58
NtRp563
(dp564
g61
(dp565
g69
I3
ssg70
g559
sg63
(lp566
S''
asbasbasbag56
(g72
g58
NtRp567
(dp568
g61
(dp569
sg70
g463
sg63
(lp570
g56
(g77
g58
NtRp571
(dp572
g61
(dp573
g81
g82
ssg70
g567
sg63
(lp574
g387
asbag56
(g77
g58
NtRp575
(dp576
g61
(dp577
g88
g89
ssg70
g567
sg63
(lp578
S':'
asbag56
(g77
g58
NtRp579
(dp580
g61
(dp581
sg70
g567
sg63
(lp582
g56
(g57
g58
NtRp583
(dp584
g61
(dp585
g69
I3
ssg70
g579
sg63
(lp586
S''
asbasbasbag56
(g72
g58
NtRp587
(dp588
g61
(dp589
sg70
g463
sg63
(lp590
g56
(g77
g58
NtRp591
(dp592
g61
(dp593
g81
g82
ssg70
g587
sg63
(lp594
g408
asbag56
(g77
g58
NtRp595
(dp596
g61
(dp597
g88
g89
ssg70
g587
sg63
(lp598
S':'
asbag56
(g77
g58
NtRp599
(dp600
g61
(dp601
sg70
g587
sg63
(lp602
g56
(g57
g58
NtRp603
(dp604
g61
(dp605
g69
I3
ssg70
g599
sg63
(lp606
S''
asbasbasbag56
(g72
g58
NtRp607
(dp608
g61
(dp609
sg70
g463
sg63
(lp610
g56
(g77
g58
NtRp611
(dp612
g61
(dp613
g81
g82
ssg70
g607
sg63
(lp614
g429
asbag56
(g77
g58
NtRp615
(dp616
g61
(dp617
g88
g89
ssg70
g607
sg63
(lp618
S':'
asbag56
(g77
g58
NtRp619
(dp620
g61
(dp621
sg70
g607
sg63
(lp622
g56
(g57
g58
NtRp623
(dp624
g61
(dp625
g69
I3
ssg70
g619
sg63
(lp626
S''
asbasbasbasbasbasbasbag56
(g72
g58
NtRp627
(dp628
g61
(dp629
sg70
g245
sg63
(lp630
g56
(g77
g58
NtRp631
(dp632
g61
(dp633
g81
g82
ssg70
g627
sg63
(lp634
S'session_id_welcome'
p635
asbag56
(g77
g58
NtRp636
(dp637
g61
(dp638
g88
g89
ssg70
g627
sg63
(lp639
S':'
asbag56
(g77
g58
NtRp640
(dp641
g61
(dp642
sg70
g627
sg63
(lp643
g56
(g57
g58
NtRp644
(dp645
g61
(dp646
g69
I4
ssg70
g640
sg63
(lp647
g56
(g65
g58
NtRp648
(dp649
g61
(dp650
g69
I3
ssg70
Nsg63
(lp651
g56
(g72
g58
NtRp652
(dp653
g61
(dp654
sg70
g648
sg63
(lp655
g56
(g77
g58
NtRp656
(dp657
g61
(dp658
g81
g82
ssg70
g652
sg63
(lp659
g282
asbag56
(g77
g58
NtRp660
(dp661
g61
(dp662
g88
g89
ssg70
g652
sg63
(lp663
S':'
asbag56
(g77
g58
NtRp664
(dp665
g61
(dp666
sg70
g652
sg63
(lp667
g56
(g57
g58
NtRp668
(dp669
g61
(dp670
g69
I3
ssg70
g664
sg63
(lp671
S''
asbasbasbag56
(g72
g58
NtRp672
(dp673
g61
(dp674
sg70
g648
sg63
(lp675
g56
(g77
g58
NtRp676
(dp677
g61
(dp678
g81
g82
ssg70
g672
sg63
(lp679
g303
asbag56
(g77
g58
NtRp680
(dp681
g61
(dp682
g88
g89
ssg70
g672
sg63
(lp683
S':'
asbag56
(g77
g58
NtRp684
(dp685
g61
(dp686
sg70
g672
sg63
(lp687
g56
(g57
g58
NtRp688
(dp689
g61
(dp690
g69
I3
ssg70
g684
sg63
(lp691
S''
asbasbasbag56
(g72
g58
NtRp692
(dp693
g61
(dp694
sg70
g648
sg63
(lp695
g56
(g77
g58
NtRp696
(dp697
g61
(dp698
g81
g82
ssg70
g692
sg63
(lp699
g324
asbag56
(g77
g58
NtRp700
(dp701
g61
(dp702
g88
g89
ssg70
g692
sg63
(lp703
S':'
asbag56
(g77
g58
NtRp704
(dp705
g61
(dp706
sg70
g692
sg63
(lp707
g56
(g57
g58
NtRp708
(dp709
g61
(dp710
g69
I3
ssg70
g704
sg63
(lp711
S''
asbasbasbag56
(g72
g58
NtRp712
(dp713
g61
(dp714
sg70
g648
sg63
(lp715
g56
(g77
g58
NtRp716
(dp717
g61
(dp718
g81
g82
ssg70
g712
sg63
(lp719
g345
asbag56
(g77
g58
NtRp720
(dp721
g61
(dp722
g88
g89
ssg70
g712
sg63
(lp723
S':'
asbag56
(g77
g58
NtRp724
(dp725
g61
(dp726
sg70
g712
sg63
(lp727
g56
(g57
g58
NtRp728
(dp729
g61
(dp730
g69
I3
ssg70
g724
sg63
(lp731
S''
asbasbasbag56
(g72
g58
NtRp732
(dp733
g61
(dp734
sg70
g648
sg63
(lp735
g56
(g77
g58
NtRp736
(dp737
g61
(dp738
g81
g82
ssg70
g732
sg63
(lp739
g366
asbag56
(g77
g58
NtRp740
(dp741
g61
(dp742
g88
g89
ssg70
g732
sg63
(lp743
S':'
asbag56
(g77
g58
NtRp744
(dp745
g61
(dp746
sg70
g732
sg63
(lp747
g56
(g57
g58
NtRp748
(dp749
g61
(dp750
g69
I3
ssg70
g744
sg63
(lp751
S''
asbasbasbag56
(g72
g58
NtRp752
(dp753
g61
(dp754
sg70
g648
sg63
(lp755
g56
(g77
g58
NtRp756
(dp757
g61
(dp758
g81
g82
ssg70
g752
sg63
(lp759
g387
asbag56
(g77
g58
NtRp760
(dp761
g61
(dp762
g88
g89
ssg70
g752
sg63
(lp763
S':'
asbag56
(g77
g58
NtRp764
(dp765
g61
(dp766
sg70
g752
sg63
(lp767
g56
(g57
g58
NtRp768
(dp769
g61
(dp770
g69
I3
ssg70
g764
sg63
(lp771
S''
asbasbasbag56
(g72
g58
NtRp772
(dp773
g61
(dp774
sg70
g648
sg63
(lp775
g56
(g77
g58
NtRp776
(dp777
g61
(dp778
g81
g82
ssg70
g772
sg63
(lp779
g408
asbag56
(g77
g58
NtRp780
(dp781
g61
(dp782
g88
g89
ssg70
g772
sg63
(lp783
S':'
asbag56
(g77
g58
NtRp784
(dp785
g61
(dp786
sg70
g772
sg63
(lp787
g56
(g57
g58
NtRp788
(dp789
g61
(dp790
g69
I3
ssg70
g784
sg63
(lp791
S''
asbasbasbag56
(g72
g58
NtRp792
(dp793
g61
(dp794
sg70
g648
sg63
(lp795
g56
(g77
g58
NtRp796
(dp797
g61
(dp798
g81
g82
ssg70
g792
sg63
(lp799
g429
asbag56
(g77
g58
NtRp800
(dp801
g61
(dp802
g88
g89
ssg70
g792
sg63
(lp803
S':'
asbag56
(g77
g58
NtRp804
(dp805
g61
(dp806
sg70
g792
sg63
(lp807
g56
(g57
g58
NtRp808
(dp809
g61
(dp810
g69
I3
ssg70
g804
sg63
(lp811
S''
asbasbasbasbasbasbasbasbasbasbasbag56
(g72
g58
NtRp812
(dp813
g61
(dp814
sg70
g66
sg63
(lp815
g56
(g77
g58
NtRp816
(dp817
g61
(dp818
g81
g82
ssg70
g812
sg63
(lp819
S'env'
p820
asbag56
(g77
g58
NtRp821
(dp822
g61
(dp823
g88
g89
ssg70
g812
sg63
(lp824
S':'
asbag56
(g77
g58
NtRp825
(dp826
g61
(dp827
sg70
g812
sg63
(lp828
g56
(g57
g58
NtRp829
(dp830
g61
(dp831
g69
I5
ssg70
g825
sg63
(lp832
g56
(g65
g58
NtRp833
(dp834
g61
(dp835
g69
I4
ssg70
Nsg63
(lp836
g56
(g72
g58
NtRp837
(dp838
g61
(dp839
sg70
g833
sg63
(lp840
g56
(g77
g58
NtRp841
(dp842
g61
(dp843
g81
g82
ssg70
g837
sg63
(lp844
S'app_folders'
p845
asbag56
(g77
g58
NtRp846
(dp847
g61
(dp848
g88
g89
ssg70
g837
sg63
(lp849
S':'
asbag56
(g77
g58
NtRp850
(dp851
g61
(dp852
sg70
g837
sg63
(lp853
g56
(g57
g58
NtRp854
(dp855
g61
(dp856
g69
I4
ssg70
g850
sg63
(lp857
S"set(['/home/kaique/Projects/web2py/applications/synopsis/', '/home/kaique/Projects/web2py/applications/admin/'])"
p858
asbasbasbag56
(g72
g58
NtRp859
(dp860
g61
(dp861
sg70
g833
sg63
(lp862
g56
(g77
g58
NtRp863
(dp864
g61
(dp865
g81
g82
ssg70
g859
sg63
(lp866
S'applications_parent'
p867
asbag56
(g77
g58
NtRp868
(dp869
g61
(dp870
g88
g89
ssg70
g859
sg63
(lp871
S':'
asbag56
(g77
g58
NtRp872
(dp873
g61
(dp874
sg70
g859
sg63
(lp875
g56
(g57
g58
NtRp876
(dp877
g61
(dp878
g69
I4
ssg70
g872
sg63
(lp879
S'/home/kaique/Projects/web2py'
p880
asbasbasbag56
(g72
g58
NtRp881
(dp882
g61
(dp883
sg70
g833
sg63
(lp884
g56
(g77
g58
NtRp885
(dp886
g61
(dp887
g81
g82
ssg70
g881
sg63
(lp888
S'cmd_args'
p889
asbag56
(g77
g58
NtRp890
(dp891
g61
(dp892
g88
g89
ssg70
g881
sg63
(lp893
S':'
asbag56
(g77
g58
NtRp894
(dp895
g61
(dp896
sg70
g881
sg63
(lp897
g56
(g57
g58
NtRp898
(dp899
g61
(dp900
g69
I4
ssg70
g894
sg63
(lp901
g56
(g65
g58
NtRp902
(dp903
g61
(dp904
g69
I3
ssg70
Nsg63
(lp905
sbasbasbasbag56
(g72
g58
NtRp906
(dp907
g61
(dp908
sg70
g833
sg63
(lp909
g56
(g77
g58
NtRp910
(dp911
g61
(dp912
g81
g82
ssg70
g906
sg63
(lp913
S'cmd_options'
p914
asbag56
(g77
g58
NtRp915
(dp916
g61
(dp917
g88
g89
ssg70
g906
sg63
(lp918
S':'
asbag56
(g77
g58
NtRp919
(dp920
g61
(dp921
sg70
g906
sg63
(lp922
g56
(g57
g58
NtRp923
(dp924
g61
(dp925
g69
I4
ssg70
g919
sg63
(lp926
S"<Values at 0x2092950: {'verbose': False, 'ip': '127.0.0.1', 'shutdown_timeout': 5, 'taskbar': False, 'nocron': False, 'pid_filename': 'httpserver.pid', 'maxthreads': None, 'softcron': False, 'server_name': 'kaique-Pine-Trail-M', 'bpython': False, 'nogui': False, 'port': 8000, 'extcron': False, 'debuglevel': 30, 'test': None, 'folder': '/home/kaique/Projects/web2py', 'config': '', 'import_models': False, 'winservice': '', 'shell': None, 'run': '', 'log_filename': 'httpserver.log', 'args': [''], 'ssl_ca_certificate': None, 'scheduler': None, 'profiler_filename': None, 'ssl_private_key': '', 'password': 'dev', 'request_queue_size': 5, 'ssl_certificate': '', 'cronjob': False, 'plain': False, 'quiet': False, 'interfaces': None, 'minthreads': None, 'timeout': 10, 'numthreads': None, 'nobanner': False}>"
p927
asbasbasbag56
(g72
g58
NtRp928
(dp929
g61
(dp930
sg70
g833
sg63
(lp931
g56
(g77
g58
NtRp932
(dp933
g61
(dp934
g81
g82
ssg70
g928
sg63
(lp935
S'db_sessions'
p936
asbag56
(g77
g58
NtRp937
(dp938
g61
(dp939
g88
g89
ssg70
g928
sg63
(lp940
S':'
asbag56
(g77
g58
NtRp941
(dp942
g61
(dp943
sg70
g928
sg63
(lp944
g56
(g57
g58
NtRp945
(dp946
g61
(dp947
g69
I4
ssg70
g941
sg63
(lp948
S'set([])'
p949
asbasbasbag56
(g72
g58
NtRp950
(dp951
g61
(dp952
sg70
g833
sg63
(lp953
g56
(g77
g58
NtRp954
(dp955
g61
(dp956
g81
g82
ssg70
g950
sg63
(lp957
S'debugging'
p958
asbag56
(g77
g58
NtRp959
(dp960
g61
(dp961
g88
g89
ssg70
g950
sg63
(lp962
S':'
asbag56
(g77
g58
NtRp963
(dp964
g61
(dp965
sg70
g950
sg63
(lp966
g56
(g57
g58
NtRp967
(dp968
g61
(dp969
g69
I4
ssg70
g963
sg63
(lp970
g99
asbasbasbag56
(g72
g58
NtRp971
(dp972
g61
(dp973
sg70
g833
sg63
(lp974
g56
(g77
g58
NtRp975
(dp976
g61
(dp977
g81
g82
ssg70
g971
sg63
(lp978
S'gluon_parent'
p979
asbag56
(g77
g58
NtRp980
(dp981
g61
(dp982
g88
g89
ssg70
g971
sg63
(lp983
S':'
asbag56
(g77
g58
NtRp984
(dp985
g61
(dp986
sg70
g971
sg63
(lp987
g56
(g57
g58
NtRp988
(dp989
g61
(dp990
g69
I4
ssg70
g984
sg63
(lp991
S'/home/kaique/Projects/web2py'
p992
asbasbasbag56
(g72
g58
NtRp993
(dp994
g61
(dp995
sg70
g833
sg63
(lp996
g56
(g77
g58
NtRp997
(dp998
g61
(dp999
g81
g82
ssg70
g993
sg63
(lp1000
S'http_accept'
p1001
asbag56
(g77
g58
NtRp1002
(dp1003
g61
(dp1004
g88
g89
ssg70
g993
sg63
(lp1005
S':'
asbag56
(g77
g58
NtRp1006
(dp1007
g61
(dp1008
sg70
g993
sg63
(lp1009
g56
(g57
g58
NtRp1010
(dp1011
g61
(dp1012
g69
I4
ssg70
g1006
sg63
(lp1013
S'text/html,application/xhtml+xml,application/xml;q=0.9,*/*;q=0.8'
p1014
asbasbasbag56
(g72
g58
NtRp1015
(dp1016
g61
(dp1017
sg70
g833
sg63
(lp1018
g56
(g77
g58
NtRp1019
(dp1020
g61
(dp1021
g81
g82
ssg70
g1015
sg63
(lp1022
S'http_accept_charset'
p1023
asbag56
(g77
g58
NtRp1024
(dp1025
g61
(dp1026
g88
g89
ssg70
g1015
sg63
(lp1027
S':'
asbag56
(g77
g58
NtRp1028
(dp1029
g61
(dp1030
sg70
g1015
sg63
(lp1031
g56
(g57
g58
NtRp1032
(dp1033
g61
(dp1034
g69
I4
ssg70
g1028
sg63
(lp1035
S'ISO-8859-1,utf-8;q=0.7,*;q=0.7'
p1036
asbasbasbag56
(g72
g58
NtRp1037
(dp1038
g61
(dp1039
sg70
g833
sg63
(lp1040
g56
(g77
g58
NtRp1041
(dp1042
g61
(dp1043
g81
g82
ssg70
g1037
sg63
(lp1044
S'http_accept_encoding'
p1045
asbag56
(g77
g58
NtRp1046
(dp1047
g61
(dp1048
g88
g89
ssg70
g1037
sg63
(lp1049
S':'
asbag56
(g77
g58
NtRp1050
(dp1051
g61
(dp1052
sg70
g1037
sg63
(lp1053
g56
(g57
g58
NtRp1054
(dp1055
g61
(dp1056
g69
I4
ssg70
g1050
sg63
(lp1057
S'gzip, deflate'
p1058
asbasbasbag56
(g72
g58
NtRp1059
(dp1060
g61
(dp1061
sg70
g833
sg63
(lp1062
g56
(g77
g58
NtRp1063
(dp1064
g61
(dp1065
g81
g82
ssg70
g1059
sg63
(lp1066
S'http_accept_language'
p1067
asbag56
(g77
g58
NtRp1068
(dp1069
g61
(dp1070
g88
g89
ssg70
g1059
sg63
(lp1071
S':'
asbag56
(g77
g58
NtRp1072
(dp1073
g61
(dp1074
sg70
g1059
sg63
(lp1075
g56
(g57
g58
NtRp1076
(dp1077
g61
(dp1078
g69
I4
ssg70
g1072
sg63
(lp1079
S'pt-br,pt;q=0.8,en-us;q=0.5,en;q=0.3'
p1080
asbasbasbag56
(g72
g58
NtRp1081
(dp1082
g61
(dp1083
sg70
g833
sg63
(lp1084
g56
(g77
g58
NtRp1085
(dp1086
g61
(dp1087
g81
g82
ssg70
g1081
sg63
(lp1088
S'http_cache_control'
p1089
asbag56
(g77
g58
NtRp1090
(dp1091
g61
(dp1092
g88
g89
ssg70
g1081
sg63
(lp1093
S':'
asbag56
(g77
g58
NtRp1094
(dp1095
g61
(dp1096
sg70
g1081
sg63
(lp1097
g56
(g57
g58
NtRp1098
(dp1099
g61
(dp1100
g69
I4
ssg70
g1094
sg63
(lp1101
S'max-age=0'
p1102
asbasbasbag56
(g72
g58
NtRp1103
(dp1104
g61
(dp1105
sg70
g833
sg63
(lp1106
g56
(g77
g58
NtRp1107
(dp1108
g61
(dp1109
g81
g82
ssg70
g1103
sg63
(lp1110
S'http_connection'
p1111
asbag56
(g77
g58
NtRp1112
(dp1113
g61
(dp1114
g88
g89
ssg70
g1103
sg63
(lp1115
S':'
asbag56
(g77
g58
NtRp1116
(dp1117
g61
(dp1118
sg70
g1103
sg63
(lp1119
g56
(g57
g58
NtRp1120
(dp1121
g61
(dp1122
g69
I4
ssg70
g1116
sg63
(lp1123
S'keep-alive'
p1124
asbasbasbag56
(g72
g58
NtRp1125
(dp1126
g61
(dp1127
sg70
g833
sg63
(lp1128
g56
(g77
g58
NtRp1129
(dp1130
g61
(dp1131
g81
g82
ssg70
g1125
sg63
(lp1132
S'http_cookie'
p1133
asbag56
(g77
g58
NtRp1134
(dp1135
g61
(dp1136
g88
g89
ssg70
g1125
sg63
(lp1137
S':'
asbag56
(g77
g58
NtRp1138
(dp1139
g61
(dp1140
sg70
g1125
sg63
(lp1141
g56
(g57
g58
NtRp1142
(dp1143
g61
(dp1144
g69
I4
ssg70
g1138
sg63
(lp1145
S'session_id_welcome=127.0.0.1-5cd27a60-9290-4dfd-905a-2cae79e1b71d; session_id_admin=127.0.0.1-4fcac13e-289c-4471-92ed-6d5dcbf185e6; session_id_synopsis=127.0.0.1-351efa91-66d9-4ca2-9c53-1a2177b18dc7'
p1146
asbasbasbag56
(g72
g58
NtRp1147
(dp1148
g61
(dp1149
sg70
g833
sg63
(lp1150
g56
(g77
g58
NtRp1151
(dp1152
g61
(dp1153
g81
g82
ssg70
g1147
sg63
(lp1154
S'http_host'
p1155
asbag56
(g77
g58
NtRp1156
(dp1157
g61
(dp1158
g88
g89
ssg70
g1147
sg63
(lp1159
S':'
asbag56
(g77
g58
NtRp1160
(dp1161
g61
(dp1162
sg70
g1147
sg63
(lp1163
g56
(g57
g58
NtRp1164
(dp1165
g61
(dp1166
g69
I4
ssg70
g1160
sg63
(lp1167
S'localhost:8000'
p1168
asbasbasbag56
(g72
g58
NtRp1169
(dp1170
g61
(dp1171
sg70
g833
sg63
(lp1172
g56
(g77
g58
NtRp1173
(dp1174
g61
(dp1175
g81
g82
ssg70
g1169
sg63
(lp1176
S'http_referer'
p1177
asbag56
(g77
g58
NtRp1178
(dp1179
g61
(dp1180
g88
g89
ssg70
g1169
sg63
(lp1181
S':'
asbag56
(g77
g58
NtRp1182
(dp1183
g61
(dp1184
sg70
g1169
sg63
(lp1185
g56
(g57
g58
NtRp1186
(dp1187
g61
(dp1188
g69
I4
ssg70
g1182
sg63
(lp1189
S'http://localhost:8000/synopsis/information/new/row/4'
p1190
asbasbasbag56
(g72
g58
NtRp1191
(dp1192
g61
(dp1193
sg70
g833
sg63
(lp1194
g56
(g77
g58
NtRp1195
(dp1196
g61
(dp1197
g81
g82
ssg70
g1191
sg63
(lp1198
S'http_user_agent'
p1199
asbag56
(g77
g58
NtRp1200
(dp1201
g61
(dp1202
g88
g89
ssg70
g1191
sg63
(lp1203
S':'
asbag56
(g77
g58
NtRp1204
(dp1205
g61
(dp1206
sg70
g1191
sg63
(lp1207
g56
(g57
g58
NtRp1208
(dp1209
g61
(dp1210
g69
I4
ssg70
g1204
sg63
(lp1211
S'Mozilla/5.0 (Ubuntu; X11; Linux x86_64; rv:9.0.1) Gecko/20100101 Firefox/9.0.1'
p1212
asbasbasbag56
(g72
g58
NtRp1213
(dp1214
g61
(dp1215
sg70
g833
sg63
(lp1216
g56
(g77
g58
NtRp1217
(dp1218
g61
(dp1219
g81
g82
ssg70
g1213
sg63
(lp1220
S'is_jython'
p1221
asbag56
(g77
g58
NtRp1222
(dp1223
g61
(dp1224
g88
g89
ssg70
g1213
sg63
(lp1225
S':'
asbag56
(g77
g58
NtRp1226
(dp1227
g61
(dp1228
sg70
g1213
sg63
(lp1229
g56
(g57
g58
NtRp1230
(dp1231
g61
(dp1232
g69
I4
ssg70
g1226
sg63
(lp1233
g99
asbasbasbag56
(g72
g58
NtRp1234
(dp1235
g61
(dp1236
sg70
g833
sg63
(lp1237
g56
(g77
g58
NtRp1238
(dp1239
g61
(dp1240
g81
g82
ssg70
g1234
sg63
(lp1241
S'path_info'
p1242
asbag56
(g77
g58
NtRp1243
(dp1244
g61
(dp1245
g88
g89
ssg70
g1234
sg63
(lp1246
S':'
asbag56
(g77
g58
NtRp1247
(dp1248
g61
(dp1249
sg70
g1234
sg63
(lp1250
g56
(g57
g58
NtRp1251
(dp1252
g61
(dp1253
g69
I4
ssg70
g1247
sg63
(lp1254
S'/synopsis/information/publication/7'
p1255
asbasbasbag56
(g72
g58
NtRp1256
(dp1257
g61
(dp1258
sg70
g833
sg63
(lp1259
g56
(g77
g58
NtRp1260
(dp1261
g61
(dp1262
g81
g82
ssg70
g1256
sg63
(lp1263
S'query_string'
p1264
asbag56
(g77
g58
NtRp1265
(dp1266
g61
(dp1267
g88
g89
ssg70
g1256
sg63
(lp1268
S':'
asbag56
(g77
g58
NtRp1269
(dp1270
g61
(dp1271
sg70
g1256
sg63
(lp1272
g56
(g57
g58
NtRp1273
(dp1274
g61
(dp1275
g69
I4
ssg70
g1269
sg63
(lp1276
S''
asbasbasbag56
(g72
g58
NtRp1277
(dp1278
g61
(dp1279
sg70
g833
sg63
(lp1280
g56
(g77
g58
NtRp1281
(dp1282
g61
(dp1283
g81
g82
ssg70
g1277
sg63
(lp1284
S'remote_addr'
p1285
asbag56
(g77
g58
NtRp1286
(dp1287
g61
(dp1288
g88
g89
ssg70
g1277
sg63
(lp1289
S':'
asbag56
(g77
g58
NtRp1290
(dp1291
g61
(dp1292
sg70
g1277
sg63
(lp1293
g56
(g57
g58
NtRp1294
(dp1295
g61
(dp1296
g69
I4
ssg70
g1290
sg63
(lp1297
g201
asbasbasbag56
(g72
g58
NtRp1298
(dp1299
g61
(dp1300
sg70
g833
sg63
(lp1301
g56
(g77
g58
NtRp1302
(dp1303
g61
(dp1304
g81
g82
ssg70
g1298
sg63
(lp1305
S'remote_port'
p1306
asbag56
(g77
g58
NtRp1307
(dp1308
g61
(dp1309
g88
g89
ssg70
g1298
sg63
(lp1310
S':'
asbag56
(g77
g58
NtRp1311
(dp1312
g61
(dp1313
sg70
g1298
sg63
(lp1314
g56
(g57
g58
NtRp1315
(dp1316
g61
(dp1317
g69
I4
ssg70
g1311
sg63
(lp1318
S'53945'
p1319
asbasbasbag56
(g72
g58
NtRp1320
(dp1321
g61
(dp1322
sg70
g833
sg63
(lp1323
g56
(g77
g58
NtRp1324
(dp1325
g61
(dp1326
g81
g82
ssg70
g1320
sg63
(lp1327
S'request_method'
p1328
asbag56
(g77
g58
NtRp1329
(dp1330
g61
(dp1331
g88
g89
ssg70
g1320
sg63
(lp1332
S':'
asbag56
(g77
g58
NtRp1333
(dp1334
g61
(dp1335
sg70
g1320
sg63
(lp1336
g56
(g57
g58
NtRp1337
(dp1338
g61
(dp1339
g69
I4
ssg70
g1333
sg63
(lp1340
S'GET'
p1341
asbasbasbag56
(g72
g58
NtRp1342
(dp1343
g61
(dp1344
sg70
g833
sg63
(lp1345
g56
(g77
g58
NtRp1346
(dp1347
g61
(dp1348
g81
g82
ssg70
g1342
sg63
(lp1349
S'script_name'
p1350
asbag56
(g77
g58
NtRp1351
(dp1352
g61
(dp1353
g88
g89
ssg70
g1342
sg63
(lp1354
S':'
asbag56
(g77
g58
NtRp1355
(dp1356
g61
(dp1357
sg70
g1342
sg63
(lp1358
g56
(g57
g58
NtRp1359
(dp1360
g61
(dp1361
g69
I4
ssg70
g1355
sg63
(lp1362
S''
asbasbasbag56
(g72
g58
NtRp1363
(dp1364
g61
(dp1365
sg70
g833
sg63
(lp1366
g56
(g77
g58
NtRp1367
(dp1368
g61
(dp1369
g81
g82
ssg70
g1363
sg63
(lp1370
S'server_name'
p1371
asbag56
(g77
g58
NtRp1372
(dp1373
g61
(dp1374
g88
g89
ssg70
g1363
sg63
(lp1375
S':'
asbag56
(g77
g58
NtRp1376
(dp1377
g61
(dp1378
sg70
g1363
sg63
(lp1379
g56
(g57
g58
NtRp1380
(dp1381
g61
(dp1382
g69
I4
ssg70
g1376
sg63
(lp1383
S'kaique-Pine-Trail-M'
p1384
asbasbasbag56
(g72
g58
NtRp1385
(dp1386
g61
(dp1387
sg70
g833
sg63
(lp1388
g56
(g77
g58
NtRp1389
(dp1390
g61
(dp1391
g81
g82
ssg70
g1385
sg63
(lp1392
S'server_port'
p1393
asbag56
(g77
g58
NtRp1394
(dp1395
g61
(dp1396
g88
g89
ssg70
g1385
sg63
(lp1397
S':'
asbag56
(g77
g58
NtRp1398
(dp1399
g61
(dp1400
sg70
g1385
sg63
(lp1401
g56
(g57
g58
NtRp1402
(dp1403
g61
(dp1404
g69
I4
ssg70
g1398
sg63
(lp1405
S'8000'
p1406
asbasbasbag56
(g72
g58
NtRp1407
(dp1408
g61
(dp1409
sg70
g833
sg63
(lp1410
g56
(g77
g58
NtRp1411
(dp1412
g61
(dp1413
g81
g82
ssg70
g1407
sg63
(lp1414
S'server_protocol'
p1415
asbag56
(g77
g58
NtRp1416
(dp1417
g61
(dp1418
g88
g89
ssg70
g1407
sg63
(lp1419
S':'
asbag56
(g77
g58
NtRp1420
(dp1421
g61
(dp1422
sg70
g1407
sg63
(lp1423
g56
(g57
g58
NtRp1424
(dp1425
g61
(dp1426
g69
I4
ssg70
g1420
sg63
(lp1427
S'HTTP/1.1'
p1428
asbasbasbag56
(g72
g58
NtRp1429
(dp1430
g61
(dp1431
sg70
g833
sg63
(lp1432
g56
(g77
g58
NtRp1433
(dp1434
g61
(dp1435
g81
g82
ssg70
g1429
sg63
(lp1436
S'server_software'
p1437
asbag56
(g77
g58
NtRp1438
(dp1439
g61
(dp1440
g88
g89
ssg70
g1429
sg63
(lp1441
S':'
asbag56
(g77
g58
NtRp1442
(dp1443
g61
(dp1444
sg70
g1429
sg63
(lp1445
g56
(g57
g58
NtRp1446
(dp1447
g61
(dp1448
g69
I4
ssg70
g1442
sg63
(lp1449
S'Rocket 1.2.4'
p1450
asbasbasbag56
(g72
g58
NtRp1451
(dp1452
g61
(dp1453
sg70
g833
sg63
(lp1454
g56
(g77
g58
NtRp1455
(dp1456
g61
(dp1457
g81
g82
ssg70
g1451
sg63
(lp1458
S'web2py_crontype'
p1459
asbag56
(g77
g58
NtRp1460
(dp1461
g61
(dp1462
g88
g89
ssg70
g1451
sg63
(lp1463
S':'
asbag56
(g77
g58
NtRp1464
(dp1465
g61
(dp1466
sg70
g1451
sg63
(lp1467
g56
(g57
g58
NtRp1468
(dp1469
g61
(dp1470
g69
I4
ssg70
g1464
sg63
(lp1471
S'hard'
p1472
asbasbasbag56
(g72
g58
NtRp1473
(dp1474
g61
(dp1475
sg70
g833
sg63
(lp1476
g56
(g77
g58
NtRp1477
(dp1478
g61
(dp1479
g81
g82
ssg70
g1473
sg63
(lp1480
S'web2py_path'
p1481
asbag56
(g77
g58
NtRp1482
(dp1483
g61
(dp1484
g88
g89
ssg70
g1473
sg63
(lp1485
S':'
asbag56
(g77
g58
NtRp1486
(dp1487
g61
(dp1488
sg70
g1473
sg63
(lp1489
g56
(g57
g58
NtRp1490
(dp1491
g61
(dp1492
g69
I4
ssg70
g1486
sg63
(lp1493
g880
asbasbasbag56
(g72
g58
NtRp1494
(dp1495
g61
(dp1496
sg70
g833
sg63
(lp1497
g56
(g77
g58
NtRp1498
(dp1499
g61
(dp1500
g81
g82
ssg70
g1494
sg63
(lp1501
S'web2py_version'
p1502
asbag56
(g77
g58
NtRp1503
(dp1504
g61
(dp1505
g88
g89
ssg70
g1494
sg63
(lp1506
S':'
asbag56
(g77
g58
NtRp1507
(dp1508
g61
(dp1509
sg70
g1494
sg63
(lp1510
g56
(g57
g58
NtRp1511
(dp1512
g61
(dp1513
g69
I4
ssg70
g1507
sg63
(lp1514
g56
(g65
g58
NtRp1515
(dp1516
g61
(dp1517
g69
I3
ssg70
Nsg63
(lp1518
g56
(g72
g58
NtRp1519
(dp1520
g61
(dp1521
sg70
g1515
sg63
(lp1522
g56
(g77
g58
NtRp1523
(dp1524
g61
(dp1525
sg70
g1519
sg63
(lp1526
g56
(g57
g58
NtRp1527
(dp1528
g61
(dp1529
g69
I3
ssg70
g1523
sg63
(lp1530
S'1'
asbasbasbag56
(g72
g58
NtRp1531
(dp1532
g61
(dp1533
sg70
g1515
sg63
(lp1534
g56
(g77
g58
NtRp1535
(dp1536
g61
(dp1537
sg70
g1531
sg63
(lp1538
g56
(g57
g58
NtRp1539
(dp1540
g61
(dp1541
g69
I3
ssg70
g1535
sg63
(lp1542
S'99'
p1543
asbasbasbag56
(g72
g58
NtRp1544
(dp1545
g61
(dp1546
sg70
g1515
sg63
(lp1547
g56
(g77
g58
NtRp1548
(dp1549
g61
(dp1550
sg70
g1544
sg63
(lp1551
g56
(g57
g58
NtRp1552
(dp1553
g61
(dp1554
g69
I3
ssg70
g1548
sg63
(lp1555
S'2'
asbasbasbag56
(g72
g58
NtRp1556
(dp1557
g61
(dp1558
sg70
g1515
sg63
(lp1559
g56
(g77
g58
NtRp1560
(dp1561
g61
(dp1562
sg70
g1556
sg63
(lp1563
g56
(g57
g58
NtRp1564
(dp1565
g61
(dp1566
g69
I3
ssg70
g1560
sg63
(lp1567
S'datetime.datetime(2011, 9, 26, 6, 55, 33)'
p1568
asbasbasbag56
(g72
g58
NtRp1569
(dp1570
g61
(dp1571
sg70
g1515
sg63
(lp1572
g56
(g77
g58
NtRp1573
(dp1574
g61
(dp1575
sg70
g1569
sg63
(lp1576
g56
(g57
g58
NtRp1577
(dp1578
g61
(dp1579
g69
I3
ssg70
g1573
sg63
(lp1580
S'stable'
p1581
asbasbasbasbasbasbasbag56
(g72
g58
NtRp1582
(dp1583
g61
(dp1584
sg70
g833
sg63
(lp1585
g56
(g77
g58
NtRp1586
(dp1587
g61
(dp1588
g81
g82
ssg70
g1582
sg63
(lp1589
S'wsgi_errors'
p1590
asbag56
(g77
g58
NtRp1591
(dp1592
g61
(dp1593
g88
g89
ssg70
g1582
sg63
(lp1594
S':'
asbag56
(g77
g58
NtRp1595
(dp1596
g61
(dp1597
sg70
g1582
sg63
(lp1598
g56
(g57
g58
NtRp1599
(dp1600
g61
(dp1601
g69
I4
ssg70
g1595
sg63
(lp1602
S"<open file '<stderr>', mode 'w' at 0x7f3591233270>"
p1603
asbasbasbag56
(g72
g58
NtRp1604
(dp1605
g61
(dp1606
sg70
g833
sg63
(lp1607
g56
(g77
g58
NtRp1608
(dp1609
g61
(dp1610
g81
g82
ssg70
g1604
sg63
(lp1611
S'wsgi_file_wrapper'
p1612
asbag56
(g77
g58
NtRp1613
(dp1614
g61
(dp1615
g88
g89
ssg70
g1604
sg63
(lp1616
S':'
asbag56
(g77
g58
NtRp1617
(dp1618
g61
(dp1619
sg70
g1604
sg63
(lp1620
g56
(g57
g58
NtRp1621
(dp1622
g61
(dp1623
g69
I4
ssg70
g1617
sg63
(lp1624
S'<class wsgiref.util.FileWrapper at 0x1f49ef0>'
p1625
asbasbasbag56
(g72
g58
NtRp1626
(dp1627
g61
(dp1628
sg70
g833
sg63
(lp1629
g56
(g77
g58
NtRp1630
(dp1631
g61
(dp1632
g81
g82
ssg70
g1626
sg63
(lp1633
S'wsgi_input'
p1634
asbag56
(g77
g58
NtRp1635
(dp1636
g61
(dp1637
g88
g89
ssg70
g1626
sg63
(lp1638
S':'
asbag56
(g77
g58
NtRp1639
(dp1640
g61
(dp1641
sg70
g1626
sg63
(lp1642
g56
(g57
g58
NtRp1643
(dp1644
g61
(dp1645
g69
I4
ssg70
g1639
sg63
(lp1646
S'<socket._fileobject object at 0x2b27250>'
p1647
asbasbasbag56
(g72
g58
NtRp1648
(dp1649
g61
(dp1650
sg70
g833
sg63
(lp1651
g56
(g77
g58
NtRp1652
(dp1653
g61
(dp1654
g81
g82
ssg70
g1648
sg63
(lp1655
S'wsgi_multiprocess'
p1656
asbag56
(g77
g58
NtRp1657
(dp1658
g61
(dp1659
g88
g89
ssg70
g1648
sg63
(lp1660
S':'
asbag56
(g77
g58
NtRp1661
(dp1662
g61
(dp1663
sg70
g1648
sg63
(lp1664
g56
(g57
g58
NtRp1665
(dp1666
g61
(dp1667
g69
I4
ssg70
g1661
sg63
(lp1668
g99
asbasbasbag56
(g72
g58
NtRp1669
(dp1670
g61
(dp1671
sg70
g833
sg63
(lp1672
g56
(g77
g58
NtRp1673
(dp1674
g61
(dp1675
g81
g82
ssg70
g1669
sg63
(lp1676
S'wsgi_multithread'
p1677
asbag56
(g77
g58
NtRp1678
(dp1679
g61
(dp1680
g88
g89
ssg70
g1669
sg63
(lp1681
S':'
asbag56
(g77
g58
NtRp1682
(dp1683
g61
(dp1684
sg70
g1669
sg63
(lp1685
g56
(g57
g58
NtRp1686
(dp1687
g61
(dp1688
g69
I4
ssg70
g1682
sg63
(lp1689
S'True'
p1690
asbasbasbag56
(g72
g58
NtRp1691
(dp1692
g61
(dp1693
sg70
g833
sg63
(lp1694
g56
(g77
g58
NtRp1695
(dp1696
g61
(dp1697
g81
g82
ssg70
g1691
sg63
(lp1698
S'wsgi_run_once'
p1699
asbag56
(g77
g58
NtRp1700
(dp1701
g61
(dp1702
g88
g89
ssg70
g1691
sg63
(lp1703
S':'
asbag56
(g77
g58
NtRp1704
(dp1705
g61
(dp1706
sg70
g1691
sg63
(lp1707
g56
(g57
g58
NtRp1708
(dp1709
g61
(dp1710
g69
I4
ssg70
g1704
sg63
(lp1711
g99
asbasbasbag56
(g72
g58
NtRp1712
(dp1713
g61
(dp1714
sg70
g833
sg63
(lp1715
g56
(g77
g58
NtRp1716
(dp1717
g61
(dp1718
g81
g82
ssg70
g1712
sg63
(lp1719
S'wsgi_url_scheme'
p1720
asbag56
(g77
g58
NtRp1721
(dp1722
g61
(dp1723
g88
g89
ssg70
g1712
sg63
(lp1724
S':'
asbag56
(g77
g58
NtRp1725
(dp1726
g61
(dp1727
sg70
g1712
sg63
(lp1728
g56
(g57
g58
NtRp1729
(dp1730
g61
(dp1731
g69
I4
ssg70
g1725
sg63
(lp1732
S'http'
p1733
asbasbasbag56
(g72
g58
NtRp1734
(dp1735
g61
(dp1736
sg70
g833
sg63
(lp1737
g56
(g77
g58
NtRp1738
(dp1739
g61
(dp1740
g81
g82
ssg70
g1734
sg63
(lp1741
S'wsgi_version'
p1742
asbag56
(g77
g58
NtRp1743
(dp1744
g61
(dp1745
g88
g89
ssg70
g1734
sg63
(lp1746
S':'
asbag56
(g77
g58
NtRp1747
(dp1748
g61
(dp1749
sg70
g1734
sg63
(lp1750
g56
(g57
g58
NtRp1751
(dp1752
g61
(dp1753
g69
I4
ssg70
g1747
sg63
(lp1754
g56
(g65
g58
NtRp1755
(dp1756
g61
(dp1757
g69
I3
ssg70
Nsg63
(lp1758
g56
(g72
g58
NtRp1759
(dp1760
g61
(dp1761
sg70
g1755
sg63
(lp1762
g56
(g77
g58
NtRp1763
(dp1764
g61
(dp1765
sg70
g1759
sg63
(lp1766
g56
(g57
g58
NtRp1767
(dp1768
g61
(dp1769
g69
I3
ssg70
g1763
sg63
(lp1770
S'1'
asbasbasbag56
(g72
g58
NtRp1771
(dp1772
g61
(dp1773
sg70
g1755
sg63
(lp1774
g56
(g77
g58
NtRp1775
(dp1776
g61
(dp1777
sg70
g1771
sg63
(lp1778
g56
(g57
g58
NtRp1779
(dp1780
g61
(dp1781
g69
I3
ssg70
g1775
sg63
(lp1782
S'0'
asbasbasbasbasbasbasbasbasbasbasbag56
(g72
g58
NtRp1783
(dp1784
g61
(dp1785
sg70
g66
sg63
(lp1786
g56
(g77
g58
NtRp1787
(dp1788
g61
(dp1789
g81
g82
ssg70
g1783
sg63
(lp1790
S'extension'
p1791
asbag56
(g77
g58
NtRp1792
(dp1793
g61
(dp1794
g88
g89
ssg70
g1783
sg63
(lp1795
S':'
asbag56
(g77
g58
NtRp1796
(dp1797
g61
(dp1798
sg70
g1783
sg63
(lp1799
g56
(g57
g58
NtRp1800
(dp1801
g61
(dp1802
g69
I5
ssg70
g1796
sg63
(lp1803
S'html'
p1804
asbasbasbag56
(g72
g58
NtRp1805
(dp1806
g61
(dp1807
sg70
g66
sg63
(lp1808
g56
(g77
g58
NtRp1809
(dp1810
g61
(dp1811
g81
g82
ssg70
g1805
sg63
(lp1812
S'folder'
p1813
asbag56
(g77
g58
NtRp1814
(dp1815
g61
(dp1816
g88
g89
ssg70
g1805
sg63
(lp1817
S':'
asbag56
(g77
g58
NtRp1818
(dp1819
g61
(dp1820
sg70
g1805
sg63
(lp1821
g56
(g57
g58
NtRp1822
(dp1823
g61
(dp1824
g69
I5
ssg70
g1818
sg63
(lp1825
S'/home/kaique/Projects/web2py/applications/synopsis/'
p1826
asbasbasbag56
(g72
g58
NtRp1827
(dp1828
g61
(dp1829
sg70
g66
sg63
(lp1830
g56
(g77
g58
NtRp1831
(dp1832
g61
(dp1833
g81
g82
ssg70
g1827
sg63
(lp1834
S'function'
p1835
asbag56
(g77
g58
NtRp1836
(dp1837
g61
(dp1838
g88
g89
ssg70
g1827
sg63
(lp1839
S':'
asbag56
(g77
g58
NtRp1840
(dp1841
g61
(dp1842
sg70
g1827
sg63
(lp1843
g56
(g57
g58
NtRp1844
(dp1845
g61
(dp1846
g69
I5
ssg70
g1840
sg63
(lp1847
S'publication'
p1848
asbasbasbag56
(g72
g58
NtRp1849
(dp1850
g61
(dp1851
sg70
g66
sg63
(lp1852
g56
(g77
g58
NtRp1853
(dp1854
g61
(dp1855
g81
g82
ssg70
g1849
sg63
(lp1856
S'get_vars'
p1857
asbag56
(g77
g58
NtRp1858
(dp1859
g61
(dp1860
g88
g89
ssg70
g1849
sg63
(lp1861
S':'
asbag56
(g77
g58
NtRp1862
(dp1863
g61
(dp1864
sg70
g1849
sg63
(lp1865
g56
(g57
g58
NtRp1866
(dp1867
g61
(dp1868
g69
I5
ssg70
g1862
sg63
(lp1869
g56
(g65
g58
NtRp1870
(dp1871
g61
(dp1872
g69
I4
ssg70
Nsg63
(lp1873
sbasbasbasbag56
(g72
g58
NtRp1874
(dp1875
g61
(dp1876
sg70
g66
sg63
(lp1877
g56
(g77
g58
NtRp1878
(dp1879
g61
(dp1880
g81
g82
ssg70
g1874
sg63
(lp1881
S'global_settings'
p1882
asbag56
(g77
g58
NtRp1883
(dp1884
g61
(dp1885
g88
g89
ssg70
g1874
sg63
(lp1886
S':'
asbag56
(g77
g58
NtRp1887
(dp1888
g61
(dp1889
sg70
g1874
sg63
(lp1890
g56
(g57
g58
NtRp1891
(dp1892
g61
(dp1893
g69
I5
ssg70
g1887
sg63
(lp1894
g56
(g65
g58
NtRp1895
(dp1896
g61
(dp1897
g69
I4
ssg70
Nsg63
(lp1898
g56
(g72
g58
NtRp1899
(dp1900
g61
(dp1901
sg70
g1895
sg63
(lp1902
g56
(g77
g58
NtRp1903
(dp1904
g61
(dp1905
g81
g82
ssg70
g1899
sg63
(lp1906
g845
asbag56
(g77
g58
NtRp1907
(dp1908
g61
(dp1909
g88
g89
ssg70
g1899
sg63
(lp1910
S':'
asbag56
(g77
g58
NtRp1911
(dp1912
g61
(dp1913
sg70
g1899
sg63
(lp1914
g56
(g57
g58
NtRp1915
(dp1916
g61
(dp1917
g69
I4
ssg70
g1911
sg63
(lp1918
S"set(['/home/kaique/Projects/web2py/applications/synopsis/', '/home/kaique/Projects/web2py/applications/admin/'])"
p1919
asbasbasbag56
(g72
g58
NtRp1920
(dp1921
g61
(dp1922
sg70
g1895
sg63
(lp1923
g56
(g77
g58
NtRp1924
(dp1925
g61
(dp1926
g81
g82
ssg70
g1920
sg63
(lp1927
g867
asbag56
(g77
g58
NtRp1928
(dp1929
g61
(dp1930
g88
g89
ssg70
g1920
sg63
(lp1931
S':'
asbag56
(g77
g58
NtRp1932
(dp1933
g61
(dp1934
sg70
g1920
sg63
(lp1935
g56
(g57
g58
NtRp1936
(dp1937
g61
(dp1938
g69
I4
ssg70
g1932
sg63
(lp1939
g880
asbasbasbag56
(g72
g58
NtRp1940
(dp1941
g61
(dp1942
sg70
g1895
sg63
(lp1943
g56
(g77
g58
NtRp1944
(dp1945
g61
(dp1946
g81
g82
ssg70
g1940
sg63
(lp1947
g889
asbag56
(g77
g58
NtRp1948
(dp1949
g61
(dp1950
g88
g89
ssg70
g1940
sg63
(lp1951
S':'
asbag56
(g77
g58
NtRp1952
(dp1953
g61
(dp1954
sg70
g1940
sg63
(lp1955
g56
(g57
g58
NtRp1956
(dp1957
g61
(dp1958
g69
I4
ssg70
g1952
sg63
(lp1959
g56
(g65
g58
NtRp1960
(dp1961
g61
(dp1962
g69
I3
ssg70
Nsg63
(lp1963
sbasbasbasbag56
(g72
g58
NtRp1964
(dp1965
g61
(dp1966
sg70
g1895
sg63
(lp1967
g56
(g77
g58
NtRp1968
(dp1969
g61
(dp1970
g81
g82
ssg70
g1964
sg63
(lp1971
g914
asbag56
(g77
g58
NtRp1972
(dp1973
g61
(dp1974
g88
g89
ssg70
g1964
sg63
(lp1975
S':'
asbag56
(g77
g58
NtRp1976
(dp1977
g61
(dp1978
sg70
g1964
sg63
(lp1979
g56
(g57
g58
NtRp1980
(dp1981
g61
(dp1982
g69
I4
ssg70
g1976
sg63
(lp1983
S"<Values at 0x2092950: {'verbose': False, 'ip': '127.0.0.1', 'shutdown_timeout': 5, 'taskbar': False, 'nocron': False, 'pid_filename': 'httpserver.pid', 'maxthreads': None, 'softcron': False, 'server_name': 'kaique-Pine-Trail-M', 'bpython': False, 'nogui': False, 'port': 8000, 'extcron': False, 'debuglevel': 30, 'test': None, 'folder': '/home/kaique/Projects/web2py', 'config': '', 'import_models': False, 'winservice': '', 'shell': None, 'run': '', 'log_filename': 'httpserver.log', 'args': [''], 'ssl_ca_certificate': None, 'scheduler': None, 'profiler_filename': None, 'ssl_private_key': '', 'password': 'dev', 'request_queue_size': 5, 'ssl_certificate': '', 'cronjob': False, 'plain': False, 'quiet': False, 'interfaces': None, 'minthreads': None, 'timeout': 10, 'numthreads': None, 'nobanner': False}>"
p1984
asbasbasbag56
(g72
g58
NtRp1985
(dp1986
g61
(dp1987
sg70
g1895
sg63
(lp1988
g56
(g77
g58
NtRp1989
(dp1990
g61
(dp1991
g81
g82
ssg70
g1985
sg63
(lp1992
g936
asbag56
(g77
g58
NtRp1993
(dp1994
g61
(dp1995
g88
g89
ssg70
g1985
sg63
(lp1996
S':'
asbag56
(g77
g58
NtRp1997
(dp1998
g61
(dp1999
sg70
g1985
sg63
(lp2000
g56
(g57
g58
NtRp2001
(dp2002
g61
(dp2003
g69
I4
ssg70
g1997
sg63
(lp2004
S'set([])'
p2005
asbasbasbag56
(g72
g58
NtRp2006
(dp2007
g61
(dp2008
sg70
g1895
sg63
(lp2009
g56
(g77
g58
NtRp2010
(dp2011
g61
(dp2012
g81
g82
ssg70
g2006
sg63
(lp2013
g958
asbag56
(g77
g58
NtRp2014
(dp2015
g61
(dp2016
g88
g89
ssg70
g2006
sg63
(lp2017
S':'
asbag56
(g77
g58
NtRp2018
(dp2019
g61
(dp2020
sg70
g2006
sg63
(lp2021
g56
(g57
g58
NtRp2022
(dp2023
g61
(dp2024
g69
I4
ssg70
g2018
sg63
(lp2025
g99
asbasbasbag56
(g72
g58
NtRp2026
(dp2027
g61
(dp2028
sg70
g1895
sg63
(lp2029
g56
(g77
g58
NtRp2030
(dp2031
g61
(dp2032
g81
g82
ssg70
g2026
sg63
(lp2033
g979
asbag56
(g77
g58
NtRp2034
(dp2035
g61
(dp2036
g88
g89
ssg70
g2026
sg63
(lp2037
S':'
asbag56
(g77
g58
NtRp2038
(dp2039
g61
(dp2040
sg70
g2026
sg63
(lp2041
g56
(g57
g58
NtRp2042
(dp2043
g61
(dp2044
g69
I4
ssg70
g2038
sg63
(lp2045
g992
asbasbasbag56
(g72
g58
NtRp2046
(dp2047
g61
(dp2048
sg70
g1895
sg63
(lp2049
g56
(g77
g58
NtRp2050
(dp2051
g61
(dp2052
g81
g82
ssg70
g2046
sg63
(lp2053
g1221
asbag56
(g77
g58
NtRp2054
(dp2055
g61
(dp2056
g88
g89
ssg70
g2046
sg63
(lp2057
S':'
asbag56
(g77
g58
NtRp2058
(dp2059
g61
(dp2060
sg70
g2046
sg63
(lp2061
g56
(g57
g58
NtRp2062
(dp2063
g61
(dp2064
g69
I4
ssg70
g2058
sg63
(lp2065
g99
asbasbasbag56
(g72
g58
NtRp2066
(dp2067
g61
(dp2068
sg70
g1895
sg63
(lp2069
g56
(g77
g58
NtRp2070
(dp2071
g61
(dp2072
g81
g82
ssg70
g2066
sg63
(lp2073
g1459
asbag56
(g77
g58
NtRp2074
(dp2075
g61
(dp2076
g88
g89
ssg70
g2066
sg63
(lp2077
S':'
asbag56
(g77
g58
NtRp2078
(dp2079
g61
(dp2080
sg70
g2066
sg63
(lp2081
g56
(g57
g58
NtRp2082
(dp2083
g61
(dp2084
g69
I4
ssg70
g2078
sg63
(lp2085
g1472
asbasbasbag56
(g72
g58
NtRp2086
(dp2087
g61
(dp2088
sg70
g1895
sg63
(lp2089
g56
(g77
g58
NtRp2090
(dp2091
g61
(dp2092
g81
g82
ssg70
g2086
sg63
(lp2093
g1502
asbag56
(g77
g58
NtRp2094
(dp2095
g61
(dp2096
g88
g89
ssg70
g2086
sg63
(lp2097
S':'
asbag56
(g77
g58
NtRp2098
(dp2099
g61
(dp2100
sg70
g2086
sg63
(lp2101
g56
(g57
g58
NtRp2102
(dp2103
g61
(dp2104
g69
I4
ssg70
g2098
sg63
(lp2105
g56
(g65
g58
NtRp2106
(dp2107
g61
(dp2108
g69
I3
ssg70
Nsg63
(lp2109
g56
(g72
g58
NtRp2110
(dp2111
g61
(dp2112
sg70
g2106
sg63
(lp2113
g56
(g77
g58
NtRp2114
(dp2115
g61
(dp2116
sg70
g2110
sg63
(lp2117
g56
(g57
g58
NtRp2118
(dp2119
g61
(dp2120
g69
I3
ssg70
g2114
sg63
(lp2121
S'1'
asbasbasbag56
(g72
g58
NtRp2122
(dp2123
g61
(dp2124
sg70
g2106
sg63
(lp2125
g56
(g77
g58
NtRp2126
(dp2127
g61
(dp2128
sg70
g2122
sg63
(lp2129
g56
(g57
g58
NtRp2130
(dp2131
g61
(dp2132
g69
I3
ssg70
g2126
sg63
(lp2133
S'99'
p2134
asbasbasbag56
(g72
g58
NtRp2135
(dp2136
g61
(dp2137
sg70
g2106
sg63
(lp2138
g56
(g77
g58
NtRp2139
(dp2140
g61
(dp2141
sg70
g2135
sg63
(lp2142
g56
(g57
g58
NtRp2143
(dp2144
g61
(dp2145
g69
I3
ssg70
g2139
sg63
(lp2146
S'2'
asbasbasbag56
(g72
g58
NtRp2147
(dp2148
g61
(dp2149
sg70
g2106
sg63
(lp2150
g56
(g77
g58
NtRp2151
(dp2152
g61
(dp2153
sg70
g2147
sg63
(lp2154
g56
(g57
g58
NtRp2155
(dp2156
g61
(dp2157
g69
I3
ssg70
g2151
sg63
(lp2158
S'datetime.datetime(2011, 9, 26, 6, 55, 33)'
p2159
asbasbasbag56
(g72
g58
NtRp2160
(dp2161
g61
(dp2162
sg70
g2106
sg63
(lp2163
g56
(g77
g58
NtRp2164
(dp2165
g61
(dp2166
sg70
g2160
sg63
(lp2167
g56
(g57
g58
NtRp2168
(dp2169
g61
(dp2170
g69
I3
ssg70
g2164
sg63
(lp2171
g1581
asbasbasbasbasbasbasbasbasbasbasbag56
(g72
g58
NtRp2172
(dp2173
g61
(dp2174
sg70
g66
sg63
(lp2175
g56
(g77
g58
NtRp2176
(dp2177
g61
(dp2178
g81
g82
ssg70
g2172
sg63
(lp2179
S'is_https'
p2180
asbag56
(g77
g58
NtRp2181
(dp2182
g61
(dp2183
g88
g89
ssg70
g2172
sg63
(lp2184
S':'
asbag56
(g77
g58
NtRp2185
(dp2186
g61
(dp2187
sg70
g2172
sg63
(lp2188
g56
(g57
g58
NtRp2189
(dp2190
g61
(dp2191
g69
I5
ssg70
g2185
sg63
(lp2192
g99
asbasbasbag56
(g72
g58
NtRp2193
(dp2194
g61
(dp2195
sg70
g66
sg63
(lp2196
g56
(g77
g58
NtRp2197
(dp2198
g61
(dp2199
g81
g82
ssg70
g2193
sg63
(lp2200
S'is_local'
p2201
asbag56
(g77
g58
NtRp2202
(dp2203
g61
(dp2204
g88
g89
ssg70
g2193
sg63
(lp2205
S':'
asbag56
(g77
g58
NtRp2206
(dp2207
g61
(dp2208
sg70
g2193
sg63
(lp2209
g56
(g57
g58
NtRp2210
(dp2211
g61
(dp2212
g69
I5
ssg70
g2206
sg63
(lp2213
g1690
asbasbasbag56
(g72
g58
NtRp2214
(dp2215
g61
(dp2216
sg70
g66
sg63
(lp2217
g56
(g77
g58
NtRp2218
(dp2219
g61
(dp2220
g81
g82
ssg70
g2214
sg63
(lp2221
S'is_restful'
p2222
asbag56
(g77
g58
NtRp2223
(dp2224
g61
(dp2225
g88
g89
ssg70
g2214
sg63
(lp2226
S':'
asbag56
(g77
g58
NtRp2227
(dp2228
g61
(dp2229
sg70
g2214
sg63
(lp2230
g56
(g57
g58
NtRp2231
(dp2232
g61
(dp2233
g69
I5
ssg70
g2227
sg63
(lp2234
g99
asbasbasbag56
(g72
g58
NtRp2235
(dp2236
g61
(dp2237
sg70
g66
sg63
(lp2238
g56
(g77
g58
NtRp2239
(dp2240
g61
(dp2241
g81
g82
ssg70
g2235
sg63
(lp2242
S'now'
p2243
asbag56
(g77
g58
NtRp2244
(dp2245
g61
(dp2246
g88
g89
ssg70
g2235
sg63
(lp2247
S':'
asbag56
(g77
g58
NtRp2248
(dp2249
g61
(dp2250
sg70
g2235
sg63
(lp2251
g56
(g57
g58
NtRp2252
(dp2253
g61
(dp2254
g69
I5
ssg70
g2248
sg63
(lp2255
S'datetime.datetime(2012, 1, 12, 15, 55, 18, 150883)'
p2256
asbasbasbag56
(g72
g58
NtRp2257
(dp2258
g61
(dp2259
sg70
g66
sg63
(lp2260
g56
(g77
g58
NtRp2261
(dp2262
g61
(dp2263
g81
g82
ssg70
g2257
sg63
(lp2264
S'post_vars'
p2265
asbag56
(g77
g58
NtRp2266
(dp2267
g61
(dp2268
g88
g89
ssg70
g2257
sg63
(lp2269
S':'
asbag56
(g77
g58
NtRp2270
(dp2271
g61
(dp2272
sg70
g2257
sg63
(lp2273
g56
(g57
g58
NtRp2274
(dp2275
g61
(dp2276
g69
I5
ssg70
g2270
sg63
(lp2277
g56
(g65
g58
NtRp2278
(dp2279
g61
(dp2280
g69
I4
ssg70
Nsg63
(lp2281
sbasbasbasbag56
(g72
g58
NtRp2282
(dp2283
g61
(dp2284
sg70
g66
sg63
(lp2285
g56
(g77
g58
NtRp2286
(dp2287
g61
(dp2288
g81
g82
ssg70
g2282
sg63
(lp2289
S'raw_args'
p2290
asbag56
(g77
g58
NtRp2291
(dp2292
g61
(dp2293
g88
g89
ssg70
g2282
sg63
(lp2294
S':'
asbag56
(g77
g58
NtRp2295
(dp2296
g61
(dp2297
sg70
g2282
sg63
(lp2298
g56
(g57
g58
NtRp2299
(dp2300
g61
(dp2301
g69
I5
ssg70
g2295
sg63
(lp2302
S'7'
asbasbasbag56
(g72
g58
NtRp2303
(dp2304
g61
(dp2305
sg70
g66
sg63
(lp2306
g56
(g77
g58
NtRp2307
(dp2308
g61
(dp2309
g81
g82
ssg70
g2303
sg63
(lp2310
S'url'
p2311
asbag56
(g77
g58
NtRp2312
(dp2313
g61
(dp2314
g88
g89
ssg70
g2303
sg63
(lp2315
S':'
asbag56
(g77
g58
NtRp2316
(dp2317
g61
(dp2318
sg70
g2303
sg63
(lp2319
g56
(g57
g58
NtRp2320
(dp2321
g61
(dp2322
g69
I5
ssg70
g2316
sg63
(lp2323
S'/synopsis/information/publication/7'
p2324
asbasbasbag56
(g72
g58
NtRp2325
(dp2326
g61
(dp2327
sg70
g66
sg63
(lp2328
g56
(g77
g58
NtRp2329
(dp2330
g61
(dp2331
g81
g82
ssg70
g2325
sg63
(lp2332
S'utcnow'
p2333
asbag56
(g77
g58
NtRp2334
(dp2335
g61
(dp2336
g88
g89
ssg70
g2325
sg63
(lp2337
S':'
asbag56
(g77
g58
NtRp2338
(dp2339
g61
(dp2340
sg70
g2325
sg63
(lp2341
g56
(g57
g58
NtRp2342
(dp2343
g61
(dp2344
g69
I5
ssg70
g2338
sg63
(lp2345
S'datetime.datetime(2012, 1, 12, 17, 55, 18, 150939)'
p2346
asbasbasbag56
(g72
g58
NtRp2347
(dp2348
g61
(dp2349
sg70
g66
sg63
(lp2350
g56
(g77
g58
NtRp2351
(dp2352
g61
(dp2353
g81
g82
ssg70
g2347
sg63
(lp2354
S'uuid'
p2355
asbag56
(g77
g58
NtRp2356
(dp2357
g61
(dp2358
g88
g89
ssg70
g2347
sg63
(lp2359
S':'
asbag56
(g77
g58
NtRp2360
(dp2361
g61
(dp2362
sg70
g2347
sg63
(lp2363
g56
(g57
g58
NtRp2364
(dp2365
g61
(dp2366
g69
I5
ssg70
g2360
sg63
(lp2367
S'synopsis/127.0.0.1.2012-01-12.15-55-18.0a7ec515-3860-4f78-86e4-f6508363877d'
p2368
asbasbasbag56
(g72
g58
NtRp2369
(dp2370
g61
(dp2371
sg70
g66
sg63
(lp2372
g56
(g77
g58
NtRp2373
(dp2374
g61
(dp2375
g81
g82
ssg70
g2369
sg63
(lp2376
S'vars'
p2377
asbag56
(g77
g58
NtRp2378
(dp2379
g61
(dp2380
g88
g89
ssg70
g2369
sg63
(lp2381
S':'
asbag56
(g77
g58
NtRp2382
(dp2383
g61
(dp2384
sg70
g2369
sg63
(lp2385
g56
(g57
g58
NtRp2386
(dp2387
g61
(dp2388
g69
I5
ssg70
g2382
sg63
(lp2389
g56
(g65
g58
NtRp2390
(dp2391
g61
(dp2392
g69
I4
ssg70
Nsg63
(lp2393
sbasbasbasbag56
(g72
g58
NtRp2394
(dp2395
g61
(dp2396
sg70
g66
sg63
(lp2397
g56
(g77
g58
NtRp2398
(dp2399
g61
(dp2400
g81
g82
ssg70
g2394
sg63
(lp2401
S'wsgi'
p2402
asbag56
(g77
g58
NtRp2403
(dp2404
g61
(dp2405
g88
g89
ssg70
g2394
sg63
(lp2406
S':'
asbag56
(g77
g58
NtRp2407
(dp2408
g61
(dp2409
sg70
g2394
sg63
(lp2410
g56
(g57
g58
NtRp2411
(dp2412
g61
(dp2413
g69
I5
ssg70
g2407
sg63
(lp2414
g56
(g65
g58
NtRp2415
(dp2416
g61
(dp2417
g69
I4
ssg70
Nsg63
(lp2418
g56
(g72
g58
NtRp2419
(dp2420
g61
(dp2421
sg70
g2415
sg63
(lp2422
g56
(g77
g58
NtRp2423
(dp2424
g61
(dp2425
g81
g82
ssg70
g2419
sg63
(lp2426
S'environ'
p2427
asbag56
(g77
g58
NtRp2428
(dp2429
g61
(dp2430
g88
g89
ssg70
g2419
sg63
(lp2431
S':'
asbag56
(g77
g58
NtRp2432
(dp2433
g61
(dp2434
sg70
g2419
sg63
(lp2435
g56
(g57
g58
NtRp2436
(dp2437
g61
(dp2438
g69
I4
ssg70
g2432
sg63
(lp2439
g56
(g65
g58
NtRp2440
(dp2441
g61
(dp2442
g69
I3
ssg70
Nsg63
(lp2443
g56
(g72
g58
NtRp2444
(dp2445
g61
(dp2446
sg70
g2440
sg63
(lp2447
g56
(g77
g58
NtRp2448
(dp2449
g61
(dp2450
g81
g82
ssg70
g2444
sg63
(lp2451
S'HTTP_ACCEPT'
p2452
asbag56
(g77
g58
NtRp2453
(dp2454
g61
(dp2455
g88
g89
ssg70
g2444
sg63
(lp2456
S':'
asbag56
(g77
g58
NtRp2457
(dp2458
g61
(dp2459
sg70
g2444
sg63
(lp2460
g56
(g57
g58
NtRp2461
(dp2462
g61
(dp2463
g69
I3
ssg70
g2457
sg63
(lp2464
g1014
asbasbasbag56
(g72
g58
NtRp2465
(dp2466
g61
(dp2467
sg70
g2440
sg63
(lp2468
g56
(g77
g58
NtRp2469
(dp2470
g61
(dp2471
g81
g82
ssg70
g2465
sg63
(lp2472
S'HTTP_ACCEPT_CHARSET'
p2473
asbag56
(g77
g58
NtRp2474
(dp2475
g61
(dp2476
g88
g89
ssg70
g2465
sg63
(lp2477
S':'
asbag56
(g77
g58
NtRp2478
(dp2479
g61
(dp2480
sg70
g2465
sg63
(lp2481
g56
(g57
g58
NtRp2482
(dp2483
g61
(dp2484
g69
I3
ssg70
g2478
sg63
(lp2485
g1036
asbasbasbag56
(g72
g58
NtRp2486
(dp2487
g61
(dp2488
sg70
g2440
sg63
(lp2489
g56
(g77
g58
NtRp2490
(dp2491
g61
(dp2492
g81
g82
ssg70
g2486
sg63
(lp2493
S'HTTP_ACCEPT_ENCODING'
p2494
asbag56
(g77
g58
NtRp2495
(dp2496
g61
(dp2497
g88
g89
ssg70
g2486
sg63
(lp2498
S':'
asbag56
(g77
g58
NtRp2499
(dp2500
g61
(dp2501
sg70
g2486
sg63
(lp2502
g56
(g57
g58
NtRp2503
(dp2504
g61
(dp2505
g69
I3
ssg70
g2499
sg63
(lp2506
g1058
asbasbasbag56
(g72
g58
NtRp2507
(dp2508
g61
(dp2509
sg70
g2440
sg63
(lp2510
g56
(g77
g58
NtRp2511
(dp2512
g61
(dp2513
g81
g82
ssg70
g2507
sg63
(lp2514
S'HTTP_ACCEPT_LANGUAGE'
p2515
asbag56
(g77
g58
NtRp2516
(dp2517
g61
(dp2518
g88
g89
ssg70
g2507
sg63
(lp2519
S':'
asbag56
(g77
g58
NtRp2520
(dp2521
g61
(dp2522
sg70
g2507
sg63
(lp2523
g56
(g57
g58
NtRp2524
(dp2525
g61
(dp2526
g69
I3
ssg70
g2520
sg63
(lp2527
g1080
asbasbasbag56
(g72
g58
NtRp2528
(dp2529
g61
(dp2530
sg70
g2440
sg63
(lp2531
g56
(g77
g58
NtRp2532
(dp2533
g61
(dp2534
g81
g82
ssg70
g2528
sg63
(lp2535
S'HTTP_CACHE_CONTROL'
p2536
asbag56
(g77
g58
NtRp2537
(dp2538
g61
(dp2539
g88
g89
ssg70
g2528
sg63
(lp2540
S':'
asbag56
(g77
g58
NtRp2541
(dp2542
g61
(dp2543
sg70
g2528
sg63
(lp2544
g56
(g57
g58
NtRp2545
(dp2546
g61
(dp2547
g69
I3
ssg70
g2541
sg63
(lp2548
g1102
asbasbasbag56
(g72
g58
NtRp2549
(dp2550
g61
(dp2551
sg70
g2440
sg63
(lp2552
g56
(g77
g58
NtRp2553
(dp2554
g61
(dp2555
g81
g82
ssg70
g2549
sg63
(lp2556
S'HTTP_CONNECTION'
p2557
asbag56
(g77
g58
NtRp2558
(dp2559
g61
(dp2560
g88
g89
ssg70
g2549
sg63
(lp2561
S':'
asbag56
(g77
g58
NtRp2562
(dp2563
g61
(dp2564
sg70
g2549
sg63
(lp2565
g56
(g57
g58
NtRp2566
(dp2567
g61
(dp2568
g69
I3
ssg70
g2562
sg63
(lp2569
g1124
asbasbasbag56
(g72
g58
NtRp2570
(dp2571
g61
(dp2572
sg70
g2440
sg63
(lp2573
g56
(g77
g58
NtRp2574
(dp2575
g61
(dp2576
g81
g82
ssg70
g2570
sg63
(lp2577
S'HTTP_COOKIE'
p2578
asbag56
(g77
g58
NtRp2579
(dp2580
g61
(dp2581
g88
g89
ssg70
g2570
sg63
(lp2582
S':'
asbag56
(g77
g58
NtRp2583
(dp2584
g61
(dp2585
sg70
g2570
sg63
(lp2586
g56
(g57
g58
NtRp2587
(dp2588
g61
(dp2589
g69
I3
ssg70
g2583
sg63
(lp2590
g1146
asbasbasbag56
(g72
g58
NtRp2591
(dp2592
g61
(dp2593
sg70
g2440
sg63
(lp2594
g56
(g77
g58
NtRp2595
(dp2596
g61
(dp2597
g81
g82
ssg70
g2591
sg63
(lp2598
S'HTTP_HOST'
p2599
asbag56
(g77
g58
NtRp2600
(dp2601
g61
(dp2602
g88
g89
ssg70
g2591
sg63
(lp2603
S':'
asbag56
(g77
g58
NtRp2604
(dp2605
g61
(dp2606
sg70
g2591
sg63
(lp2607
g56
(g57
g58
NtRp2608
(dp2609
g61
(dp2610
g69
I3
ssg70
g2604
sg63
(lp2611
g1168
asbasbasbag56
(g72
g58
NtRp2612
(dp2613
g61
(dp2614
sg70
g2440
sg63
(lp2615
g56
(g77
g58
NtRp2616
(dp2617
g61
(dp2618
g81
g82
ssg70
g2612
sg63
(lp2619
S'HTTP_REFERER'
p2620
asbag56
(g77
g58
NtRp2621
(dp2622
g61
(dp2623
g88
g89
ssg70
g2612
sg63
(lp2624
S':'
asbag56
(g77
g58
NtRp2625
(dp2626
g61
(dp2627
sg70
g2612
sg63
(lp2628
g56
(g57
g58
NtRp2629
(dp2630
g61
(dp2631
g69
I3
ssg70
g2625
sg63
(lp2632
g1190
asbasbasbag56
(g72
g58
NtRp2633
(dp2634
g61
(dp2635
sg70
g2440
sg63
(lp2636
g56
(g77
g58
NtRp2637
(dp2638
g61
(dp2639
g81
g82
ssg70
g2633
sg63
(lp2640
S'HTTP_USER_AGENT'
p2641
asbag56
(g77
g58
NtRp2642
(dp2643
g61
(dp2644
g88
g89
ssg70
g2633
sg63
(lp2645
S':'
asbag56
(g77
g58
NtRp2646
(dp2647
g61
(dp2648
sg70
g2633
sg63
(lp2649
g56
(g57
g58
NtRp2650
(dp2651
g61
(dp2652
g69
I3
ssg70
g2646
sg63
(lp2653
g1212
asbasbasbag56
(g72
g58
NtRp2654
(dp2655
g61
(dp2656
sg70
g2440
sg63
(lp2657
g56
(g77
g58
NtRp2658
(dp2659
g61
(dp2660
g81
g82
ssg70
g2654
sg63
(lp2661
S'PATH_INFO'
p2662
asbag56
(g77
g58
NtRp2663
(dp2664
g61
(dp2665
g88
g89
ssg70
g2654
sg63
(lp2666
S':'
asbag56
(g77
g58
NtRp2667
(dp2668
g61
(dp2669
sg70
g2654
sg63
(lp2670
g56
(g57
g58
NtRp2671
(dp2672
g61
(dp2673
g69
I3
ssg70
g2667
sg63
(lp2674
g1255
asbasbasbag56
(g72
g58
NtRp2675
(dp2676
g61
(dp2677
sg70
g2440
sg63
(lp2678
g56
(g77
g58
NtRp2679
(dp2680
g61
(dp2681
g81
g82
ssg70
g2675
sg63
(lp2682
S'QUERY_STRING'
p2683
asbag56
(g77
g58
NtRp2684
(dp2685
g61
(dp2686
g88
g89
ssg70
g2675
sg63
(lp2687
S':'
asbag56
(g77
g58
NtRp2688
(dp2689
g61
(dp2690
sg70
g2675
sg63
(lp2691
g56
(g57
g58
NtRp2692
(dp2693
g61
(dp2694
g69
I3
ssg70
g2688
sg63
(lp2695
S''
asbasbasbag56
(g72
g58
NtRp2696
(dp2697
g61
(dp2698
sg70
g2440
sg63
(lp2699
g56
(g77
g58
NtRp2700
(dp2701
g61
(dp2702
g81
g82
ssg70
g2696
sg63
(lp2703
S'REMOTE_ADDR'
p2704
asbag56
(g77
g58
NtRp2705
(dp2706
g61
(dp2707
g88
g89
ssg70
g2696
sg63
(lp2708
S':'
asbag56
(g77
g58
NtRp2709
(dp2710
g61
(dp2711
sg70
g2696
sg63
(lp2712
g56
(g57
g58
NtRp2713
(dp2714
g61
(dp2715
g69
I3
ssg70
g2709
sg63
(lp2716
g201
asbasbasbag56
(g72
g58
NtRp2717
(dp2718
g61
(dp2719
sg70
g2440
sg63
(lp2720
g56
(g77
g58
NtRp2721
(dp2722
g61
(dp2723
g81
g82
ssg70
g2717
sg63
(lp2724
S'REMOTE_PORT'
p2725
asbag56
(g77
g58
NtRp2726
(dp2727
g61
(dp2728
g88
g89
ssg70
g2717
sg63
(lp2729
S':'
asbag56
(g77
g58
NtRp2730
(dp2731
g61
(dp2732
sg70
g2717
sg63
(lp2733
g56
(g57
g58
NtRp2734
(dp2735
g61
(dp2736
g69
I3
ssg70
g2730
sg63
(lp2737
g1319
asbasbasbag56
(g72
g58
NtRp2738
(dp2739
g61
(dp2740
sg70
g2440
sg63
(lp2741
g56
(g77
g58
NtRp2742
(dp2743
g61
(dp2744
g81
g82
ssg70
g2738
sg63
(lp2745
S'REQUEST_METHOD'
p2746
asbag56
(g77
g58
NtRp2747
(dp2748
g61
(dp2749
g88
g89
ssg70
g2738
sg63
(lp2750
S':'
asbag56
(g77
g58
NtRp2751
(dp2752
g61
(dp2753
sg70
g2738
sg63
(lp2754
g56
(g57
g58
NtRp2755
(dp2756
g61
(dp2757
g69
I3
ssg70
g2751
sg63
(lp2758
g1341
asbasbasbag56
(g72
g58
NtRp2759
(dp2760
g61
(dp2761
sg70
g2440
sg63
(lp2762
g56
(g77
g58
NtRp2763
(dp2764
g61
(dp2765
g81
g82
ssg70
g2759
sg63
(lp2766
S'SCRIPT_NAME'
p2767
asbag56
(g77
g58
NtRp2768
(dp2769
g61
(dp2770
g88
g89
ssg70
g2759
sg63
(lp2771
S':'
asbag56
(g77
g58
NtRp2772
(dp2773
g61
(dp2774
sg70
g2759
sg63
(lp2775
g56
(g57
g58
NtRp2776
(dp2777
g61
(dp2778
g69
I3
ssg70
g2772
sg63
(lp2779
S''
asbasbasbag56
(g72
g58
NtRp2780
(dp2781
g61
(dp2782
sg70
g2440
sg63
(lp2783
g56
(g77
g58
NtRp2784
(dp2785
g61
(dp2786
g81
g82
ssg70
g2780
sg63
(lp2787
S'SERVER_NAME'
p2788
asbag56
(g77
g58
NtRp2789
(dp2790
g61
(dp2791
g88
g89
ssg70
g2780
sg63
(lp2792
S':'
asbag56
(g77
g58
NtRp2793
(dp2794
g61
(dp2795
sg70
g2780
sg63
(lp2796
g56
(g57
g58
NtRp2797
(dp2798
g61
(dp2799
g69
I3
ssg70
g2793
sg63
(lp2800
g1384
asbasbasbag56
(g72
g58
NtRp2801
(dp2802
g61
(dp2803
sg70
g2440
sg63
(lp2804
g56
(g77
g58
NtRp2805
(dp2806
g61
(dp2807
g81
g82
ssg70
g2801
sg63
(lp2808
S'SERVER_PORT'
p2809
asbag56
(g77
g58
NtRp2810
(dp2811
g61
(dp2812
g88
g89
ssg70
g2801
sg63
(lp2813
S':'
asbag56
(g77
g58
NtRp2814
(dp2815
g61
(dp2816
sg70
g2801
sg63
(lp2817
g56
(g57
g58
NtRp2818
(dp2819
g61
(dp2820
g69
I3
ssg70
g2814
sg63
(lp2821
g1406
asbasbasbag56
(g72
g58
NtRp2822
(dp2823
g61
(dp2824
sg70
g2440
sg63
(lp2825
g56
(g77
g58
NtRp2826
(dp2827
g61
(dp2828
g81
g82
ssg70
g2822
sg63
(lp2829
S'SERVER_PROTOCOL'
p2830
asbag56
(g77
g58
NtRp2831
(dp2832
g61
(dp2833
g88
g89
ssg70
g2822
sg63
(lp2834
S':'
asbag56
(g77
g58
NtRp2835
(dp2836
g61
(dp2837
sg70
g2822
sg63
(lp2838
g56
(g57
g58
NtRp2839
(dp2840
g61
(dp2841
g69
I3
ssg70
g2835
sg63
(lp2842
g1428
asbasbasbag56
(g72
g58
NtRp2843
(dp2844
g61
(dp2845
sg70
g2440
sg63
(lp2846
g56
(g77
g58
NtRp2847
(dp2848
g61
(dp2849
g81
g82
ssg70
g2843
sg63
(lp2850
S'SERVER_SOFTWARE'
p2851
asbag56
(g77
g58
NtRp2852
(dp2853
g61
(dp2854
g88
g89
ssg70
g2843
sg63
(lp2855
S':'
asbag56
(g77
g58
NtRp2856
(dp2857
g61
(dp2858
sg70
g2843
sg63
(lp2859
g56
(g57
g58
NtRp2860
(dp2861
g61
(dp2862
g69
I3
ssg70
g2856
sg63
(lp2863
g1450
asbasbasbag56
(g72
g58
NtRp2864
(dp2865
g61
(dp2866
sg70
g2440
sg63
(lp2867
g56
(g77
g58
NtRp2868
(dp2869
g61
(dp2870
g81
g82
ssg70
g2864
sg63
(lp2871
S'wsgi.errors'
p2872
asbag56
(g77
g58
NtRp2873
(dp2874
g61
(dp2875
g88
g89
ssg70
g2864
sg63
(lp2876
S':'
asbag56
(g77
g58
NtRp2877
(dp2878
g61
(dp2879
sg70
g2864
sg63
(lp2880
g56
(g57
g58
NtRp2881
(dp2882
g61
(dp2883
g69
I3
ssg70
g2877
sg63
(lp2884
S"<open file '<stderr>', mode 'w' at 0x7f3591233270>"
p2885
asbasbasbag56
(g72
g58
NtRp2886
(dp2887
g61
(dp2888
sg70
g2440
sg63
(lp2889
g56
(g77
g58
NtRp2890
(dp2891
g61
(dp2892
g81
g82
ssg70
g2886
sg63
(lp2893
S'wsgi.file_wrapper'
p2894
asbag56
(g77
g58
NtRp2895
(dp2896
g61
(dp2897
g88
g89
ssg70
g2886
sg63
(lp2898
S':'
asbag56
(g77
g58
NtRp2899
(dp2900
g61
(dp2901
sg70
g2886
sg63
(lp2902
g56
(g57
g58
NtRp2903
(dp2904
g61
(dp2905
g69
I3
ssg70
g2899
sg63
(lp2906
S'<class wsgiref.util.FileWrapper at 0x1f49ef0>'
p2907
asbasbasbag56
(g72
g58
NtRp2908
(dp2909
g61
(dp2910
sg70
g2440
sg63
(lp2911
g56
(g77
g58
NtRp2912
(dp2913
g61
(dp2914
g81
g82
ssg70
g2908
sg63
(lp2915
S'wsgi.input'
p2916
asbag56
(g77
g58
NtRp2917
(dp2918
g61
(dp2919
g88
g89
ssg70
g2908
sg63
(lp2920
S':'
asbag56
(g77
g58
NtRp2921
(dp2922
g61
(dp2923
sg70
g2908
sg63
(lp2924
g56
(g57
g58
NtRp2925
(dp2926
g61
(dp2927
g69
I3
ssg70
g2921
sg63
(lp2928
S'<cStringIO.StringO object at 0x24e8c00>'
p2929
asbasbasbag56
(g72
g58
NtRp2930
(dp2931
g61
(dp2932
sg70
g2440
sg63
(lp2933
g56
(g77
g58
NtRp2934
(dp2935
g61
(dp2936
g81
g82
ssg70
g2930
sg63
(lp2937
S'wsgi.multiprocess'
p2938
asbag56
(g77
g58
NtRp2939
(dp2940
g61
(dp2941
g88
g89
ssg70
g2930
sg63
(lp2942
S':'
asbag56
(g77
g58
NtRp2943
(dp2944
g61
(dp2945
sg70
g2930
sg63
(lp2946
g56
(g57
g58
NtRp2947
(dp2948
g61
(dp2949
g69
I3
ssg70
g2943
sg63
(lp2950
g99
asbasbasbag56
(g72
g58
NtRp2951
(dp2952
g61
(dp2953
sg70
g2440
sg63
(lp2954
g56
(g77
g58
NtRp2955
(dp2956
g61
(dp2957
g81
g82
ssg70
g2951
sg63
(lp2958
S'wsgi.multithread'
p2959
asbag56
(g77
g58
NtRp2960
(dp2961
g61
(dp2962
g88
g89
ssg70
g2951
sg63
(lp2963
S':'
asbag56
(g77
g58
NtRp2964
(dp2965
g61
(dp2966
sg70
g2951
sg63
(lp2967
g56
(g57
g58
NtRp2968
(dp2969
g61
(dp2970
g69
I3
ssg70
g2964
sg63
(lp2971
g1690
asbasbasbag56
(g72
g58
NtRp2972
(dp2973
g61
(dp2974
sg70
g2440
sg63
(lp2975
g56
(g77
g58
NtRp2976
(dp2977
g61
(dp2978
g81
g82
ssg70
g2972
sg63
(lp2979
S'wsgi.run_once'
p2980
asbag56
(g77
g58
NtRp2981
(dp2982
g61
(dp2983
g88
g89
ssg70
g2972
sg63
(lp2984
S':'
asbag56
(g77
g58
NtRp2985
(dp2986
g61
(dp2987
sg70
g2972
sg63
(lp2988
g56
(g57
g58
NtRp2989
(dp2990
g61
(dp2991
g69
I3
ssg70
g2985
sg63
(lp2992
g99
asbasbasbag56
(g72
g58
NtRp2993
(dp2994
g61
(dp2995
sg70
g2440
sg63
(lp2996
g56
(g77
g58
NtRp2997
(dp2998
g61
(dp2999
g81
g82
ssg70
g2993
sg63
(lp3000
S'wsgi.url_scheme'
p3001
asbag56
(g77
g58
NtRp3002
(dp3003
g61
(dp3004
g88
g89
ssg70
g2993
sg63
(lp3005
S':'
asbag56
(g77
g58
NtRp3006
(dp3007
g61
(dp3008
sg70
g2993
sg63
(lp3009
g56
(g57
g58
NtRp3010
(dp3011
g61
(dp3012
g69
I3
ssg70
g3006
sg63
(lp3013
g1733
asbasbasbag56
(g72
g58
NtRp3014
(dp3015
g61
(dp3016
sg70
g2440
sg63
(lp3017
g56
(g77
g58
NtRp3018
(dp3019
g61
(dp3020
g81
g82
ssg70
g3014
sg63
(lp3021
S'wsgi.version'
p3022
asbag56
(g77
g58
NtRp3023
(dp3024
g61
(dp3025
g88
g89
ssg70
g3014
sg63
(lp3026
S':'
asbag56
(g77
g58
NtRp3027
(dp3028
g61
(dp3029
sg70
g3014
sg63
(lp3030
g56
(g57
g58
NtRp3031
(dp3032
g61
(dp3033
g69
I3
ssg70
g3027
sg63
(lp3034
S'1'
asbasbasbasbasbasbasbasbasbasbasbasbasbsS'frames'
p3035
(lp3036
(dp3037
S'file'
p3038
S'/home/kaique/Projects/web2py/gluon/restricted.py'
p3039
sS'dump'
p3040
(dp3041
S'environment'
p3042
S"{'A': <class 'gluon.html.A'>, 'Auth': <class 'gluon.tools.Auth'>, 'B': <class 'gluon.html.B'>, 'BEAUTIFY': <class 'gluon.html.BEAUTIFY'>, 'BODY': <class 'gluon.html.BODY'>, 'BR': <class 'gluon.html.BR'>, 'BUTTON': <class 'gluon.html.BUTTON'>, 'CAT': <class 'gluon.html.CAT'>, 'CENTER': <class 'gluon.html.CENTER'>, 'CLEANUP': <class 'gluon.validators.CLEANUP'>, ...}"
p3043
sS'ccode'
p3044
S'<code object <module> at 0x2302ab0, file "/home/...ons/synopsis/controllers/information.py", line 2>'
p3045
ssS'lnum'
p3046
I194
sS'lines'
p3047
(dp3048
I192
S'        else:'
p3049
sI193
S'            ccode = compile2(code,layer)'
p3050
sI194
S'        exec ccode in environment'
p3051
sI195
S'    except HTTP:'
p3052
sI196
S'        raise'
p3053
sI197
S'    except Exception, error:'
p3054
sI198
S'        # XXX Show exception in Wing IDE if running in debugger'
p3055
sI189
S'    try:'
p3056
sI190
S'        if type(code) == types.CodeType:'
p3057
sI191
S'            ccode = code'
p3058
ssS'call'
p3059
S"(code='# -*- coding: utf-8 -*-\\nimport functions as f # ...{}\\n\\nresponse._vars=response._caller(publication)\\n', environment={'A': <class 'gluon.html.A'>, 'Auth': <class 'gluon.tools.Auth'>, 'B': <class 'gluon.html.B'>, 'BEAUTIFY': <class 'gluon.html.BEAUTIFY'>, 'BODY': <class 'gluon.html.BODY'>, 'BR': <class 'gluon.html.BR'>, 'BUTTON': <class 'gluon.html.BUTTON'>, 'CAT': <class 'gluon.html.CAT'>, 'CENTER': <class 'gluon.html.CENTER'>, 'CLEANUP': <class 'gluon.validators.CLEANUP'>, ...}, layer='/home/kaique/Projects/web2py/applications/synopsis/controllers/information.py')"
p3060
sS'func'
p3061
S'restricted'
p3062
sa(dp3063
g3038
S'/home/kaique/Projects/web2py/applications/synopsis/controllers/information.py'
p3064
sg3040
(dp3065
sg3046
I92
sg3047
(dp3066
I81
S"\t\t\tresponse.flash = T('Sorry, try again!')"
p3067
sI82
S'\t\telse:'
p3068
sI83
S"\t\t\tresponse.flahs = T('Please, fill the field...')"
p3069
sI84
S''
sI85
S"\t\treturn { 'form': row,"
p3070
sI86
S"\t\t\t\t 'title': title }"
p3071
sI87
S''
sI88
S"@auth.requires_membership('admin')"
p3072
sI89
S'def edit(): # Edit the subject'
p3073
sI90
S'\treturn {}'
p3074
ssg3059
S'()'
p3075
sg3061
S'<module>'
p3076
sa(dp3077
g3038
S'/home/kaique/Projects/web2py/gluon/globals.py'
p3078
sg3040
(dp3079
S'self'
p3080
S'undefined'
p3081
sS'f'
S'<function publication>'
p3082
ssg3046
I149
sg3047
(dp3083
I144
S'        self.meta = Storage()      # used by web2py_ajax.html'
p3084
sI145
S'        self.menu = []             # used by the default view layout'
p3085
sI146
S'        self.files = []            # used by web2py_ajax.html'
p3086
sI147
S'        self.generic_patterns = [] # patterns to allow generic views'
p3087
sI148
S'        self._vars = None'
p3088
sI149
S'        self._caller = lambda f: f()'
p3089
sI150
S'        self._view_environment = None'
p3090
sI151
S'        self._custom_commit = None'
p3091
sI152
S'        self._custom_rollback = None'
p3092
sI153
S''
ssg3059
S'(f=<function publication>)'
p3093
sg3061
S'<lambda>'
p3094
sa(dp3095
g3038
S'/home/kaique/Projects/web2py/gluon/tools.py'
p3096
sg3040
(dp3097
S'action'
p3098
S'<function publication>'
p3099
sS'a'
S'()'
p3100
sS'b'
g44
ssg3046
I2456
sg3047
(dp3101
I2451
S"                            '?_next='+urllib.quote(next))"
p3102
sI2452
S'                if not condition:'
p3103
sI2453
S'                    current.session.flash = self.messages.access_denied'
p3104
sI2454
S'                    return call_or_redirect('
p3105
sI2455
S'                        self.settings.on_failed_authorization)'
p3106
sI2456
S'                return action(*a, **b)'
p3107
sI2457
S'            f.__doc__ = action.__doc__'
p3108
sI2458
S'            f.__name__ = action.__name__'
p3109
sI2459
S'            f.__dict__.update(action.__dict__)'
p3110
sI2460
S'            return f'
p3111
ssg3059
S'(*a=(), **b={})'
p3112
sg3061
S'f'
sa(dp3113
g3038
S'/home/kaique/Projects/web2py/applications/synopsis/controllers/information.py'
p3114
sg3040
(dp3115
S'f.count_equals'
p3116
g3081
sS'global f'
p3117
S"<module 'applications.synopsis.modules.functions...om 'applications/synopsis/modules/functions.pyc'>"
p3118
sS'count_equals'
p3119
g3081
ssg3046
I21
sg3047
(dp3120
I16
S"\treturn { 'profile': profile }"
p3121
sI17
S''
sI18
S"@auth.requires_membership('admin')"
p3122
sI19
S'def publication(): # Show the publication profile'
p3123
sI20
S"\targs = request.args # query url's"
p3124
sI21
S'\tcount_equals = f.count_equals'
p3125
sI22
S'\tif args:'
p3126
sI23
S"\t\tpublication = f.get_table(db, 'publication', id=args[0])"
p3127
sI24
S'\t\tsession.back = args[0]'
p3128
sI25
S"\tif not args or not publication: return redirect( URL('profile') )"
p3129
ssg3059
S'()'
p3130
sg3061
S'publication'
p3131
sasS'pyver'
p3132
S'Python 2.7.2+: /usr/bin/python'
p3133
sS'session'
p3134
g56
(g57
g58
NtRp3135
(dp3136
g61
(dp3137
sg63
(lp3138
g56
(g65
g58
NtRp3139
(dp3140
g61
(dp3141
g69
I5
ssg70
Nsg63
(lp3142
g56
(g72
g58
NtRp3143
(dp3144
g61
(dp3145
sg70
g3139
sg63
(lp3146
g56
(g77
g58
NtRp3147
(dp3148
g61
(dp3149
g81
g82
ssg70
g3143
sg63
(lp3150
S'auth'
p3151
asbag56
(g77
g58
NtRp3152
(dp3153
g61
(dp3154
g88
g89
ssg70
g3143
sg63
(lp3155
S':'
asbag56
(g77
g58
NtRp3156
(dp3157
g61
(dp3158
sg70
g3143
sg63
(lp3159
g56
(g57
g58
NtRp3160
(dp3161
g61
(dp3162
g69
I5
ssg70
g3156
sg63
(lp3163
g56
(g65
g58
NtRp3164
(dp3165
g61
(dp3166
g69
I4
ssg70
Nsg63
(lp3167
g56
(g72
g58
NtRp3168
(dp3169
g61
(dp3170
sg70
g3164
sg63
(lp3171
g56
(g77
g58
NtRp3172
(dp3173
g61
(dp3174
g81
g82
ssg70
g3168
sg63
(lp3175
S'expiration'
p3176
asbag56
(g77
g58
NtRp3177
(dp3178
g61
(dp3179
g88
g89
ssg70
g3168
sg63
(lp3180
S':'
asbag56
(g77
g58
NtRp3181
(dp3182
g61
(dp3183
sg70
g3168
sg63
(lp3184
g56
(g57
g58
NtRp3185
(dp3186
g61
(dp3187
g69
I4
ssg70
g3181
sg63
(lp3188
S'2592000'
p3189
asbasbasbag56
(g72
g58
NtRp3190
(dp3191
g61
(dp3192
sg70
g3164
sg63
(lp3193
g56
(g77
g58
NtRp3194
(dp3195
g61
(dp3196
g81
g82
ssg70
g3190
sg63
(lp3197
S'hmac_key'
p3198
asbag56
(g77
g58
NtRp3199
(dp3200
g61
(dp3201
g88
g89
ssg70
g3190
sg63
(lp3202
S':'
asbag56
(g77
g58
NtRp3203
(dp3204
g61
(dp3205
sg70
g3190
sg63
(lp3206
g56
(g57
g58
NtRp3207
(dp3208
g61
(dp3209
g69
I4
ssg70
g3203
sg63
(lp3210
S'4c32a183-7118-47f6-ab0b-21a33c2fc6ab'
p3211
asbasbasbag56
(g72
g58
NtRp3212
(dp3213
g61
(dp3214
sg70
g3164
sg63
(lp3215
g56
(g77
g58
NtRp3216
(dp3217
g61
(dp3218
g81
g82
ssg70
g3212
sg63
(lp3219
S'last_visit'
p3220
asbag56
(g77
g58
NtRp3221
(dp3222
g61
(dp3223
g88
g89
ssg70
g3212
sg63
(lp3224
S':'
asbag56
(g77
g58
NtRp3225
(dp3226
g61
(dp3227
sg70
g3212
sg63
(lp3228
g56
(g57
g58
NtRp3229
(dp3230
g61
(dp3231
g69
I4
ssg70
g3225
sg63
(lp3232
S'datetime.datetime(2012, 1, 11, 22, 1, 29, 654193)'
p3233
asbasbasbag56
(g72
g58
NtRp3234
(dp3235
g61
(dp3236
sg70
g3164
sg63
(lp3237
g56
(g77
g58
NtRp3238
(dp3239
g61
(dp3240
g81
g82
ssg70
g3234
sg63
(lp3241
S'remember'
p3242
asbag56
(g77
g58
NtRp3243
(dp3244
g61
(dp3245
g88
g89
ssg70
g3234
sg63
(lp3246
S':'
asbag56
(g77
g58
NtRp3247
(dp3248
g61
(dp3249
sg70
g3234
sg63
(lp3250
g56
(g57
g58
NtRp3251
(dp3252
g61
(dp3253
g69
I4
ssg70
g3247
sg63
(lp3254
g99
asbasbasbag56
(g72
g58
NtRp3255
(dp3256
g61
(dp3257
sg70
g3164
sg63
(lp3258
g56
(g77
g58
NtRp3259
(dp3260
g61
(dp3261
g81
g82
ssg70
g3255
sg63
(lp3262
S'user'
p3263
asbag56
(g77
g58
NtRp3264
(dp3265
g61
(dp3266
g88
g89
ssg70
g3255
sg63
(lp3267
S':'
asbag56
(g77
g58
NtRp3268
(dp3269
g61
(dp3270
sg70
g3255
sg63
(lp3271
g56
(g57
g58
NtRp3272
(dp3273
g61
(dp3274
g69
I4
ssg70
g3268
sg63
(lp3275
g56
(g65
g58
NtRp3276
(dp3277
g61
(dp3278
g69
I3
ssg70
Nsg63
(lp3279
g56
(g72
g58
NtRp3280
(dp3281
g61
(dp3282
sg70
g3276
sg63
(lp3283
g56
(g77
g58
NtRp3284
(dp3285
g61
(dp3286
g81
g82
ssg70
g3280
sg63
(lp3287
S'email'
p3288
asbag56
(g77
g58
NtRp3289
(dp3290
g61
(dp3291
g88
g89
ssg70
g3280
sg63
(lp3292
S':'
asbag56
(g77
g58
NtRp3293
(dp3294
g61
(dp3295
sg70
g3280
sg63
(lp3296
g56
(g57
g58
NtRp3297
(dp3298
g61
(dp3299
g69
I3
ssg70
g3293
sg63
(lp3300
S'kaique.developer@gmail.com'
p3301
asbasbasbag56
(g72
g58
NtRp3302
(dp3303
g61
(dp3304
sg70
g3276
sg63
(lp3305
g56
(g77
g58
NtRp3306
(dp3307
g61
(dp3308
g81
g82
ssg70
g3302
sg63
(lp3309
S'first_name'
p3310
asbag56
(g77
g58
NtRp3311
(dp3312
g61
(dp3313
g88
g89
ssg70
g3302
sg63
(lp3314
S':'
asbag56
(g77
g58
NtRp3315
(dp3316
g61
(dp3317
sg70
g3302
sg63
(lp3318
g56
(g57
g58
NtRp3319
(dp3320
g61
(dp3321
g69
I3
ssg70
g3315
sg63
(lp3322
S'kaique'
p3323
asbasbasbag56
(g72
g58
NtRp3324
(dp3325
g61
(dp3326
sg70
g3276
sg63
(lp3327
g56
(g77
g58
NtRp3328
(dp3329
g61
(dp3330
g81
g82
ssg70
g3324
sg63
(lp3331
S'id'
p3332
asbag56
(g77
g58
NtRp3333
(dp3334
g61
(dp3335
g88
g89
ssg70
g3324
sg63
(lp3336
S':'
asbag56
(g77
g58
NtRp3337
(dp3338
g61
(dp3339
sg70
g3324
sg63
(lp3340
g56
(g57
g58
NtRp3341
(dp3342
g61
(dp3343
g69
I3
ssg70
g3337
sg63
(lp3344
S'1'
asbasbasbag56
(g72
g58
NtRp3345
(dp3346
g61
(dp3347
sg70
g3276
sg63
(lp3348
g56
(g77
g58
NtRp3349
(dp3350
g61
(dp3351
g81
g82
ssg70
g3345
sg63
(lp3352
S'last_name'
p3353
asbag56
(g77
g58
NtRp3354
(dp3355
g61
(dp3356
g88
g89
ssg70
g3345
sg63
(lp3357
S':'
asbag56
(g77
g58
NtRp3358
(dp3359
g61
(dp3360
sg70
g3345
sg63
(lp3361
g56
(g57
g58
NtRp3362
(dp3363
g61
(dp3364
g69
I3
ssg70
g3358
sg63
(lp3365
S'silva'
p3366
asbasbasbag56
(g72
g58
NtRp3367
(dp3368
g61
(dp3369
sg70
g3276
sg63
(lp3370
g56
(g77
g58
NtRp3371
(dp3372
g61
(dp3373
g81
g82
ssg70
g3367
sg63
(lp3374
S'password'
p3375
asbag56
(g77
g58
NtRp3376
(dp3377
g61
(dp3378
g88
g89
ssg70
g3367
sg63
(lp3379
S':'
asbag56
(g77
g58
NtRp3380
(dp3381
g61
(dp3382
sg70
g3367
sg63
(lp3383
g56
(g57
g58
NtRp3384
(dp3385
g61
(dp3386
g69
I3
ssg70
g3380
sg63
(lp3387
S'72c6a018d62d3fb47d95389e4a062cd2'
p3388
asbasbasbag56
(g72
g58
NtRp3389
(dp3390
g61
(dp3391
sg70
g3276
sg63
(lp3392
g56
(g77
g58
NtRp3393
(dp3394
g61
(dp3395
g81
g82
ssg70
g3389
sg63
(lp3396
S'registration_key'
p3397
asbag56
(g77
g58
NtRp3398
(dp3399
g61
(dp3400
g88
g89
ssg70
g3389
sg63
(lp3401
S':'
asbag56
(g77
g58
NtRp3402
(dp3403
g61
(dp3404
sg70
g3389
sg63
(lp3405
g56
(g57
g58
NtRp3406
(dp3407
g61
(dp3408
g69
I3
ssg70
g3402
sg63
(lp3409
S''
asbasbasbag56
(g72
g58
NtRp3410
(dp3411
g61
(dp3412
sg70
g3276
sg63
(lp3413
g56
(g77
g58
NtRp3414
(dp3415
g61
(dp3416
g81
g82
ssg70
g3410
sg63
(lp3417
S'reset_password_key'
p3418
asbag56
(g77
g58
NtRp3419
(dp3420
g61
(dp3421
g88
g89
ssg70
g3410
sg63
(lp3422
S':'
asbag56
(g77
g58
NtRp3423
(dp3424
g61
(dp3425
sg70
g3410
sg63
(lp3426
g56
(g57
g58
NtRp3427
(dp3428
g61
(dp3429
g69
I3
ssg70
g3423
sg63
(lp3430
S''
asbasbasbasbasbasbasbasbasbasbasbag56
(g72
g58
NtRp3431
(dp3432
g61
(dp3433
sg70
g3139
sg63
(lp3434
g56
(g77
g58
NtRp3435
(dp3436
g61
(dp3437
g81
g82
ssg70
g3431
sg63
(lp3438
S'back'
p3439
asbag56
(g77
g58
NtRp3440
(dp3441
g61
(dp3442
g88
g89
ssg70
g3431
sg63
(lp3443
S':'
asbag56
(g77
g58
NtRp3444
(dp3445
g61
(dp3446
sg70
g3431
sg63
(lp3447
g56
(g57
g58
NtRp3448
(dp3449
g61
(dp3450
g69
I5
ssg70
g3444
sg63
(lp3451
S'7'
asbasbasbag56
(g72
g58
NtRp3452
(dp3453
g61
(dp3454
sg70
g3139
sg63
(lp3455
g56
(g77
g58
NtRp3456
(dp3457
g61
(dp3458
g81
g82
ssg70
g3452
sg63
(lp3459
S'index'
p3460
asbag56
(g77
g58
NtRp3461
(dp3462
g61
(dp3463
g88
g89
ssg70
g3452
sg63
(lp3464
S':'
asbag56
(g77
g58
NtRp3465
(dp3466
g61
(dp3467
sg70
g3452
sg63
(lp3468
g56
(g57
g58
NtRp3469
(dp3470
g61
(dp3471
g69
I5
ssg70
g3465
sg63
(lp3472
S'1'
asbasbasbag56
(g72
g58
NtRp3473
(dp3474
g61
(dp3475
sg70
g3139
sg63
(lp3476
g56
(g77
g58
NtRp3477
(dp3478
g61
(dp3479
g81
g82
ssg70
g3473
sg63
(lp3480
S'last_query'
p3481
asbag56
(g77
g58
NtRp3482
(dp3483
g61
(dp3484
g88
g89
ssg70
g3473
sg63
(lp3485
S':'
asbag56
(g77
g58
NtRp3486
(dp3487
g61
(dp3488
sg70
g3473
sg63
(lp3489
g56
(g57
g58
NtRp3490
(dp3491
g61
(dp3492
g69
I5
ssg70
g3486
sg63
(lp3493
S'db.column.id>0'
p3494
asbasbasbasbasbsS'etype'
p3495
S"<type 'exceptions.AttributeError'>"
p3496
sS'date'
p3497
S'Thu Jan 12 15:55:18 2012'
p3498
sS'response'
p3499
g56
(g57
g58
NtRp3500
(dp3501
g61
(dp3502
sg63
(lp3503
g56
(g65
g58
NtRp3504
(dp3505
g61
(dp3506
g69
I5
ssg70
Nsg63
(lp3507
g56
(g72
g58
NtRp3508
(dp3509
g61
(dp3510
sg70
g3504
sg63
(lp3511
g56
(g77
g58
NtRp3512
(dp3513
g61
(dp3514
g81
g82
ssg70
g3508
sg63
(lp3515
g166
asbag56
(g77
g58
NtRp3516
(dp3517
g61
(dp3518
g88
g89
ssg70
g3508
sg63
(lp3519
S':'
asbag56
(g77
g58
NtRp3520
(dp3521
g61
(dp3522
sg70
g3508
sg63
(lp3523
g56
(g57
g58
NtRp3524
(dp3525
g61
(dp3526
g69
I5
ssg70
g3520
sg63
(lp3527
S'<cStringIO.StringO object at 0x2b4dc00>'
p3528
asbasbasbag56
(g72
g58
NtRp3529
(dp3530
g61
(dp3531
sg70
g3504
sg63
(lp3532
g56
(g77
g58
NtRp3533
(dp3534
g61
(dp3535
g81
g82
ssg70
g3529
sg63
(lp3536
g232
asbag56
(g77
g58
NtRp3537
(dp3538
g61
(dp3539
g88
g89
ssg70
g3529
sg63
(lp3540
S':'
asbag56
(g77
g58
NtRp3541
(dp3542
g61
(dp3543
sg70
g3529
sg63
(lp3544
g56
(g57
g58
NtRp3545
(dp3546
g61
(dp3547
g69
I5
ssg70
g3541
sg63
(lp3548
g56
(g65
g58
NtRp3549
(dp3550
g61
(dp3551
g69
I4
ssg70
Nsg63
(lp3552
g56
(g72
g58
NtRp3553
(dp3554
g61
(dp3555
sg70
g3549
sg63
(lp3556
g56
(g77
g58
NtRp3557
(dp3558
g61
(dp3559
g81
g82
ssg70
g3553
sg63
(lp3560
S'session_id_synopsis'
p3561
asbag56
(g77
g58
NtRp3562
(dp3563
g61
(dp3564
g88
g89
ssg70
g3553
sg63
(lp3565
S':'
asbag56
(g77
g58
NtRp3566
(dp3567
g61
(dp3568
sg70
g3553
sg63
(lp3569
g56
(g57
g58
NtRp3570
(dp3571
g61
(dp3572
g69
I4
ssg70
g3566
sg63
(lp3573
g56
(g65
g58
NtRp3574
(dp3575
g61
(dp3576
g69
I3
ssg70
Nsg63
(lp3577
g56
(g72
g58
NtRp3578
(dp3579
g61
(dp3580
sg70
g3574
sg63
(lp3581
g56
(g77
g58
NtRp3582
(dp3583
g61
(dp3584
g81
g82
ssg70
g3578
sg63
(lp3585
g282
asbag56
(g77
g58
NtRp3586
(dp3587
g61
(dp3588
g88
g89
ssg70
g3578
sg63
(lp3589
S':'
asbag56
(g77
g58
NtRp3590
(dp3591
g61
(dp3592
sg70
g3578
sg63
(lp3593
g56
(g57
g58
NtRp3594
(dp3595
g61
(dp3596
g69
I3
ssg70
g3590
sg63
(lp3597
S''
asbasbasbag56
(g72
g58
NtRp3598
(dp3599
g61
(dp3600
sg70
g3574
sg63
(lp3601
g56
(g77
g58
NtRp3602
(dp3603
g61
(dp3604
g81
g82
ssg70
g3598
sg63
(lp3605
g303
asbag56
(g77
g58
NtRp3606
(dp3607
g61
(dp3608
g88
g89
ssg70
g3598
sg63
(lp3609
S':'
asbag56
(g77
g58
NtRp3610
(dp3611
g61
(dp3612
sg70
g3598
sg63
(lp3613
g56
(g57
g58
NtRp3614
(dp3615
g61
(dp3616
g69
I3
ssg70
g3610
sg63
(lp3617
S''
asbasbasbag56
(g72
g58
NtRp3618
(dp3619
g61
(dp3620
sg70
g3574
sg63
(lp3621
g56
(g77
g58
NtRp3622
(dp3623
g61
(dp3624
g81
g82
ssg70
g3618
sg63
(lp3625
g324
asbag56
(g77
g58
NtRp3626
(dp3627
g61
(dp3628
g88
g89
ssg70
g3618
sg63
(lp3629
S':'
asbag56
(g77
g58
NtRp3630
(dp3631
g61
(dp3632
sg70
g3618
sg63
(lp3633
g56
(g57
g58
NtRp3634
(dp3635
g61
(dp3636
g69
I3
ssg70
g3630
sg63
(lp3637
S''
asbasbasbag56
(g72
g58
NtRp3638
(dp3639
g61
(dp3640
sg70
g3574
sg63
(lp3641
g56
(g77
g58
NtRp3642
(dp3643
g61
(dp3644
g81
g82
ssg70
g3638
sg63
(lp3645
g345
asbag56
(g77
g58
NtRp3646
(dp3647
g61
(dp3648
g88
g89
ssg70
g3638
sg63
(lp3649
S':'
asbag56
(g77
g58
NtRp3650
(dp3651
g61
(dp3652
sg70
g3638
sg63
(lp3653
g56
(g57
g58
NtRp3654
(dp3655
g61
(dp3656
g69
I3
ssg70
g3650
sg63
(lp3657
S''
asbasbasbag56
(g72
g58
NtRp3658
(dp3659
g61
(dp3660
sg70
g3574
sg63
(lp3661
g56
(g77
g58
NtRp3662
(dp3663
g61
(dp3664
g81
g82
ssg70
g3658
sg63
(lp3665
g366
asbag56
(g77
g58
NtRp3666
(dp3667
g61
(dp3668
g88
g89
ssg70
g3658
sg63
(lp3669
S':'
asbag56
(g77
g58
NtRp3670
(dp3671
g61
(dp3672
sg70
g3658
sg63
(lp3673
g56
(g57
g58
NtRp3674
(dp3675
g61
(dp3676
g69
I3
ssg70
g3670
sg63
(lp3677
S''
asbasbasbag56
(g72
g58
NtRp3678
(dp3679
g61
(dp3680
sg70
g3574
sg63
(lp3681
g56
(g77
g58
NtRp3682
(dp3683
g61
(dp3684
g81
g82
ssg70
g3678
sg63
(lp3685
g387
asbag56
(g77
g58
NtRp3686
(dp3687
g61
(dp3688
g88
g89
ssg70
g3678
sg63
(lp3689
S':'
asbag56
(g77
g58
NtRp3690
(dp3691
g61
(dp3692
sg70
g3678
sg63
(lp3693
g56
(g57
g58
NtRp3694
(dp3695
g61
(dp3696
g69
I3
ssg70
g3690
sg63
(lp3697
S'/'
asbasbasbag56
(g72
g58
NtRp3698
(dp3699
g61
(dp3700
sg70
g3574
sg63
(lp3701
g56
(g77
g58
NtRp3702
(dp3703
g61
(dp3704
g81
g82
ssg70
g3698
sg63
(lp3705
g408
asbag56
(g77
g58
NtRp3706
(dp3707
g61
(dp3708
g88
g89
ssg70
g3698
sg63
(lp3709
S':'
asbag56
(g77
g58
NtRp3710
(dp3711
g61
(dp3712
sg70
g3698
sg63
(lp3713
g56
(g57
g58
NtRp3714
(dp3715
g61
(dp3716
g69
I3
ssg70
g3710
sg63
(lp3717
S''
asbasbasbag56
(g72
g58
NtRp3718
(dp3719
g61
(dp3720
sg70
g3574
sg63
(lp3721
g56
(g77
g58
NtRp3722
(dp3723
g61
(dp3724
g81
g82
ssg70
g3718
sg63
(lp3725
g429
asbag56
(g77
g58
NtRp3726
(dp3727
g61
(dp3728
g88
g89
ssg70
g3718
sg63
(lp3729
S':'
asbag56
(g77
g58
NtRp3730
(dp3731
g61
(dp3732
sg70
g3718
sg63
(lp3733
g56
(g57
g58
NtRp3734
(dp3735
g61
(dp3736
g69
I3
ssg70
g3730
sg63
(lp3737
S''
asbasbasbasbasbasbasbasbasbasbasbag56
(g72
g58
NtRp3738
(dp3739
g61
(dp3740
sg70
g3504
sg63
(lp3741
g56
(g77
g58
NtRp3742
(dp3743
g61
(dp3744
g81
g82
ssg70
g3738
sg63
(lp3745
S'files'
p3746
asbag56
(g77
g58
NtRp3747
(dp3748
g61
(dp3749
g88
g89
ssg70
g3738
sg63
(lp3750
S':'
asbag56
(g77
g58
NtRp3751
(dp3752
g61
(dp3753
sg70
g3738
sg63
(lp3754
g56
(g57
g58
NtRp3755
(dp3756
g61
(dp3757
g69
I5
ssg70
g3751
sg63
(lp3758
g56
(g65
g58
NtRp3759
(dp3760
g61
(dp3761
g69
I4
ssg70
Nsg63
(lp3762
sbasbasbasbag56
(g72
g58
NtRp3763
(dp3764
g61
(dp3765
sg70
g3504
sg63
(lp3766
g56
(g77
g58
NtRp3767
(dp3768
g61
(dp3769
g81
g82
ssg70
g3763
sg63
(lp3770
S'flash'
p3771
asbag56
(g77
g58
NtRp3772
(dp3773
g61
(dp3774
g88
g89
ssg70
g3763
sg63
(lp3775
S':'
asbag56
(g77
g58
NtRp3776
(dp3777
g61
(dp3778
sg70
g3763
sg63
(lp3779
g56
(g57
g58
NtRp3780
(dp3781
g61
(dp3782
g69
I5
ssg70
g3776
sg63
(lp3783
S''
asbasbasbag56
(g72
g58
NtRp3784
(dp3785
g61
(dp3786
sg70
g3504
sg63
(lp3787
g56
(g77
g58
NtRp3788
(dp3789
g61
(dp3790
g81
g82
ssg70
g3784
sg63
(lp3791
S'generic_patterns'
p3792
asbag56
(g77
g58
NtRp3793
(dp3794
g61
(dp3795
g88
g89
ssg70
g3784
sg63
(lp3796
S':'
asbag56
(g77
g58
NtRp3797
(dp3798
g61
(dp3799
sg70
g3784
sg63
(lp3800
g56
(g57
g58
NtRp3801
(dp3802
g61
(dp3803
g69
I5
ssg70
g3797
sg63
(lp3804
g56
(g65
g58
NtRp3805
(dp3806
g61
(dp3807
g69
I4
ssg70
Nsg63
(lp3808
g56
(g72
g58
NtRp3809
(dp3810
g61
(dp3811
sg70
g3805
sg63
(lp3812
g56
(g77
g58
NtRp3813
(dp3814
g61
(dp3815
sg70
g3809
sg63
(lp3816
g56
(g57
g58
NtRp3817
(dp3818
g61
(dp3819
g69
I4
ssg70
g3813
sg63
(lp3820
S'*'
asbasbasbasbasbasbasbag56
(g72
g58
NtRp3821
(dp3822
g61
(dp3823
sg70
g3504
sg63
(lp3824
g56
(g77
g58
NtRp3825
(dp3826
g61
(dp3827
g81
g82
ssg70
g3821
sg63
(lp3828
S'headers'
p3829
asbag56
(g77
g58
NtRp3830
(dp3831
g61
(dp3832
g88
g89
ssg70
g3821
sg63
(lp3833
S':'
asbag56
(g77
g58
NtRp3834
(dp3835
g61
(dp3836
sg70
g3821
sg63
(lp3837
g56
(g57
g58
NtRp3838
(dp3839
g61
(dp3840
g69
I5
ssg70
g3834
sg63
(lp3841
g56
(g65
g58
NtRp3842
(dp3843
g61
(dp3844
g69
I4
ssg70
Nsg63
(lp3845
g56
(g72
g58
NtRp3846
(dp3847
g61
(dp3848
sg70
g3842
sg63
(lp3849
g56
(g77
g58
NtRp3850
(dp3851
g61
(dp3852
g81
g82
ssg70
g3846
sg63
(lp3853
S'Cache-Control'
p3854
asbag56
(g77
g58
NtRp3855
(dp3856
g61
(dp3857
g88
g89
ssg70
g3846
sg63
(lp3858
S':'
asbag56
(g77
g58
NtRp3859
(dp3860
g61
(dp3861
sg70
g3846
sg63
(lp3862
g56
(g57
g58
NtRp3863
(dp3864
g61
(dp3865
g69
I4
ssg70
g3859
sg63
(lp3866
S'no-store, no-cache, must-revalidate, post-check=0, pre-check=0'
p3867
asbasbasbag56
(g72
g58
NtRp3868
(dp3869
g61
(dp3870
sg70
g3842
sg63
(lp3871
g56
(g77
g58
NtRp3872
(dp3873
g61
(dp3874
g81
g82
ssg70
g3868
sg63
(lp3875
S'Content-Type'
p3876
asbag56
(g77
g58
NtRp3877
(dp3878
g61
(dp3879
g88
g89
ssg70
g3868
sg63
(lp3880
S':'
asbag56
(g77
g58
NtRp3881
(dp3882
g61
(dp3883
sg70
g3868
sg63
(lp3884
g56
(g57
g58
NtRp3885
(dp3886
g61
(dp3887
g69
I4
ssg70
g3881
sg63
(lp3888
S'text/html; charset=utf-8'
p3889
asbasbasbag56
(g72
g58
NtRp3890
(dp3891
g61
(dp3892
sg70
g3842
sg63
(lp3893
g56
(g77
g58
NtRp3894
(dp3895
g61
(dp3896
g81
g82
ssg70
g3890
sg63
(lp3897
S'Expires'
p3898
asbag56
(g77
g58
NtRp3899
(dp3900
g61
(dp3901
g88
g89
ssg70
g3890
sg63
(lp3902
S':'
asbag56
(g77
g58
NtRp3903
(dp3904
g61
(dp3905
sg70
g3890
sg63
(lp3906
g56
(g57
g58
NtRp3907
(dp3908
g61
(dp3909
g69
I4
ssg70
g3903
sg63
(lp3910
S'Thu, 12 Jan 2012 17:55:18 GMT'
p3911
asbasbasbag56
(g72
g58
NtRp3912
(dp3913
g61
(dp3914
sg70
g3842
sg63
(lp3915
g56
(g77
g58
NtRp3916
(dp3917
g61
(dp3918
g81
g82
ssg70
g3912
sg63
(lp3919
S'Pragma'
p3920
asbag56
(g77
g58
NtRp3921
(dp3922
g61
(dp3923
g88
g89
ssg70
g3912
sg63
(lp3924
S':'
asbag56
(g77
g58
NtRp3925
(dp3926
g61
(dp3927
sg70
g3912
sg63
(lp3928
g56
(g57
g58
NtRp3929
(dp3930
g61
(dp3931
g69
I4
ssg70
g3925
sg63
(lp3932
S'no-cache'
p3933
asbasbasbag56
(g72
g58
NtRp3934
(dp3935
g61
(dp3936
sg70
g3842
sg63
(lp3937
g56
(g77
g58
NtRp3938
(dp3939
g61
(dp3940
g81
g82
ssg70
g3934
sg63
(lp3941
S'X-Powered-By'
p3942
asbag56
(g77
g58
NtRp3943
(dp3944
g61
(dp3945
g88
g89
ssg70
g3934
sg63
(lp3946
S':'
asbag56
(g77
g58
NtRp3947
(dp3948
g61
(dp3949
sg70
g3934
sg63
(lp3950
g56
(g57
g58
NtRp3951
(dp3952
g61
(dp3953
g69
I4
ssg70
g3947
sg63
(lp3954
S'web2py'
p3955
asbasbasbasbasbasbasbag56
(g72
g58
NtRp3956
(dp3957
g61
(dp3958
sg70
g3504
sg63
(lp3959
g56
(g77
g58
NtRp3960
(dp3961
g61
(dp3962
g81
g82
ssg70
g3956
sg63
(lp3963
S'menu'
p3964
asbag56
(g77
g58
NtRp3965
(dp3966
g61
(dp3967
g88
g89
ssg70
g3956
sg63
(lp3968
S':'
asbag56
(g77
g58
NtRp3969
(dp3970
g61
(dp3971
sg70
g3956
sg63
(lp3972
g56
(g57
g58
NtRp3973
(dp3974
g61
(dp3975
g69
I5
ssg70
g3969
sg63
(lp3976
g56
(g65
g58
NtRp3977
(dp3978
g61
(dp3979
g69
I4
ssg70
Nsg63
(lp3980
g56
(g72
g58
NtRp3981
(dp3982
g61
(dp3983
sg70
g3977
sg63
(lp3984
g56
(g77
g58
NtRp3985
(dp3986
g61
(dp3987
sg70
g3981
sg63
(lp3988
g56
(g57
g58
NtRp3989
(dp3990
g61
(dp3991
g69
I4
ssg70
g3985
sg63
(lp3992
g56
(g65
g58
NtRp3993
(dp3994
g61
(dp3995
g69
I3
ssg70
Nsg63
(lp3996
g56
(g72
g58
NtRp3997
(dp3998
g61
(dp3999
sg70
g3993
sg63
(lp4000
g56
(g77
g58
NtRp4001
(dp4002
g61
(dp4003
sg70
g3997
sg63
(lp4004
g56
(g57
g58
NtRp4005
(dp4006
g61
(dp4007
g69
I3
ssg70
g4001
sg63
(lp4008
cgluon.languages
lazyT_unpickle
p4009
(S't\x04\x00\x00\x00Home'
tRp4010
asbasbasbag56
(g72
g58
NtRp4011
(dp4012
g61
(dp4013
sg70
g3993
sg63
(lp4014
g56
(g77
g58
NtRp4015
(dp4016
g61
(dp4017
sg70
g4011
sg63
(lp4018
g56
(g57
g58
NtRp4019
(dp4020
g61
(dp4021
g69
I3
ssg70
g4015
sg63
(lp4022
g99
asbasbasbag56
(g72
g58
NtRp4023
(dp4024
g61
(dp4025
sg70
g3993
sg63
(lp4026
g56
(g77
g58
NtRp4027
(dp4028
g61
(dp4029
sg70
g4023
sg63
(lp4030
g56
(g57
g58
NtRp4031
(dp4032
g61
(dp4033
g69
I3
ssg70
g4027
sg63
(lp4034
S'/synopsis/default/index'
p4035
asbasbasbag56
(g72
g58
NtRp4036
(dp4037
g61
(dp4038
sg70
g3993
sg63
(lp4039
g56
(g77
g58
NtRp4040
(dp4041
g61
(dp4042
sg70
g4036
sg63
(lp4043
g56
(g57
g58
NtRp4044
(dp4045
g61
(dp4046
g69
I3
ssg70
g4040
sg63
(lp4047
g56
(g65
g58
NtRp4048
(dp4049
g61
(dp4050
g69
I2
ssg70
Nsg63
(lp4051
sbasbasbasbasbasbasbasbag56
(g72
g58
NtRp4052
(dp4053
g61
(dp4054
sg70
g3977
sg63
(lp4055
g56
(g77
g58
NtRp4056
(dp4057
g61
(dp4058
sg70
g4052
sg63
(lp4059
g56
(g57
g58
NtRp4060
(dp4061
g61
(dp4062
g69
I4
ssg70
g4056
sg63
(lp4063
g56
(g65
g58
NtRp4064
(dp4065
g61
(dp4066
g69
I3
ssg70
Nsg63
(lp4067
g56
(g72
g58
NtRp4068
(dp4069
g61
(dp4070
sg70
g4064
sg63
(lp4071
g56
(g77
g58
NtRp4072
(dp4073
g61
(dp4074
sg70
g4068
sg63
(lp4075
g56
(g57
g58
NtRp4076
(dp4077
g61
(dp4078
g69
I3
ssg70
g4072
sg63
(lp4079
g4009
(S't\x0b\x00\x00\x00Information'
tRp4080
asbasbasbag56
(g72
g58
NtRp4081
(dp4082
g61
(dp4083
sg70
g4064
sg63
(lp4084
g56
(g77
g58
NtRp4085
(dp4086
g61
(dp4087
sg70
g4081
sg63
(lp4088
g56
(g57
g58
NtRp4089
(dp4090
g61
(dp4091
g69
I3
ssg70
g4085
sg63
(lp4092
g99
asbasbasbag56
(g72
g58
NtRp4093
(dp4094
g61
(dp4095
sg70
g4064
sg63
(lp4096
g56
(g77
g58
NtRp4097
(dp4098
g61
(dp4099
sg70
g4093
sg63
(lp4100
g56
(g57
g58
NtRp4101
(dp4102
g61
(dp4103
g69
I3
ssg70
g4097
sg63
(lp4104
S'/synopsis/information/index'
p4105
asbasbasbag56
(g72
g58
NtRp4106
(dp4107
g61
(dp4108
sg70
g4064
sg63
(lp4109
g56
(g77
g58
NtRp4110
(dp4111
g61
(dp4112
sg70
g4106
sg63
(lp4113
g56
(g57
g58
NtRp4114
(dp4115
g61
(dp4116
g69
I3
ssg70
g4110
sg63
(lp4117
g56
(g65
g58
NtRp4118
(dp4119
g61
(dp4120
g69
I2
ssg70
Nsg63
(lp4121
sbasbasbasbasbasbasbasbag56
(g72
g58
NtRp4122
(dp4123
g61
(dp4124
sg70
g3977
sg63
(lp4125
g56
(g77
g58
NtRp4126
(dp4127
g61
(dp4128
sg70
g4122
sg63
(lp4129
g56
(g57
g58
NtRp4130
(dp4131
g61
(dp4132
g69
I4
ssg70
g4126
sg63
(lp4133
g56
(g65
g58
NtRp4134
(dp4135
g61
(dp4136
g69
I3
ssg70
Nsg63
(lp4137
g56
(g72
g58
NtRp4138
(dp4139
g61
(dp4140
sg70
g4134
sg63
(lp4141
g56
(g77
g58
NtRp4142
(dp4143
g61
(dp4144
sg70
g4138
sg63
(lp4145
g56
(g57
g58
NtRp4146
(dp4147
g61
(dp4148
g69
I3
ssg70
g4142
sg63
(lp4149
g4009
(S't\x05\x00\x00\x00About'
tRp4150
asbasbasbag56
(g72
g58
NtRp4151
(dp4152
g61
(dp4153
sg70
g4134
sg63
(lp4154
g56
(g77
g58
NtRp4155
(dp4156
g61
(dp4157
sg70
g4151
sg63
(lp4158
g56
(g57
g58
NtRp4159
(dp4160
g61
(dp4161
g69
I3
ssg70
g4155
sg63
(lp4162
g99
asbasbasbag56
(g72
g58
NtRp4163
(dp4164
g61
(dp4165
sg70
g4134
sg63
(lp4166
g56
(g77
g58
NtRp4167
(dp4168
g61
(dp4169
sg70
g4163
sg63
(lp4170
g56
(g57
g58
NtRp4171
(dp4172
g61
(dp4173
g69
I3
ssg70
g4167
sg63
(lp4174
S'/synopsis/about/index'
p4175
asbasbasbag56
(g72
g58
NtRp4176
(dp4177
g61
(dp4178
sg70
g4134
sg63
(lp4179
g56
(g77
g58
NtRp4180
(dp4181
g61
(dp4182
sg70
g4176
sg63
(lp4183
g56
(g57
g58
NtRp4184
(dp4185
g61
(dp4186
g69
I3
ssg70
g4180
sg63
(lp4187
g56
(g65
g58
NtRp4188
(dp4189
g61
(dp4190
g69
I2
ssg70
Nsg63
(lp4191
sbasbasbasbasbasbasbasbasbasbasbasbag56
(g72
g58
NtRp4192
(dp4193
g61
(dp4194
sg70
g3504
sg63
(lp4195
g56
(g77
g58
NtRp4196
(dp4197
g61
(dp4198
g81
g82
ssg70
g4192
sg63
(lp4199
S'meta'
p4200
asbag56
(g77
g58
NtRp4201
(dp4202
g61
(dp4203
g88
g89
ssg70
g4192
sg63
(lp4204
S':'
asbag56
(g77
g58
NtRp4205
(dp4206
g61
(dp4207
sg70
g4192
sg63
(lp4208
g56
(g57
g58
NtRp4209
(dp4210
g61
(dp4211
g69
I5
ssg70
g4205
sg63
(lp4212
g56
(g65
g58
NtRp4213
(dp4214
g61
(dp4215
g69
I4
ssg70
Nsg63
(lp4216
g56
(g72
g58
NtRp4217
(dp4218
g61
(dp4219
sg70
g4213
sg63
(lp4220
g56
(g77
g58
NtRp4221
(dp4222
g61
(dp4223
g81
g82
ssg70
g4217
sg63
(lp4224
S'author'
p4225
asbag56
(g77
g58
NtRp4226
(dp4227
g61
(dp4228
g88
g89
ssg70
g4217
sg63
(lp4229
S':'
asbag56
(g77
g58
NtRp4230
(dp4231
g61
(dp4232
sg70
g4217
sg63
(lp4233
g56
(g57
g58
NtRp4234
(dp4235
g61
(dp4236
g69
I4
ssg70
g4230
sg63
(lp4237
S'Your Name <you@example.com>'
p4238
asbasbasbag56
(g72
g58
NtRp4239
(dp4240
g61
(dp4241
sg70
g4213
sg63
(lp4242
g56
(g77
g58
NtRp4243
(dp4244
g61
(dp4245
g81
g82
ssg70
g4239
sg63
(lp4246
S'copyright'
p4247
asbag56
(g77
g58
NtRp4248
(dp4249
g61
(dp4250
g88
g89
ssg70
g4239
sg63
(lp4251
S':'
asbag56
(g77
g58
NtRp4252
(dp4253
g61
(dp4254
sg70
g4239
sg63
(lp4255
g56
(g57
g58
NtRp4256
(dp4257
g61
(dp4258
g69
I4
ssg70
g4252
sg63
(lp4259
S'Copyright 2011'
p4260
asbasbasbag56
(g72
g58
NtRp4261
(dp4262
g61
(dp4263
sg70
g4213
sg63
(lp4264
g56
(g77
g58
NtRp4265
(dp4266
g61
(dp4267
g81
g82
ssg70
g4261
sg63
(lp4268
S'description'
p4269
asbag56
(g77
g58
NtRp4270
(dp4271
g61
(dp4272
g88
g89
ssg70
g4261
sg63
(lp4273
S':'
asbag56
(g77
g58
NtRp4274
(dp4275
g61
(dp4276
sg70
g4261
sg63
(lp4277
g56
(g57
g58
NtRp4278
(dp4279
g61
(dp4280
g69
I4
ssg70
g4274
sg63
(lp4281
S'a cool new app'
p4282
asbasbasbag56
(g72
g58
NtRp4283
(dp4284
g61
(dp4285
sg70
g4213
sg63
(lp4286
g56
(g77
g58
NtRp4287
(dp4288
g61
(dp4289
g81
g82
ssg70
g4283
sg63
(lp4290
S'generator'
p4291
asbag56
(g77
g58
NtRp4292
(dp4293
g61
(dp4294
g88
g89
ssg70
g4283
sg63
(lp4295
S':'
asbag56
(g77
g58
NtRp4296
(dp4297
g61
(dp4298
sg70
g4283
sg63
(lp4299
g56
(g57
g58
NtRp4300
(dp4301
g61
(dp4302
g69
I4
ssg70
g4296
sg63
(lp4303
S'Web2py Web Framework'
p4304
asbasbasbag56
(g72
g58
NtRp4305
(dp4306
g61
(dp4307
sg70
g4213
sg63
(lp4308
g56
(g77
g58
NtRp4309
(dp4310
g61
(dp4311
g81
g82
ssg70
g4305
sg63
(lp4312
S'keywords'
p4313
asbag56
(g77
g58
NtRp4314
(dp4315
g61
(dp4316
g88
g89
ssg70
g4305
sg63
(lp4317
S':'
asbag56
(g77
g58
NtRp4318
(dp4319
g61
(dp4320
sg70
g4305
sg63
(lp4321
g56
(g57
g58
NtRp4322
(dp4323
g61
(dp4324
g69
I4
ssg70
g4318
sg63
(lp4325
S'web2py, python, framework'
p4326
asbasbasbasbasbasbasbag56
(g72
g58
NtRp4327
(dp4328
g61
(dp4329
sg70
g3504
sg63
(lp4330
g56
(g77
g58
NtRp4331
(dp4332
g61
(dp4333
g81
g82
ssg70
g4327
sg63
(lp4334
S'postprocessing'
p4335
asbag56
(g77
g58
NtRp4336
(dp4337
g61
(dp4338
g88
g89
ssg70
g4327
sg63
(lp4339
S':'
asbag56
(g77
g58
NtRp4340
(dp4341
g61
(dp4342
sg70
g4327
sg63
(lp4343
g56
(g57
g58
NtRp4344
(dp4345
g61
(dp4346
g69
I5
ssg70
g4340
sg63
(lp4347
g56
(g65
g58
NtRp4348
(dp4349
g61
(dp4350
g69
I4
ssg70
Nsg63
(lp4351
sbasbasbasbag56
(g72
g58
NtRp4352
(dp4353
g61
(dp4354
sg70
g3504
sg63
(lp4355
g56
(g77
g58
NtRp4356
(dp4357
g61
(dp4358
g81
g82
ssg70
g4352
sg63
(lp4359
S'session_file'
p4360
asbag56
(g77
g58
NtRp4361
(dp4362
g61
(dp4363
g88
g89
ssg70
g4352
sg63
(lp4364
S':'
asbag56
(g77
g58
NtRp4365
(dp4366
g61
(dp4367
sg70
g4352
sg63
(lp4368
g56
(g57
g58
NtRp4369
(dp4370
g61
(dp4371
g69
I5
ssg70
g4365
sg63
(lp4372
S"<open file '/home/kaique/Projects/web2py/applications/synopsis/sessions/127.0.0.1-351efa91-66d9-4ca2-9c53-1a2177b18dc7', mode 'rb+' at 0x2a7cf60>"
p4373
asbasbasbag56
(g72
g58
NtRp4374
(dp4375
g61
(dp4376
sg70
g3504
sg63
(lp4377
g56
(g77
g58
NtRp4378
(dp4379
g61
(dp4380
g81
g82
ssg70
g4374
sg63
(lp4381
S'session_filename'
p4382
asbag56
(g77
g58
NtRp4383
(dp4384
g61
(dp4385
g88
g89
ssg70
g4374
sg63
(lp4386
S':'
asbag56
(g77
g58
NtRp4387
(dp4388
g61
(dp4389
sg70
g4374
sg63
(lp4390
g56
(g57
g58
NtRp4391
(dp4392
g61
(dp4393
g69
I5
ssg70
g4387
sg63
(lp4394
S'/home/kaique/Projects/web2py/applications/synopsis/sessions/127.0.0.1-351efa91-66d9-4ca2-9c53-1a2177b18dc7'
p4395
asbasbasbag56
(g72
g58
NtRp4396
(dp4397
g61
(dp4398
sg70
g3504
sg63
(lp4399
g56
(g77
g58
NtRp4400
(dp4401
g61
(dp4402
g81
g82
ssg70
g4396
sg63
(lp4403
S'session_id'
p4404
asbag56
(g77
g58
NtRp4405
(dp4406
g61
(dp4407
g88
g89
ssg70
g4396
sg63
(lp4408
S':'
asbag56
(g77
g58
NtRp4409
(dp4410
g61
(dp4411
sg70
g4396
sg63
(lp4412
g56
(g57
g58
NtRp4413
(dp4414
g61
(dp4415
g69
I5
ssg70
g4409
sg63
(lp4416
S'127.0.0.1-351efa91-66d9-4ca2-9c53-1a2177b18dc7'
p4417
asbasbasbag56
(g72
g58
NtRp4418
(dp4419
g61
(dp4420
sg70
g3504
sg63
(lp4421
g56
(g77
g58
NtRp4422
(dp4423
g61
(dp4424
g81
g82
ssg70
g4418
sg63
(lp4425
S'session_id_name'
p4426
asbag56
(g77
g58
NtRp4427
(dp4428
g61
(dp4429
g88
g89
ssg70
g4418
sg63
(lp4430
S':'
asbag56
(g77
g58
NtRp4431
(dp4432
g61
(dp4433
sg70
g4418
sg63
(lp4434
g56
(g57
g58
NtRp4435
(dp4436
g61
(dp4437
g69
I5
ssg70
g4431
sg63
(lp4438
g3561
asbasbasbag56
(g72
g58
NtRp4439
(dp4440
g61
(dp4441
sg70
g3504
sg63
(lp4442
g56
(g77
g58
NtRp4443
(dp4444
g61
(dp4445
g81
g82
ssg70
g4439
sg63
(lp4446
S'session_locked'
p4447
asbag56
(g77
g58
NtRp4448
(dp4449
g61
(dp4450
g88
g89
ssg70
g4439
sg63
(lp4451
S':'
asbag56
(g77
g58
NtRp4452
(dp4453
g61
(dp4454
sg70
g4439
sg63
(lp4455
g56
(g57
g58
NtRp4456
(dp4457
g61
(dp4458
g69
I5
ssg70
g4452
sg63
(lp4459
g1690
asbasbasbag56
(g72
g58
NtRp4460
(dp4461
g61
(dp4462
sg70
g3504
sg63
(lp4463
g56
(g77
g58
NtRp4464
(dp4465
g61
(dp4466
g81
g82
ssg70
g4460
sg63
(lp4467
S'session_new'
p4468
asbag56
(g77
g58
NtRp4469
(dp4470
g61
(dp4471
g88
g89
ssg70
g4460
sg63
(lp4472
S':'
asbag56
(g77
g58
NtRp4473
(dp4474
g61
(dp4475
sg70
g4460
sg63
(lp4476
g56
(g57
g58
NtRp4477
(dp4478
g61
(dp4479
g69
I5
ssg70
g4473
sg63
(lp4480
g99
asbasbasbag56
(g72
g58
NtRp4481
(dp4482
g61
(dp4483
sg70
g3504
sg63
(lp4484
g56
(g77
g58
NtRp4485
(dp4486
g61
(dp4487
g81
g82
ssg70
g4481
sg63
(lp4488
S'status'
p4489
asbag56
(g77
g58
NtRp4490
(dp4491
g61
(dp4492
g88
g89
ssg70
g4481
sg63
(lp4493
S':'
asbag56
(g77
g58
NtRp4494
(dp4495
g61
(dp4496
sg70
g4481
sg63
(lp4497
g56
(g57
g58
NtRp4498
(dp4499
g61
(dp4500
g69
I5
ssg70
g4494
sg63
(lp4501
S'200'
p4502
asbasbasbag56
(g72
g58
NtRp4503
(dp4504
g61
(dp4505
sg70
g3504
sg63
(lp4506
g56
(g77
g58
NtRp4507
(dp4508
g61
(dp4509
g81
g82
ssg70
g4503
sg63
(lp4510
S'subtitle'
p4511
asbag56
(g77
g58
NtRp4512
(dp4513
g61
(dp4514
g88
g89
ssg70
g4503
sg63
(lp4515
S':'
asbag56
(g77
g58
NtRp4516
(dp4517
g61
(dp4518
sg70
g4503
sg63
(lp4519
g56
(g57
g58
NtRp4520
(dp4521
g61
(dp4522
g69
I5
ssg70
g4516
sg63
(lp4523
g4009
(S's\x0f\x00\x00\x00Personalize-me!'
tRp4524
asbasbasbag56
(g72
g58
NtRp4525
(dp4526
g61
(dp4527
sg70
g3504
sg63
(lp4528
g56
(g77
g58
NtRp4529
(dp4530
g61
(dp4531
g81
g82
ssg70
g4525
sg63
(lp4532
S'title'
p4533
asbag56
(g77
g58
NtRp4534
(dp4535
g61
(dp4536
g88
g89
ssg70
g4525
sg63
(lp4537
S':'
asbag56
(g77
g58
NtRp4538
(dp4539
g61
(dp4540
sg70
g4525
sg63
(lp4541
g56
(g57
g58
NtRp4542
(dp4543
g61
(dp4544
g69
I5
ssg70
g4538
sg63
(lp4545
g121
asbasbasbag56
(g72
g58
NtRp4546
(dp4547
g61
(dp4548
sg70
g3504
sg63
(lp4549
g56
(g77
g58
NtRp4550
(dp4551
g61
(dp4552
g81
g82
ssg70
g4546
sg63
(lp4553
g2355
asbag56
(g77
g58
NtRp4554
(dp4555
g61
(dp4556
g88
g89
ssg70
g4546
sg63
(lp4557
S':'
asbag56
(g77
g58
NtRp4558
(dp4559
g61
(dp4560
sg70
g4546
sg63
(lp4561
g56
(g57
g58
NtRp4562
(dp4563
g61
(dp4564
g69
I5
ssg70
g4558
sg63
(lp4565
g2368
asbasbasbag56
(g72
g58
NtRp4566
(dp4567
g61
(dp4568
sg70
g3504
sg63
(lp4569
g56
(g77
g58
NtRp4570
(dp4571
g61
(dp4572
g81
g82
ssg70
g4566
sg63
(lp4573
S'view'
p4574
asbag56
(g77
g58
NtRp4575
(dp4576
g61
(dp4577
g88
g89
ssg70
g4566
sg63
(lp4578
S':'
asbag56
(g77
g58
NtRp4579
(dp4580
g61
(dp4581
sg70
g4566
sg63
(lp4582
g56
(g57
g58
NtRp4583
(dp4584
g61
(dp4585
g69
I5
ssg70
g4579
sg63
(lp4586
S'information/publication.html'
p4587
asbasbasbasbasbsS'locals'
p4588
(dp4589
g23
S"['7']"
p4590
sssS'traceback'
p4591
S'Traceback (most recent call last):\n  File "/home/kaique/Projects/web2py/gluon/restricted.py", line 194, in restricted\n    exec ccode in environment\n  File "/home/kaique/Projects/web2py/applications/synopsis/controllers/information.py", line 92, in <module>\n  File "/home/kaique/Projects/web2py/gluon/globals.py", line 149, in <lambda>\n    self._caller = lambda f: f()\n  File "/home/kaique/Projects/web2py/gluon/tools.py", line 2456, in f\n    return action(*a, **b)\n  File "/home/kaique/Projects/web2py/applications/synopsis/controllers/information.py", line 21, in publication\n    count_equals = f.count_equals\nAttributeError: \'module\' object has no attribute \'count_equals\'\n'
p4592
s.