(dp1
S'output'
p2
S''
sS'layer'
p3
S'/home/kaique/Projects/web2py/applications/synopsis/views/information/new.html'
p4
sS'code'
p5
S'response.write(\'<!DOCTYPE html>\\n<html lang="\', escape=False)\nresponse.write(T.accepted_language or \'en\')\nresponse.write(\'" class="no-js"><!-- no-js need it for modernzr -->\\n  <head>\\n    \\n    <meta charset="utf-8" />        \\n    <!-- www.phpied.com/conditional-comments-block-downloads/ -->\\n    <!--[if IE]>\\n      <!-- Always force latest IE rendering engine \\n       (even in intranet) & Chrome Frame \\n       Remove this if you use the .htaccess -->\\n      <meta http-equiv="X-UA-Compatible" content="IE=edge,chrome=1">\\n    <![endif]-->    \\n\\n    <title>\', escape=False)\nresponse.write(response.title or request.application)\nresponse.write(\'</title>\\n    \\n    <!-- http://dev.w3.org/html5/markup/meta.name.html -->\\n    <meta name="application-name" content="\', escape=False)\nresponse.write(request.application)\nresponse.write(\'" /> \\n    \\n    <!-- Speaking of Google, don\\\'t forget to set your site up: \\n     http://google.com/webmasters -->\\n    <meta name="google-site-verification" content="" />\\n    \\n    <!--  Mobile Viewport Fix\\n      j.mp/mobileviewport & davidbcalhoun.com/2010/viewport-metatag \\n      device-width: Occupy full width of the screen in its current orientation\\n      initial-scale = 1.0 retains dimensions instead of zooming out if page height > device height\\n      maximum-scale = 1.0 retains dimensions instead of zooming in if page width < device width\\n      -->\\n    <meta name="viewport" content="width=device-width, initial-scale=1.0, maximum-scale=1.0">\\n    \\n    <!-- Place favicon.ico and apple-touch-icon.png in the root of your domain and delete these references -->\\n    <link rel="shortcut icon" href="\', escape=False)\nresponse.write(URL(\'static\',\'favicon.ico\'))\nresponse.write(\'" type="image/x-icon">\\n    <link rel="apple-touch-icon" href="\', escape=False)\nresponse.write(URL(\'static\',\'favicon.png\'))\nresponse.write(\'">\\n\\n    <!-- For the less-enabled mobile browsers like Opera Mini -->\\n    <link rel="stylesheet" media="handheld" href="\', escape=False)\nresponse.write(URL(\'static\',\'css/handheld.css\'))\nresponse.write(\'">\\n    \\n    <!-- All JavaScript at the bottom, except for Modernizr which enables HTML5 elements & feature detects -->\\n    <script src="\', escape=False)\nresponse.write(URL(\'static\',\'js/modernizr-1.7.min.js\'))\nresponse.write(\'"></script>\\n    \\n    \', escape=False)\n#------  require CSS and JS files for this page (read info in base.css) ------\nresponse.write(\'\\n    \', escape=False)\nresponse.files.append(URL(\'static\',\'css/base.css\'))\nresponse.write(\'\\n    \', escape=False)\nresponse.files.append(URL(\'static\',\'css/superfish.css\'))\nresponse.write(\'\\n    \', escape=False)\nresponse.files.append(URL(\'static\',\'js/superfish.js\'))\nresponse.write(\'\\n    \', escape=False)\n#------ include web2py specific js code (jquery, calendar, form stuff) ------\nresponse.write(\'\\n    \', escape=False)\nresponse.files.insert(0,URL(\'static\',\'js/jquery.js\'))\nresponse.files.insert(1,URL(\'static\',\'css/anytime.css\'))\nresponse.files.insert(2,URL(\'static\',\'js/anytime.js\'))\nresponse.include_meta()\nresponse.include_files()\nresponse.write(\'\\n<script type="text/javascript"><!--\\n    // These variables are used by the web2py_ajax_init function in web2py_ajax.js (which is loaded below).\\n    var w2p_ajax_confirm_message = "\', escape=False)\nresponse.write(T(\'Are you sure you want to delete this object?\'))\nresponse.write(\'";\\n    var w2p_ajax_date_format = "\', escape=False)\nresponse.write(T(\'%Y-%m-%d\'))\nresponse.write(\'";\\n    var w2p_ajax_datetime_format = "\', escape=False)\nresponse.write(T(\'%Y-%m-%d %H:%M:%S\'))\nresponse.write(\'";\\n    //--></script>\\n    <script src="\', escape=False)\nresponse.write(URL(\'static\',\'js/web2py_ajax.js\'))\nresponse.write(\'" type="text/javascript"></script>\\n\', escape=False)\nresponse.write(\'\\n\\n    \', escape=False)\n#using sidebars need to know what sidebar you want to use\n#prior of using it, because of static width size of content, you can use\n#left_sidebar, right_sidebar, both or none (False left and right)\nleft_sidebar_enabled = globals().get(\'left_sidebar_enabled\',False)\nright_sidebar_enabled = globals().get(\'right_sidebar_enabled\',False)\nif left_sidebar_enabled and right_sidebar_enabled: width_content=\'63%\'\nelif left_sidebar_enabled != right_sidebar_enabled: width_content=\'740px\'\nelse: width_content=\'100%\'\nif left_sidebar_enabled: left_sidebar_style = \'style="display: block;"\'\nelse: left_sidebar_style = \'style="display: none;"\'\nif right_sidebar_enabled: right_sidebar_style = \'style="display: block;"\'\nelse: right_sidebar_style = \'style="display: none;"\'\nstyle_content = \'style="width: %s"\' % width_content\nresponse.write(\'\\n    \\n    <!-- uncomment here to load jquery-ui -->\\n    \\n    <link rel="stylesheet" href="http://ajax.googleapis.com/ajax/libs/jqueryui/1.8.16/themes/base/jquery-ui.css" type="text/css" media="all" />\\n    <script src="http://ajax.googleapis.com/ajax/libs/jqueryui/1.8.16/jquery-ui.min.js" type="text/javascript"></script>\\n    \\n   <!-- uncomment to load jquery-ui -->\\n    \\n    \\n  </head>\\n  \\n  <!-- paulirish.com/2008/conditional-stylesheets-vs-css-hacks-answer-neither/ -->  \\n  <!--[if lt IE 7 ]> <body class="ie6"> <![endif]-->\\n  <!--[if IE 7 ]>    <body class="ie7"> <![endif]-->\\n  <!--[if IE 8 ]>    <body class="ie8"> <![endif]-->\\n  <!--[if IE 9 ]>    <body class="ie9"> <![endif]-->\\n  <!--[if (gt IE 9)|!(IE)]><!--> <body> <!--<![endif]-->\\n    \\n    <div class="flash">\', escape=False)\nresponse.write(response.flash or \'\')\nresponse.write(\'</div> <!-- notification div -->\\n\\n        \\n\\n    <div id="container">                        \\n      \\n      <div id="wrapper">        \\n      \', escape=False)\ntry:\n    response.write(auth.navbar(action=URL(\'default\',\'user\')))\nexcept:pass\nresponse.write(\'\\n    \\n    <div id="header"> <!-- header and login nav -->\\n      \', escape=False)\nresponse.write(\' <!-- this is default header -->\\n      \\n      <h1>\\n        <span id="appname">\', escape=False)\nresponse.write(request.application.capitalize())\nresponse.write(\'</span>App\\n      </h1>\\n      <div style="clear: both;"></div><!-- Clear the divs -->\\n      \', escape=False)\nresponse.write(\'\\n    </div><!-- header  -->\\n    \\n    <div id="statusbar"><!-- statusbar is menu zone -->\\n      \', escape=False)\nresponse.write(\' <!-- this is default statusbar -->\\n      \', escape=False)\n#------ superfish menu ------\nresponse.write(\'\\n      \', escape=False)\nresponse.write(MENU(response.menu,_class=\'sf-menu\'))\nresponse.write(\'\\n      <script type="text/javascript">\\n        jQuery(document).ready(function(){\\n        jQuery(\\\'ul.sf-menu\\\').superfish();});\\n      </script>\\n\\n      <!-- AddToAny BEGIN -->\\n      <div style="padding: 7px; float:right;" class="a2a_kit a2a_default_style"><a class="a2a_dd" href="http://www.addtoany.com/share_save">Share</a></div><script type="text/javascript" src="http://static.addtoany.com/menu/page.js"></script>\\n      <!-- AddToAny END -->\\n\\n      <div style="clear: both;"></div><!-- Clear the divs -->   \\n      \', escape=False)\nresponse.write(\'               \\n    </div><!-- statusbar -->\\n    \\n    <div id="page"> <!-- Here my central body -->     \\n\\n      \', escape=False)\nif left_sidebar_enabled:\n    response.write(\'\\n          <div id="left_sidebar" \', escape=False)\n    response.write(XML(left_sidebar_style))\n    response.write(\' >\\n            <div style="padding: 4px;">\\n          \', escape=False)\n    response.write(\'Content Left Sidebar\', escape=False)\n    response.write(\'       \\n            </div>\\n          </div><!-- left_sidebar -->\\n      \', escape=False)\n    pass\nresponse.write(\'\\n\\n      <!-- content -->\\n      <div id="content" \', escape=False)\nresponse.write(XML(style_content))\nresponse.write(\' >\\n        \', escape=False)\nresponse.write(\'\\n\\n<div class="content">\\n\\t<section>\\n\\t\\t<article>\\n\\t\\t\\t<header>\\n\\t\\t\\t\\t<h1>\', escape=False)\nresponse.write(T(\'{0} {1}\'.format(\'New\', title)))\nresponse.write(\'</h1>\\n\\t\\t\\t\\t<hr />\\n\\t\\t\\t</header>\\n\\t\\t\\t<div>\\n\\t\\t\\t\\t\', escape=False)\nresponse.write(form_subject)\nresponse.write(\'\\n\\t\\t\\t</div>\\t\\n\\t\\t</article>\\n\\t</section>\\n</div>\\n\', escape=False)\nresponse.write(\' \\n      </div>\\n      <!-- content -->\\n\\n      \', escape=False)\nif right_sidebar_enabled:\n    response.write(\'\\n          <div id="right_sidebar" \', escape=False)\n    response.write(XML(right_sidebar_style))\n    response.write(\' >\\n            <div style="padding: 4px;">\\n              \', escape=False)\n    response.write(\'Content Right Sidebar\', escape=False)\n    response.write(\'\\n            </div>\\n      </div><!-- right_sidebar -->\\n          \', escape=False)\n    pass\nresponse.write(\'\\n\\n\\n      <div style="clear: both;"></div><!-- Clear the divs -->\\n      \\n    </div><!-- page -->                         \\n    \\n    <div id="footer">\\n      \', escape=False)\nresponse.write(\' <!-- this is default footer -->\\n      <a href="http://www.web2py.com/" style="float: left; padding-right: 6px;">\\n        <img src="\', escape=False)\nresponse.write(URL(\'static\',\'images/poweredby.png\'))\nresponse.write(\'"/>\\n      </a>\\n      \', escape=False)\nresponse.write(T(\'Copyright\'))\nresponse.write(\' &#169; 2011               \\n      <div style="clear: both;"></div><!-- Clear the divs -->\\n      \', escape=False)\nresponse.write(\'\\n\\n    </div><!-- footer -->           \\n      </div><!-- wrapper -->\\n    </div><!-- container -->        \\n    \\n    <!--[if lt IE 7 ]>\\n    <script src="\', escape=False)\nresponse.write(URL(\'static\',\'js/dd_belatedpng.js\'))\nresponse.write(\'"></script>\\n    <script> DD_belatedPNG.fix(\\\'img, .png_bg\\\'); //fix any <img> or .png_bg background-images </script>\\n    <![endif]-->\\n    \', escape=False)\nif response.google_analytics_id:\n    response.write("<script>/* http://mathiasbynens.be/notes/async-analytics-snippet */ var _gaq=[[\'_setAccount\',\'", escape=False)\n    response.write(response.google_analyitics_id)\n    response.write("\'],[\'_trackPageview\']];(function(d,t){var g=d.createElement(t),s=d.getElementsByTagName(t)[0];g.src=\'//www.google-analytics.com/ga.js\';s.parentNode.insertBefore(g,s)}(document,\'script\')) </script>", escape=False)\n    pass\nresponse.write(\'\\n  </body>\\n</html>\\n\', escape=False)'
p6
sS'snapshot'
p7
(dp8
S'exception'
p9
(dp10
S'__hash__'
p11
S"<method-wrapper '__hash__' of exceptions.NameError object>"
p12
sS'__setattr__'
p13
S"<method-wrapper '__setattr__' of exceptions.NameError object>"
p14
sS'__reduce_ex__'
p15
S'<built-in method __reduce_ex__ of exceptions.NameError object>'
p16
sS'__getslice__'
p17
S"<method-wrapper '__getslice__' of exceptions.NameError object>"
p18
sS'__getitem__'
p19
S"<method-wrapper '__getitem__' of exceptions.NameError object>"
p20
sS'__setstate__'
p21
S'<built-in method __setstate__ of exceptions.NameError object>'
p22
sS'args'
p23
S'("name \'form_subject\' is not defined",)'
p24
sS'__reduce__'
p25
S'<built-in method __reduce__ of exceptions.NameError object>'
p26
sS'__str__'
p27
S"<method-wrapper '__str__' of exceptions.NameError object>"
p28
sS'__format__'
p29
S'<built-in method __format__ of exceptions.NameError object>'
p30
sS'__getattribute__'
p31
S"<method-wrapper '__getattribute__' of exceptions.NameError object>"
p32
sS'__class__'
p33
S"<type 'exceptions.NameError'>"
p34
sS'__unicode__'
p35
S'<built-in method __unicode__ of exceptions.NameError object>'
p36
sS'__delattr__'
p37
S"<method-wrapper '__delattr__' of exceptions.NameError object>"
p38
sS'__subclasshook__'
p39
S'<built-in method __subclasshook__ of type object>'
p40
sS'__repr__'
p41
S"<method-wrapper '__repr__' of exceptions.NameError object>"
p42
sS'__dict__'
p43
S'{}'
p44
sS'__sizeof__'
p45
S'<built-in method __sizeof__ of exceptions.NameError object>'
p46
sS'__doc__'
p47
S"'Name not found globally.'"
p48
sS'__init__'
p49
S"<method-wrapper '__init__' of exceptions.NameError object>"
p50
sS'__new__'
p51
S'<built-in method __new__ of type object>'
p52
ssS'evalue'
p53
S"name 'form_subject' is not defined"
p54
sS'request'
p55
ccopy_reg
_reconstructor
p56
(cgluon.html
BEAUTIFY
p57
c__builtin__
object
p58
NtRp59
(dp60
S'attributes'
p61
(dp62
sS'components'
p63
(lp64
g56
(cgluon.html
TABLE
p65
g58
NtRp66
(dp67
g61
(dp68
S'level'
p69
I5
ssS'parent'
p70
Nsg63
(lp71
g56
(cgluon.html
TR
p72
g58
NtRp73
(dp74
g61
(dp75
sg70
g66
sg63
(lp76
g56
(cgluon.html
TD
p77
g58
NtRp78
(dp79
g61
(dp80
S'_style'
p81
S'font-weight:bold;'
p82
ssg70
g73
sg63
(lp83
S'ajax'
p84
asbag56
(g77
g58
NtRp85
(dp86
g61
(dp87
S'_valign'
p88
S'top'
p89
ssg70
g73
sg63
(lp90
S':'
asbag56
(g77
g58
NtRp91
(dp92
g61
(dp93
sg70
g73
sg63
(lp94
g56
(g57
g58
NtRp95
(dp96
g61
(dp97
g69
I5
ssg70
g91
sg63
(lp98
S'False'
p99
asbasbasbag56
(g72
g58
NtRp100
(dp101
g61
(dp102
sg70
g66
sg63
(lp103
g56
(g77
g58
NtRp104
(dp105
g61
(dp106
g81
g82
ssg70
g100
sg63
(lp107
S'application'
p108
asbag56
(g77
g58
NtRp109
(dp110
g61
(dp111
g88
g89
ssg70
g100
sg63
(lp112
S':'
asbag56
(g77
g58
NtRp113
(dp114
g61
(dp115
sg70
g100
sg63
(lp116
g56
(g57
g58
NtRp117
(dp118
g61
(dp119
g69
I5
ssg70
g113
sg63
(lp120
S'synopsis'
p121
asbasbasbag56
(g72
g58
NtRp122
(dp123
g61
(dp124
sg70
g66
sg63
(lp125
g56
(g77
g58
NtRp126
(dp127
g61
(dp128
g81
g82
ssg70
g122
sg63
(lp129
g23
asbag56
(g77
g58
NtRp130
(dp131
g61
(dp132
g88
g89
ssg70
g122
sg63
(lp133
S':'
asbag56
(g77
g58
NtRp134
(dp135
g61
(dp136
sg70
g122
sg63
(lp137
g56
(g57
g58
NtRp138
(dp139
g61
(dp140
g69
I5
ssg70
g134
sg63
(lp141
g56
(g65
g58
NtRp142
(dp143
g61
(dp144
g69
I4
ssg70
Nsg63
(lp145
g56
(g72
g58
NtRp146
(dp147
g61
(dp148
sg70
g142
sg63
(lp149
g56
(g77
g58
NtRp150
(dp151
g61
(dp152
sg70
g146
sg63
(lp153
g56
(g57
g58
NtRp154
(dp155
g61
(dp156
g69
I4
ssg70
g150
sg63
(lp157
S'publication'
p158
asbasbasbag56
(g72
g58
NtRp159
(dp160
g61
(dp161
sg70
g142
sg63
(lp162
g56
(g77
g58
NtRp163
(dp164
g61
(dp165
sg70
g159
sg63
(lp166
g56
(g57
g58
NtRp167
(dp168
g61
(dp169
g69
I4
ssg70
g163
sg63
(lp170
S'2'
asbasbasbasbasbasbasbag56
(g72
g58
NtRp171
(dp172
g61
(dp173
sg70
g66
sg63
(lp174
g56
(g77
g58
NtRp175
(dp176
g61
(dp177
g81
g82
ssg70
g171
sg63
(lp178
S'body'
p179
asbag56
(g77
g58
NtRp180
(dp181
g61
(dp182
g88
g89
ssg70
g171
sg63
(lp183
S':'
asbag56
(g77
g58
NtRp184
(dp185
g61
(dp186
sg70
g171
sg63
(lp187
g56
(g57
g58
NtRp188
(dp189
g61
(dp190
g69
I5
ssg70
g184
sg63
(lp191
S'<cStringIO.StringO object at 0x32908f0>'
p192
asbasbasbag56
(g72
g58
NtRp193
(dp194
g61
(dp195
sg70
g66
sg63
(lp196
g56
(g77
g58
NtRp197
(dp198
g61
(dp199
g81
g82
ssg70
g193
sg63
(lp200
S'client'
p201
asbag56
(g77
g58
NtRp202
(dp203
g61
(dp204
g88
g89
ssg70
g193
sg63
(lp205
S':'
asbag56
(g77
g58
NtRp206
(dp207
g61
(dp208
sg70
g193
sg63
(lp209
g56
(g57
g58
NtRp210
(dp211
g61
(dp212
g69
I5
ssg70
g206
sg63
(lp213
S'127.0.0.1'
p214
asbasbasbag56
(g72
g58
NtRp215
(dp216
g61
(dp217
sg70
g66
sg63
(lp218
g56
(g77
g58
NtRp219
(dp220
g61
(dp221
g81
g82
ssg70
g215
sg63
(lp222
S'controller'
p223
asbag56
(g77
g58
NtRp224
(dp225
g61
(dp226
g88
g89
ssg70
g215
sg63
(lp227
S':'
asbag56
(g77
g58
NtRp228
(dp229
g61
(dp230
sg70
g215
sg63
(lp231
g56
(g57
g58
NtRp232
(dp233
g61
(dp234
g69
I5
ssg70
g228
sg63
(lp235
S'information'
p236
asbasbasbag56
(g72
g58
NtRp237
(dp238
g61
(dp239
sg70
g66
sg63
(lp240
g56
(g77
g58
NtRp241
(dp242
g61
(dp243
g81
g82
ssg70
g237
sg63
(lp244
S'cookies'
p245
asbag56
(g77
g58
NtRp246
(dp247
g61
(dp248
g88
g89
ssg70
g237
sg63
(lp249
S':'
asbag56
(g77
g58
NtRp250
(dp251
g61
(dp252
sg70
g237
sg63
(lp253
g56
(g57
g58
NtRp254
(dp255
g61
(dp256
g69
I5
ssg70
g250
sg63
(lp257
g56
(g65
g58
NtRp258
(dp259
g61
(dp260
g69
I4
ssg70
Nsg63
(lp261
g56
(g72
g58
NtRp262
(dp263
g61
(dp264
sg70
g258
sg63
(lp265
g56
(g77
g58
NtRp266
(dp267
g61
(dp268
g81
g82
ssg70
g262
sg63
(lp269
S'session_id_admin'
p270
asbag56
(g77
g58
NtRp271
(dp272
g61
(dp273
g88
g89
ssg70
g262
sg63
(lp274
S':'
asbag56
(g77
g58
NtRp275
(dp276
g61
(dp277
sg70
g262
sg63
(lp278
g56
(g57
g58
NtRp279
(dp280
g61
(dp281
g69
I4
ssg70
g275
sg63
(lp282
g56
(g65
g58
NtRp283
(dp284
g61
(dp285
g69
I3
ssg70
Nsg63
(lp286
g56
(g72
g58
NtRp287
(dp288
g61
(dp289
sg70
g283
sg63
(lp290
g56
(g77
g58
NtRp291
(dp292
g61
(dp293
g81
g82
ssg70
g287
sg63
(lp294
S'comment'
p295
asbag56
(g77
g58
NtRp296
(dp297
g61
(dp298
g88
g89
ssg70
g287
sg63
(lp299
S':'
asbag56
(g77
g58
NtRp300
(dp301
g61
(dp302
sg70
g287
sg63
(lp303
g56
(g57
g58
NtRp304
(dp305
g61
(dp306
g69
I3
ssg70
g300
sg63
(lp307
S''
asbasbasbag56
(g72
g58
NtRp308
(dp309
g61
(dp310
sg70
g283
sg63
(lp311
g56
(g77
g58
NtRp312
(dp313
g61
(dp314
g81
g82
ssg70
g308
sg63
(lp315
S'domain'
p316
asbag56
(g77
g58
NtRp317
(dp318
g61
(dp319
g88
g89
ssg70
g308
sg63
(lp320
S':'
asbag56
(g77
g58
NtRp321
(dp322
g61
(dp323
sg70
g308
sg63
(lp324
g56
(g57
g58
NtRp325
(dp326
g61
(dp327
g69
I3
ssg70
g321
sg63
(lp328
S''
asbasbasbag56
(g72
g58
NtRp329
(dp330
g61
(dp331
sg70
g283
sg63
(lp332
g56
(g77
g58
NtRp333
(dp334
g61
(dp335
g81
g82
ssg70
g329
sg63
(lp336
S'expires'
p337
asbag56
(g77
g58
NtRp338
(dp339
g61
(dp340
g88
g89
ssg70
g329
sg63
(lp341
S':'
asbag56
(g77
g58
NtRp342
(dp343
g61
(dp344
sg70
g329
sg63
(lp345
g56
(g57
g58
NtRp346
(dp347
g61
(dp348
g69
I3
ssg70
g342
sg63
(lp349
S''
asbasbasbag56
(g72
g58
NtRp350
(dp351
g61
(dp352
sg70
g283
sg63
(lp353
g56
(g77
g58
NtRp354
(dp355
g61
(dp356
g81
g82
ssg70
g350
sg63
(lp357
S'httponly'
p358
asbag56
(g77
g58
NtRp359
(dp360
g61
(dp361
g88
g89
ssg70
g350
sg63
(lp362
S':'
asbag56
(g77
g58
NtRp363
(dp364
g61
(dp365
sg70
g350
sg63
(lp366
g56
(g57
g58
NtRp367
(dp368
g61
(dp369
g69
I3
ssg70
g363
sg63
(lp370
S''
asbasbasbag56
(g72
g58
NtRp371
(dp372
g61
(dp373
sg70
g283
sg63
(lp374
g56
(g77
g58
NtRp375
(dp376
g61
(dp377
g81
g82
ssg70
g371
sg63
(lp378
S'max-age'
p379
asbag56
(g77
g58
NtRp380
(dp381
g61
(dp382
g88
g89
ssg70
g371
sg63
(lp383
S':'
asbag56
(g77
g58
NtRp384
(dp385
g61
(dp386
sg70
g371
sg63
(lp387
g56
(g57
g58
NtRp388
(dp389
g61
(dp390
g69
I3
ssg70
g384
sg63
(lp391
S''
asbasbasbag56
(g72
g58
NtRp392
(dp393
g61
(dp394
sg70
g283
sg63
(lp395
g56
(g77
g58
NtRp396
(dp397
g61
(dp398
g81
g82
ssg70
g392
sg63
(lp399
S'path'
p400
asbag56
(g77
g58
NtRp401
(dp402
g61
(dp403
g88
g89
ssg70
g392
sg63
(lp404
S':'
asbag56
(g77
g58
NtRp405
(dp406
g61
(dp407
sg70
g392
sg63
(lp408
g56
(g57
g58
NtRp409
(dp410
g61
(dp411
g69
I3
ssg70
g405
sg63
(lp412
S''
asbasbasbag56
(g72
g58
NtRp413
(dp414
g61
(dp415
sg70
g283
sg63
(lp416
g56
(g77
g58
NtRp417
(dp418
g61
(dp419
g81
g82
ssg70
g413
sg63
(lp420
S'secure'
p421
asbag56
(g77
g58
NtRp422
(dp423
g61
(dp424
g88
g89
ssg70
g413
sg63
(lp425
S':'
asbag56
(g77
g58
NtRp426
(dp427
g61
(dp428
sg70
g413
sg63
(lp429
g56
(g57
g58
NtRp430
(dp431
g61
(dp432
g69
I3
ssg70
g426
sg63
(lp433
S''
asbasbasbag56
(g72
g58
NtRp434
(dp435
g61
(dp436
sg70
g283
sg63
(lp437
g56
(g77
g58
NtRp438
(dp439
g61
(dp440
g81
g82
ssg70
g434
sg63
(lp441
S'version'
p442
asbag56
(g77
g58
NtRp443
(dp444
g61
(dp445
g88
g89
ssg70
g434
sg63
(lp446
S':'
asbag56
(g77
g58
NtRp447
(dp448
g61
(dp449
sg70
g434
sg63
(lp450
g56
(g57
g58
NtRp451
(dp452
g61
(dp453
g69
I3
ssg70
g447
sg63
(lp454
S''
asbasbasbasbasbasbasbag56
(g72
g58
NtRp455
(dp456
g61
(dp457
sg70
g258
sg63
(lp458
g56
(g77
g58
NtRp459
(dp460
g61
(dp461
g81
g82
ssg70
g455
sg63
(lp462
S'session_id_synopsis'
p463
asbag56
(g77
g58
NtRp464
(dp465
g61
(dp466
g88
g89
ssg70
g455
sg63
(lp467
S':'
asbag56
(g77
g58
NtRp468
(dp469
g61
(dp470
sg70
g455
sg63
(lp471
g56
(g57
g58
NtRp472
(dp473
g61
(dp474
g69
I4
ssg70
g468
sg63
(lp475
g56
(g65
g58
NtRp476
(dp477
g61
(dp478
g69
I3
ssg70
Nsg63
(lp479
g56
(g72
g58
NtRp480
(dp481
g61
(dp482
sg70
g476
sg63
(lp483
g56
(g77
g58
NtRp484
(dp485
g61
(dp486
g81
g82
ssg70
g480
sg63
(lp487
g295
asbag56
(g77
g58
NtRp488
(dp489
g61
(dp490
g88
g89
ssg70
g480
sg63
(lp491
S':'
asbag56
(g77
g58
NtRp492
(dp493
g61
(dp494
sg70
g480
sg63
(lp495
g56
(g57
g58
NtRp496
(dp497
g61
(dp498
g69
I3
ssg70
g492
sg63
(lp499
S''
asbasbasbag56
(g72
g58
NtRp500
(dp501
g61
(dp502
sg70
g476
sg63
(lp503
g56
(g77
g58
NtRp504
(dp505
g61
(dp506
g81
g82
ssg70
g500
sg63
(lp507
g316
asbag56
(g77
g58
NtRp508
(dp509
g61
(dp510
g88
g89
ssg70
g500
sg63
(lp511
S':'
asbag56
(g77
g58
NtRp512
(dp513
g61
(dp514
sg70
g500
sg63
(lp515
g56
(g57
g58
NtRp516
(dp517
g61
(dp518
g69
I3
ssg70
g512
sg63
(lp519
S''
asbasbasbag56
(g72
g58
NtRp520
(dp521
g61
(dp522
sg70
g476
sg63
(lp523
g56
(g77
g58
NtRp524
(dp525
g61
(dp526
g81
g82
ssg70
g520
sg63
(lp527
g337
asbag56
(g77
g58
NtRp528
(dp529
g61
(dp530
g88
g89
ssg70
g520
sg63
(lp531
S':'
asbag56
(g77
g58
NtRp532
(dp533
g61
(dp534
sg70
g520
sg63
(lp535
g56
(g57
g58
NtRp536
(dp537
g61
(dp538
g69
I3
ssg70
g532
sg63
(lp539
S''
asbasbasbag56
(g72
g58
NtRp540
(dp541
g61
(dp542
sg70
g476
sg63
(lp543
g56
(g77
g58
NtRp544
(dp545
g61
(dp546
g81
g82
ssg70
g540
sg63
(lp547
g358
asbag56
(g77
g58
NtRp548
(dp549
g61
(dp550
g88
g89
ssg70
g540
sg63
(lp551
S':'
asbag56
(g77
g58
NtRp552
(dp553
g61
(dp554
sg70
g540
sg63
(lp555
g56
(g57
g58
NtRp556
(dp557
g61
(dp558
g69
I3
ssg70
g552
sg63
(lp559
S''
asbasbasbag56
(g72
g58
NtRp560
(dp561
g61
(dp562
sg70
g476
sg63
(lp563
g56
(g77
g58
NtRp564
(dp565
g61
(dp566
g81
g82
ssg70
g560
sg63
(lp567
g379
asbag56
(g77
g58
NtRp568
(dp569
g61
(dp570
g88
g89
ssg70
g560
sg63
(lp571
S':'
asbag56
(g77
g58
NtRp572
(dp573
g61
(dp574
sg70
g560
sg63
(lp575
g56
(g57
g58
NtRp576
(dp577
g61
(dp578
g69
I3
ssg70
g572
sg63
(lp579
S''
asbasbasbag56
(g72
g58
NtRp580
(dp581
g61
(dp582
sg70
g476
sg63
(lp583
g56
(g77
g58
NtRp584
(dp585
g61
(dp586
g81
g82
ssg70
g580
sg63
(lp587
g400
asbag56
(g77
g58
NtRp588
(dp589
g61
(dp590
g88
g89
ssg70
g580
sg63
(lp591
S':'
asbag56
(g77
g58
NtRp592
(dp593
g61
(dp594
sg70
g580
sg63
(lp595
g56
(g57
g58
NtRp596
(dp597
g61
(dp598
g69
I3
ssg70
g592
sg63
(lp599
S''
asbasbasbag56
(g72
g58
NtRp600
(dp601
g61
(dp602
sg70
g476
sg63
(lp603
g56
(g77
g58
NtRp604
(dp605
g61
(dp606
g81
g82
ssg70
g600
sg63
(lp607
g421
asbag56
(g77
g58
NtRp608
(dp609
g61
(dp610
g88
g89
ssg70
g600
sg63
(lp611
S':'
asbag56
(g77
g58
NtRp612
(dp613
g61
(dp614
sg70
g600
sg63
(lp615
g56
(g57
g58
NtRp616
(dp617
g61
(dp618
g69
I3
ssg70
g612
sg63
(lp619
S''
asbasbasbag56
(g72
g58
NtRp620
(dp621
g61
(dp622
sg70
g476
sg63
(lp623
g56
(g77
g58
NtRp624
(dp625
g61
(dp626
g81
g82
ssg70
g620
sg63
(lp627
g442
asbag56
(g77
g58
NtRp628
(dp629
g61
(dp630
g88
g89
ssg70
g620
sg63
(lp631
S':'
asbag56
(g77
g58
NtRp632
(dp633
g61
(dp634
sg70
g620
sg63
(lp635
g56
(g57
g58
NtRp636
(dp637
g61
(dp638
g69
I3
ssg70
g632
sg63
(lp639
S''
asbasbasbasbasbasbasbag56
(g72
g58
NtRp640
(dp641
g61
(dp642
sg70
g258
sg63
(lp643
g56
(g77
g58
NtRp644
(dp645
g61
(dp646
g81
g82
ssg70
g640
sg63
(lp647
S'session_id_welcome'
p648
asbag56
(g77
g58
NtRp649
(dp650
g61
(dp651
g88
g89
ssg70
g640
sg63
(lp652
S':'
asbag56
(g77
g58
NtRp653
(dp654
g61
(dp655
sg70
g640
sg63
(lp656
g56
(g57
g58
NtRp657
(dp658
g61
(dp659
g69
I4
ssg70
g653
sg63
(lp660
g56
(g65
g58
NtRp661
(dp662
g61
(dp663
g69
I3
ssg70
Nsg63
(lp664
g56
(g72
g58
NtRp665
(dp666
g61
(dp667
sg70
g661
sg63
(lp668
g56
(g77
g58
NtRp669
(dp670
g61
(dp671
g81
g82
ssg70
g665
sg63
(lp672
g295
asbag56
(g77
g58
NtRp673
(dp674
g61
(dp675
g88
g89
ssg70
g665
sg63
(lp676
S':'
asbag56
(g77
g58
NtRp677
(dp678
g61
(dp679
sg70
g665
sg63
(lp680
g56
(g57
g58
NtRp681
(dp682
g61
(dp683
g69
I3
ssg70
g677
sg63
(lp684
S''
asbasbasbag56
(g72
g58
NtRp685
(dp686
g61
(dp687
sg70
g661
sg63
(lp688
g56
(g77
g58
NtRp689
(dp690
g61
(dp691
g81
g82
ssg70
g685
sg63
(lp692
g316
asbag56
(g77
g58
NtRp693
(dp694
g61
(dp695
g88
g89
ssg70
g685
sg63
(lp696
S':'
asbag56
(g77
g58
NtRp697
(dp698
g61
(dp699
sg70
g685
sg63
(lp700
g56
(g57
g58
NtRp701
(dp702
g61
(dp703
g69
I3
ssg70
g697
sg63
(lp704
S''
asbasbasbag56
(g72
g58
NtRp705
(dp706
g61
(dp707
sg70
g661
sg63
(lp708
g56
(g77
g58
NtRp709
(dp710
g61
(dp711
g81
g82
ssg70
g705
sg63
(lp712
g337
asbag56
(g77
g58
NtRp713
(dp714
g61
(dp715
g88
g89
ssg70
g705
sg63
(lp716
S':'
asbag56
(g77
g58
NtRp717
(dp718
g61
(dp719
sg70
g705
sg63
(lp720
g56
(g57
g58
NtRp721
(dp722
g61
(dp723
g69
I3
ssg70
g717
sg63
(lp724
S''
asbasbasbag56
(g72
g58
NtRp725
(dp726
g61
(dp727
sg70
g661
sg63
(lp728
g56
(g77
g58
NtRp729
(dp730
g61
(dp731
g81
g82
ssg70
g725
sg63
(lp732
g358
asbag56
(g77
g58
NtRp733
(dp734
g61
(dp735
g88
g89
ssg70
g725
sg63
(lp736
S':'
asbag56
(g77
g58
NtRp737
(dp738
g61
(dp739
sg70
g725
sg63
(lp740
g56
(g57
g58
NtRp741
(dp742
g61
(dp743
g69
I3
ssg70
g737
sg63
(lp744
S''
asbasbasbag56
(g72
g58
NtRp745
(dp746
g61
(dp747
sg70
g661
sg63
(lp748
g56
(g77
g58
NtRp749
(dp750
g61
(dp751
g81
g82
ssg70
g745
sg63
(lp752
g379
asbag56
(g77
g58
NtRp753
(dp754
g61
(dp755
g88
g89
ssg70
g745
sg63
(lp756
S':'
asbag56
(g77
g58
NtRp757
(dp758
g61
(dp759
sg70
g745
sg63
(lp760
g56
(g57
g58
NtRp761
(dp762
g61
(dp763
g69
I3
ssg70
g757
sg63
(lp764
S''
asbasbasbag56
(g72
g58
NtRp765
(dp766
g61
(dp767
sg70
g661
sg63
(lp768
g56
(g77
g58
NtRp769
(dp770
g61
(dp771
g81
g82
ssg70
g765
sg63
(lp772
g400
asbag56
(g77
g58
NtRp773
(dp774
g61
(dp775
g88
g89
ssg70
g765
sg63
(lp776
S':'
asbag56
(g77
g58
NtRp777
(dp778
g61
(dp779
sg70
g765
sg63
(lp780
g56
(g57
g58
NtRp781
(dp782
g61
(dp783
g69
I3
ssg70
g777
sg63
(lp784
S''
asbasbasbag56
(g72
g58
NtRp785
(dp786
g61
(dp787
sg70
g661
sg63
(lp788
g56
(g77
g58
NtRp789
(dp790
g61
(dp791
g81
g82
ssg70
g785
sg63
(lp792
g421
asbag56
(g77
g58
NtRp793
(dp794
g61
(dp795
g88
g89
ssg70
g785
sg63
(lp796
S':'
asbag56
(g77
g58
NtRp797
(dp798
g61
(dp799
sg70
g785
sg63
(lp800
g56
(g57
g58
NtRp801
(dp802
g61
(dp803
g69
I3
ssg70
g797
sg63
(lp804
S''
asbasbasbag56
(g72
g58
NtRp805
(dp806
g61
(dp807
sg70
g661
sg63
(lp808
g56
(g77
g58
NtRp809
(dp810
g61
(dp811
g81
g82
ssg70
g805
sg63
(lp812
g442
asbag56
(g77
g58
NtRp813
(dp814
g61
(dp815
g88
g89
ssg70
g805
sg63
(lp816
S':'
asbag56
(g77
g58
NtRp817
(dp818
g61
(dp819
sg70
g805
sg63
(lp820
g56
(g57
g58
NtRp821
(dp822
g61
(dp823
g69
I3
ssg70
g817
sg63
(lp824
S''
asbasbasbasbasbasbasbasbasbasbasbag56
(g72
g58
NtRp825
(dp826
g61
(dp827
sg70
g66
sg63
(lp828
g56
(g77
g58
NtRp829
(dp830
g61
(dp831
g81
g82
ssg70
g825
sg63
(lp832
S'env'
p833
asbag56
(g77
g58
NtRp834
(dp835
g61
(dp836
g88
g89
ssg70
g825
sg63
(lp837
S':'
asbag56
(g77
g58
NtRp838
(dp839
g61
(dp840
sg70
g825
sg63
(lp841
g56
(g57
g58
NtRp842
(dp843
g61
(dp844
g69
I5
ssg70
g838
sg63
(lp845
g56
(g65
g58
NtRp846
(dp847
g61
(dp848
g69
I4
ssg70
Nsg63
(lp849
g56
(g72
g58
NtRp850
(dp851
g61
(dp852
sg70
g846
sg63
(lp853
g56
(g77
g58
NtRp854
(dp855
g61
(dp856
g81
g82
ssg70
g850
sg63
(lp857
S'app_folders'
p858
asbag56
(g77
g58
NtRp859
(dp860
g61
(dp861
g88
g89
ssg70
g850
sg63
(lp862
S':'
asbag56
(g77
g58
NtRp863
(dp864
g61
(dp865
sg70
g850
sg63
(lp866
g56
(g57
g58
NtRp867
(dp868
g61
(dp869
g69
I4
ssg70
g863
sg63
(lp870
S"set(['/home/kaique/Projects/web2py/applications/synopsis/', '/home/kaique/Projects/web2py/applications/admin/'])"
p871
asbasbasbag56
(g72
g58
NtRp872
(dp873
g61
(dp874
sg70
g846
sg63
(lp875
g56
(g77
g58
NtRp876
(dp877
g61
(dp878
g81
g82
ssg70
g872
sg63
(lp879
S'applications_parent'
p880
asbag56
(g77
g58
NtRp881
(dp882
g61
(dp883
g88
g89
ssg70
g872
sg63
(lp884
S':'
asbag56
(g77
g58
NtRp885
(dp886
g61
(dp887
sg70
g872
sg63
(lp888
g56
(g57
g58
NtRp889
(dp890
g61
(dp891
g69
I4
ssg70
g885
sg63
(lp892
S'/home/kaique/Projects/web2py'
p893
asbasbasbag56
(g72
g58
NtRp894
(dp895
g61
(dp896
sg70
g846
sg63
(lp897
g56
(g77
g58
NtRp898
(dp899
g61
(dp900
g81
g82
ssg70
g894
sg63
(lp901
S'cmd_args'
p902
asbag56
(g77
g58
NtRp903
(dp904
g61
(dp905
g88
g89
ssg70
g894
sg63
(lp906
S':'
asbag56
(g77
g58
NtRp907
(dp908
g61
(dp909
sg70
g894
sg63
(lp910
g56
(g57
g58
NtRp911
(dp912
g61
(dp913
g69
I4
ssg70
g907
sg63
(lp914
g56
(g65
g58
NtRp915
(dp916
g61
(dp917
g69
I3
ssg70
Nsg63
(lp918
sbasbasbasbag56
(g72
g58
NtRp919
(dp920
g61
(dp921
sg70
g846
sg63
(lp922
g56
(g77
g58
NtRp923
(dp924
g61
(dp925
g81
g82
ssg70
g919
sg63
(lp926
S'cmd_options'
p927
asbag56
(g77
g58
NtRp928
(dp929
g61
(dp930
g88
g89
ssg70
g919
sg63
(lp931
S':'
asbag56
(g77
g58
NtRp932
(dp933
g61
(dp934
sg70
g919
sg63
(lp935
g56
(g57
g58
NtRp936
(dp937
g61
(dp938
g69
I4
ssg70
g932
sg63
(lp939
S"<Values at 0x2d3b950: {'verbose': False, 'ip': '127.0.0.1', 'shutdown_timeout': 5, 'taskbar': False, 'nocron': False, 'pid_filename': 'httpserver.pid', 'maxthreads': None, 'softcron': False, 'server_name': 'kaique-Pine-Trail-M', 'bpython': False, 'nogui': False, 'port': 8000, 'extcron': False, 'debuglevel': 30, 'test': None, 'folder': '/home/kaique/Projects/web2py', 'config': '', 'import_models': False, 'winservice': '', 'shell': None, 'run': '', 'log_filename': 'httpserver.log', 'args': [''], 'ssl_ca_certificate': None, 'scheduler': None, 'profiler_filename': None, 'ssl_private_key': '', 'password': 'dev', 'request_queue_size': 5, 'ssl_certificate': '', 'cronjob': False, 'plain': False, 'quiet': False, 'interfaces': None, 'minthreads': None, 'timeout': 10, 'numthreads': None, 'nobanner': False}>"
p940
asbasbasbag56
(g72
g58
NtRp941
(dp942
g61
(dp943
sg70
g846
sg63
(lp944
g56
(g77
g58
NtRp945
(dp946
g61
(dp947
g81
g82
ssg70
g941
sg63
(lp948
S'db_sessions'
p949
asbag56
(g77
g58
NtRp950
(dp951
g61
(dp952
g88
g89
ssg70
g941
sg63
(lp953
S':'
asbag56
(g77
g58
NtRp954
(dp955
g61
(dp956
sg70
g941
sg63
(lp957
g56
(g57
g58
NtRp958
(dp959
g61
(dp960
g69
I4
ssg70
g954
sg63
(lp961
S'set([])'
p962
asbasbasbag56
(g72
g58
NtRp963
(dp964
g61
(dp965
sg70
g846
sg63
(lp966
g56
(g77
g58
NtRp967
(dp968
g61
(dp969
g81
g82
ssg70
g963
sg63
(lp970
S'debugging'
p971
asbag56
(g77
g58
NtRp972
(dp973
g61
(dp974
g88
g89
ssg70
g963
sg63
(lp975
S':'
asbag56
(g77
g58
NtRp976
(dp977
g61
(dp978
sg70
g963
sg63
(lp979
g56
(g57
g58
NtRp980
(dp981
g61
(dp982
g69
I4
ssg70
g976
sg63
(lp983
g99
asbasbasbag56
(g72
g58
NtRp984
(dp985
g61
(dp986
sg70
g846
sg63
(lp987
g56
(g77
g58
NtRp988
(dp989
g61
(dp990
g81
g82
ssg70
g984
sg63
(lp991
S'gluon_parent'
p992
asbag56
(g77
g58
NtRp993
(dp994
g61
(dp995
g88
g89
ssg70
g984
sg63
(lp996
S':'
asbag56
(g77
g58
NtRp997
(dp998
g61
(dp999
sg70
g984
sg63
(lp1000
g56
(g57
g58
NtRp1001
(dp1002
g61
(dp1003
g69
I4
ssg70
g997
sg63
(lp1004
S'/home/kaique/Projects/web2py'
p1005
asbasbasbag56
(g72
g58
NtRp1006
(dp1007
g61
(dp1008
sg70
g846
sg63
(lp1009
g56
(g77
g58
NtRp1010
(dp1011
g61
(dp1012
g81
g82
ssg70
g1006
sg63
(lp1013
S'http_accept'
p1014
asbag56
(g77
g58
NtRp1015
(dp1016
g61
(dp1017
g88
g89
ssg70
g1006
sg63
(lp1018
S':'
asbag56
(g77
g58
NtRp1019
(dp1020
g61
(dp1021
sg70
g1006
sg63
(lp1022
g56
(g57
g58
NtRp1023
(dp1024
g61
(dp1025
g69
I4
ssg70
g1019
sg63
(lp1026
S'text/html,application/xhtml+xml,application/xml;q=0.9,*/*;q=0.8'
p1027
asbasbasbag56
(g72
g58
NtRp1028
(dp1029
g61
(dp1030
sg70
g846
sg63
(lp1031
g56
(g77
g58
NtRp1032
(dp1033
g61
(dp1034
g81
g82
ssg70
g1028
sg63
(lp1035
S'http_accept_charset'
p1036
asbag56
(g77
g58
NtRp1037
(dp1038
g61
(dp1039
g88
g89
ssg70
g1028
sg63
(lp1040
S':'
asbag56
(g77
g58
NtRp1041
(dp1042
g61
(dp1043
sg70
g1028
sg63
(lp1044
g56
(g57
g58
NtRp1045
(dp1046
g61
(dp1047
g69
I4
ssg70
g1041
sg63
(lp1048
S'ISO-8859-1,utf-8;q=0.7,*;q=0.7'
p1049
asbasbasbag56
(g72
g58
NtRp1050
(dp1051
g61
(dp1052
sg70
g846
sg63
(lp1053
g56
(g77
g58
NtRp1054
(dp1055
g61
(dp1056
g81
g82
ssg70
g1050
sg63
(lp1057
S'http_accept_encoding'
p1058
asbag56
(g77
g58
NtRp1059
(dp1060
g61
(dp1061
g88
g89
ssg70
g1050
sg63
(lp1062
S':'
asbag56
(g77
g58
NtRp1063
(dp1064
g61
(dp1065
sg70
g1050
sg63
(lp1066
g56
(g57
g58
NtRp1067
(dp1068
g61
(dp1069
g69
I4
ssg70
g1063
sg63
(lp1070
S'gzip, deflate'
p1071
asbasbasbag56
(g72
g58
NtRp1072
(dp1073
g61
(dp1074
sg70
g846
sg63
(lp1075
g56
(g77
g58
NtRp1076
(dp1077
g61
(dp1078
g81
g82
ssg70
g1072
sg63
(lp1079
S'http_accept_language'
p1080
asbag56
(g77
g58
NtRp1081
(dp1082
g61
(dp1083
g88
g89
ssg70
g1072
sg63
(lp1084
S':'
asbag56
(g77
g58
NtRp1085
(dp1086
g61
(dp1087
sg70
g1072
sg63
(lp1088
g56
(g57
g58
NtRp1089
(dp1090
g61
(dp1091
g69
I4
ssg70
g1085
sg63
(lp1092
S'pt-br,pt;q=0.8,en-us;q=0.5,en;q=0.3'
p1093
asbasbasbag56
(g72
g58
NtRp1094
(dp1095
g61
(dp1096
sg70
g846
sg63
(lp1097
g56
(g77
g58
NtRp1098
(dp1099
g61
(dp1100
g81
g82
ssg70
g1094
sg63
(lp1101
S'http_cache_control'
p1102
asbag56
(g77
g58
NtRp1103
(dp1104
g61
(dp1105
g88
g89
ssg70
g1094
sg63
(lp1106
S':'
asbag56
(g77
g58
NtRp1107
(dp1108
g61
(dp1109
sg70
g1094
sg63
(lp1110
g56
(g57
g58
NtRp1111
(dp1112
g61
(dp1113
g69
I4
ssg70
g1107
sg63
(lp1114
S'max-age=0'
p1115
asbasbasbag56
(g72
g58
NtRp1116
(dp1117
g61
(dp1118
sg70
g846
sg63
(lp1119
g56
(g77
g58
NtRp1120
(dp1121
g61
(dp1122
g81
g82
ssg70
g1116
sg63
(lp1123
S'http_connection'
p1124
asbag56
(g77
g58
NtRp1125
(dp1126
g61
(dp1127
g88
g89
ssg70
g1116
sg63
(lp1128
S':'
asbag56
(g77
g58
NtRp1129
(dp1130
g61
(dp1131
sg70
g1116
sg63
(lp1132
g56
(g57
g58
NtRp1133
(dp1134
g61
(dp1135
g69
I4
ssg70
g1129
sg63
(lp1136
S'keep-alive'
p1137
asbasbasbag56
(g72
g58
NtRp1138
(dp1139
g61
(dp1140
sg70
g846
sg63
(lp1141
g56
(g77
g58
NtRp1142
(dp1143
g61
(dp1144
g81
g82
ssg70
g1138
sg63
(lp1145
S'http_cookie'
p1146
asbag56
(g77
g58
NtRp1147
(dp1148
g61
(dp1149
g88
g89
ssg70
g1138
sg63
(lp1150
S':'
asbag56
(g77
g58
NtRp1151
(dp1152
g61
(dp1153
sg70
g1138
sg63
(lp1154
g56
(g57
g58
NtRp1155
(dp1156
g61
(dp1157
g69
I4
ssg70
g1151
sg63
(lp1158
S'session_id_welcome=127.0.0.1-5cd27a60-9290-4dfd-905a-2cae79e1b71d; session_id_admin=127.0.0.1-4fcac13e-289c-4471-92ed-6d5dcbf185e6; session_id_synopsis=127.0.0.1-351efa91-66d9-4ca2-9c53-1a2177b18dc7'
p1159
asbasbasbag56
(g72
g58
NtRp1160
(dp1161
g61
(dp1162
sg70
g846
sg63
(lp1163
g56
(g77
g58
NtRp1164
(dp1165
g61
(dp1166
g81
g82
ssg70
g1160
sg63
(lp1167
S'http_host'
p1168
asbag56
(g77
g58
NtRp1169
(dp1170
g61
(dp1171
g88
g89
ssg70
g1160
sg63
(lp1172
S':'
asbag56
(g77
g58
NtRp1173
(dp1174
g61
(dp1175
sg70
g1160
sg63
(lp1176
g56
(g57
g58
NtRp1177
(dp1178
g61
(dp1179
g69
I4
ssg70
g1173
sg63
(lp1180
S'localhost:8000'
p1181
asbasbasbag56
(g72
g58
NtRp1182
(dp1183
g61
(dp1184
sg70
g846
sg63
(lp1185
g56
(g77
g58
NtRp1186
(dp1187
g61
(dp1188
g81
g82
ssg70
g1182
sg63
(lp1189
S'http_referer'
p1190
asbag56
(g77
g58
NtRp1191
(dp1192
g61
(dp1193
g88
g89
ssg70
g1182
sg63
(lp1194
S':'
asbag56
(g77
g58
NtRp1195
(dp1196
g61
(dp1197
sg70
g1182
sg63
(lp1198
g56
(g57
g58
NtRp1199
(dp1200
g61
(dp1201
g69
I4
ssg70
g1195
sg63
(lp1202
S'http://localhost:8000/synopsis/information/profile/2'
p1203
asbasbasbag56
(g72
g58
NtRp1204
(dp1205
g61
(dp1206
sg70
g846
sg63
(lp1207
g56
(g77
g58
NtRp1208
(dp1209
g61
(dp1210
g81
g82
ssg70
g1204
sg63
(lp1211
S'http_user_agent'
p1212
asbag56
(g77
g58
NtRp1213
(dp1214
g61
(dp1215
g88
g89
ssg70
g1204
sg63
(lp1216
S':'
asbag56
(g77
g58
NtRp1217
(dp1218
g61
(dp1219
sg70
g1204
sg63
(lp1220
g56
(g57
g58
NtRp1221
(dp1222
g61
(dp1223
g69
I4
ssg70
g1217
sg63
(lp1224
S'Mozilla/5.0 (Ubuntu; X11; Linux x86_64; rv:9.0.1) Gecko/20100101 Firefox/9.0.1'
p1225
asbasbasbag56
(g72
g58
NtRp1226
(dp1227
g61
(dp1228
sg70
g846
sg63
(lp1229
g56
(g77
g58
NtRp1230
(dp1231
g61
(dp1232
g81
g82
ssg70
g1226
sg63
(lp1233
S'is_jython'
p1234
asbag56
(g77
g58
NtRp1235
(dp1236
g61
(dp1237
g88
g89
ssg70
g1226
sg63
(lp1238
S':'
asbag56
(g77
g58
NtRp1239
(dp1240
g61
(dp1241
sg70
g1226
sg63
(lp1242
g56
(g57
g58
NtRp1243
(dp1244
g61
(dp1245
g69
I4
ssg70
g1239
sg63
(lp1246
g99
asbasbasbag56
(g72
g58
NtRp1247
(dp1248
g61
(dp1249
sg70
g846
sg63
(lp1250
g56
(g77
g58
NtRp1251
(dp1252
g61
(dp1253
g81
g82
ssg70
g1247
sg63
(lp1254
S'path_info'
p1255
asbag56
(g77
g58
NtRp1256
(dp1257
g61
(dp1258
g88
g89
ssg70
g1247
sg63
(lp1259
S':'
asbag56
(g77
g58
NtRp1260
(dp1261
g61
(dp1262
sg70
g1247
sg63
(lp1263
g56
(g57
g58
NtRp1264
(dp1265
g61
(dp1266
g69
I4
ssg70
g1260
sg63
(lp1267
S'/synopsis/information/new/publication/2'
p1268
asbasbasbag56
(g72
g58
NtRp1269
(dp1270
g61
(dp1271
sg70
g846
sg63
(lp1272
g56
(g77
g58
NtRp1273
(dp1274
g61
(dp1275
g81
g82
ssg70
g1269
sg63
(lp1276
S'query_string'
p1277
asbag56
(g77
g58
NtRp1278
(dp1279
g61
(dp1280
g88
g89
ssg70
g1269
sg63
(lp1281
S':'
asbag56
(g77
g58
NtRp1282
(dp1283
g61
(dp1284
sg70
g1269
sg63
(lp1285
g56
(g57
g58
NtRp1286
(dp1287
g61
(dp1288
g69
I4
ssg70
g1282
sg63
(lp1289
S''
asbasbasbag56
(g72
g58
NtRp1290
(dp1291
g61
(dp1292
sg70
g846
sg63
(lp1293
g56
(g77
g58
NtRp1294
(dp1295
g61
(dp1296
g81
g82
ssg70
g1290
sg63
(lp1297
S'remote_addr'
p1298
asbag56
(g77
g58
NtRp1299
(dp1300
g61
(dp1301
g88
g89
ssg70
g1290
sg63
(lp1302
S':'
asbag56
(g77
g58
NtRp1303
(dp1304
g61
(dp1305
sg70
g1290
sg63
(lp1306
g56
(g57
g58
NtRp1307
(dp1308
g61
(dp1309
g69
I4
ssg70
g1303
sg63
(lp1310
g214
asbasbasbag56
(g72
g58
NtRp1311
(dp1312
g61
(dp1313
sg70
g846
sg63
(lp1314
g56
(g77
g58
NtRp1315
(dp1316
g61
(dp1317
g81
g82
ssg70
g1311
sg63
(lp1318
S'remote_port'
p1319
asbag56
(g77
g58
NtRp1320
(dp1321
g61
(dp1322
g88
g89
ssg70
g1311
sg63
(lp1323
S':'
asbag56
(g77
g58
NtRp1324
(dp1325
g61
(dp1326
sg70
g1311
sg63
(lp1327
g56
(g57
g58
NtRp1328
(dp1329
g61
(dp1330
g69
I4
ssg70
g1324
sg63
(lp1331
S'53198'
p1332
asbasbasbag56
(g72
g58
NtRp1333
(dp1334
g61
(dp1335
sg70
g846
sg63
(lp1336
g56
(g77
g58
NtRp1337
(dp1338
g61
(dp1339
g81
g82
ssg70
g1333
sg63
(lp1340
S'request_method'
p1341
asbag56
(g77
g58
NtRp1342
(dp1343
g61
(dp1344
g88
g89
ssg70
g1333
sg63
(lp1345
S':'
asbag56
(g77
g58
NtRp1346
(dp1347
g61
(dp1348
sg70
g1333
sg63
(lp1349
g56
(g57
g58
NtRp1350
(dp1351
g61
(dp1352
g69
I4
ssg70
g1346
sg63
(lp1353
S'GET'
p1354
asbasbasbag56
(g72
g58
NtRp1355
(dp1356
g61
(dp1357
sg70
g846
sg63
(lp1358
g56
(g77
g58
NtRp1359
(dp1360
g61
(dp1361
g81
g82
ssg70
g1355
sg63
(lp1362
S'script_name'
p1363
asbag56
(g77
g58
NtRp1364
(dp1365
g61
(dp1366
g88
g89
ssg70
g1355
sg63
(lp1367
S':'
asbag56
(g77
g58
NtRp1368
(dp1369
g61
(dp1370
sg70
g1355
sg63
(lp1371
g56
(g57
g58
NtRp1372
(dp1373
g61
(dp1374
g69
I4
ssg70
g1368
sg63
(lp1375
S''
asbasbasbag56
(g72
g58
NtRp1376
(dp1377
g61
(dp1378
sg70
g846
sg63
(lp1379
g56
(g77
g58
NtRp1380
(dp1381
g61
(dp1382
g81
g82
ssg70
g1376
sg63
(lp1383
S'server_name'
p1384
asbag56
(g77
g58
NtRp1385
(dp1386
g61
(dp1387
g88
g89
ssg70
g1376
sg63
(lp1388
S':'
asbag56
(g77
g58
NtRp1389
(dp1390
g61
(dp1391
sg70
g1376
sg63
(lp1392
g56
(g57
g58
NtRp1393
(dp1394
g61
(dp1395
g69
I4
ssg70
g1389
sg63
(lp1396
S'kaique-Pine-Trail-M'
p1397
asbasbasbag56
(g72
g58
NtRp1398
(dp1399
g61
(dp1400
sg70
g846
sg63
(lp1401
g56
(g77
g58
NtRp1402
(dp1403
g61
(dp1404
g81
g82
ssg70
g1398
sg63
(lp1405
S'server_port'
p1406
asbag56
(g77
g58
NtRp1407
(dp1408
g61
(dp1409
g88
g89
ssg70
g1398
sg63
(lp1410
S':'
asbag56
(g77
g58
NtRp1411
(dp1412
g61
(dp1413
sg70
g1398
sg63
(lp1414
g56
(g57
g58
NtRp1415
(dp1416
g61
(dp1417
g69
I4
ssg70
g1411
sg63
(lp1418
S'8000'
p1419
asbasbasbag56
(g72
g58
NtRp1420
(dp1421
g61
(dp1422
sg70
g846
sg63
(lp1423
g56
(g77
g58
NtRp1424
(dp1425
g61
(dp1426
g81
g82
ssg70
g1420
sg63
(lp1427
S'server_protocol'
p1428
asbag56
(g77
g58
NtRp1429
(dp1430
g61
(dp1431
g88
g89
ssg70
g1420
sg63
(lp1432
S':'
asbag56
(g77
g58
NtRp1433
(dp1434
g61
(dp1435
sg70
g1420
sg63
(lp1436
g56
(g57
g58
NtRp1437
(dp1438
g61
(dp1439
g69
I4
ssg70
g1433
sg63
(lp1440
S'HTTP/1.1'
p1441
asbasbasbag56
(g72
g58
NtRp1442
(dp1443
g61
(dp1444
sg70
g846
sg63
(lp1445
g56
(g77
g58
NtRp1446
(dp1447
g61
(dp1448
g81
g82
ssg70
g1442
sg63
(lp1449
S'server_software'
p1450
asbag56
(g77
g58
NtRp1451
(dp1452
g61
(dp1453
g88
g89
ssg70
g1442
sg63
(lp1454
S':'
asbag56
(g77
g58
NtRp1455
(dp1456
g61
(dp1457
sg70
g1442
sg63
(lp1458
g56
(g57
g58
NtRp1459
(dp1460
g61
(dp1461
g69
I4
ssg70
g1455
sg63
(lp1462
S'Rocket 1.2.4'
p1463
asbasbasbag56
(g72
g58
NtRp1464
(dp1465
g61
(dp1466
sg70
g846
sg63
(lp1467
g56
(g77
g58
NtRp1468
(dp1469
g61
(dp1470
g81
g82
ssg70
g1464
sg63
(lp1471
S'web2py_crontype'
p1472
asbag56
(g77
g58
NtRp1473
(dp1474
g61
(dp1475
g88
g89
ssg70
g1464
sg63
(lp1476
S':'
asbag56
(g77
g58
NtRp1477
(dp1478
g61
(dp1479
sg70
g1464
sg63
(lp1480
g56
(g57
g58
NtRp1481
(dp1482
g61
(dp1483
g69
I4
ssg70
g1477
sg63
(lp1484
S'hard'
p1485
asbasbasbag56
(g72
g58
NtRp1486
(dp1487
g61
(dp1488
sg70
g846
sg63
(lp1489
g56
(g77
g58
NtRp1490
(dp1491
g61
(dp1492
g81
g82
ssg70
g1486
sg63
(lp1493
S'web2py_path'
p1494
asbag56
(g77
g58
NtRp1495
(dp1496
g61
(dp1497
g88
g89
ssg70
g1486
sg63
(lp1498
S':'
asbag56
(g77
g58
NtRp1499
(dp1500
g61
(dp1501
sg70
g1486
sg63
(lp1502
g56
(g57
g58
NtRp1503
(dp1504
g61
(dp1505
g69
I4
ssg70
g1499
sg63
(lp1506
g893
asbasbasbag56
(g72
g58
NtRp1507
(dp1508
g61
(dp1509
sg70
g846
sg63
(lp1510
g56
(g77
g58
NtRp1511
(dp1512
g61
(dp1513
g81
g82
ssg70
g1507
sg63
(lp1514
S'web2py_version'
p1515
asbag56
(g77
g58
NtRp1516
(dp1517
g61
(dp1518
g88
g89
ssg70
g1507
sg63
(lp1519
S':'
asbag56
(g77
g58
NtRp1520
(dp1521
g61
(dp1522
sg70
g1507
sg63
(lp1523
g56
(g57
g58
NtRp1524
(dp1525
g61
(dp1526
g69
I4
ssg70
g1520
sg63
(lp1527
g56
(g65
g58
NtRp1528
(dp1529
g61
(dp1530
g69
I3
ssg70
Nsg63
(lp1531
g56
(g72
g58
NtRp1532
(dp1533
g61
(dp1534
sg70
g1528
sg63
(lp1535
g56
(g77
g58
NtRp1536
(dp1537
g61
(dp1538
sg70
g1532
sg63
(lp1539
g56
(g57
g58
NtRp1540
(dp1541
g61
(dp1542
g69
I3
ssg70
g1536
sg63
(lp1543
S'1'
asbasbasbag56
(g72
g58
NtRp1544
(dp1545
g61
(dp1546
sg70
g1528
sg63
(lp1547
g56
(g77
g58
NtRp1548
(dp1549
g61
(dp1550
sg70
g1544
sg63
(lp1551
g56
(g57
g58
NtRp1552
(dp1553
g61
(dp1554
g69
I3
ssg70
g1548
sg63
(lp1555
S'99'
p1556
asbasbasbag56
(g72
g58
NtRp1557
(dp1558
g61
(dp1559
sg70
g1528
sg63
(lp1560
g56
(g77
g58
NtRp1561
(dp1562
g61
(dp1563
sg70
g1557
sg63
(lp1564
g56
(g57
g58
NtRp1565
(dp1566
g61
(dp1567
g69
I3
ssg70
g1561
sg63
(lp1568
S'2'
asbasbasbag56
(g72
g58
NtRp1569
(dp1570
g61
(dp1571
sg70
g1528
sg63
(lp1572
g56
(g77
g58
NtRp1573
(dp1574
g61
(dp1575
sg70
g1569
sg63
(lp1576
g56
(g57
g58
NtRp1577
(dp1578
g61
(dp1579
g69
I3
ssg70
g1573
sg63
(lp1580
S'datetime.datetime(2011, 9, 26, 6, 55, 33)'
p1581
asbasbasbag56
(g72
g58
NtRp1582
(dp1583
g61
(dp1584
sg70
g1528
sg63
(lp1585
g56
(g77
g58
NtRp1586
(dp1587
g61
(dp1588
sg70
g1582
sg63
(lp1589
g56
(g57
g58
NtRp1590
(dp1591
g61
(dp1592
g69
I3
ssg70
g1586
sg63
(lp1593
S'stable'
p1594
asbasbasbasbasbasbasbag56
(g72
g58
NtRp1595
(dp1596
g61
(dp1597
sg70
g846
sg63
(lp1598
g56
(g77
g58
NtRp1599
(dp1600
g61
(dp1601
g81
g82
ssg70
g1595
sg63
(lp1602
S'wsgi_errors'
p1603
asbag56
(g77
g58
NtRp1604
(dp1605
g61
(dp1606
g88
g89
ssg70
g1595
sg63
(lp1607
S':'
asbag56
(g77
g58
NtRp1608
(dp1609
g61
(dp1610
sg70
g1595
sg63
(lp1611
g56
(g57
g58
NtRp1612
(dp1613
g61
(dp1614
g69
I4
ssg70
g1608
sg63
(lp1615
S"<open file '<stderr>', mode 'w' at 0x7f2b12e1a270>"
p1616
asbasbasbag56
(g72
g58
NtRp1617
(dp1618
g61
(dp1619
sg70
g846
sg63
(lp1620
g56
(g77
g58
NtRp1621
(dp1622
g61
(dp1623
g81
g82
ssg70
g1617
sg63
(lp1624
S'wsgi_file_wrapper'
p1625
asbag56
(g77
g58
NtRp1626
(dp1627
g61
(dp1628
g88
g89
ssg70
g1617
sg63
(lp1629
S':'
asbag56
(g77
g58
NtRp1630
(dp1631
g61
(dp1632
sg70
g1617
sg63
(lp1633
g56
(g57
g58
NtRp1634
(dp1635
g61
(dp1636
g69
I4
ssg70
g1630
sg63
(lp1637
S'<class wsgiref.util.FileWrapper at 0x2bf2ef0>'
p1638
asbasbasbag56
(g72
g58
NtRp1639
(dp1640
g61
(dp1641
sg70
g846
sg63
(lp1642
g56
(g77
g58
NtRp1643
(dp1644
g61
(dp1645
g81
g82
ssg70
g1639
sg63
(lp1646
S'wsgi_input'
p1647
asbag56
(g77
g58
NtRp1648
(dp1649
g61
(dp1650
g88
g89
ssg70
g1639
sg63
(lp1651
S':'
asbag56
(g77
g58
NtRp1652
(dp1653
g61
(dp1654
sg70
g1639
sg63
(lp1655
g56
(g57
g58
NtRp1656
(dp1657
g61
(dp1658
g69
I4
ssg70
g1652
sg63
(lp1659
S'<socket._fileobject object at 0x33cfcd0>'
p1660
asbasbasbag56
(g72
g58
NtRp1661
(dp1662
g61
(dp1663
sg70
g846
sg63
(lp1664
g56
(g77
g58
NtRp1665
(dp1666
g61
(dp1667
g81
g82
ssg70
g1661
sg63
(lp1668
S'wsgi_multiprocess'
p1669
asbag56
(g77
g58
NtRp1670
(dp1671
g61
(dp1672
g88
g89
ssg70
g1661
sg63
(lp1673
S':'
asbag56
(g77
g58
NtRp1674
(dp1675
g61
(dp1676
sg70
g1661
sg63
(lp1677
g56
(g57
g58
NtRp1678
(dp1679
g61
(dp1680
g69
I4
ssg70
g1674
sg63
(lp1681
g99
asbasbasbag56
(g72
g58
NtRp1682
(dp1683
g61
(dp1684
sg70
g846
sg63
(lp1685
g56
(g77
g58
NtRp1686
(dp1687
g61
(dp1688
g81
g82
ssg70
g1682
sg63
(lp1689
S'wsgi_multithread'
p1690
asbag56
(g77
g58
NtRp1691
(dp1692
g61
(dp1693
g88
g89
ssg70
g1682
sg63
(lp1694
S':'
asbag56
(g77
g58
NtRp1695
(dp1696
g61
(dp1697
sg70
g1682
sg63
(lp1698
g56
(g57
g58
NtRp1699
(dp1700
g61
(dp1701
g69
I4
ssg70
g1695
sg63
(lp1702
S'True'
p1703
asbasbasbag56
(g72
g58
NtRp1704
(dp1705
g61
(dp1706
sg70
g846
sg63
(lp1707
g56
(g77
g58
NtRp1708
(dp1709
g61
(dp1710
g81
g82
ssg70
g1704
sg63
(lp1711
S'wsgi_run_once'
p1712
asbag56
(g77
g58
NtRp1713
(dp1714
g61
(dp1715
g88
g89
ssg70
g1704
sg63
(lp1716
S':'
asbag56
(g77
g58
NtRp1717
(dp1718
g61
(dp1719
sg70
g1704
sg63
(lp1720
g56
(g57
g58
NtRp1721
(dp1722
g61
(dp1723
g69
I4
ssg70
g1717
sg63
(lp1724
g99
asbasbasbag56
(g72
g58
NtRp1725
(dp1726
g61
(dp1727
sg70
g846
sg63
(lp1728
g56
(g77
g58
NtRp1729
(dp1730
g61
(dp1731
g81
g82
ssg70
g1725
sg63
(lp1732
S'wsgi_url_scheme'
p1733
asbag56
(g77
g58
NtRp1734
(dp1735
g61
(dp1736
g88
g89
ssg70
g1725
sg63
(lp1737
S':'
asbag56
(g77
g58
NtRp1738
(dp1739
g61
(dp1740
sg70
g1725
sg63
(lp1741
g56
(g57
g58
NtRp1742
(dp1743
g61
(dp1744
g69
I4
ssg70
g1738
sg63
(lp1745
S'http'
p1746
asbasbasbag56
(g72
g58
NtRp1747
(dp1748
g61
(dp1749
sg70
g846
sg63
(lp1750
g56
(g77
g58
NtRp1751
(dp1752
g61
(dp1753
g81
g82
ssg70
g1747
sg63
(lp1754
S'wsgi_version'
p1755
asbag56
(g77
g58
NtRp1756
(dp1757
g61
(dp1758
g88
g89
ssg70
g1747
sg63
(lp1759
S':'
asbag56
(g77
g58
NtRp1760
(dp1761
g61
(dp1762
sg70
g1747
sg63
(lp1763
g56
(g57
g58
NtRp1764
(dp1765
g61
(dp1766
g69
I4
ssg70
g1760
sg63
(lp1767
g56
(g65
g58
NtRp1768
(dp1769
g61
(dp1770
g69
I3
ssg70
Nsg63
(lp1771
g56
(g72
g58
NtRp1772
(dp1773
g61
(dp1774
sg70
g1768
sg63
(lp1775
g56
(g77
g58
NtRp1776
(dp1777
g61
(dp1778
sg70
g1772
sg63
(lp1779
g56
(g57
g58
NtRp1780
(dp1781
g61
(dp1782
g69
I3
ssg70
g1776
sg63
(lp1783
S'1'
asbasbasbag56
(g72
g58
NtRp1784
(dp1785
g61
(dp1786
sg70
g1768
sg63
(lp1787
g56
(g77
g58
NtRp1788
(dp1789
g61
(dp1790
sg70
g1784
sg63
(lp1791
g56
(g57
g58
NtRp1792
(dp1793
g61
(dp1794
g69
I3
ssg70
g1788
sg63
(lp1795
S'0'
asbasbasbasbasbasbasbasbasbasbasbag56
(g72
g58
NtRp1796
(dp1797
g61
(dp1798
sg70
g66
sg63
(lp1799
g56
(g77
g58
NtRp1800
(dp1801
g61
(dp1802
g81
g82
ssg70
g1796
sg63
(lp1803
S'extension'
p1804
asbag56
(g77
g58
NtRp1805
(dp1806
g61
(dp1807
g88
g89
ssg70
g1796
sg63
(lp1808
S':'
asbag56
(g77
g58
NtRp1809
(dp1810
g61
(dp1811
sg70
g1796
sg63
(lp1812
g56
(g57
g58
NtRp1813
(dp1814
g61
(dp1815
g69
I5
ssg70
g1809
sg63
(lp1816
S'html'
p1817
asbasbasbag56
(g72
g58
NtRp1818
(dp1819
g61
(dp1820
sg70
g66
sg63
(lp1821
g56
(g77
g58
NtRp1822
(dp1823
g61
(dp1824
g81
g82
ssg70
g1818
sg63
(lp1825
S'folder'
p1826
asbag56
(g77
g58
NtRp1827
(dp1828
g61
(dp1829
g88
g89
ssg70
g1818
sg63
(lp1830
S':'
asbag56
(g77
g58
NtRp1831
(dp1832
g61
(dp1833
sg70
g1818
sg63
(lp1834
g56
(g57
g58
NtRp1835
(dp1836
g61
(dp1837
g69
I5
ssg70
g1831
sg63
(lp1838
S'/home/kaique/Projects/web2py/applications/synopsis/'
p1839
asbasbasbag56
(g72
g58
NtRp1840
(dp1841
g61
(dp1842
sg70
g66
sg63
(lp1843
g56
(g77
g58
NtRp1844
(dp1845
g61
(dp1846
g81
g82
ssg70
g1840
sg63
(lp1847
S'function'
p1848
asbag56
(g77
g58
NtRp1849
(dp1850
g61
(dp1851
g88
g89
ssg70
g1840
sg63
(lp1852
S':'
asbag56
(g77
g58
NtRp1853
(dp1854
g61
(dp1855
sg70
g1840
sg63
(lp1856
g56
(g57
g58
NtRp1857
(dp1858
g61
(dp1859
g69
I5
ssg70
g1853
sg63
(lp1860
S'new'
p1861
asbasbasbag56
(g72
g58
NtRp1862
(dp1863
g61
(dp1864
sg70
g66
sg63
(lp1865
g56
(g77
g58
NtRp1866
(dp1867
g61
(dp1868
g81
g82
ssg70
g1862
sg63
(lp1869
S'get_vars'
p1870
asbag56
(g77
g58
NtRp1871
(dp1872
g61
(dp1873
g88
g89
ssg70
g1862
sg63
(lp1874
S':'
asbag56
(g77
g58
NtRp1875
(dp1876
g61
(dp1877
sg70
g1862
sg63
(lp1878
g56
(g57
g58
NtRp1879
(dp1880
g61
(dp1881
g69
I5
ssg70
g1875
sg63
(lp1882
g56
(g65
g58
NtRp1883
(dp1884
g61
(dp1885
g69
I4
ssg70
Nsg63
(lp1886
sbasbasbasbag56
(g72
g58
NtRp1887
(dp1888
g61
(dp1889
sg70
g66
sg63
(lp1890
g56
(g77
g58
NtRp1891
(dp1892
g61
(dp1893
g81
g82
ssg70
g1887
sg63
(lp1894
S'global_settings'
p1895
asbag56
(g77
g58
NtRp1896
(dp1897
g61
(dp1898
g88
g89
ssg70
g1887
sg63
(lp1899
S':'
asbag56
(g77
g58
NtRp1900
(dp1901
g61
(dp1902
sg70
g1887
sg63
(lp1903
g56
(g57
g58
NtRp1904
(dp1905
g61
(dp1906
g69
I5
ssg70
g1900
sg63
(lp1907
g56
(g65
g58
NtRp1908
(dp1909
g61
(dp1910
g69
I4
ssg70
Nsg63
(lp1911
g56
(g72
g58
NtRp1912
(dp1913
g61
(dp1914
sg70
g1908
sg63
(lp1915
g56
(g77
g58
NtRp1916
(dp1917
g61
(dp1918
g81
g82
ssg70
g1912
sg63
(lp1919
g858
asbag56
(g77
g58
NtRp1920
(dp1921
g61
(dp1922
g88
g89
ssg70
g1912
sg63
(lp1923
S':'
asbag56
(g77
g58
NtRp1924
(dp1925
g61
(dp1926
sg70
g1912
sg63
(lp1927
g56
(g57
g58
NtRp1928
(dp1929
g61
(dp1930
g69
I4
ssg70
g1924
sg63
(lp1931
S"set(['/home/kaique/Projects/web2py/applications/synopsis/', '/home/kaique/Projects/web2py/applications/admin/'])"
p1932
asbasbasbag56
(g72
g58
NtRp1933
(dp1934
g61
(dp1935
sg70
g1908
sg63
(lp1936
g56
(g77
g58
NtRp1937
(dp1938
g61
(dp1939
g81
g82
ssg70
g1933
sg63
(lp1940
g880
asbag56
(g77
g58
NtRp1941
(dp1942
g61
(dp1943
g88
g89
ssg70
g1933
sg63
(lp1944
S':'
asbag56
(g77
g58
NtRp1945
(dp1946
g61
(dp1947
sg70
g1933
sg63
(lp1948
g56
(g57
g58
NtRp1949
(dp1950
g61
(dp1951
g69
I4
ssg70
g1945
sg63
(lp1952
g893
asbasbasbag56
(g72
g58
NtRp1953
(dp1954
g61
(dp1955
sg70
g1908
sg63
(lp1956
g56
(g77
g58
NtRp1957
(dp1958
g61
(dp1959
g81
g82
ssg70
g1953
sg63
(lp1960
g902
asbag56
(g77
g58
NtRp1961
(dp1962
g61
(dp1963
g88
g89
ssg70
g1953
sg63
(lp1964
S':'
asbag56
(g77
g58
NtRp1965
(dp1966
g61
(dp1967
sg70
g1953
sg63
(lp1968
g56
(g57
g58
NtRp1969
(dp1970
g61
(dp1971
g69
I4
ssg70
g1965
sg63
(lp1972
g56
(g65
g58
NtRp1973
(dp1974
g61
(dp1975
g69
I3
ssg70
Nsg63
(lp1976
sbasbasbasbag56
(g72
g58
NtRp1977
(dp1978
g61
(dp1979
sg70
g1908
sg63
(lp1980
g56
(g77
g58
NtRp1981
(dp1982
g61
(dp1983
g81
g82
ssg70
g1977
sg63
(lp1984
g927
asbag56
(g77
g58
NtRp1985
(dp1986
g61
(dp1987
g88
g89
ssg70
g1977
sg63
(lp1988
S':'
asbag56
(g77
g58
NtRp1989
(dp1990
g61
(dp1991
sg70
g1977
sg63
(lp1992
g56
(g57
g58
NtRp1993
(dp1994
g61
(dp1995
g69
I4
ssg70
g1989
sg63
(lp1996
S"<Values at 0x2d3b950: {'verbose': False, 'ip': '127.0.0.1', 'shutdown_timeout': 5, 'taskbar': False, 'nocron': False, 'pid_filename': 'httpserver.pid', 'maxthreads': None, 'softcron': False, 'server_name': 'kaique-Pine-Trail-M', 'bpython': False, 'nogui': False, 'port': 8000, 'extcron': False, 'debuglevel': 30, 'test': None, 'folder': '/home/kaique/Projects/web2py', 'config': '', 'import_models': False, 'winservice': '', 'shell': None, 'run': '', 'log_filename': 'httpserver.log', 'args': [''], 'ssl_ca_certificate': None, 'scheduler': None, 'profiler_filename': None, 'ssl_private_key': '', 'password': 'dev', 'request_queue_size': 5, 'ssl_certificate': '', 'cronjob': False, 'plain': False, 'quiet': False, 'interfaces': None, 'minthreads': None, 'timeout': 10, 'numthreads': None, 'nobanner': False}>"
p1997
asbasbasbag56
(g72
g58
NtRp1998
(dp1999
g61
(dp2000
sg70
g1908
sg63
(lp2001
g56
(g77
g58
NtRp2002
(dp2003
g61
(dp2004
g81
g82
ssg70
g1998
sg63
(lp2005
g949
asbag56
(g77
g58
NtRp2006
(dp2007
g61
(dp2008
g88
g89
ssg70
g1998
sg63
(lp2009
S':'
asbag56
(g77
g58
NtRp2010
(dp2011
g61
(dp2012
sg70
g1998
sg63
(lp2013
g56
(g57
g58
NtRp2014
(dp2015
g61
(dp2016
g69
I4
ssg70
g2010
sg63
(lp2017
S'set([])'
p2018
asbasbasbag56
(g72
g58
NtRp2019
(dp2020
g61
(dp2021
sg70
g1908
sg63
(lp2022
g56
(g77
g58
NtRp2023
(dp2024
g61
(dp2025
g81
g82
ssg70
g2019
sg63
(lp2026
g971
asbag56
(g77
g58
NtRp2027
(dp2028
g61
(dp2029
g88
g89
ssg70
g2019
sg63
(lp2030
S':'
asbag56
(g77
g58
NtRp2031
(dp2032
g61
(dp2033
sg70
g2019
sg63
(lp2034
g56
(g57
g58
NtRp2035
(dp2036
g61
(dp2037
g69
I4
ssg70
g2031
sg63
(lp2038
g99
asbasbasbag56
(g72
g58
NtRp2039
(dp2040
g61
(dp2041
sg70
g1908
sg63
(lp2042
g56
(g77
g58
NtRp2043
(dp2044
g61
(dp2045
g81
g82
ssg70
g2039
sg63
(lp2046
g992
asbag56
(g77
g58
NtRp2047
(dp2048
g61
(dp2049
g88
g89
ssg70
g2039
sg63
(lp2050
S':'
asbag56
(g77
g58
NtRp2051
(dp2052
g61
(dp2053
sg70
g2039
sg63
(lp2054
g56
(g57
g58
NtRp2055
(dp2056
g61
(dp2057
g69
I4
ssg70
g2051
sg63
(lp2058
g1005
asbasbasbag56
(g72
g58
NtRp2059
(dp2060
g61
(dp2061
sg70
g1908
sg63
(lp2062
g56
(g77
g58
NtRp2063
(dp2064
g61
(dp2065
g81
g82
ssg70
g2059
sg63
(lp2066
g1234
asbag56
(g77
g58
NtRp2067
(dp2068
g61
(dp2069
g88
g89
ssg70
g2059
sg63
(lp2070
S':'
asbag56
(g77
g58
NtRp2071
(dp2072
g61
(dp2073
sg70
g2059
sg63
(lp2074
g56
(g57
g58
NtRp2075
(dp2076
g61
(dp2077
g69
I4
ssg70
g2071
sg63
(lp2078
g99
asbasbasbag56
(g72
g58
NtRp2079
(dp2080
g61
(dp2081
sg70
g1908
sg63
(lp2082
g56
(g77
g58
NtRp2083
(dp2084
g61
(dp2085
g81
g82
ssg70
g2079
sg63
(lp2086
g1472
asbag56
(g77
g58
NtRp2087
(dp2088
g61
(dp2089
g88
g89
ssg70
g2079
sg63
(lp2090
S':'
asbag56
(g77
g58
NtRp2091
(dp2092
g61
(dp2093
sg70
g2079
sg63
(lp2094
g56
(g57
g58
NtRp2095
(dp2096
g61
(dp2097
g69
I4
ssg70
g2091
sg63
(lp2098
g1485
asbasbasbag56
(g72
g58
NtRp2099
(dp2100
g61
(dp2101
sg70
g1908
sg63
(lp2102
g56
(g77
g58
NtRp2103
(dp2104
g61
(dp2105
g81
g82
ssg70
g2099
sg63
(lp2106
g1515
asbag56
(g77
g58
NtRp2107
(dp2108
g61
(dp2109
g88
g89
ssg70
g2099
sg63
(lp2110
S':'
asbag56
(g77
g58
NtRp2111
(dp2112
g61
(dp2113
sg70
g2099
sg63
(lp2114
g56
(g57
g58
NtRp2115
(dp2116
g61
(dp2117
g69
I4
ssg70
g2111
sg63
(lp2118
g56
(g65
g58
NtRp2119
(dp2120
g61
(dp2121
g69
I3
ssg70
Nsg63
(lp2122
g56
(g72
g58
NtRp2123
(dp2124
g61
(dp2125
sg70
g2119
sg63
(lp2126
g56
(g77
g58
NtRp2127
(dp2128
g61
(dp2129
sg70
g2123
sg63
(lp2130
g56
(g57
g58
NtRp2131
(dp2132
g61
(dp2133
g69
I3
ssg70
g2127
sg63
(lp2134
S'1'
asbasbasbag56
(g72
g58
NtRp2135
(dp2136
g61
(dp2137
sg70
g2119
sg63
(lp2138
g56
(g77
g58
NtRp2139
(dp2140
g61
(dp2141
sg70
g2135
sg63
(lp2142
g56
(g57
g58
NtRp2143
(dp2144
g61
(dp2145
g69
I3
ssg70
g2139
sg63
(lp2146
S'99'
p2147
asbasbasbag56
(g72
g58
NtRp2148
(dp2149
g61
(dp2150
sg70
g2119
sg63
(lp2151
g56
(g77
g58
NtRp2152
(dp2153
g61
(dp2154
sg70
g2148
sg63
(lp2155
g56
(g57
g58
NtRp2156
(dp2157
g61
(dp2158
g69
I3
ssg70
g2152
sg63
(lp2159
S'2'
asbasbasbag56
(g72
g58
NtRp2160
(dp2161
g61
(dp2162
sg70
g2119
sg63
(lp2163
g56
(g77
g58
NtRp2164
(dp2165
g61
(dp2166
sg70
g2160
sg63
(lp2167
g56
(g57
g58
NtRp2168
(dp2169
g61
(dp2170
g69
I3
ssg70
g2164
sg63
(lp2171
S'datetime.datetime(2011, 9, 26, 6, 55, 33)'
p2172
asbasbasbag56
(g72
g58
NtRp2173
(dp2174
g61
(dp2175
sg70
g2119
sg63
(lp2176
g56
(g77
g58
NtRp2177
(dp2178
g61
(dp2179
sg70
g2173
sg63
(lp2180
g56
(g57
g58
NtRp2181
(dp2182
g61
(dp2183
g69
I3
ssg70
g2177
sg63
(lp2184
g1594
asbasbasbasbasbasbasbasbasbasbasbag56
(g72
g58
NtRp2185
(dp2186
g61
(dp2187
sg70
g66
sg63
(lp2188
g56
(g77
g58
NtRp2189
(dp2190
g61
(dp2191
g81
g82
ssg70
g2185
sg63
(lp2192
S'is_https'
p2193
asbag56
(g77
g58
NtRp2194
(dp2195
g61
(dp2196
g88
g89
ssg70
g2185
sg63
(lp2197
S':'
asbag56
(g77
g58
NtRp2198
(dp2199
g61
(dp2200
sg70
g2185
sg63
(lp2201
g56
(g57
g58
NtRp2202
(dp2203
g61
(dp2204
g69
I5
ssg70
g2198
sg63
(lp2205
g99
asbasbasbag56
(g72
g58
NtRp2206
(dp2207
g61
(dp2208
sg70
g66
sg63
(lp2209
g56
(g77
g58
NtRp2210
(dp2211
g61
(dp2212
g81
g82
ssg70
g2206
sg63
(lp2213
S'is_local'
p2214
asbag56
(g77
g58
NtRp2215
(dp2216
g61
(dp2217
g88
g89
ssg70
g2206
sg63
(lp2218
S':'
asbag56
(g77
g58
NtRp2219
(dp2220
g61
(dp2221
sg70
g2206
sg63
(lp2222
g56
(g57
g58
NtRp2223
(dp2224
g61
(dp2225
g69
I5
ssg70
g2219
sg63
(lp2226
g1703
asbasbasbag56
(g72
g58
NtRp2227
(dp2228
g61
(dp2229
sg70
g66
sg63
(lp2230
g56
(g77
g58
NtRp2231
(dp2232
g61
(dp2233
g81
g82
ssg70
g2227
sg63
(lp2234
S'is_restful'
p2235
asbag56
(g77
g58
NtRp2236
(dp2237
g61
(dp2238
g88
g89
ssg70
g2227
sg63
(lp2239
S':'
asbag56
(g77
g58
NtRp2240
(dp2241
g61
(dp2242
sg70
g2227
sg63
(lp2243
g56
(g57
g58
NtRp2244
(dp2245
g61
(dp2246
g69
I5
ssg70
g2240
sg63
(lp2247
g99
asbasbasbag56
(g72
g58
NtRp2248
(dp2249
g61
(dp2250
sg70
g66
sg63
(lp2251
g56
(g77
g58
NtRp2252
(dp2253
g61
(dp2254
g81
g82
ssg70
g2248
sg63
(lp2255
S'now'
p2256
asbag56
(g77
g58
NtRp2257
(dp2258
g61
(dp2259
g88
g89
ssg70
g2248
sg63
(lp2260
S':'
asbag56
(g77
g58
NtRp2261
(dp2262
g61
(dp2263
sg70
g2248
sg63
(lp2264
g56
(g57
g58
NtRp2265
(dp2266
g61
(dp2267
g69
I5
ssg70
g2261
sg63
(lp2268
S'datetime.datetime(2012, 1, 12, 13, 6, 17, 862331)'
p2269
asbasbasbag56
(g72
g58
NtRp2270
(dp2271
g61
(dp2272
sg70
g66
sg63
(lp2273
g56
(g77
g58
NtRp2274
(dp2275
g61
(dp2276
g81
g82
ssg70
g2270
sg63
(lp2277
S'post_vars'
p2278
asbag56
(g77
g58
NtRp2279
(dp2280
g61
(dp2281
g88
g89
ssg70
g2270
sg63
(lp2282
S':'
asbag56
(g77
g58
NtRp2283
(dp2284
g61
(dp2285
sg70
g2270
sg63
(lp2286
g56
(g57
g58
NtRp2287
(dp2288
g61
(dp2289
g69
I5
ssg70
g2283
sg63
(lp2290
g56
(g65
g58
NtRp2291
(dp2292
g61
(dp2293
g69
I4
ssg70
Nsg63
(lp2294
sbasbasbasbag56
(g72
g58
NtRp2295
(dp2296
g61
(dp2297
sg70
g66
sg63
(lp2298
g56
(g77
g58
NtRp2299
(dp2300
g61
(dp2301
g81
g82
ssg70
g2295
sg63
(lp2302
S'raw_args'
p2303
asbag56
(g77
g58
NtRp2304
(dp2305
g61
(dp2306
g88
g89
ssg70
g2295
sg63
(lp2307
S':'
asbag56
(g77
g58
NtRp2308
(dp2309
g61
(dp2310
sg70
g2295
sg63
(lp2311
g56
(g57
g58
NtRp2312
(dp2313
g61
(dp2314
g69
I5
ssg70
g2308
sg63
(lp2315
S'publication/2'
p2316
asbasbasbag56
(g72
g58
NtRp2317
(dp2318
g61
(dp2319
sg70
g66
sg63
(lp2320
g56
(g77
g58
NtRp2321
(dp2322
g61
(dp2323
g81
g82
ssg70
g2317
sg63
(lp2324
S'url'
p2325
asbag56
(g77
g58
NtRp2326
(dp2327
g61
(dp2328
g88
g89
ssg70
g2317
sg63
(lp2329
S':'
asbag56
(g77
g58
NtRp2330
(dp2331
g61
(dp2332
sg70
g2317
sg63
(lp2333
g56
(g57
g58
NtRp2334
(dp2335
g61
(dp2336
g69
I5
ssg70
g2330
sg63
(lp2337
S'/synopsis/information/new/publication/2'
p2338
asbasbasbag56
(g72
g58
NtRp2339
(dp2340
g61
(dp2341
sg70
g66
sg63
(lp2342
g56
(g77
g58
NtRp2343
(dp2344
g61
(dp2345
g81
g82
ssg70
g2339
sg63
(lp2346
S'utcnow'
p2347
asbag56
(g77
g58
NtRp2348
(dp2349
g61
(dp2350
g88
g89
ssg70
g2339
sg63
(lp2351
S':'
asbag56
(g77
g58
NtRp2352
(dp2353
g61
(dp2354
sg70
g2339
sg63
(lp2355
g56
(g57
g58
NtRp2356
(dp2357
g61
(dp2358
g69
I5
ssg70
g2352
sg63
(lp2359
S'datetime.datetime(2012, 1, 12, 15, 6, 17, 862410)'
p2360
asbasbasbag56
(g72
g58
NtRp2361
(dp2362
g61
(dp2363
sg70
g66
sg63
(lp2364
g56
(g77
g58
NtRp2365
(dp2366
g61
(dp2367
g81
g82
ssg70
g2361
sg63
(lp2368
S'uuid'
p2369
asbag56
(g77
g58
NtRp2370
(dp2371
g61
(dp2372
g88
g89
ssg70
g2361
sg63
(lp2373
S':'
asbag56
(g77
g58
NtRp2374
(dp2375
g61
(dp2376
sg70
g2361
sg63
(lp2377
g56
(g57
g58
NtRp2378
(dp2379
g61
(dp2380
g69
I5
ssg70
g2374
sg63
(lp2381
S'synopsis/127.0.0.1.2012-01-12.13-06-17.6e03ef26-9662-4d1b-983e-f758f5b15f2c'
p2382
asbasbasbag56
(g72
g58
NtRp2383
(dp2384
g61
(dp2385
sg70
g66
sg63
(lp2386
g56
(g77
g58
NtRp2387
(dp2388
g61
(dp2389
g81
g82
ssg70
g2383
sg63
(lp2390
S'vars'
p2391
asbag56
(g77
g58
NtRp2392
(dp2393
g61
(dp2394
g88
g89
ssg70
g2383
sg63
(lp2395
S':'
asbag56
(g77
g58
NtRp2396
(dp2397
g61
(dp2398
sg70
g2383
sg63
(lp2399
g56
(g57
g58
NtRp2400
(dp2401
g61
(dp2402
g69
I5
ssg70
g2396
sg63
(lp2403
g56
(g65
g58
NtRp2404
(dp2405
g61
(dp2406
g69
I4
ssg70
Nsg63
(lp2407
sbasbasbasbag56
(g72
g58
NtRp2408
(dp2409
g61
(dp2410
sg70
g66
sg63
(lp2411
g56
(g77
g58
NtRp2412
(dp2413
g61
(dp2414
g81
g82
ssg70
g2408
sg63
(lp2415
S'wsgi'
p2416
asbag56
(g77
g58
NtRp2417
(dp2418
g61
(dp2419
g88
g89
ssg70
g2408
sg63
(lp2420
S':'
asbag56
(g77
g58
NtRp2421
(dp2422
g61
(dp2423
sg70
g2408
sg63
(lp2424
g56
(g57
g58
NtRp2425
(dp2426
g61
(dp2427
g69
I5
ssg70
g2421
sg63
(lp2428
g56
(g65
g58
NtRp2429
(dp2430
g61
(dp2431
g69
I4
ssg70
Nsg63
(lp2432
g56
(g72
g58
NtRp2433
(dp2434
g61
(dp2435
sg70
g2429
sg63
(lp2436
g56
(g77
g58
NtRp2437
(dp2438
g61
(dp2439
g81
g82
ssg70
g2433
sg63
(lp2440
S'environ'
p2441
asbag56
(g77
g58
NtRp2442
(dp2443
g61
(dp2444
g88
g89
ssg70
g2433
sg63
(lp2445
S':'
asbag56
(g77
g58
NtRp2446
(dp2447
g61
(dp2448
sg70
g2433
sg63
(lp2449
g56
(g57
g58
NtRp2450
(dp2451
g61
(dp2452
g69
I4
ssg70
g2446
sg63
(lp2453
g56
(g65
g58
NtRp2454
(dp2455
g61
(dp2456
g69
I3
ssg70
Nsg63
(lp2457
g56
(g72
g58
NtRp2458
(dp2459
g61
(dp2460
sg70
g2454
sg63
(lp2461
g56
(g77
g58
NtRp2462
(dp2463
g61
(dp2464
g81
g82
ssg70
g2458
sg63
(lp2465
S'HTTP_ACCEPT'
p2466
asbag56
(g77
g58
NtRp2467
(dp2468
g61
(dp2469
g88
g89
ssg70
g2458
sg63
(lp2470
S':'
asbag56
(g77
g58
NtRp2471
(dp2472
g61
(dp2473
sg70
g2458
sg63
(lp2474
g56
(g57
g58
NtRp2475
(dp2476
g61
(dp2477
g69
I3
ssg70
g2471
sg63
(lp2478
g1027
asbasbasbag56
(g72
g58
NtRp2479
(dp2480
g61
(dp2481
sg70
g2454
sg63
(lp2482
g56
(g77
g58
NtRp2483
(dp2484
g61
(dp2485
g81
g82
ssg70
g2479
sg63
(lp2486
S'HTTP_ACCEPT_CHARSET'
p2487
asbag56
(g77
g58
NtRp2488
(dp2489
g61
(dp2490
g88
g89
ssg70
g2479
sg63
(lp2491
S':'
asbag56
(g77
g58
NtRp2492
(dp2493
g61
(dp2494
sg70
g2479
sg63
(lp2495
g56
(g57
g58
NtRp2496
(dp2497
g61
(dp2498
g69
I3
ssg70
g2492
sg63
(lp2499
g1049
asbasbasbag56
(g72
g58
NtRp2500
(dp2501
g61
(dp2502
sg70
g2454
sg63
(lp2503
g56
(g77
g58
NtRp2504
(dp2505
g61
(dp2506
g81
g82
ssg70
g2500
sg63
(lp2507
S'HTTP_ACCEPT_ENCODING'
p2508
asbag56
(g77
g58
NtRp2509
(dp2510
g61
(dp2511
g88
g89
ssg70
g2500
sg63
(lp2512
S':'
asbag56
(g77
g58
NtRp2513
(dp2514
g61
(dp2515
sg70
g2500
sg63
(lp2516
g56
(g57
g58
NtRp2517
(dp2518
g61
(dp2519
g69
I3
ssg70
g2513
sg63
(lp2520
g1071
asbasbasbag56
(g72
g58
NtRp2521
(dp2522
g61
(dp2523
sg70
g2454
sg63
(lp2524
g56
(g77
g58
NtRp2525
(dp2526
g61
(dp2527
g81
g82
ssg70
g2521
sg63
(lp2528
S'HTTP_ACCEPT_LANGUAGE'
p2529
asbag56
(g77
g58
NtRp2530
(dp2531
g61
(dp2532
g88
g89
ssg70
g2521
sg63
(lp2533
S':'
asbag56
(g77
g58
NtRp2534
(dp2535
g61
(dp2536
sg70
g2521
sg63
(lp2537
g56
(g57
g58
NtRp2538
(dp2539
g61
(dp2540
g69
I3
ssg70
g2534
sg63
(lp2541
g1093
asbasbasbag56
(g72
g58
NtRp2542
(dp2543
g61
(dp2544
sg70
g2454
sg63
(lp2545
g56
(g77
g58
NtRp2546
(dp2547
g61
(dp2548
g81
g82
ssg70
g2542
sg63
(lp2549
S'HTTP_CACHE_CONTROL'
p2550
asbag56
(g77
g58
NtRp2551
(dp2552
g61
(dp2553
g88
g89
ssg70
g2542
sg63
(lp2554
S':'
asbag56
(g77
g58
NtRp2555
(dp2556
g61
(dp2557
sg70
g2542
sg63
(lp2558
g56
(g57
g58
NtRp2559
(dp2560
g61
(dp2561
g69
I3
ssg70
g2555
sg63
(lp2562
g1115
asbasbasbag56
(g72
g58
NtRp2563
(dp2564
g61
(dp2565
sg70
g2454
sg63
(lp2566
g56
(g77
g58
NtRp2567
(dp2568
g61
(dp2569
g81
g82
ssg70
g2563
sg63
(lp2570
S'HTTP_CONNECTION'
p2571
asbag56
(g77
g58
NtRp2572
(dp2573
g61
(dp2574
g88
g89
ssg70
g2563
sg63
(lp2575
S':'
asbag56
(g77
g58
NtRp2576
(dp2577
g61
(dp2578
sg70
g2563
sg63
(lp2579
g56
(g57
g58
NtRp2580
(dp2581
g61
(dp2582
g69
I3
ssg70
g2576
sg63
(lp2583
g1137
asbasbasbag56
(g72
g58
NtRp2584
(dp2585
g61
(dp2586
sg70
g2454
sg63
(lp2587
g56
(g77
g58
NtRp2588
(dp2589
g61
(dp2590
g81
g82
ssg70
g2584
sg63
(lp2591
S'HTTP_COOKIE'
p2592
asbag56
(g77
g58
NtRp2593
(dp2594
g61
(dp2595
g88
g89
ssg70
g2584
sg63
(lp2596
S':'
asbag56
(g77
g58
NtRp2597
(dp2598
g61
(dp2599
sg70
g2584
sg63
(lp2600
g56
(g57
g58
NtRp2601
(dp2602
g61
(dp2603
g69
I3
ssg70
g2597
sg63
(lp2604
g1159
asbasbasbag56
(g72
g58
NtRp2605
(dp2606
g61
(dp2607
sg70
g2454
sg63
(lp2608
g56
(g77
g58
NtRp2609
(dp2610
g61
(dp2611
g81
g82
ssg70
g2605
sg63
(lp2612
S'HTTP_HOST'
p2613
asbag56
(g77
g58
NtRp2614
(dp2615
g61
(dp2616
g88
g89
ssg70
g2605
sg63
(lp2617
S':'
asbag56
(g77
g58
NtRp2618
(dp2619
g61
(dp2620
sg70
g2605
sg63
(lp2621
g56
(g57
g58
NtRp2622
(dp2623
g61
(dp2624
g69
I3
ssg70
g2618
sg63
(lp2625
g1181
asbasbasbag56
(g72
g58
NtRp2626
(dp2627
g61
(dp2628
sg70
g2454
sg63
(lp2629
g56
(g77
g58
NtRp2630
(dp2631
g61
(dp2632
g81
g82
ssg70
g2626
sg63
(lp2633
S'HTTP_REFERER'
p2634
asbag56
(g77
g58
NtRp2635
(dp2636
g61
(dp2637
g88
g89
ssg70
g2626
sg63
(lp2638
S':'
asbag56
(g77
g58
NtRp2639
(dp2640
g61
(dp2641
sg70
g2626
sg63
(lp2642
g56
(g57
g58
NtRp2643
(dp2644
g61
(dp2645
g69
I3
ssg70
g2639
sg63
(lp2646
g1203
asbasbasbag56
(g72
g58
NtRp2647
(dp2648
g61
(dp2649
sg70
g2454
sg63
(lp2650
g56
(g77
g58
NtRp2651
(dp2652
g61
(dp2653
g81
g82
ssg70
g2647
sg63
(lp2654
S'HTTP_USER_AGENT'
p2655
asbag56
(g77
g58
NtRp2656
(dp2657
g61
(dp2658
g88
g89
ssg70
g2647
sg63
(lp2659
S':'
asbag56
(g77
g58
NtRp2660
(dp2661
g61
(dp2662
sg70
g2647
sg63
(lp2663
g56
(g57
g58
NtRp2664
(dp2665
g61
(dp2666
g69
I3
ssg70
g2660
sg63
(lp2667
g1225
asbasbasbag56
(g72
g58
NtRp2668
(dp2669
g61
(dp2670
sg70
g2454
sg63
(lp2671
g56
(g77
g58
NtRp2672
(dp2673
g61
(dp2674
g81
g82
ssg70
g2668
sg63
(lp2675
S'PATH_INFO'
p2676
asbag56
(g77
g58
NtRp2677
(dp2678
g61
(dp2679
g88
g89
ssg70
g2668
sg63
(lp2680
S':'
asbag56
(g77
g58
NtRp2681
(dp2682
g61
(dp2683
sg70
g2668
sg63
(lp2684
g56
(g57
g58
NtRp2685
(dp2686
g61
(dp2687
g69
I3
ssg70
g2681
sg63
(lp2688
g1268
asbasbasbag56
(g72
g58
NtRp2689
(dp2690
g61
(dp2691
sg70
g2454
sg63
(lp2692
g56
(g77
g58
NtRp2693
(dp2694
g61
(dp2695
g81
g82
ssg70
g2689
sg63
(lp2696
S'QUERY_STRING'
p2697
asbag56
(g77
g58
NtRp2698
(dp2699
g61
(dp2700
g88
g89
ssg70
g2689
sg63
(lp2701
S':'
asbag56
(g77
g58
NtRp2702
(dp2703
g61
(dp2704
sg70
g2689
sg63
(lp2705
g56
(g57
g58
NtRp2706
(dp2707
g61
(dp2708
g69
I3
ssg70
g2702
sg63
(lp2709
S''
asbasbasbag56
(g72
g58
NtRp2710
(dp2711
g61
(dp2712
sg70
g2454
sg63
(lp2713
g56
(g77
g58
NtRp2714
(dp2715
g61
(dp2716
g81
g82
ssg70
g2710
sg63
(lp2717
S'REMOTE_ADDR'
p2718
asbag56
(g77
g58
NtRp2719
(dp2720
g61
(dp2721
g88
g89
ssg70
g2710
sg63
(lp2722
S':'
asbag56
(g77
g58
NtRp2723
(dp2724
g61
(dp2725
sg70
g2710
sg63
(lp2726
g56
(g57
g58
NtRp2727
(dp2728
g61
(dp2729
g69
I3
ssg70
g2723
sg63
(lp2730
g214
asbasbasbag56
(g72
g58
NtRp2731
(dp2732
g61
(dp2733
sg70
g2454
sg63
(lp2734
g56
(g77
g58
NtRp2735
(dp2736
g61
(dp2737
g81
g82
ssg70
g2731
sg63
(lp2738
S'REMOTE_PORT'
p2739
asbag56
(g77
g58
NtRp2740
(dp2741
g61
(dp2742
g88
g89
ssg70
g2731
sg63
(lp2743
S':'
asbag56
(g77
g58
NtRp2744
(dp2745
g61
(dp2746
sg70
g2731
sg63
(lp2747
g56
(g57
g58
NtRp2748
(dp2749
g61
(dp2750
g69
I3
ssg70
g2744
sg63
(lp2751
g1332
asbasbasbag56
(g72
g58
NtRp2752
(dp2753
g61
(dp2754
sg70
g2454
sg63
(lp2755
g56
(g77
g58
NtRp2756
(dp2757
g61
(dp2758
g81
g82
ssg70
g2752
sg63
(lp2759
S'REQUEST_METHOD'
p2760
asbag56
(g77
g58
NtRp2761
(dp2762
g61
(dp2763
g88
g89
ssg70
g2752
sg63
(lp2764
S':'
asbag56
(g77
g58
NtRp2765
(dp2766
g61
(dp2767
sg70
g2752
sg63
(lp2768
g56
(g57
g58
NtRp2769
(dp2770
g61
(dp2771
g69
I3
ssg70
g2765
sg63
(lp2772
g1354
asbasbasbag56
(g72
g58
NtRp2773
(dp2774
g61
(dp2775
sg70
g2454
sg63
(lp2776
g56
(g77
g58
NtRp2777
(dp2778
g61
(dp2779
g81
g82
ssg70
g2773
sg63
(lp2780
S'SCRIPT_NAME'
p2781
asbag56
(g77
g58
NtRp2782
(dp2783
g61
(dp2784
g88
g89
ssg70
g2773
sg63
(lp2785
S':'
asbag56
(g77
g58
NtRp2786
(dp2787
g61
(dp2788
sg70
g2773
sg63
(lp2789
g56
(g57
g58
NtRp2790
(dp2791
g61
(dp2792
g69
I3
ssg70
g2786
sg63
(lp2793
S''
asbasbasbag56
(g72
g58
NtRp2794
(dp2795
g61
(dp2796
sg70
g2454
sg63
(lp2797
g56
(g77
g58
NtRp2798
(dp2799
g61
(dp2800
g81
g82
ssg70
g2794
sg63
(lp2801
S'SERVER_NAME'
p2802
asbag56
(g77
g58
NtRp2803
(dp2804
g61
(dp2805
g88
g89
ssg70
g2794
sg63
(lp2806
S':'
asbag56
(g77
g58
NtRp2807
(dp2808
g61
(dp2809
sg70
g2794
sg63
(lp2810
g56
(g57
g58
NtRp2811
(dp2812
g61
(dp2813
g69
I3
ssg70
g2807
sg63
(lp2814
g1397
asbasbasbag56
(g72
g58
NtRp2815
(dp2816
g61
(dp2817
sg70
g2454
sg63
(lp2818
g56
(g77
g58
NtRp2819
(dp2820
g61
(dp2821
g81
g82
ssg70
g2815
sg63
(lp2822
S'SERVER_PORT'
p2823
asbag56
(g77
g58
NtRp2824
(dp2825
g61
(dp2826
g88
g89
ssg70
g2815
sg63
(lp2827
S':'
asbag56
(g77
g58
NtRp2828
(dp2829
g61
(dp2830
sg70
g2815
sg63
(lp2831
g56
(g57
g58
NtRp2832
(dp2833
g61
(dp2834
g69
I3
ssg70
g2828
sg63
(lp2835
g1419
asbasbasbag56
(g72
g58
NtRp2836
(dp2837
g61
(dp2838
sg70
g2454
sg63
(lp2839
g56
(g77
g58
NtRp2840
(dp2841
g61
(dp2842
g81
g82
ssg70
g2836
sg63
(lp2843
S'SERVER_PROTOCOL'
p2844
asbag56
(g77
g58
NtRp2845
(dp2846
g61
(dp2847
g88
g89
ssg70
g2836
sg63
(lp2848
S':'
asbag56
(g77
g58
NtRp2849
(dp2850
g61
(dp2851
sg70
g2836
sg63
(lp2852
g56
(g57
g58
NtRp2853
(dp2854
g61
(dp2855
g69
I3
ssg70
g2849
sg63
(lp2856
g1441
asbasbasbag56
(g72
g58
NtRp2857
(dp2858
g61
(dp2859
sg70
g2454
sg63
(lp2860
g56
(g77
g58
NtRp2861
(dp2862
g61
(dp2863
g81
g82
ssg70
g2857
sg63
(lp2864
S'SERVER_SOFTWARE'
p2865
asbag56
(g77
g58
NtRp2866
(dp2867
g61
(dp2868
g88
g89
ssg70
g2857
sg63
(lp2869
S':'
asbag56
(g77
g58
NtRp2870
(dp2871
g61
(dp2872
sg70
g2857
sg63
(lp2873
g56
(g57
g58
NtRp2874
(dp2875
g61
(dp2876
g69
I3
ssg70
g2870
sg63
(lp2877
g1463
asbasbasbag56
(g72
g58
NtRp2878
(dp2879
g61
(dp2880
sg70
g2454
sg63
(lp2881
g56
(g77
g58
NtRp2882
(dp2883
g61
(dp2884
g81
g82
ssg70
g2878
sg63
(lp2885
S'wsgi.errors'
p2886
asbag56
(g77
g58
NtRp2887
(dp2888
g61
(dp2889
g88
g89
ssg70
g2878
sg63
(lp2890
S':'
asbag56
(g77
g58
NtRp2891
(dp2892
g61
(dp2893
sg70
g2878
sg63
(lp2894
g56
(g57
g58
NtRp2895
(dp2896
g61
(dp2897
g69
I3
ssg70
g2891
sg63
(lp2898
S"<open file '<stderr>', mode 'w' at 0x7f2b12e1a270>"
p2899
asbasbasbag56
(g72
g58
NtRp2900
(dp2901
g61
(dp2902
sg70
g2454
sg63
(lp2903
g56
(g77
g58
NtRp2904
(dp2905
g61
(dp2906
g81
g82
ssg70
g2900
sg63
(lp2907
S'wsgi.file_wrapper'
p2908
asbag56
(g77
g58
NtRp2909
(dp2910
g61
(dp2911
g88
g89
ssg70
g2900
sg63
(lp2912
S':'
asbag56
(g77
g58
NtRp2913
(dp2914
g61
(dp2915
sg70
g2900
sg63
(lp2916
g56
(g57
g58
NtRp2917
(dp2918
g61
(dp2919
g69
I3
ssg70
g2913
sg63
(lp2920
S'<class wsgiref.util.FileWrapper at 0x2bf2ef0>'
p2921
asbasbasbag56
(g72
g58
NtRp2922
(dp2923
g61
(dp2924
sg70
g2454
sg63
(lp2925
g56
(g77
g58
NtRp2926
(dp2927
g61
(dp2928
g81
g82
ssg70
g2922
sg63
(lp2929
S'wsgi.input'
p2930
asbag56
(g77
g58
NtRp2931
(dp2932
g61
(dp2933
g88
g89
ssg70
g2922
sg63
(lp2934
S':'
asbag56
(g77
g58
NtRp2935
(dp2936
g61
(dp2937
sg70
g2922
sg63
(lp2938
g56
(g57
g58
NtRp2939
(dp2940
g61
(dp2941
g69
I3
ssg70
g2935
sg63
(lp2942
S'<cStringIO.StringO object at 0x32908f0>'
p2943
asbasbasbag56
(g72
g58
NtRp2944
(dp2945
g61
(dp2946
sg70
g2454
sg63
(lp2947
g56
(g77
g58
NtRp2948
(dp2949
g61
(dp2950
g81
g82
ssg70
g2944
sg63
(lp2951
S'wsgi.multiprocess'
p2952
asbag56
(g77
g58
NtRp2953
(dp2954
g61
(dp2955
g88
g89
ssg70
g2944
sg63
(lp2956
S':'
asbag56
(g77
g58
NtRp2957
(dp2958
g61
(dp2959
sg70
g2944
sg63
(lp2960
g56
(g57
g58
NtRp2961
(dp2962
g61
(dp2963
g69
I3
ssg70
g2957
sg63
(lp2964
g99
asbasbasbag56
(g72
g58
NtRp2965
(dp2966
g61
(dp2967
sg70
g2454
sg63
(lp2968
g56
(g77
g58
NtRp2969
(dp2970
g61
(dp2971
g81
g82
ssg70
g2965
sg63
(lp2972
S'wsgi.multithread'
p2973
asbag56
(g77
g58
NtRp2974
(dp2975
g61
(dp2976
g88
g89
ssg70
g2965
sg63
(lp2977
S':'
asbag56
(g77
g58
NtRp2978
(dp2979
g61
(dp2980
sg70
g2965
sg63
(lp2981
g56
(g57
g58
NtRp2982
(dp2983
g61
(dp2984
g69
I3
ssg70
g2978
sg63
(lp2985
g1703
asbasbasbag56
(g72
g58
NtRp2986
(dp2987
g61
(dp2988
sg70
g2454
sg63
(lp2989
g56
(g77
g58
NtRp2990
(dp2991
g61
(dp2992
g81
g82
ssg70
g2986
sg63
(lp2993
S'wsgi.run_once'
p2994
asbag56
(g77
g58
NtRp2995
(dp2996
g61
(dp2997
g88
g89
ssg70
g2986
sg63
(lp2998
S':'
asbag56
(g77
g58
NtRp2999
(dp3000
g61
(dp3001
sg70
g2986
sg63
(lp3002
g56
(g57
g58
NtRp3003
(dp3004
g61
(dp3005
g69
I3
ssg70
g2999
sg63
(lp3006
g99
asbasbasbag56
(g72
g58
NtRp3007
(dp3008
g61
(dp3009
sg70
g2454
sg63
(lp3010
g56
(g77
g58
NtRp3011
(dp3012
g61
(dp3013
g81
g82
ssg70
g3007
sg63
(lp3014
S'wsgi.url_scheme'
p3015
asbag56
(g77
g58
NtRp3016
(dp3017
g61
(dp3018
g88
g89
ssg70
g3007
sg63
(lp3019
S':'
asbag56
(g77
g58
NtRp3020
(dp3021
g61
(dp3022
sg70
g3007
sg63
(lp3023
g56
(g57
g58
NtRp3024
(dp3025
g61
(dp3026
g69
I3
ssg70
g3020
sg63
(lp3027
g1746
asbasbasbag56
(g72
g58
NtRp3028
(dp3029
g61
(dp3030
sg70
g2454
sg63
(lp3031
g56
(g77
g58
NtRp3032
(dp3033
g61
(dp3034
g81
g82
ssg70
g3028
sg63
(lp3035
S'wsgi.version'
p3036
asbag56
(g77
g58
NtRp3037
(dp3038
g61
(dp3039
g88
g89
ssg70
g3028
sg63
(lp3040
S':'
asbag56
(g77
g58
NtRp3041
(dp3042
g61
(dp3043
sg70
g3028
sg63
(lp3044
g56
(g57
g58
NtRp3045
(dp3046
g61
(dp3047
g69
I3
ssg70
g3041
sg63
(lp3048
S'1'
asbasbasbasbasbasbasbasbasbasbasbasbasbsS'frames'
p3049
(lp3050
(dp3051
S'file'
p3052
S'/home/kaique/Projects/web2py/gluon/restricted.py'
p3053
sS'dump'
p3054
(dp3055
S'environment'
p3056
S"{'A': <class 'gluon.html.A'>, 'Auth': <class 'gluon.tools.Auth'>, 'B': <class 'gluon.html.B'>, 'BEAUTIFY': <class 'gluon.html.BEAUTIFY'>, 'BODY': <class 'gluon.html.BODY'>, 'BR': <class 'gluon.html.BR'>, 'BUTTON': <class 'gluon.html.BUTTON'>, 'CAT': <class 'gluon.html.CAT'>, 'CENTER': <class 'gluon.html.CENTER'>, 'CLEANUP': <class 'gluon.validators.CLEANUP'>, ...}"
p3057
sS'ccode'
p3058
S'<code object <module> at 0x30bff30, file "/home/...ons/synopsis/views/information/new.html", line 1>'
p3059
ssS'lnum'
p3060
I194
sS'lines'
p3061
(dp3062
I192
S'        else:'
p3063
sI193
S'            ccode = compile2(code,layer)'
p3064
sI194
S'        exec ccode in environment'
p3065
sI195
S'    except HTTP:'
p3066
sI196
S'        raise'
p3067
sI197
S'    except Exception, error:'
p3068
sI198
S'        # XXX Show exception in Wing IDE if running in debugger'
p3069
sI189
S'    try:'
p3070
sI190
S'        if type(code) == types.CodeType:'
p3071
sI191
S'            ccode = code'
p3072
ssS'call'
p3073
S'(code=\'response.write(\\\'<!DOCTYPE html>\\\\n<html lang="\\\', ...nse.write(\\\'\\\\n  </body>\\\\n</html>\\\\n\\\', escape=False)\', environment={\'A\': <class \'gluon.html.A\'>, \'Auth\': <class \'gluon.tools.Auth\'>, \'B\': <class \'gluon.html.B\'>, \'BEAUTIFY\': <class \'gluon.html.BEAUTIFY\'>, \'BODY\': <class \'gluon.html.BODY\'>, \'BR\': <class \'gluon.html.BR\'>, \'BUTTON\': <class \'gluon.html.BUTTON\'>, \'CAT\': <class \'gluon.html.CAT\'>, \'CENTER\': <class \'gluon.html.CENTER\'>, \'CLEANUP\': <class \'gluon.validators.CLEANUP\'>, ...}, layer=\'/home/kaique/Projects/web2py/applications/synopsis/views/information/new.html\')'
p3074
sS'func'
p3075
S'restricted'
p3076
sa(dp3077
g3052
S'/home/kaique/Projects/web2py/applications/synopsis/views/information/new.html'
p3078
sg3054
(dp3079
sg3060
I84
sg3061
(dp3080
I75
S"    response.write('Content Left Sidebar', escape=False)"
p3081
sI76
S"    response.write('       \\n            </div>\\n          </div><!-- left_sidebar -->\\n      ', escape=False)"
p3082
sI77
S'    pass'
p3083
sI78
S'response.write(\'\\n\\n      <!-- content -->\\n      <div id="content" \', escape=False)'
p3084
sI79
S'response.write(XML(style_content))'
p3085
sI80
S"response.write(' >\\n        ', escape=False)"
p3086
sI81
S'response.write(\'\\n\\n<div class="content">\\n\\t<section>\\n\\t\\t<article>\\n\\t\\t\\t<header>\\n\\t\\t\\t\\t<h1>\', escape=False)'
p3087
sI82
S"response.write(T('{0} {1}'.format('New', title)))"
p3088
sI83
S"response.write('</h1>\\n\\t\\t\\t\\t<hr />\\n\\t\\t\\t</header>\\n\\t\\t\\t<div>\\n\\t\\t\\t\\t', escape=False)"
p3089
sI84
S'response.write(form_subject)'
p3090
sI85
S"response.write('\\n\\t\\t\\t</div>\\t\\n\\t\\t</article>\\n\\t</section>\\n</div>\\n', escape=False)"
p3091
sI86
S"response.write(' \\n      </div>\\n      <!-- content -->\\n\\n      ', escape=False)"
p3092
sI87
S'if right_sidebar_enabled:'
p3093
sI88
S'    response.write(\'\\n          <div id="right_sidebar" \', escape=False)'
p3094
sI89
S'    response.write(XML(right_sidebar_style))'
p3095
sI90
S'    response.write(\' >\\n            <div style="padding: 4px;">\\n              \', escape=False)'
p3096
sI91
S"    response.write('Content Right Sidebar', escape=False)"
p3097
sI92
S"    response.write('\\n            </div>\\n      </div><!-- right_sidebar -->\\n          ', escape=False)"
p3098
sI93
S'    pass'
p3099
sI94
S'response.write(\'\\n\\n\\n      <div style="clear: both;"></div><!-- Clear the divs -->\\n      \\n    </div><!-- page -->                         \\n    \\n    <div id="footer">\\n      \', escape=False)'
p3100
ssg3073
S'()'
p3101
sg3075
S'<module>'
p3102
sasS'pyver'
p3103
S'Python 2.7.2+: /usr/bin/python'
p3104
sS'session'
p3105
g56
(g57
g58
NtRp3106
(dp3107
g61
(dp3108
sg63
(lp3109
g56
(g65
g58
NtRp3110
(dp3111
g61
(dp3112
g69
I5
ssg70
Nsg63
(lp3113
g56
(g72
g58
NtRp3114
(dp3115
g61
(dp3116
sg70
g3110
sg63
(lp3117
g56
(g77
g58
NtRp3118
(dp3119
g61
(dp3120
g81
g82
ssg70
g3114
sg63
(lp3121
S'auth'
p3122
asbag56
(g77
g58
NtRp3123
(dp3124
g61
(dp3125
g88
g89
ssg70
g3114
sg63
(lp3126
S':'
asbag56
(g77
g58
NtRp3127
(dp3128
g61
(dp3129
sg70
g3114
sg63
(lp3130
g56
(g57
g58
NtRp3131
(dp3132
g61
(dp3133
g69
I5
ssg70
g3127
sg63
(lp3134
g56
(g65
g58
NtRp3135
(dp3136
g61
(dp3137
g69
I4
ssg70
Nsg63
(lp3138
g56
(g72
g58
NtRp3139
(dp3140
g61
(dp3141
sg70
g3135
sg63
(lp3142
g56
(g77
g58
NtRp3143
(dp3144
g61
(dp3145
g81
g82
ssg70
g3139
sg63
(lp3146
S'expiration'
p3147
asbag56
(g77
g58
NtRp3148
(dp3149
g61
(dp3150
g88
g89
ssg70
g3139
sg63
(lp3151
S':'
asbag56
(g77
g58
NtRp3152
(dp3153
g61
(dp3154
sg70
g3139
sg63
(lp3155
g56
(g57
g58
NtRp3156
(dp3157
g61
(dp3158
g69
I4
ssg70
g3152
sg63
(lp3159
S'2592000'
p3160
asbasbasbag56
(g72
g58
NtRp3161
(dp3162
g61
(dp3163
sg70
g3135
sg63
(lp3164
g56
(g77
g58
NtRp3165
(dp3166
g61
(dp3167
g81
g82
ssg70
g3161
sg63
(lp3168
S'hmac_key'
p3169
asbag56
(g77
g58
NtRp3170
(dp3171
g61
(dp3172
g88
g89
ssg70
g3161
sg63
(lp3173
S':'
asbag56
(g77
g58
NtRp3174
(dp3175
g61
(dp3176
sg70
g3161
sg63
(lp3177
g56
(g57
g58
NtRp3178
(dp3179
g61
(dp3180
g69
I4
ssg70
g3174
sg63
(lp3181
S'4c32a183-7118-47f6-ab0b-21a33c2fc6ab'
p3182
asbasbasbag56
(g72
g58
NtRp3183
(dp3184
g61
(dp3185
sg70
g3135
sg63
(lp3186
g56
(g77
g58
NtRp3187
(dp3188
g61
(dp3189
g81
g82
ssg70
g3183
sg63
(lp3190
S'last_visit'
p3191
asbag56
(g77
g58
NtRp3192
(dp3193
g61
(dp3194
g88
g89
ssg70
g3183
sg63
(lp3195
S':'
asbag56
(g77
g58
NtRp3196
(dp3197
g61
(dp3198
sg70
g3183
sg63
(lp3199
g56
(g57
g58
NtRp3200
(dp3201
g61
(dp3202
g69
I4
ssg70
g3196
sg63
(lp3203
S'datetime.datetime(2012, 1, 11, 22, 1, 29, 654193)'
p3204
asbasbasbag56
(g72
g58
NtRp3205
(dp3206
g61
(dp3207
sg70
g3135
sg63
(lp3208
g56
(g77
g58
NtRp3209
(dp3210
g61
(dp3211
g81
g82
ssg70
g3205
sg63
(lp3212
S'remember'
p3213
asbag56
(g77
g58
NtRp3214
(dp3215
g61
(dp3216
g88
g89
ssg70
g3205
sg63
(lp3217
S':'
asbag56
(g77
g58
NtRp3218
(dp3219
g61
(dp3220
sg70
g3205
sg63
(lp3221
g56
(g57
g58
NtRp3222
(dp3223
g61
(dp3224
g69
I4
ssg70
g3218
sg63
(lp3225
g99
asbasbasbag56
(g72
g58
NtRp3226
(dp3227
g61
(dp3228
sg70
g3135
sg63
(lp3229
g56
(g77
g58
NtRp3230
(dp3231
g61
(dp3232
g81
g82
ssg70
g3226
sg63
(lp3233
S'user'
p3234
asbag56
(g77
g58
NtRp3235
(dp3236
g61
(dp3237
g88
g89
ssg70
g3226
sg63
(lp3238
S':'
asbag56
(g77
g58
NtRp3239
(dp3240
g61
(dp3241
sg70
g3226
sg63
(lp3242
g56
(g57
g58
NtRp3243
(dp3244
g61
(dp3245
g69
I4
ssg70
g3239
sg63
(lp3246
g56
(g65
g58
NtRp3247
(dp3248
g61
(dp3249
g69
I3
ssg70
Nsg63
(lp3250
g56
(g72
g58
NtRp3251
(dp3252
g61
(dp3253
sg70
g3247
sg63
(lp3254
g56
(g77
g58
NtRp3255
(dp3256
g61
(dp3257
g81
g82
ssg70
g3251
sg63
(lp3258
S'email'
p3259
asbag56
(g77
g58
NtRp3260
(dp3261
g61
(dp3262
g88
g89
ssg70
g3251
sg63
(lp3263
S':'
asbag56
(g77
g58
NtRp3264
(dp3265
g61
(dp3266
sg70
g3251
sg63
(lp3267
g56
(g57
g58
NtRp3268
(dp3269
g61
(dp3270
g69
I3
ssg70
g3264
sg63
(lp3271
S'kaique.developer@gmail.com'
p3272
asbasbasbag56
(g72
g58
NtRp3273
(dp3274
g61
(dp3275
sg70
g3247
sg63
(lp3276
g56
(g77
g58
NtRp3277
(dp3278
g61
(dp3279
g81
g82
ssg70
g3273
sg63
(lp3280
S'first_name'
p3281
asbag56
(g77
g58
NtRp3282
(dp3283
g61
(dp3284
g88
g89
ssg70
g3273
sg63
(lp3285
S':'
asbag56
(g77
g58
NtRp3286
(dp3287
g61
(dp3288
sg70
g3273
sg63
(lp3289
g56
(g57
g58
NtRp3290
(dp3291
g61
(dp3292
g69
I3
ssg70
g3286
sg63
(lp3293
S'kaique'
p3294
asbasbasbag56
(g72
g58
NtRp3295
(dp3296
g61
(dp3297
sg70
g3247
sg63
(lp3298
g56
(g77
g58
NtRp3299
(dp3300
g61
(dp3301
g81
g82
ssg70
g3295
sg63
(lp3302
S'id'
p3303
asbag56
(g77
g58
NtRp3304
(dp3305
g61
(dp3306
g88
g89
ssg70
g3295
sg63
(lp3307
S':'
asbag56
(g77
g58
NtRp3308
(dp3309
g61
(dp3310
sg70
g3295
sg63
(lp3311
g56
(g57
g58
NtRp3312
(dp3313
g61
(dp3314
g69
I3
ssg70
g3308
sg63
(lp3315
S'1'
asbasbasbag56
(g72
g58
NtRp3316
(dp3317
g61
(dp3318
sg70
g3247
sg63
(lp3319
g56
(g77
g58
NtRp3320
(dp3321
g61
(dp3322
g81
g82
ssg70
g3316
sg63
(lp3323
S'last_name'
p3324
asbag56
(g77
g58
NtRp3325
(dp3326
g61
(dp3327
g88
g89
ssg70
g3316
sg63
(lp3328
S':'
asbag56
(g77
g58
NtRp3329
(dp3330
g61
(dp3331
sg70
g3316
sg63
(lp3332
g56
(g57
g58
NtRp3333
(dp3334
g61
(dp3335
g69
I3
ssg70
g3329
sg63
(lp3336
S'silva'
p3337
asbasbasbag56
(g72
g58
NtRp3338
(dp3339
g61
(dp3340
sg70
g3247
sg63
(lp3341
g56
(g77
g58
NtRp3342
(dp3343
g61
(dp3344
g81
g82
ssg70
g3338
sg63
(lp3345
S'password'
p3346
asbag56
(g77
g58
NtRp3347
(dp3348
g61
(dp3349
g88
g89
ssg70
g3338
sg63
(lp3350
S':'
asbag56
(g77
g58
NtRp3351
(dp3352
g61
(dp3353
sg70
g3338
sg63
(lp3354
g56
(g57
g58
NtRp3355
(dp3356
g61
(dp3357
g69
I3
ssg70
g3351
sg63
(lp3358
S'72c6a018d62d3fb47d95389e4a062cd2'
p3359
asbasbasbag56
(g72
g58
NtRp3360
(dp3361
g61
(dp3362
sg70
g3247
sg63
(lp3363
g56
(g77
g58
NtRp3364
(dp3365
g61
(dp3366
g81
g82
ssg70
g3360
sg63
(lp3367
S'registration_key'
p3368
asbag56
(g77
g58
NtRp3369
(dp3370
g61
(dp3371
g88
g89
ssg70
g3360
sg63
(lp3372
S':'
asbag56
(g77
g58
NtRp3373
(dp3374
g61
(dp3375
sg70
g3360
sg63
(lp3376
g56
(g57
g58
NtRp3377
(dp3378
g61
(dp3379
g69
I3
ssg70
g3373
sg63
(lp3380
S''
asbasbasbag56
(g72
g58
NtRp3381
(dp3382
g61
(dp3383
sg70
g3247
sg63
(lp3384
g56
(g77
g58
NtRp3385
(dp3386
g61
(dp3387
g81
g82
ssg70
g3381
sg63
(lp3388
S'reset_password_key'
p3389
asbag56
(g77
g58
NtRp3390
(dp3391
g61
(dp3392
g88
g89
ssg70
g3381
sg63
(lp3393
S':'
asbag56
(g77
g58
NtRp3394
(dp3395
g61
(dp3396
sg70
g3381
sg63
(lp3397
g56
(g57
g58
NtRp3398
(dp3399
g61
(dp3400
g69
I3
ssg70
g3394
sg63
(lp3401
S''
asbasbasbasbasbasbasbasbasbasbasbag56
(g72
g58
NtRp3402
(dp3403
g61
(dp3404
sg70
g3110
sg63
(lp3405
g56
(g77
g58
NtRp3406
(dp3407
g61
(dp3408
g81
g82
ssg70
g3402
sg63
(lp3409
S'index'
p3410
asbag56
(g77
g58
NtRp3411
(dp3412
g61
(dp3413
g88
g89
ssg70
g3402
sg63
(lp3414
S':'
asbag56
(g77
g58
NtRp3415
(dp3416
g61
(dp3417
sg70
g3402
sg63
(lp3418
g56
(g57
g58
NtRp3419
(dp3420
g61
(dp3421
g69
I5
ssg70
g3415
sg63
(lp3422
S'2'
asbasbasbag56
(g72
g58
NtRp3423
(dp3424
g61
(dp3425
sg70
g3110
sg63
(lp3426
g56
(g77
g58
NtRp3427
(dp3428
g61
(dp3429
g81
g82
ssg70
g3423
sg63
(lp3430
S'last_query'
p3431
asbag56
(g77
g58
NtRp3432
(dp3433
g61
(dp3434
g88
g89
ssg70
g3423
sg63
(lp3435
S':'
asbag56
(g77
g58
NtRp3436
(dp3437
g61
(dp3438
sg70
g3423
sg63
(lp3439
g56
(g57
g58
NtRp3440
(dp3441
g61
(dp3442
g69
I5
ssg70
g3436
sg63
(lp3443
S'db.quote.publications_id==1'
p3444
asbasbasbasbasbsS'etype'
p3445
S"<type 'exceptions.NameError'>"
p3446
sS'date'
p3447
S'Thu Jan 12 13:06:18 2012'
p3448
sS'response'
p3449
g56
(g57
g58
NtRp3450
(dp3451
g61
(dp3452
sg63
(lp3453
g56
(g65
g58
NtRp3454
(dp3455
g61
(dp3456
g69
I5
ssg70
Nsg63
(lp3457
g56
(g72
g58
NtRp3458
(dp3459
g61
(dp3460
sg70
g3454
sg63
(lp3461
g56
(g77
g58
NtRp3462
(dp3463
g61
(dp3464
g81
g82
ssg70
g3458
sg63
(lp3465
g179
asbag56
(g77
g58
NtRp3466
(dp3467
g61
(dp3468
g88
g89
ssg70
g3458
sg63
(lp3469
S':'
asbag56
(g77
g58
NtRp3470
(dp3471
g61
(dp3472
sg70
g3458
sg63
(lp3473
g56
(g57
g58
NtRp3474
(dp3475
g61
(dp3476
g69
I5
ssg70
g3470
sg63
(lp3477
S'<cStringIO.StringO object at 0x303dd88>'
p3478
asbasbasbag56
(g72
g58
NtRp3479
(dp3480
g61
(dp3481
sg70
g3454
sg63
(lp3482
g56
(g77
g58
NtRp3483
(dp3484
g61
(dp3485
g81
g82
ssg70
g3479
sg63
(lp3486
g245
asbag56
(g77
g58
NtRp3487
(dp3488
g61
(dp3489
g88
g89
ssg70
g3479
sg63
(lp3490
S':'
asbag56
(g77
g58
NtRp3491
(dp3492
g61
(dp3493
sg70
g3479
sg63
(lp3494
g56
(g57
g58
NtRp3495
(dp3496
g61
(dp3497
g69
I5
ssg70
g3491
sg63
(lp3498
g56
(g65
g58
NtRp3499
(dp3500
g61
(dp3501
g69
I4
ssg70
Nsg63
(lp3502
g56
(g72
g58
NtRp3503
(dp3504
g61
(dp3505
sg70
g3499
sg63
(lp3506
g56
(g77
g58
NtRp3507
(dp3508
g61
(dp3509
g81
g82
ssg70
g3503
sg63
(lp3510
S'session_id_synopsis'
p3511
asbag56
(g77
g58
NtRp3512
(dp3513
g61
(dp3514
g88
g89
ssg70
g3503
sg63
(lp3515
S':'
asbag56
(g77
g58
NtRp3516
(dp3517
g61
(dp3518
sg70
g3503
sg63
(lp3519
g56
(g57
g58
NtRp3520
(dp3521
g61
(dp3522
g69
I4
ssg70
g3516
sg63
(lp3523
g56
(g65
g58
NtRp3524
(dp3525
g61
(dp3526
g69
I3
ssg70
Nsg63
(lp3527
g56
(g72
g58
NtRp3528
(dp3529
g61
(dp3530
sg70
g3524
sg63
(lp3531
g56
(g77
g58
NtRp3532
(dp3533
g61
(dp3534
g81
g82
ssg70
g3528
sg63
(lp3535
g295
asbag56
(g77
g58
NtRp3536
(dp3537
g61
(dp3538
g88
g89
ssg70
g3528
sg63
(lp3539
S':'
asbag56
(g77
g58
NtRp3540
(dp3541
g61
(dp3542
sg70
g3528
sg63
(lp3543
g56
(g57
g58
NtRp3544
(dp3545
g61
(dp3546
g69
I3
ssg70
g3540
sg63
(lp3547
S''
asbasbasbag56
(g72
g58
NtRp3548
(dp3549
g61
(dp3550
sg70
g3524
sg63
(lp3551
g56
(g77
g58
NtRp3552
(dp3553
g61
(dp3554
g81
g82
ssg70
g3548
sg63
(lp3555
g316
asbag56
(g77
g58
NtRp3556
(dp3557
g61
(dp3558
g88
g89
ssg70
g3548
sg63
(lp3559
S':'
asbag56
(g77
g58
NtRp3560
(dp3561
g61
(dp3562
sg70
g3548
sg63
(lp3563
g56
(g57
g58
NtRp3564
(dp3565
g61
(dp3566
g69
I3
ssg70
g3560
sg63
(lp3567
S''
asbasbasbag56
(g72
g58
NtRp3568
(dp3569
g61
(dp3570
sg70
g3524
sg63
(lp3571
g56
(g77
g58
NtRp3572
(dp3573
g61
(dp3574
g81
g82
ssg70
g3568
sg63
(lp3575
g337
asbag56
(g77
g58
NtRp3576
(dp3577
g61
(dp3578
g88
g89
ssg70
g3568
sg63
(lp3579
S':'
asbag56
(g77
g58
NtRp3580
(dp3581
g61
(dp3582
sg70
g3568
sg63
(lp3583
g56
(g57
g58
NtRp3584
(dp3585
g61
(dp3586
g69
I3
ssg70
g3580
sg63
(lp3587
S''
asbasbasbag56
(g72
g58
NtRp3588
(dp3589
g61
(dp3590
sg70
g3524
sg63
(lp3591
g56
(g77
g58
NtRp3592
(dp3593
g61
(dp3594
g81
g82
ssg70
g3588
sg63
(lp3595
g358
asbag56
(g77
g58
NtRp3596
(dp3597
g61
(dp3598
g88
g89
ssg70
g3588
sg63
(lp3599
S':'
asbag56
(g77
g58
NtRp3600
(dp3601
g61
(dp3602
sg70
g3588
sg63
(lp3603
g56
(g57
g58
NtRp3604
(dp3605
g61
(dp3606
g69
I3
ssg70
g3600
sg63
(lp3607
S''
asbasbasbag56
(g72
g58
NtRp3608
(dp3609
g61
(dp3610
sg70
g3524
sg63
(lp3611
g56
(g77
g58
NtRp3612
(dp3613
g61
(dp3614
g81
g82
ssg70
g3608
sg63
(lp3615
g379
asbag56
(g77
g58
NtRp3616
(dp3617
g61
(dp3618
g88
g89
ssg70
g3608
sg63
(lp3619
S':'
asbag56
(g77
g58
NtRp3620
(dp3621
g61
(dp3622
sg70
g3608
sg63
(lp3623
g56
(g57
g58
NtRp3624
(dp3625
g61
(dp3626
g69
I3
ssg70
g3620
sg63
(lp3627
S''
asbasbasbag56
(g72
g58
NtRp3628
(dp3629
g61
(dp3630
sg70
g3524
sg63
(lp3631
g56
(g77
g58
NtRp3632
(dp3633
g61
(dp3634
g81
g82
ssg70
g3628
sg63
(lp3635
g400
asbag56
(g77
g58
NtRp3636
(dp3637
g61
(dp3638
g88
g89
ssg70
g3628
sg63
(lp3639
S':'
asbag56
(g77
g58
NtRp3640
(dp3641
g61
(dp3642
sg70
g3628
sg63
(lp3643
g56
(g57
g58
NtRp3644
(dp3645
g61
(dp3646
g69
I3
ssg70
g3640
sg63
(lp3647
S'/'
asbasbasbag56
(g72
g58
NtRp3648
(dp3649
g61
(dp3650
sg70
g3524
sg63
(lp3651
g56
(g77
g58
NtRp3652
(dp3653
g61
(dp3654
g81
g82
ssg70
g3648
sg63
(lp3655
g421
asbag56
(g77
g58
NtRp3656
(dp3657
g61
(dp3658
g88
g89
ssg70
g3648
sg63
(lp3659
S':'
asbag56
(g77
g58
NtRp3660
(dp3661
g61
(dp3662
sg70
g3648
sg63
(lp3663
g56
(g57
g58
NtRp3664
(dp3665
g61
(dp3666
g69
I3
ssg70
g3660
sg63
(lp3667
S''
asbasbasbag56
(g72
g58
NtRp3668
(dp3669
g61
(dp3670
sg70
g3524
sg63
(lp3671
g56
(g77
g58
NtRp3672
(dp3673
g61
(dp3674
g81
g82
ssg70
g3668
sg63
(lp3675
g442
asbag56
(g77
g58
NtRp3676
(dp3677
g61
(dp3678
g88
g89
ssg70
g3668
sg63
(lp3679
S':'
asbag56
(g77
g58
NtRp3680
(dp3681
g61
(dp3682
sg70
g3668
sg63
(lp3683
g56
(g57
g58
NtRp3684
(dp3685
g61
(dp3686
g69
I3
ssg70
g3680
sg63
(lp3687
S''
asbasbasbasbasbasbasbasbasbasbasbag56
(g72
g58
NtRp3688
(dp3689
g61
(dp3690
sg70
g3454
sg63
(lp3691
g56
(g77
g58
NtRp3692
(dp3693
g61
(dp3694
g81
g82
ssg70
g3688
sg63
(lp3695
S'files'
p3696
asbag56
(g77
g58
NtRp3697
(dp3698
g61
(dp3699
g88
g89
ssg70
g3688
sg63
(lp3700
S':'
asbag56
(g77
g58
NtRp3701
(dp3702
g61
(dp3703
sg70
g3688
sg63
(lp3704
g56
(g57
g58
NtRp3705
(dp3706
g61
(dp3707
g69
I5
ssg70
g3701
sg63
(lp3708
g56
(g65
g58
NtRp3709
(dp3710
g61
(dp3711
g69
I4
ssg70
Nsg63
(lp3712
g56
(g72
g58
NtRp3713
(dp3714
g61
(dp3715
sg70
g3709
sg63
(lp3716
g56
(g77
g58
NtRp3717
(dp3718
g61
(dp3719
sg70
g3713
sg63
(lp3720
g56
(g57
g58
NtRp3721
(dp3722
g61
(dp3723
g69
I4
ssg70
g3717
sg63
(lp3724
S'/synopsis/static/js/jquery.js'
p3725
asbasbasbag56
(g72
g58
NtRp3726
(dp3727
g61
(dp3728
sg70
g3709
sg63
(lp3729
g56
(g77
g58
NtRp3730
(dp3731
g61
(dp3732
sg70
g3726
sg63
(lp3733
g56
(g57
g58
NtRp3734
(dp3735
g61
(dp3736
g69
I4
ssg70
g3730
sg63
(lp3737
S'/synopsis/static/css/anytime.css'
p3738
asbasbasbag56
(g72
g58
NtRp3739
(dp3740
g61
(dp3741
sg70
g3709
sg63
(lp3742
g56
(g77
g58
NtRp3743
(dp3744
g61
(dp3745
sg70
g3739
sg63
(lp3746
g56
(g57
g58
NtRp3747
(dp3748
g61
(dp3749
g69
I4
ssg70
g3743
sg63
(lp3750
S'/synopsis/static/js/anytime.js'
p3751
asbasbasbag56
(g72
g58
NtRp3752
(dp3753
g61
(dp3754
sg70
g3709
sg63
(lp3755
g56
(g77
g58
NtRp3756
(dp3757
g61
(dp3758
sg70
g3752
sg63
(lp3759
g56
(g57
g58
NtRp3760
(dp3761
g61
(dp3762
g69
I4
ssg70
g3756
sg63
(lp3763
S'/synopsis/static/css/base.css'
p3764
asbasbasbag56
(g72
g58
NtRp3765
(dp3766
g61
(dp3767
sg70
g3709
sg63
(lp3768
g56
(g77
g58
NtRp3769
(dp3770
g61
(dp3771
sg70
g3765
sg63
(lp3772
g56
(g57
g58
NtRp3773
(dp3774
g61
(dp3775
g69
I4
ssg70
g3769
sg63
(lp3776
S'/synopsis/static/css/superfish.css'
p3777
asbasbasbag56
(g72
g58
NtRp3778
(dp3779
g61
(dp3780
sg70
g3709
sg63
(lp3781
g56
(g77
g58
NtRp3782
(dp3783
g61
(dp3784
sg70
g3778
sg63
(lp3785
g56
(g57
g58
NtRp3786
(dp3787
g61
(dp3788
g69
I4
ssg70
g3782
sg63
(lp3789
S'/synopsis/static/js/superfish.js'
p3790
asbasbasbasbasbasbasbag56
(g72
g58
NtRp3791
(dp3792
g61
(dp3793
sg70
g3454
sg63
(lp3794
g56
(g77
g58
NtRp3795
(dp3796
g61
(dp3797
g81
g82
ssg70
g3791
sg63
(lp3798
S'flash'
p3799
asbag56
(g77
g58
NtRp3800
(dp3801
g61
(dp3802
g88
g89
ssg70
g3791
sg63
(lp3803
S':'
asbag56
(g77
g58
NtRp3804
(dp3805
g61
(dp3806
sg70
g3791
sg63
(lp3807
g56
(g57
g58
NtRp3808
(dp3809
g61
(dp3810
g69
I5
ssg70
g3804
sg63
(lp3811
S''
asbasbasbag56
(g72
g58
NtRp3812
(dp3813
g61
(dp3814
sg70
g3454
sg63
(lp3815
g56
(g77
g58
NtRp3816
(dp3817
g61
(dp3818
g81
g82
ssg70
g3812
sg63
(lp3819
S'generic_patterns'
p3820
asbag56
(g77
g58
NtRp3821
(dp3822
g61
(dp3823
g88
g89
ssg70
g3812
sg63
(lp3824
S':'
asbag56
(g77
g58
NtRp3825
(dp3826
g61
(dp3827
sg70
g3812
sg63
(lp3828
g56
(g57
g58
NtRp3829
(dp3830
g61
(dp3831
g69
I5
ssg70
g3825
sg63
(lp3832
g56
(g65
g58
NtRp3833
(dp3834
g61
(dp3835
g69
I4
ssg70
Nsg63
(lp3836
g56
(g72
g58
NtRp3837
(dp3838
g61
(dp3839
sg70
g3833
sg63
(lp3840
g56
(g77
g58
NtRp3841
(dp3842
g61
(dp3843
sg70
g3837
sg63
(lp3844
g56
(g57
g58
NtRp3845
(dp3846
g61
(dp3847
g69
I4
ssg70
g3841
sg63
(lp3848
S'*'
asbasbasbasbasbasbasbag56
(g72
g58
NtRp3849
(dp3850
g61
(dp3851
sg70
g3454
sg63
(lp3852
g56
(g77
g58
NtRp3853
(dp3854
g61
(dp3855
g81
g82
ssg70
g3849
sg63
(lp3856
S'headers'
p3857
asbag56
(g77
g58
NtRp3858
(dp3859
g61
(dp3860
g88
g89
ssg70
g3849
sg63
(lp3861
S':'
asbag56
(g77
g58
NtRp3862
(dp3863
g61
(dp3864
sg70
g3849
sg63
(lp3865
g56
(g57
g58
NtRp3866
(dp3867
g61
(dp3868
g69
I5
ssg70
g3862
sg63
(lp3869
g56
(g65
g58
NtRp3870
(dp3871
g61
(dp3872
g69
I4
ssg70
Nsg63
(lp3873
g56
(g72
g58
NtRp3874
(dp3875
g61
(dp3876
sg70
g3870
sg63
(lp3877
g56
(g77
g58
NtRp3878
(dp3879
g61
(dp3880
g81
g82
ssg70
g3874
sg63
(lp3881
S'Cache-Control'
p3882
asbag56
(g77
g58
NtRp3883
(dp3884
g61
(dp3885
g88
g89
ssg70
g3874
sg63
(lp3886
S':'
asbag56
(g77
g58
NtRp3887
(dp3888
g61
(dp3889
sg70
g3874
sg63
(lp3890
g56
(g57
g58
NtRp3891
(dp3892
g61
(dp3893
g69
I4
ssg70
g3887
sg63
(lp3894
S'no-store, no-cache, must-revalidate, post-check=0, pre-check=0'
p3895
asbasbasbag56
(g72
g58
NtRp3896
(dp3897
g61
(dp3898
sg70
g3870
sg63
(lp3899
g56
(g77
g58
NtRp3900
(dp3901
g61
(dp3902
g81
g82
ssg70
g3896
sg63
(lp3903
S'Content-Type'
p3904
asbag56
(g77
g58
NtRp3905
(dp3906
g61
(dp3907
g88
g89
ssg70
g3896
sg63
(lp3908
S':'
asbag56
(g77
g58
NtRp3909
(dp3910
g61
(dp3911
sg70
g3896
sg63
(lp3912
g56
(g57
g58
NtRp3913
(dp3914
g61
(dp3915
g69
I4
ssg70
g3909
sg63
(lp3916
S'text/html; charset=utf-8'
p3917
asbasbasbag56
(g72
g58
NtRp3918
(dp3919
g61
(dp3920
sg70
g3870
sg63
(lp3921
g56
(g77
g58
NtRp3922
(dp3923
g61
(dp3924
g81
g82
ssg70
g3918
sg63
(lp3925
S'Expires'
p3926
asbag56
(g77
g58
NtRp3927
(dp3928
g61
(dp3929
g88
g89
ssg70
g3918
sg63
(lp3930
S':'
asbag56
(g77
g58
NtRp3931
(dp3932
g61
(dp3933
sg70
g3918
sg63
(lp3934
g56
(g57
g58
NtRp3935
(dp3936
g61
(dp3937
g69
I4
ssg70
g3931
sg63
(lp3938
S'Thu, 12 Jan 2012 15:06:17 GMT'
p3939
asbasbasbag56
(g72
g58
NtRp3940
(dp3941
g61
(dp3942
sg70
g3870
sg63
(lp3943
g56
(g77
g58
NtRp3944
(dp3945
g61
(dp3946
g81
g82
ssg70
g3940
sg63
(lp3947
S'Pragma'
p3948
asbag56
(g77
g58
NtRp3949
(dp3950
g61
(dp3951
g88
g89
ssg70
g3940
sg63
(lp3952
S':'
asbag56
(g77
g58
NtRp3953
(dp3954
g61
(dp3955
sg70
g3940
sg63
(lp3956
g56
(g57
g58
NtRp3957
(dp3958
g61
(dp3959
g69
I4
ssg70
g3953
sg63
(lp3960
S'no-cache'
p3961
asbasbasbag56
(g72
g58
NtRp3962
(dp3963
g61
(dp3964
sg70
g3870
sg63
(lp3965
g56
(g77
g58
NtRp3966
(dp3967
g61
(dp3968
g81
g82
ssg70
g3962
sg63
(lp3969
S'X-Powered-By'
p3970
asbag56
(g77
g58
NtRp3971
(dp3972
g61
(dp3973
g88
g89
ssg70
g3962
sg63
(lp3974
S':'
asbag56
(g77
g58
NtRp3975
(dp3976
g61
(dp3977
sg70
g3962
sg63
(lp3978
g56
(g57
g58
NtRp3979
(dp3980
g61
(dp3981
g69
I4
ssg70
g3975
sg63
(lp3982
S'web2py'
p3983
asbasbasbasbasbasbasbag56
(g72
g58
NtRp3984
(dp3985
g61
(dp3986
sg70
g3454
sg63
(lp3987
g56
(g77
g58
NtRp3988
(dp3989
g61
(dp3990
g81
g82
ssg70
g3984
sg63
(lp3991
S'menu'
p3992
asbag56
(g77
g58
NtRp3993
(dp3994
g61
(dp3995
g88
g89
ssg70
g3984
sg63
(lp3996
S':'
asbag56
(g77
g58
NtRp3997
(dp3998
g61
(dp3999
sg70
g3984
sg63
(lp4000
g56
(g57
g58
NtRp4001
(dp4002
g61
(dp4003
g69
I5
ssg70
g3997
sg63
(lp4004
g56
(g65
g58
NtRp4005
(dp4006
g61
(dp4007
g69
I4
ssg70
Nsg63
(lp4008
g56
(g72
g58
NtRp4009
(dp4010
g61
(dp4011
sg70
g4005
sg63
(lp4012
g56
(g77
g58
NtRp4013
(dp4014
g61
(dp4015
sg70
g4009
sg63
(lp4016
g56
(g57
g58
NtRp4017
(dp4018
g61
(dp4019
g69
I4
ssg70
g4013
sg63
(lp4020
g56
(g65
g58
NtRp4021
(dp4022
g61
(dp4023
g69
I3
ssg70
Nsg63
(lp4024
g56
(g72
g58
NtRp4025
(dp4026
g61
(dp4027
sg70
g4021
sg63
(lp4028
g56
(g77
g58
NtRp4029
(dp4030
g61
(dp4031
sg70
g4025
sg63
(lp4032
g56
(g57
g58
NtRp4033
(dp4034
g61
(dp4035
g69
I3
ssg70
g4029
sg63
(lp4036
cgluon.languages
lazyT_unpickle
p4037
(S't\x04\x00\x00\x00Home'
tRp4038
asbasbasbag56
(g72
g58
NtRp4039
(dp4040
g61
(dp4041
sg70
g4021
sg63
(lp4042
g56
(g77
g58
NtRp4043
(dp4044
g61
(dp4045
sg70
g4039
sg63
(lp4046
g56
(g57
g58
NtRp4047
(dp4048
g61
(dp4049
g69
I3
ssg70
g4043
sg63
(lp4050
g99
asbasbasbag56
(g72
g58
NtRp4051
(dp4052
g61
(dp4053
sg70
g4021
sg63
(lp4054
g56
(g77
g58
NtRp4055
(dp4056
g61
(dp4057
sg70
g4051
sg63
(lp4058
g56
(g57
g58
NtRp4059
(dp4060
g61
(dp4061
g69
I3
ssg70
g4055
sg63
(lp4062
S'/synopsis/default/index'
p4063
asbasbasbag56
(g72
g58
NtRp4064
(dp4065
g61
(dp4066
sg70
g4021
sg63
(lp4067
g56
(g77
g58
NtRp4068
(dp4069
g61
(dp4070
sg70
g4064
sg63
(lp4071
g56
(g57
g58
NtRp4072
(dp4073
g61
(dp4074
g69
I3
ssg70
g4068
sg63
(lp4075
g56
(g65
g58
NtRp4076
(dp4077
g61
(dp4078
g69
I2
ssg70
Nsg63
(lp4079
sbasbasbasbasbasbasbasbag56
(g72
g58
NtRp4080
(dp4081
g61
(dp4082
sg70
g4005
sg63
(lp4083
g56
(g77
g58
NtRp4084
(dp4085
g61
(dp4086
sg70
g4080
sg63
(lp4087
g56
(g57
g58
NtRp4088
(dp4089
g61
(dp4090
g69
I4
ssg70
g4084
sg63
(lp4091
g56
(g65
g58
NtRp4092
(dp4093
g61
(dp4094
g69
I3
ssg70
Nsg63
(lp4095
g56
(g72
g58
NtRp4096
(dp4097
g61
(dp4098
sg70
g4092
sg63
(lp4099
g56
(g77
g58
NtRp4100
(dp4101
g61
(dp4102
sg70
g4096
sg63
(lp4103
g56
(g57
g58
NtRp4104
(dp4105
g61
(dp4106
g69
I3
ssg70
g4100
sg63
(lp4107
g4037
(S't\x0b\x00\x00\x00Information'
tRp4108
asbasbasbag56
(g72
g58
NtRp4109
(dp4110
g61
(dp4111
sg70
g4092
sg63
(lp4112
g56
(g77
g58
NtRp4113
(dp4114
g61
(dp4115
sg70
g4109
sg63
(lp4116
g56
(g57
g58
NtRp4117
(dp4118
g61
(dp4119
g69
I3
ssg70
g4113
sg63
(lp4120
g99
asbasbasbag56
(g72
g58
NtRp4121
(dp4122
g61
(dp4123
sg70
g4092
sg63
(lp4124
g56
(g77
g58
NtRp4125
(dp4126
g61
(dp4127
sg70
g4121
sg63
(lp4128
g56
(g57
g58
NtRp4129
(dp4130
g61
(dp4131
g69
I3
ssg70
g4125
sg63
(lp4132
S'/synopsis/information/index'
p4133
asbasbasbag56
(g72
g58
NtRp4134
(dp4135
g61
(dp4136
sg70
g4092
sg63
(lp4137
g56
(g77
g58
NtRp4138
(dp4139
g61
(dp4140
sg70
g4134
sg63
(lp4141
g56
(g57
g58
NtRp4142
(dp4143
g61
(dp4144
g69
I3
ssg70
g4138
sg63
(lp4145
g56
(g65
g58
NtRp4146
(dp4147
g61
(dp4148
g69
I2
ssg70
Nsg63
(lp4149
sbasbasbasbasbasbasbasbag56
(g72
g58
NtRp4150
(dp4151
g61
(dp4152
sg70
g4005
sg63
(lp4153
g56
(g77
g58
NtRp4154
(dp4155
g61
(dp4156
sg70
g4150
sg63
(lp4157
g56
(g57
g58
NtRp4158
(dp4159
g61
(dp4160
g69
I4
ssg70
g4154
sg63
(lp4161
g56
(g65
g58
NtRp4162
(dp4163
g61
(dp4164
g69
I3
ssg70
Nsg63
(lp4165
g56
(g72
g58
NtRp4166
(dp4167
g61
(dp4168
sg70
g4162
sg63
(lp4169
g56
(g77
g58
NtRp4170
(dp4171
g61
(dp4172
sg70
g4166
sg63
(lp4173
g56
(g57
g58
NtRp4174
(dp4175
g61
(dp4176
g69
I3
ssg70
g4170
sg63
(lp4177
g4037
(S't\x05\x00\x00\x00About'
tRp4178
asbasbasbag56
(g72
g58
NtRp4179
(dp4180
g61
(dp4181
sg70
g4162
sg63
(lp4182
g56
(g77
g58
NtRp4183
(dp4184
g61
(dp4185
sg70
g4179
sg63
(lp4186
g56
(g57
g58
NtRp4187
(dp4188
g61
(dp4189
g69
I3
ssg70
g4183
sg63
(lp4190
g99
asbasbasbag56
(g72
g58
NtRp4191
(dp4192
g61
(dp4193
sg70
g4162
sg63
(lp4194
g56
(g77
g58
NtRp4195
(dp4196
g61
(dp4197
sg70
g4191
sg63
(lp4198
g56
(g57
g58
NtRp4199
(dp4200
g61
(dp4201
g69
I3
ssg70
g4195
sg63
(lp4202
S'/synopsis/about/index'
p4203
asbasbasbag56
(g72
g58
NtRp4204
(dp4205
g61
(dp4206
sg70
g4162
sg63
(lp4207
g56
(g77
g58
NtRp4208
(dp4209
g61
(dp4210
sg70
g4204
sg63
(lp4211
g56
(g57
g58
NtRp4212
(dp4213
g61
(dp4214
g69
I3
ssg70
g4208
sg63
(lp4215
g56
(g65
g58
NtRp4216
(dp4217
g61
(dp4218
g69
I2
ssg70
Nsg63
(lp4219
sbasbasbasbasbasbasbasbasbasbasbasbag56
(g72
g58
NtRp4220
(dp4221
g61
(dp4222
sg70
g3454
sg63
(lp4223
g56
(g77
g58
NtRp4224
(dp4225
g61
(dp4226
g81
g82
ssg70
g4220
sg63
(lp4227
S'meta'
p4228
asbag56
(g77
g58
NtRp4229
(dp4230
g61
(dp4231
g88
g89
ssg70
g4220
sg63
(lp4232
S':'
asbag56
(g77
g58
NtRp4233
(dp4234
g61
(dp4235
sg70
g4220
sg63
(lp4236
g56
(g57
g58
NtRp4237
(dp4238
g61
(dp4239
g69
I5
ssg70
g4233
sg63
(lp4240
g56
(g65
g58
NtRp4241
(dp4242
g61
(dp4243
g69
I4
ssg70
Nsg63
(lp4244
g56
(g72
g58
NtRp4245
(dp4246
g61
(dp4247
sg70
g4241
sg63
(lp4248
g56
(g77
g58
NtRp4249
(dp4250
g61
(dp4251
g81
g82
ssg70
g4245
sg63
(lp4252
S'author'
p4253
asbag56
(g77
g58
NtRp4254
(dp4255
g61
(dp4256
g88
g89
ssg70
g4245
sg63
(lp4257
S':'
asbag56
(g77
g58
NtRp4258
(dp4259
g61
(dp4260
sg70
g4245
sg63
(lp4261
g56
(g57
g58
NtRp4262
(dp4263
g61
(dp4264
g69
I4
ssg70
g4258
sg63
(lp4265
S'Your Name <you@example.com>'
p4266
asbasbasbag56
(g72
g58
NtRp4267
(dp4268
g61
(dp4269
sg70
g4241
sg63
(lp4270
g56
(g77
g58
NtRp4271
(dp4272
g61
(dp4273
g81
g82
ssg70
g4267
sg63
(lp4274
S'copyright'
p4275
asbag56
(g77
g58
NtRp4276
(dp4277
g61
(dp4278
g88
g89
ssg70
g4267
sg63
(lp4279
S':'
asbag56
(g77
g58
NtRp4280
(dp4281
g61
(dp4282
sg70
g4267
sg63
(lp4283
g56
(g57
g58
NtRp4284
(dp4285
g61
(dp4286
g69
I4
ssg70
g4280
sg63
(lp4287
S'Copyright 2011'
p4288
asbasbasbag56
(g72
g58
NtRp4289
(dp4290
g61
(dp4291
sg70
g4241
sg63
(lp4292
g56
(g77
g58
NtRp4293
(dp4294
g61
(dp4295
g81
g82
ssg70
g4289
sg63
(lp4296
S'description'
p4297
asbag56
(g77
g58
NtRp4298
(dp4299
g61
(dp4300
g88
g89
ssg70
g4289
sg63
(lp4301
S':'
asbag56
(g77
g58
NtRp4302
(dp4303
g61
(dp4304
sg70
g4289
sg63
(lp4305
g56
(g57
g58
NtRp4306
(dp4307
g61
(dp4308
g69
I4
ssg70
g4302
sg63
(lp4309
S'a cool new app'
p4310
asbasbasbag56
(g72
g58
NtRp4311
(dp4312
g61
(dp4313
sg70
g4241
sg63
(lp4314
g56
(g77
g58
NtRp4315
(dp4316
g61
(dp4317
g81
g82
ssg70
g4311
sg63
(lp4318
S'generator'
p4319
asbag56
(g77
g58
NtRp4320
(dp4321
g61
(dp4322
g88
g89
ssg70
g4311
sg63
(lp4323
S':'
asbag56
(g77
g58
NtRp4324
(dp4325
g61
(dp4326
sg70
g4311
sg63
(lp4327
g56
(g57
g58
NtRp4328
(dp4329
g61
(dp4330
g69
I4
ssg70
g4324
sg63
(lp4331
S'Web2py Web Framework'
p4332
asbasbasbag56
(g72
g58
NtRp4333
(dp4334
g61
(dp4335
sg70
g4241
sg63
(lp4336
g56
(g77
g58
NtRp4337
(dp4338
g61
(dp4339
g81
g82
ssg70
g4333
sg63
(lp4340
S'keywords'
p4341
asbag56
(g77
g58
NtRp4342
(dp4343
g61
(dp4344
g88
g89
ssg70
g4333
sg63
(lp4345
S':'
asbag56
(g77
g58
NtRp4346
(dp4347
g61
(dp4348
sg70
g4333
sg63
(lp4349
g56
(g57
g58
NtRp4350
(dp4351
g61
(dp4352
g69
I4
ssg70
g4346
sg63
(lp4353
S'web2py, python, framework'
p4354
asbasbasbasbasbasbasbag56
(g72
g58
NtRp4355
(dp4356
g61
(dp4357
sg70
g3454
sg63
(lp4358
g56
(g77
g58
NtRp4359
(dp4360
g61
(dp4361
g81
g82
ssg70
g4355
sg63
(lp4362
S'postprocessing'
p4363
asbag56
(g77
g58
NtRp4364
(dp4365
g61
(dp4366
g88
g89
ssg70
g4355
sg63
(lp4367
S':'
asbag56
(g77
g58
NtRp4368
(dp4369
g61
(dp4370
sg70
g4355
sg63
(lp4371
g56
(g57
g58
NtRp4372
(dp4373
g61
(dp4374
g69
I5
ssg70
g4368
sg63
(lp4375
g56
(g65
g58
NtRp4376
(dp4377
g61
(dp4378
g69
I4
ssg70
Nsg63
(lp4379
sbasbasbasbag56
(g72
g58
NtRp4380
(dp4381
g61
(dp4382
sg70
g3454
sg63
(lp4383
g56
(g77
g58
NtRp4384
(dp4385
g61
(dp4386
g81
g82
ssg70
g4380
sg63
(lp4387
S'session_file'
p4388
asbag56
(g77
g58
NtRp4389
(dp4390
g61
(dp4391
g88
g89
ssg70
g4380
sg63
(lp4392
S':'
asbag56
(g77
g58
NtRp4393
(dp4394
g61
(dp4395
sg70
g4380
sg63
(lp4396
g56
(g57
g58
NtRp4397
(dp4398
g61
(dp4399
g69
I5
ssg70
g4393
sg63
(lp4400
S"<open file '/home/kaique/Projects/web2py/applications/synopsis/sessions/127.0.0.1-351efa91-66d9-4ca2-9c53-1a2177b18dc7', mode 'rb+' at 0x41d2030>"
p4401
asbasbasbag56
(g72
g58
NtRp4402
(dp4403
g61
(dp4404
sg70
g3454
sg63
(lp4405
g56
(g77
g58
NtRp4406
(dp4407
g61
(dp4408
g81
g82
ssg70
g4402
sg63
(lp4409
S'session_filename'
p4410
asbag56
(g77
g58
NtRp4411
(dp4412
g61
(dp4413
g88
g89
ssg70
g4402
sg63
(lp4414
S':'
asbag56
(g77
g58
NtRp4415
(dp4416
g61
(dp4417
sg70
g4402
sg63
(lp4418
g56
(g57
g58
NtRp4419
(dp4420
g61
(dp4421
g69
I5
ssg70
g4415
sg63
(lp4422
S'/home/kaique/Projects/web2py/applications/synopsis/sessions/127.0.0.1-351efa91-66d9-4ca2-9c53-1a2177b18dc7'
p4423
asbasbasbag56
(g72
g58
NtRp4424
(dp4425
g61
(dp4426
sg70
g3454
sg63
(lp4427
g56
(g77
g58
NtRp4428
(dp4429
g61
(dp4430
g81
g82
ssg70
g4424
sg63
(lp4431
S'session_id'
p4432
asbag56
(g77
g58
NtRp4433
(dp4434
g61
(dp4435
g88
g89
ssg70
g4424
sg63
(lp4436
S':'
asbag56
(g77
g58
NtRp4437
(dp4438
g61
(dp4439
sg70
g4424
sg63
(lp4440
g56
(g57
g58
NtRp4441
(dp4442
g61
(dp4443
g69
I5
ssg70
g4437
sg63
(lp4444
S'127.0.0.1-351efa91-66d9-4ca2-9c53-1a2177b18dc7'
p4445
asbasbasbag56
(g72
g58
NtRp4446
(dp4447
g61
(dp4448
sg70
g3454
sg63
(lp4449
g56
(g77
g58
NtRp4450
(dp4451
g61
(dp4452
g81
g82
ssg70
g4446
sg63
(lp4453
S'session_id_name'
p4454
asbag56
(g77
g58
NtRp4455
(dp4456
g61
(dp4457
g88
g89
ssg70
g4446
sg63
(lp4458
S':'
asbag56
(g77
g58
NtRp4459
(dp4460
g61
(dp4461
sg70
g4446
sg63
(lp4462
g56
(g57
g58
NtRp4463
(dp4464
g61
(dp4465
g69
I5
ssg70
g4459
sg63
(lp4466
g3511
asbasbasbag56
(g72
g58
NtRp4467
(dp4468
g61
(dp4469
sg70
g3454
sg63
(lp4470
g56
(g77
g58
NtRp4471
(dp4472
g61
(dp4473
g81
g82
ssg70
g4467
sg63
(lp4474
S'session_locked'
p4475
asbag56
(g77
g58
NtRp4476
(dp4477
g61
(dp4478
g88
g89
ssg70
g4467
sg63
(lp4479
S':'
asbag56
(g77
g58
NtRp4480
(dp4481
g61
(dp4482
sg70
g4467
sg63
(lp4483
g56
(g57
g58
NtRp4484
(dp4485
g61
(dp4486
g69
I5
ssg70
g4480
sg63
(lp4487
g1703
asbasbasbag56
(g72
g58
NtRp4488
(dp4489
g61
(dp4490
sg70
g3454
sg63
(lp4491
g56
(g77
g58
NtRp4492
(dp4493
g61
(dp4494
g81
g82
ssg70
g4488
sg63
(lp4495
S'session_new'
p4496
asbag56
(g77
g58
NtRp4497
(dp4498
g61
(dp4499
g88
g89
ssg70
g4488
sg63
(lp4500
S':'
asbag56
(g77
g58
NtRp4501
(dp4502
g61
(dp4503
sg70
g4488
sg63
(lp4504
g56
(g57
g58
NtRp4505
(dp4506
g61
(dp4507
g69
I5
ssg70
g4501
sg63
(lp4508
g99
asbasbasbag56
(g72
g58
NtRp4509
(dp4510
g61
(dp4511
sg70
g3454
sg63
(lp4512
g56
(g77
g58
NtRp4513
(dp4514
g61
(dp4515
g81
g82
ssg70
g4509
sg63
(lp4516
S'status'
p4517
asbag56
(g77
g58
NtRp4518
(dp4519
g61
(dp4520
g88
g89
ssg70
g4509
sg63
(lp4521
S':'
asbag56
(g77
g58
NtRp4522
(dp4523
g61
(dp4524
sg70
g4509
sg63
(lp4525
g56
(g57
g58
NtRp4526
(dp4527
g61
(dp4528
g69
I5
ssg70
g4522
sg63
(lp4529
S'200'
p4530
asbasbasbag56
(g72
g58
NtRp4531
(dp4532
g61
(dp4533
sg70
g3454
sg63
(lp4534
g56
(g77
g58
NtRp4535
(dp4536
g61
(dp4537
g81
g82
ssg70
g4531
sg63
(lp4538
S'subtitle'
p4539
asbag56
(g77
g58
NtRp4540
(dp4541
g61
(dp4542
g88
g89
ssg70
g4531
sg63
(lp4543
S':'
asbag56
(g77
g58
NtRp4544
(dp4545
g61
(dp4546
sg70
g4531
sg63
(lp4547
g56
(g57
g58
NtRp4548
(dp4549
g61
(dp4550
g69
I5
ssg70
g4544
sg63
(lp4551
g4037
(S's\x0f\x00\x00\x00Personalize-me!'
tRp4552
asbasbasbag56
(g72
g58
NtRp4553
(dp4554
g61
(dp4555
sg70
g3454
sg63
(lp4556
g56
(g77
g58
NtRp4557
(dp4558
g61
(dp4559
g81
g82
ssg70
g4553
sg63
(lp4560
S'title'
p4561
asbag56
(g77
g58
NtRp4562
(dp4563
g61
(dp4564
g88
g89
ssg70
g4553
sg63
(lp4565
S':'
asbag56
(g77
g58
NtRp4566
(dp4567
g61
(dp4568
sg70
g4553
sg63
(lp4569
g56
(g57
g58
NtRp4570
(dp4571
g61
(dp4572
g69
I5
ssg70
g4566
sg63
(lp4573
g121
asbasbasbag56
(g72
g58
NtRp4574
(dp4575
g61
(dp4576
sg70
g3454
sg63
(lp4577
g56
(g77
g58
NtRp4578
(dp4579
g61
(dp4580
g81
g82
ssg70
g4574
sg63
(lp4581
g2369
asbag56
(g77
g58
NtRp4582
(dp4583
g61
(dp4584
g88
g89
ssg70
g4574
sg63
(lp4585
S':'
asbag56
(g77
g58
NtRp4586
(dp4587
g61
(dp4588
sg70
g4574
sg63
(lp4589
g56
(g57
g58
NtRp4590
(dp4591
g61
(dp4592
g69
I5
ssg70
g4586
sg63
(lp4593
g2382
asbasbasbag56
(g72
g58
NtRp4594
(dp4595
g61
(dp4596
sg70
g3454
sg63
(lp4597
g56
(g77
g58
NtRp4598
(dp4599
g61
(dp4600
g81
g82
ssg70
g4594
sg63
(lp4601
S'view'
p4602
asbag56
(g77
g58
NtRp4603
(dp4604
g61
(dp4605
g88
g89
ssg70
g4594
sg63
(lp4606
S':'
asbag56
(g77
g58
NtRp4607
(dp4608
g61
(dp4609
sg70
g4594
sg63
(lp4610
g56
(g57
g58
NtRp4611
(dp4612
g61
(dp4613
g69
I5
ssg70
g4607
sg63
(lp4614
S'information/new.html'
p4615
asbasbasbasbasbsS'locals'
p4616
(dp4617
S'Service'
p4618
S"<class 'gluon.tools.Service'>"
p4619
sS'OBJECT'
p4620
S"<class 'gluon.html.OBJECT'>"
p4621
sS'SQLDB'
p4622
S"<class 'gluon.dal.DAL'>"
p4623
sg3105
S"<Storage {'index': '2', 'last_query': 'db.quote....login]': 'f47b1fcb-2e7e-44f1-a2bb-9c0e7bac300e'}>"
p4624
sS'LINK'
p4625
S"<class 'gluon.html.LINK'>"
p4626
sS'BR'
p4627
S"<class 'gluon.html.BR'>"
p4628
sS'local_import'
p4629
S'<function <lambda>>'
p4630
sS'OPTGROUP'
p4631
S"<class 'gluon.html.OPTGROUP'>"
p4632
sS'PRE'
p4633
S"<class 'gluon.html.PRE'>"
p4634
sS'IS_INT_IN_RANGE'
p4635
S"<class 'gluon.validators.IS_INT_IN_RANGE'>"
p4636
sS'left_sidebar_enabled'
p4637
g99
sS'IS_LOWER'
p4638
S"<class 'gluon.validators.IS_LOWER'>"
p4639
sS'IS_STRONG'
p4640
S"<class 'gluon.validators.IS_STRONG'>"
p4641
sS'cache'
p4642
S'<gluon.cache.Cache object>'
p4643
sS'IS_IN_DB'
p4644
S"<class 'gluon.validators.IS_IN_DB'>"
p4645
sS'TAG'
p4646
S'<gluon.html.__TAG__ object>'
p4647
sS'SQLField'
p4648
S"<class 'gluon.dal.Field'>"
p4649
sS'mail'
p4650
S'<gluon.tools.Mail object>'
p4651
sS'BODY'
p4652
S"<class 'gluon.html.BODY'>"
p4653
sS'IS_DATE_IN_RANGE'
p4654
S"<class 'gluon.validators.IS_DATE_IN_RANGE'>"
p4655
sS'TH'
p4656
S"<class 'gluon.html.TH'>"
p4657
sS'URL'
p4658
S'<function URL>'
p4659
sS'__file__'
p4660
S"'/home/kaique/Projects/web2py/applications/synopsis/views/information/new.html'"
p4661
sS'db'
p4662
S"<DAL {'auth_event': <Table {'origin': <gluon.dal..., 'id': <gluon.dal.Field object at 0x32ad950>}>}>"
p4663
sS'auth'
p4664
S'<gluon.tools.Auth object>'
p4665
sS'P'
S"<class 'gluon.html.P'>"
p4666
sS'TFOOT'
p4667
S"<class 'gluon.html.TFOOT'>"
p4668
sS'form_publication'
p4669
S'<gluon.sqlhtml.SQLFORM object>'
p4670
sS'XHTML'
p4671
S"<class 'gluon.html.XHTML'>"
p4672
sS'ON'
p4673
g1703
sS'OL'
p4674
S"<class 'gluon.html.OL'>"
p4675
sS'TEXTAREA'
p4676
S"<class 'gluon.html.TEXTAREA'>"
p4677
sS'MENU'
p4678
S"<class 'gluon.html.MENU'>"
p4679
sS'LOAD'
p4680
S'<gluon.compileapp.LoadFactory object>'
p4681
sS'CODE'
p4682
S"<class 'gluon.html.CODE'>"
p4683
sS'HTTP'
p4684
S"<class 'gluon.http.HTTP'>"
p4685
sS'HR'
p4686
S"<class 'gluon.html.HR'>"
p4687
sS'IS_DATETIME'
p4688
S"<class 'gluon.validators.IS_DATETIME'>"
p4689
sS'HEAD'
p4690
S"<class 'gluon.html.HEAD'>"
p4691
sS'LABEL'
p4692
S"<class 'gluon.html.LABEL'>"
p4693
sS'CLEANUP'
p4694
S"<class 'gluon.validators.CLEANUP'>"
p4695
sS'plugins'
p4696
S'<gluon.tools.PluginManager object>'
p4697
sS'SELECT'
p4698
S"<class 'gluon.html.SELECT'>"
p4699
sS'use_janrain'
p4700
S'<function use_janrain>'
p4701
sS'CENTER'
p4702
S"<class 'gluon.html.CENTER'>"
p4703
sS'prettydate'
p4704
S'<function prettydate>'
p4705
sS'Crud'
p4706
S"<class 'gluon.tools.Crud'>"
p4707
sS'Auth'
p4708
S"<class 'gluon.tools.Auth'>"
p4709
sS'__builtins__'
p4710
S"{'ArithmeticError': <type 'exceptions.ArithmeticError'>, 'AssertionError': <type 'exceptions.AssertionError'>, 'AttributeError': <type 'exceptions.AttributeError'>, 'BaseException': <type 'exceptions.BaseException'>, 'BufferError': <type 'exceptions.BufferError'>, 'BytesWarning': <type 'exceptions.BytesWarning'>, 'DeprecationWarning': <type 'exceptions.DeprecationWarning'>, 'EOFError': <type 'exceptions.EOFError'>, 'Ellipsis': Ellipsis, 'EnvironmentError': <type 'exceptions.EnvironmentError'>, ...}"
p4711
sS'HTML'
p4712
S"<class 'gluon.html.HTML'>"
p4713
sS'SQLFORM'
p4714
S"<class 'gluon.sqlhtml.SQLFORM'>"
p4715
sS'EM'
p4716
S"<class 'gluon.html.EM'>"
p4717
sS'redirect'
p4718
S'<function redirect>'
p4719
sS'FIELDSET'
p4720
S"<class 'gluon.html.FIELDSET'>"
p4721
sS'IS_EQUAL_TO'
p4722
S"<class 'gluon.validators.IS_EQUAL_TO'>"
p4723
sS'embed64'
p4724
S'<function embed64>'
p4725
sS'IS_LIST_OF'
p4726
S"<class 'gluon.validators.IS_LIST_OF'>"
p4727
sS'INPUT'
p4728
S"<class 'gluon.html.INPUT'>"
p4729
sS'EMBED'
p4730
S"<class 'gluon.html.EMBED'>"
p4731
sS'FORM'
p4732
S"<class 'gluon.html.FORM'>"
p4733
sS'width_content'
p4734
S"'100%'"
p4735
sS'H2'
p4736
S"<class 'gluon.html.H2'>"
p4737
sS'H3'
p4738
S"<class 'gluon.html.H3'>"
p4739
sS'BUTTON'
p4740
S"<class 'gluon.html.BUTTON'>"
p4741
sS'H1'
p4742
S"<class 'gluon.html.H1'>"
p4743
sS'H6'
p4744
S"<class 'gluon.html.H6'>"
p4745
sS'H4'
p4746
S"<class 'gluon.html.H4'>"
p4747
sS'H5'
p4748
S"<class 'gluon.html.H5'>"
p4749
sS'UL'
p4750
S"<class 'gluon.html.UL'>"
p4751
sS'IS_UPPER'
p4752
S"<class 'gluon.validators.IS_UPPER'>"
p4753
sS'signature'
p4754
S"<Table {'ALL': <gluon.dal.SQLALL object at 0x442...0>, 'id': <gluon.dal.Field object at 0x4427b90>}>"
p4755
sS'IS_TIME'
p4756
S"<class 'gluon.validators.IS_TIME'>"
p4757
sS'OPTION'
p4758
S"<class 'gluon.html.OPTION'>"
p4759
sS'TITLE'
p4760
S"<class 'gluon.html.TITLE'>"
p4761
sS'CRYPT'
p4762
S"<class 'gluon.validators.CRYPT'>"
p4763
sS'IS_EMPTY_OR'
p4764
S"<class 'gluon.validators.IS_EMPTY_OR'>"
p4765
sS'MARKMIN'
p4766
S"<class 'gluon.html.MARKMIN'>"
p4767
sS'COL'
p4768
S"<class 'gluon.html.COL'>"
p4769
sS'service'
p4770
S'<gluon.tools.Service object>'
p4771
sS'SCRIPT'
p4772
S"<class 'gluon.html.SCRIPT'>"
p4773
sS'TABLE'
p4774
S"<class 'gluon.html.TABLE'>"
p4775
sS'IS_IPV4'
p4776
S"<class 'gluon.validators.IS_IPV4'>"
p4777
sS'IS_LENGTH'
p4778
S"<class 'gluon.validators.IS_LENGTH'>"
p4779
sS'XML'
p4780
S"<class 'gluon.html.XML'>"
p4781
sS'B'
S"<class 'gluon.html.B'>"
p4782
sS'IMG'
p4783
S"<class 'gluon.html.IMG'>"
p4784
sS'SQLTABLE'
p4785
S"<class 'gluon.sqlhtml.SQLTABLE'>"
p4786
sS'IS_MATCH'
p4787
S"<class 'gluon.validators.IS_MATCH'>"
p4788
sS'IS_ALPHANUMERIC'
p4789
S"<class 'gluon.validators.IS_ALPHANUMERIC'>"
p4790
sS'SPAN'
p4791
S"<class 'gluon.html.SPAN'>"
p4792
sS'IS_SLUG'
p4793
S"<class 'gluon.validators.IS_SLUG'>"
p4794
sS'BEAUTIFY'
p4795
S"<class 'gluon.html.BEAUTIFY'>"
p4796
sS'META'
p4797
S"<class 'gluon.html.META'>"
p4798
sS'IS_DATE'
p4799
S"<class 'gluon.validators.IS_DATE'>"
p4800
sS'IS_EMAIL'
p4801
S"<class 'gluon.validators.IS_EMAIL'>"
p4802
sS'IS_NOT_EMPTY'
p4803
S"<class 'gluon.validators.IS_NOT_EMPTY'>"
p4804
sS'IS_FLOAT_IN_RANGE'
p4805
S"<class 'gluon.validators.IS_FLOAT_IN_RANGE'>"
p4806
sS'TBODY'
p4807
S"<class 'gluon.html.TBODY'>"
p4808
sS'CAT'
p4809
S"<class 'gluon.html.CAT'>"
p4810
sS'Field'
p4811
S"<class 'gluon.dal.Field'>"
p4812
sS'DIV'
p4813
S"<class 'gluon.html.DIV'>"
p4814
sS'LEGEND'
p4815
S"<class 'gluon.html.LEGEND'>"
p4816
sS'COLGROUP'
p4817
S"<class 'gluon.html.COLGROUP'>"
p4818
sS'DAL'
p4819
S"<class 'gluon.dal.DAL'>"
p4820
sS'TT'
p4821
S"<class 'gluon.html.TT'>"
p4822
sS'TR'
p4823
S"<class 'gluon.html.TR'>"
p4824
sS'LI'
p4825
S"<class 'gluon.html.LI'>"
p4826
sS'right_sidebar_enabled'
p4827
g99
sS'IFRAME'
p4828
S"<class 'gluon.html.IFRAME'>"
p4829
sS'TD'
p4830
S"<class 'gluon.html.TD'>"
p4831
sS'PluginManager'
p4832
S"<class 'gluon.tools.PluginManager'>"
p4833
sS'IS_URL'
p4834
S"<class 'gluon.validators.IS_URL'>"
p4835
sS'A'
S"<class 'gluon.html.A'>"
p4836
sS'STYLE'
p4837
S"<class 'gluon.html.STYLE'>"
p4838
sS'IS_DATETIME_IN_RANGE'
p4839
S"<class 'gluon.validators.IS_DATETIME_IN_RANGE'>"
p4840
sS'IS_IMAGE'
p4841
S"<class 'gluon.validators.IS_IMAGE'>"
p4842
sS'I'
S"<class 'gluon.html.I'>"
p4843
sS'crud'
p4844
S'<gluon.tools.Crud object>'
p4845
sS'xmlescape'
p4846
S'<function xmlescape>'
p4847
sS'right_sidebar_style'
p4848
S'\'style="display: none;"\''
p4849
sS'IS_NOT_IN_DB'
p4850
S"<class 'gluon.validators.IS_NOT_IN_DB'>"
p4851
sg3449
S"<Storage {'body': <cStringIO.StringO object at 0...> at 0x3171d70>, 'view': 'information/new.html'}>"
p4852
sS'THEAD'
p4853
S"<class 'gluon.html.THEAD'>"
p4854
sS'IS_NULL_OR'
p4855
S"<class 'gluon.validators.IS_EMPTY_OR'>"
p4856
sS'left_sidebar_style'
p4857
S'\'style="display: none;"\''
p4858
sg55
S"<Storage {'body': <cStringIO.StringO object at 0..._vars': <Storage {}>, 'post_vars': <Storage {}>}>"
p4859
sS'IS_EXPR'
p4860
S"<class 'gluon.validators.IS_EXPR'>"
p4861
sS'T'
S'<gluon.languages.translator object>'
p4862
sS'IS_IN_SET'
p4863
S"<class 'gluon.validators.IS_IN_SET'>"
p4864
sS'IS_UPLOAD_FILENAME'
p4865
S"<class 'gluon.validators.IS_UPLOAD_FILENAME'>"
p4866
sS'style_content'
p4867
S'\'style="width: 100%"\''
p4868
sg4561
S"'Publication'"
p4869
sS'IS_DECIMAL_IN_RANGE'
p4870
S"<class 'gluon.validators.IS_DECIMAL_IN_RANGE'>"
p4871
sssS'traceback'
p4872
S'Traceback (most recent call last):\n  File "/home/kaique/Projects/web2py/gluon/restricted.py", line 194, in restricted\n    exec ccode in environment\n  File "/home/kaique/Projects/web2py/applications/synopsis/views/information/new.html", line 84, in <module>\nNameError: name \'form_subject\' is not defined\n'
p4873
s.