(dp1
S'output'
p2
S''
sS'layer'
p3
S'/home/kaique/Projects/web2py/applications/synopsis/models/db.py'
p4
sS'code'
p5
S"# -*- coding: utf-8 -*-\n\n#########################################################################\n## This scaffolding model makes your app work on Google App Engine too\n## File is released under public domain and you can use without limitations\n#########################################################################\n\nif not request.env.web2py_runtime_gae:     \n    ## if NOT running on Google App Engine use SQLite or other DB\n    db = DAL('sqlite://storage.sqlite') \nelse:\n    ## connect to Google BigTable (optional 'google:datastore://namespace')\n    db = DAL('google:datastore') \n    ## store sessions and tickets there\n    session.connect(request, response, db = db) \n    ## or store session in Memcache, Redis, etc.\n    ## from gluon.contrib.memdb import MEMDB\n    ## from google.appengine.api.memcache import Client\n    ## session.connect(request, response, db = MEMDB(Client()))\n\n## by default give a view/generic.extension to all actions from localhost\n## none otherwise. a pattern can be 'controller/function.extension'\nresponse.generic_patterns = ['*'] if request.is_local else []\n\n#########################################################################\n## Here is sample code if you need for\n## - email capabilities\n## - authentication (registration, login, logout, ... )\n## - authorization (role based authorization)\n## - services (xml, csv, json, xmlrpc, jsonrpc, amf, rss)\n## - old style crud actions\n## (more options discussed in gluon/tools.py)\n#########################################################################\n\nfrom gluon.tools import Auth, Crud, Service, PluginManager, prettydate\nauth = Auth(db, hmac_key=Auth.get_or_create_key()) \ncrud, service, plugins = Crud(db), Service(), PluginManager()\n\n## create all tables needed by auth if not custom tables\nauth.define_tables() \n\n## configure email\nmail=auth.settings.mailer\nmail.settings.server = 'logging' or 'smtp.gmail.com:587'\nmail.settings.sender = 'you@gmail.com'\nmail.settings.login = 'username:password'\n\n## configure auth policy\nauth.settings.registration_requires_verification = False\nauth.settings.registration_requires_approval = False\nauth.settings.reset_password_requires_verification = True\n\n## if you need to use OpenID, Facebook, MySpace, Twitter, Linkedin, etc.\n## register with janrain.com, write your domain:api_key in private/janrain.key\nfrom gluon.contrib.login_methods.rpx_account import use_janrain\nuse_janrain(auth,filename='private/janrain.key')\n\n#########################################################################\n## Define your tables below (or better in another model file) for example\n##\n## >>> db.define_table('mytable',Field('myfield','string'))\n##\n## Fields can be 'string','text','password','integer','double','boolean'\n##       'date','time','datetime','blob','upload', 'reference TABLENAME'\n## There is an implicit 'id integer autoincrement' field\n## Consult manual for more options, validators, etc.\n##\n## More API examples for controllers:\n##\n## >>> db.mytable.insert(myfield='value')\n## >>> rows=db(db.mytable.myfield=='value').select(db.mytable.ALL)\n## >>> for row in rows: print row.id, row.myfield\n#########################################################################\n\n# Signature\nsignature = db.Table( db, 'signature',\n\t\t\t\t\tField('created_on', 'datetime', default=request.now),\n\t\t\t\t\tField('created_by', db.auth_user, default=auth.user_id),\n\t\t\t\t\tField('updated_on', 'datetime', update=request.now),\n\t\t\t\t\tField('updated_by', db.auth_user, update=auth.user_id) )\n\n# Publications\ndb.define_table( 'publication', \n\t\t\t\tField('title', 'string'),\n\t\t\t\tField('sub_title', 'string'), signature )\n\n# Columns\ndb.define_table( 'column', \n\t\t\t\tField('title', 'string'),\n\t\t\t\tField('publication_id', 'integer', default=db.publications.id), signature )\n\n# Rows\ndb.define_table( 'row', \n\t\t\t\tField('content', 'text'),\n\t\t\t\tField('column_id', 'integer', default=db.columns.id), signature )\n\n# Quotes\ndb.define_table( 'quote', \n\t\t\t\tField('content', 'text'),\n\t\t\t\tField('publications_id', 'integer', default=db.columns.id), signature )\n"
p6
sS'snapshot'
p7
(dp8
sS'traceback'
p9
S'Traceback (most recent call last):\n  File "/home/kaique/Projects/web2py/gluon/restricted.py", line 194, in restricted\n    exec ccode in environment\n  File "/home/kaique/Projects/web2py/applications/synopsis/models/db.py", line 90, in <module>\n    Field(\'publication_id\', \'integer\', default=db.publications.id), signature )\n  File "/home/kaique/Projects/web2py/gluon/dal.py", line 4511, in __getattr__\n    return self[key]\n  File "/home/kaique/Projects/web2py/gluon/dal.py", line 4505, in __getitem__\n    return dict.__getitem__(self, str(key))\nKeyError: \'publications\'\n'
p10
s.