(dp1
S'output'
p2
S''
sS'layer'
p3
S'/home/kaique/Projects/web2py/applications/synopsis/views/information/profile.html'
p4
sS'code'
p5
S'response.write(\'<!DOCTYPE html>\\n<html lang="\', escape=False)\nresponse.write(T.accepted_language or \'en\')\nresponse.write(\'" class="no-js"><!-- no-js need it for modernzr -->\\n  <head>\\n    \\n    <meta charset="utf-8" />        \\n    <!-- www.phpied.com/conditional-comments-block-downloads/ -->\\n    <!--[if IE]>\\n      <!-- Always force latest IE rendering engine \\n       (even in intranet) & Chrome Frame \\n       Remove this if you use the .htaccess -->\\n      <meta http-equiv="X-UA-Compatible" content="IE=edge,chrome=1">\\n    <![endif]-->    \\n\\n    <title>\', escape=False)\nresponse.write(response.title or request.application)\nresponse.write(\'</title>\\n    \\n    <!-- http://dev.w3.org/html5/markup/meta.name.html -->\\n    <meta name="application-name" content="\', escape=False)\nresponse.write(request.application)\nresponse.write(\'" /> \\n    \\n    <!-- Speaking of Google, don\\\'t forget to set your site up: \\n     http://google.com/webmasters -->\\n    <meta name="google-site-verification" content="" />\\n    \\n    <!--  Mobile Viewport Fix\\n      j.mp/mobileviewport & davidbcalhoun.com/2010/viewport-metatag \\n      device-width: Occupy full width of the screen in its current orientation\\n      initial-scale = 1.0 retains dimensions instead of zooming out if page height > device height\\n      maximum-scale = 1.0 retains dimensions instead of zooming in if page width < device width\\n      -->\\n    <meta name="viewport" content="width=device-width, initial-scale=1.0, maximum-scale=1.0">\\n    \\n    <!-- Place favicon.ico and apple-touch-icon.png in the root of your domain and delete these references -->\\n    <link rel="shortcut icon" href="\', escape=False)\nresponse.write(URL(\'static\',\'favicon.ico\'))\nresponse.write(\'" type="image/x-icon">\\n    <link rel="apple-touch-icon" href="\', escape=False)\nresponse.write(URL(\'static\',\'favicon.png\'))\nresponse.write(\'">\\n\\n    <!-- For the less-enabled mobile browsers like Opera Mini -->\\n    <link rel="stylesheet" media="handheld" href="\', escape=False)\nresponse.write(URL(\'static\',\'css/handheld.css\'))\nresponse.write(\'">\\n    \\n    <!-- All JavaScript at the bottom, except for Modernizr which enables HTML5 elements & feature detects -->\\n    <script src="\', escape=False)\nresponse.write(URL(\'static\',\'js/modernizr-1.7.min.js\'))\nresponse.write(\'"></script>\\n    \\n    \', escape=False)\n#------  require CSS and JS files for this page (read info in base.css) ------\nresponse.write(\'\\n    \', escape=False)\nresponse.files.append(URL(\'static\',\'css/base.css\'))\nresponse.write(\'\\n    \', escape=False)\nresponse.files.append(URL(\'static\',\'css/superfish.css\'))\nresponse.write(\'\\n    \', escape=False)\nresponse.files.append(URL(\'static\',\'js/superfish.js\'))\nresponse.write(\'\\n    \', escape=False)\n#------ include web2py specific js code (jquery, calendar, form stuff) ------\nresponse.write(\'\\n    \', escape=False)\nresponse.files.insert(0,URL(\'static\',\'js/jquery.js\'))\nresponse.files.insert(1,URL(\'static\',\'css/anytime.css\'))\nresponse.files.insert(2,URL(\'static\',\'js/anytime.js\'))\nresponse.include_meta()\nresponse.include_files()\nresponse.write(\'\\n<script type="text/javascript"><!--\\n    // These variables are used by the web2py_ajax_init function in web2py_ajax.js (which is loaded below).\\n    var w2p_ajax_confirm_message = "\', escape=False)\nresponse.write(T(\'Are you sure you want to delete this object?\'))\nresponse.write(\'";\\n    var w2p_ajax_date_format = "\', escape=False)\nresponse.write(T(\'%Y-%m-%d\'))\nresponse.write(\'";\\n    var w2p_ajax_datetime_format = "\', escape=False)\nresponse.write(T(\'%Y-%m-%d %H:%M:%S\'))\nresponse.write(\'";\\n    //--></script>\\n    <script src="\', escape=False)\nresponse.write(URL(\'static\',\'js/web2py_ajax.js\'))\nresponse.write(\'" type="text/javascript"></script>\\n\', escape=False)\nresponse.write(\'\\n\\n    \', escape=False)\n#using sidebars need to know what sidebar you want to use\n#prior of using it, because of static width size of content, you can use\n#left_sidebar, right_sidebar, both or none (False left and right)\nleft_sidebar_enabled = globals().get(\'left_sidebar_enabled\',False)\nright_sidebar_enabled = globals().get(\'right_sidebar_enabled\',False)\nif left_sidebar_enabled and right_sidebar_enabled: width_content=\'63%\'\nelif left_sidebar_enabled != right_sidebar_enabled: width_content=\'740px\'\nelse: width_content=\'100%\'\nif left_sidebar_enabled: left_sidebar_style = \'style="display: block;"\'\nelse: left_sidebar_style = \'style="display: none;"\'\nif right_sidebar_enabled: right_sidebar_style = \'style="display: block;"\'\nelse: right_sidebar_style = \'style="display: none;"\'\nstyle_content = \'style="width: %s"\' % width_content\nresponse.write(\'\\n    \\n    <!-- uncomment here to load jquery-ui -->\\n    \\n    <link rel="stylesheet" href="http://ajax.googleapis.com/ajax/libs/jqueryui/1.8.16/themes/base/jquery-ui.css" type="text/css" media="all" />\\n    <script src="http://ajax.googleapis.com/ajax/libs/jqueryui/1.8.16/jquery-ui.min.js" type="text/javascript"></script>\\n    \\n   <!-- uncomment to load jquery-ui -->\\n    \\n    \\n  </head>\\n  \\n  <!-- paulirish.com/2008/conditional-stylesheets-vs-css-hacks-answer-neither/ -->  \\n  <!--[if lt IE 7 ]> <body class="ie6"> <![endif]-->\\n  <!--[if IE 7 ]>    <body class="ie7"> <![endif]-->\\n  <!--[if IE 8 ]>    <body class="ie8"> <![endif]-->\\n  <!--[if IE 9 ]>    <body class="ie9"> <![endif]-->\\n  <!--[if (gt IE 9)|!(IE)]><!--> <body> <!--<![endif]-->\\n    \\n    <div class="flash">\', escape=False)\nresponse.write(response.flash or \'\')\nresponse.write(\'</div> <!-- notification div -->\\n\\n        \\n\\n    <div id="container">                        \\n      \\n      <div id="wrapper">        \\n      \', escape=False)\ntry:\n    response.write(auth.navbar(action=URL(\'default\',\'user\')))\nexcept:pass\nresponse.write(\'\\n    \\n    <div id="header"> <!-- header and login nav -->\\n      \', escape=False)\nresponse.write(\' <!-- this is default header -->\\n      \\n      <h1>\\n        <span id="appname">\', escape=False)\nresponse.write(request.application.capitalize())\nresponse.write(\'</span>App\\n      </h1>\\n      <div style="clear: both;"></div><!-- Clear the divs -->\\n      \', escape=False)\nresponse.write(\'\\n    </div><!-- header  -->\\n    \\n    <div id="statusbar"><!-- statusbar is menu zone -->\\n      \', escape=False)\nresponse.write(\' <!-- this is default statusbar -->\\n      \', escape=False)\n#------ superfish menu ------\nresponse.write(\'\\n      \', escape=False)\nresponse.write(MENU(response.menu,_class=\'sf-menu\'))\nresponse.write(\'\\n      <script type="text/javascript">\\n        jQuery(document).ready(function(){\\n        jQuery(\\\'ul.sf-menu\\\').superfish();});\\n      </script>\\n\\n      <!-- AddToAny BEGIN -->\\n      <div style="padding: 7px; float:right;" class="a2a_kit a2a_default_style"><a class="a2a_dd" href="http://www.addtoany.com/share_save">Share</a></div><script type="text/javascript" src="http://static.addtoany.com/menu/page.js"></script>\\n      <!-- AddToAny END -->\\n\\n      <div style="clear: both;"></div><!-- Clear the divs -->   \\n      \', escape=False)\nresponse.write(\'               \\n    </div><!-- statusbar -->\\n    \\n    <div id="page"> <!-- Here my central body -->     \\n\\n      \', escape=False)\nif left_sidebar_enabled:\n    response.write(\'\\n          <div id="left_sidebar" \', escape=False)\n    response.write(XML(left_sidebar_style))\n    response.write(\' >\\n            <div style="padding: 4px;">\\n          \', escape=False)\n    response.write(\'Content Left Sidebar\', escape=False)\n    response.write(\'       \\n            </div>\\n          </div><!-- left_sidebar -->\\n      \', escape=False)\n    pass\nresponse.write(\'\\n\\n      <!-- content -->\\n      <div id="content" \', escape=False)\nresponse.write(XML(style_content))\nresponse.write(\' >\\n        \', escape=False)\nresponse.write(\'\\n\\n<div class="content">\\n\\t<section>\\n\\t\\t<article>\\n\\t\\t\\t\', escape=False)\nfor subject in profile:\n    response.write(\'\\n\\t\\t\\t<header>\\n\\t\\t\\t\\t\', escape=False)\n    response.write(A(T(\'Go back to synopses\'), _href=URL(\'index\') ))\n    response.write(\' |\\n\\t\\t\\t\\t\', escape=False)\n    response.write(A(T(\'Insert new publication\'), _href=URL(\'publication\', args=[request.args[1]]) ))\n    response.write(\'\\n\\t\\t\\t\\t<hr />\\n\\t\\t\\t\\t<h1>\', escape=False)\n    response.write(subject.name)\n    response.write(\'</h1>\\n\\t\\t\\t\\t<hr />\\n\\t\\t\\t</header>\\n\\t\\t\\t<div>\\t\\n\\t\\t\\t\\t<table style="border: 1px solid #ccc;">\\n\\t\\t\\t\\t\\t<thead>\\n\\t\\t\\t\\t\\t\\t<tr>\\n\\t\\t\\t\\t\\t\\t\\t<td>Publication</td>\\n\\t\\t\\t\\t\\t\\t\\t<td></td>\\n\\t\\t\\t\\t\\t\\t</tr>\\n\\t\\t\\t\\t\\t</thead>\\n\\t\\t\\t\\t\\t<tbody>\\n\\t\\t\\t\\t\\t\\t\', escape=False)\n    for detail in subject.publication.select():\n        response.write(\' \', escape=False)\n        if detail.subject_id == subject.id:\n            response.write(\'\\n\\t\\t\\t\\t\\t\\t<tr>\\n\\t\\t\\t\\t\\t\\t\\t<td>\\n\\t\\t\\t\\t\\t\\t\\t\\t\', escape=False)\n            response.write(detail.title)\n            response.write(\'\\n\\t\\t\\t\\t\\t\\t\\t</td>\\n\\t\\t\\t\\t\\t\\t\\t<td>\\n\\t\\t\\t\\t\\t\\t\\t\\t\', escape=False)\n            response.write(A( T(\'Visualize this publication\'),\n            _href=URL( \'information\',\n            \'publication\',\n            args=[detail.id] )\n            ))\n            response.write(\'\\n\\t\\t\\t\\t\\t\\t\\t</td>\\n\\t\\t\\t\\t\\t\\t</tr>\\n\\t\\t\\t\\t\\t\\t\', escape=False)\n            pass\n        response.write(\' \', escape=False)\n        pass\n    response.write(\'\\n\\t\\t\\t\\t\\t</tbody>\\n\\t\\t\\t\\t</table>\\n\\t\\t\\t</div>\\n\\t\\t\\t\', escape=False)\n    pass\nresponse.write(\'\\n\\t\\t</article>\\n\\t</section>\\n</div>\\n\', escape=False)\nresponse.write(\' \\n      </div>\\n      <!-- content -->\\n\\n      \', escape=False)\nif right_sidebar_enabled:\n    response.write(\'\\n          <div id="right_sidebar" \', escape=False)\n    response.write(XML(right_sidebar_style))\n    response.write(\' >\\n            <div style="padding: 4px;">\\n              \', escape=False)\n    response.write(\'Content Right Sidebar\', escape=False)\n    response.write(\'\\n            </div>\\n      </div><!-- right_sidebar -->\\n          \', escape=False)\n    pass\nresponse.write(\'\\n\\n\\n      <div style="clear: both;"></div><!-- Clear the divs -->\\n      \\n    </div><!-- page -->                         \\n    \\n    <div id="footer">\\n      \', escape=False)\nresponse.write(\' <!-- this is default footer -->\\n      <a href="http://www.web2py.com/" style="float: left; padding-right: 6px;">\\n        <img src="\', escape=False)\nresponse.write(URL(\'static\',\'images/poweredby.png\'))\nresponse.write(\'"/>\\n      </a>\\n      \', escape=False)\nresponse.write(T(\'Copyright\'))\nresponse.write(\' &#169; 2011               \\n      <div style="clear: both;"></div><!-- Clear the divs -->\\n      \', escape=False)\nresponse.write(\'\\n\\n    </div><!-- footer -->           \\n      </div><!-- wrapper -->\\n    </div><!-- container -->        \\n    \\n    <!--[if lt IE 7 ]>\\n    <script src="\', escape=False)\nresponse.write(URL(\'static\',\'js/dd_belatedpng.js\'))\nresponse.write(\'"></script>\\n    <script> DD_belatedPNG.fix(\\\'img, .png_bg\\\'); //fix any <img> or .png_bg background-images </script>\\n    <![endif]-->\\n    \', escape=False)\nif response.google_analytics_id:\n    response.write("<script>/* http://mathiasbynens.be/notes/async-analytics-snippet */ var _gaq=[[\'_setAccount\',\'", escape=False)\n    response.write(response.google_analyitics_id)\n    response.write("\'],[\'_trackPageview\']];(function(d,t){var g=d.createElement(t),s=d.getElementsByTagName(t)[0];g.src=\'//www.google-analytics.com/ga.js\';s.parentNode.insertBefore(g,s)}(document,\'script\')) </script>", escape=False)\n    pass\nresponse.write(\'\\n  </body>\\n</html>\\n\', escape=False)'
p6
sS'snapshot'
p7
(dp8
S'exception'
p9
(dp10
S'__hash__'
p11
S"<method-wrapper '__hash__' of exceptions.IndexError object>"
p12
sS'__setattr__'
p13
S"<method-wrapper '__setattr__' of exceptions.IndexError object>"
p14
sS'__reduce_ex__'
p15
S'<built-in method __reduce_ex__ of exceptions.IndexError object>'
p16
sS'__getslice__'
p17
S"<method-wrapper '__getslice__' of exceptions.IndexError object>"
p18
sS'__getitem__'
p19
S"<method-wrapper '__getitem__' of exceptions.IndexError object>"
p20
sS'__setstate__'
p21
S'<built-in method __setstate__ of exceptions.IndexError object>'
p22
sS'args'
p23
S"('list index out of range',)"
p24
sS'__reduce__'
p25
S'<built-in method __reduce__ of exceptions.IndexError object>'
p26
sS'__str__'
p27
S"<method-wrapper '__str__' of exceptions.IndexError object>"
p28
sS'__format__'
p29
S'<built-in method __format__ of exceptions.IndexError object>'
p30
sS'__getattribute__'
p31
S"<method-wrapper '__getattribute__' of exceptions.IndexError object>"
p32
sS'__class__'
p33
S"<type 'exceptions.IndexError'>"
p34
sS'__unicode__'
p35
S'<built-in method __unicode__ of exceptions.IndexError object>'
p36
sS'__delattr__'
p37
S"<method-wrapper '__delattr__' of exceptions.IndexError object>"
p38
sS'__subclasshook__'
p39
S'<built-in method __subclasshook__ of type object>'
p40
sS'__repr__'
p41
S"<method-wrapper '__repr__' of exceptions.IndexError object>"
p42
sS'__dict__'
p43
S'{}'
p44
sS'__sizeof__'
p45
S'<built-in method __sizeof__ of exceptions.IndexError object>'
p46
sS'__doc__'
p47
S"'Sequence index out of range.'"
p48
sS'__init__'
p49
S"<method-wrapper '__init__' of exceptions.IndexError object>"
p50
sS'__new__'
p51
S'<built-in method __new__ of type object>'
p52
ssS'evalue'
p53
S'list index out of range'
p54
sS'request'
p55
ccopy_reg
_reconstructor
p56
(cgluon.html
BEAUTIFY
p57
c__builtin__
object
p58
NtRp59
(dp60
S'attributes'
p61
(dp62
sS'components'
p63
(lp64
g56
(cgluon.html
TABLE
p65
g58
NtRp66
(dp67
g61
(dp68
S'level'
p69
I5
ssS'parent'
p70
Nsg63
(lp71
g56
(cgluon.html
TR
p72
g58
NtRp73
(dp74
g61
(dp75
sg70
g66
sg63
(lp76
g56
(cgluon.html
TD
p77
g58
NtRp78
(dp79
g61
(dp80
S'_style'
p81
S'font-weight:bold;'
p82
ssg70
g73
sg63
(lp83
S'ajax'
p84
asbag56
(g77
g58
NtRp85
(dp86
g61
(dp87
S'_valign'
p88
S'top'
p89
ssg70
g73
sg63
(lp90
S':'
asbag56
(g77
g58
NtRp91
(dp92
g61
(dp93
sg70
g73
sg63
(lp94
g56
(g57
g58
NtRp95
(dp96
g61
(dp97
g69
I5
ssg70
g91
sg63
(lp98
S'False'
p99
asbasbasbag56
(g72
g58
NtRp100
(dp101
g61
(dp102
sg70
g66
sg63
(lp103
g56
(g77
g58
NtRp104
(dp105
g61
(dp106
g81
g82
ssg70
g100
sg63
(lp107
S'application'
p108
asbag56
(g77
g58
NtRp109
(dp110
g61
(dp111
g88
g89
ssg70
g100
sg63
(lp112
S':'
asbag56
(g77
g58
NtRp113
(dp114
g61
(dp115
sg70
g100
sg63
(lp116
g56
(g57
g58
NtRp117
(dp118
g61
(dp119
g69
I5
ssg70
g113
sg63
(lp120
S'synopsis'
p121
asbasbasbag56
(g72
g58
NtRp122
(dp123
g61
(dp124
sg70
g66
sg63
(lp125
g56
(g77
g58
NtRp126
(dp127
g61
(dp128
g81
g82
ssg70
g122
sg63
(lp129
g23
asbag56
(g77
g58
NtRp130
(dp131
g61
(dp132
g88
g89
ssg70
g122
sg63
(lp133
S':'
asbag56
(g77
g58
NtRp134
(dp135
g61
(dp136
sg70
g122
sg63
(lp137
g56
(g57
g58
NtRp138
(dp139
g61
(dp140
g69
I5
ssg70
g134
sg63
(lp141
g56
(g65
g58
NtRp142
(dp143
g61
(dp144
g69
I4
ssg70
Nsg63
(lp145
g56
(g72
g58
NtRp146
(dp147
g61
(dp148
sg70
g142
sg63
(lp149
g56
(g77
g58
NtRp150
(dp151
g61
(dp152
sg70
g146
sg63
(lp153
g56
(g57
g58
NtRp154
(dp155
g61
(dp156
g69
I4
ssg70
g150
sg63
(lp157
S'1'
asbasbasbasbasbasbasbag56
(g72
g58
NtRp158
(dp159
g61
(dp160
sg70
g66
sg63
(lp161
g56
(g77
g58
NtRp162
(dp163
g61
(dp164
g81
g82
ssg70
g158
sg63
(lp165
S'body'
p166
asbag56
(g77
g58
NtRp167
(dp168
g61
(dp169
g88
g89
ssg70
g158
sg63
(lp170
S':'
asbag56
(g77
g58
NtRp171
(dp172
g61
(dp173
sg70
g158
sg63
(lp174
g56
(g57
g58
NtRp175
(dp176
g61
(dp177
g69
I5
ssg70
g171
sg63
(lp178
S'<cStringIO.StringO object at 0x3210998>'
p179
asbasbasbag56
(g72
g58
NtRp180
(dp181
g61
(dp182
sg70
g66
sg63
(lp183
g56
(g77
g58
NtRp184
(dp185
g61
(dp186
g81
g82
ssg70
g180
sg63
(lp187
S'client'
p188
asbag56
(g77
g58
NtRp189
(dp190
g61
(dp191
g88
g89
ssg70
g180
sg63
(lp192
S':'
asbag56
(g77
g58
NtRp193
(dp194
g61
(dp195
sg70
g180
sg63
(lp196
g56
(g57
g58
NtRp197
(dp198
g61
(dp199
g69
I5
ssg70
g193
sg63
(lp200
S'127.0.0.1'
p201
asbasbasbag56
(g72
g58
NtRp202
(dp203
g61
(dp204
sg70
g66
sg63
(lp205
g56
(g77
g58
NtRp206
(dp207
g61
(dp208
g81
g82
ssg70
g202
sg63
(lp209
S'controller'
p210
asbag56
(g77
g58
NtRp211
(dp212
g61
(dp213
g88
g89
ssg70
g202
sg63
(lp214
S':'
asbag56
(g77
g58
NtRp215
(dp216
g61
(dp217
sg70
g202
sg63
(lp218
g56
(g57
g58
NtRp219
(dp220
g61
(dp221
g69
I5
ssg70
g215
sg63
(lp222
S'information'
p223
asbasbasbag56
(g72
g58
NtRp224
(dp225
g61
(dp226
sg70
g66
sg63
(lp227
g56
(g77
g58
NtRp228
(dp229
g61
(dp230
g81
g82
ssg70
g224
sg63
(lp231
S'cookies'
p232
asbag56
(g77
g58
NtRp233
(dp234
g61
(dp235
g88
g89
ssg70
g224
sg63
(lp236
S':'
asbag56
(g77
g58
NtRp237
(dp238
g61
(dp239
sg70
g224
sg63
(lp240
g56
(g57
g58
NtRp241
(dp242
g61
(dp243
g69
I5
ssg70
g237
sg63
(lp244
g56
(g65
g58
NtRp245
(dp246
g61
(dp247
g69
I4
ssg70
Nsg63
(lp248
g56
(g72
g58
NtRp249
(dp250
g61
(dp251
sg70
g245
sg63
(lp252
g56
(g77
g58
NtRp253
(dp254
g61
(dp255
g81
g82
ssg70
g249
sg63
(lp256
S'session_id_admin'
p257
asbag56
(g77
g58
NtRp258
(dp259
g61
(dp260
g88
g89
ssg70
g249
sg63
(lp261
S':'
asbag56
(g77
g58
NtRp262
(dp263
g61
(dp264
sg70
g249
sg63
(lp265
g56
(g57
g58
NtRp266
(dp267
g61
(dp268
g69
I4
ssg70
g262
sg63
(lp269
g56
(g65
g58
NtRp270
(dp271
g61
(dp272
g69
I3
ssg70
Nsg63
(lp273
g56
(g72
g58
NtRp274
(dp275
g61
(dp276
sg70
g270
sg63
(lp277
g56
(g77
g58
NtRp278
(dp279
g61
(dp280
g81
g82
ssg70
g274
sg63
(lp281
S'comment'
p282
asbag56
(g77
g58
NtRp283
(dp284
g61
(dp285
g88
g89
ssg70
g274
sg63
(lp286
S':'
asbag56
(g77
g58
NtRp287
(dp288
g61
(dp289
sg70
g274
sg63
(lp290
g56
(g57
g58
NtRp291
(dp292
g61
(dp293
g69
I3
ssg70
g287
sg63
(lp294
S''
asbasbasbag56
(g72
g58
NtRp295
(dp296
g61
(dp297
sg70
g270
sg63
(lp298
g56
(g77
g58
NtRp299
(dp300
g61
(dp301
g81
g82
ssg70
g295
sg63
(lp302
S'domain'
p303
asbag56
(g77
g58
NtRp304
(dp305
g61
(dp306
g88
g89
ssg70
g295
sg63
(lp307
S':'
asbag56
(g77
g58
NtRp308
(dp309
g61
(dp310
sg70
g295
sg63
(lp311
g56
(g57
g58
NtRp312
(dp313
g61
(dp314
g69
I3
ssg70
g308
sg63
(lp315
S''
asbasbasbag56
(g72
g58
NtRp316
(dp317
g61
(dp318
sg70
g270
sg63
(lp319
g56
(g77
g58
NtRp320
(dp321
g61
(dp322
g81
g82
ssg70
g316
sg63
(lp323
S'expires'
p324
asbag56
(g77
g58
NtRp325
(dp326
g61
(dp327
g88
g89
ssg70
g316
sg63
(lp328
S':'
asbag56
(g77
g58
NtRp329
(dp330
g61
(dp331
sg70
g316
sg63
(lp332
g56
(g57
g58
NtRp333
(dp334
g61
(dp335
g69
I3
ssg70
g329
sg63
(lp336
S''
asbasbasbag56
(g72
g58
NtRp337
(dp338
g61
(dp339
sg70
g270
sg63
(lp340
g56
(g77
g58
NtRp341
(dp342
g61
(dp343
g81
g82
ssg70
g337
sg63
(lp344
S'httponly'
p345
asbag56
(g77
g58
NtRp346
(dp347
g61
(dp348
g88
g89
ssg70
g337
sg63
(lp349
S':'
asbag56
(g77
g58
NtRp350
(dp351
g61
(dp352
sg70
g337
sg63
(lp353
g56
(g57
g58
NtRp354
(dp355
g61
(dp356
g69
I3
ssg70
g350
sg63
(lp357
S''
asbasbasbag56
(g72
g58
NtRp358
(dp359
g61
(dp360
sg70
g270
sg63
(lp361
g56
(g77
g58
NtRp362
(dp363
g61
(dp364
g81
g82
ssg70
g358
sg63
(lp365
S'max-age'
p366
asbag56
(g77
g58
NtRp367
(dp368
g61
(dp369
g88
g89
ssg70
g358
sg63
(lp370
S':'
asbag56
(g77
g58
NtRp371
(dp372
g61
(dp373
sg70
g358
sg63
(lp374
g56
(g57
g58
NtRp375
(dp376
g61
(dp377
g69
I3
ssg70
g371
sg63
(lp378
S''
asbasbasbag56
(g72
g58
NtRp379
(dp380
g61
(dp381
sg70
g270
sg63
(lp382
g56
(g77
g58
NtRp383
(dp384
g61
(dp385
g81
g82
ssg70
g379
sg63
(lp386
S'path'
p387
asbag56
(g77
g58
NtRp388
(dp389
g61
(dp390
g88
g89
ssg70
g379
sg63
(lp391
S':'
asbag56
(g77
g58
NtRp392
(dp393
g61
(dp394
sg70
g379
sg63
(lp395
g56
(g57
g58
NtRp396
(dp397
g61
(dp398
g69
I3
ssg70
g392
sg63
(lp399
S''
asbasbasbag56
(g72
g58
NtRp400
(dp401
g61
(dp402
sg70
g270
sg63
(lp403
g56
(g77
g58
NtRp404
(dp405
g61
(dp406
g81
g82
ssg70
g400
sg63
(lp407
S'secure'
p408
asbag56
(g77
g58
NtRp409
(dp410
g61
(dp411
g88
g89
ssg70
g400
sg63
(lp412
S':'
asbag56
(g77
g58
NtRp413
(dp414
g61
(dp415
sg70
g400
sg63
(lp416
g56
(g57
g58
NtRp417
(dp418
g61
(dp419
g69
I3
ssg70
g413
sg63
(lp420
S''
asbasbasbag56
(g72
g58
NtRp421
(dp422
g61
(dp423
sg70
g270
sg63
(lp424
g56
(g77
g58
NtRp425
(dp426
g61
(dp427
g81
g82
ssg70
g421
sg63
(lp428
S'version'
p429
asbag56
(g77
g58
NtRp430
(dp431
g61
(dp432
g88
g89
ssg70
g421
sg63
(lp433
S':'
asbag56
(g77
g58
NtRp434
(dp435
g61
(dp436
sg70
g421
sg63
(lp437
g56
(g57
g58
NtRp438
(dp439
g61
(dp440
g69
I3
ssg70
g434
sg63
(lp441
S''
asbasbasbasbasbasbasbag56
(g72
g58
NtRp442
(dp443
g61
(dp444
sg70
g245
sg63
(lp445
g56
(g77
g58
NtRp446
(dp447
g61
(dp448
g81
g82
ssg70
g442
sg63
(lp449
S'session_id_synopsis'
p450
asbag56
(g77
g58
NtRp451
(dp452
g61
(dp453
g88
g89
ssg70
g442
sg63
(lp454
S':'
asbag56
(g77
g58
NtRp455
(dp456
g61
(dp457
sg70
g442
sg63
(lp458
g56
(g57
g58
NtRp459
(dp460
g61
(dp461
g69
I4
ssg70
g455
sg63
(lp462
g56
(g65
g58
NtRp463
(dp464
g61
(dp465
g69
I3
ssg70
Nsg63
(lp466
g56
(g72
g58
NtRp467
(dp468
g61
(dp469
sg70
g463
sg63
(lp470
g56
(g77
g58
NtRp471
(dp472
g61
(dp473
g81
g82
ssg70
g467
sg63
(lp474
g282
asbag56
(g77
g58
NtRp475
(dp476
g61
(dp477
g88
g89
ssg70
g467
sg63
(lp478
S':'
asbag56
(g77
g58
NtRp479
(dp480
g61
(dp481
sg70
g467
sg63
(lp482
g56
(g57
g58
NtRp483
(dp484
g61
(dp485
g69
I3
ssg70
g479
sg63
(lp486
S''
asbasbasbag56
(g72
g58
NtRp487
(dp488
g61
(dp489
sg70
g463
sg63
(lp490
g56
(g77
g58
NtRp491
(dp492
g61
(dp493
g81
g82
ssg70
g487
sg63
(lp494
g303
asbag56
(g77
g58
NtRp495
(dp496
g61
(dp497
g88
g89
ssg70
g487
sg63
(lp498
S':'
asbag56
(g77
g58
NtRp499
(dp500
g61
(dp501
sg70
g487
sg63
(lp502
g56
(g57
g58
NtRp503
(dp504
g61
(dp505
g69
I3
ssg70
g499
sg63
(lp506
S''
asbasbasbag56
(g72
g58
NtRp507
(dp508
g61
(dp509
sg70
g463
sg63
(lp510
g56
(g77
g58
NtRp511
(dp512
g61
(dp513
g81
g82
ssg70
g507
sg63
(lp514
g324
asbag56
(g77
g58
NtRp515
(dp516
g61
(dp517
g88
g89
ssg70
g507
sg63
(lp518
S':'
asbag56
(g77
g58
NtRp519
(dp520
g61
(dp521
sg70
g507
sg63
(lp522
g56
(g57
g58
NtRp523
(dp524
g61
(dp525
g69
I3
ssg70
g519
sg63
(lp526
S''
asbasbasbag56
(g72
g58
NtRp527
(dp528
g61
(dp529
sg70
g463
sg63
(lp530
g56
(g77
g58
NtRp531
(dp532
g61
(dp533
g81
g82
ssg70
g527
sg63
(lp534
g345
asbag56
(g77
g58
NtRp535
(dp536
g61
(dp537
g88
g89
ssg70
g527
sg63
(lp538
S':'
asbag56
(g77
g58
NtRp539
(dp540
g61
(dp541
sg70
g527
sg63
(lp542
g56
(g57
g58
NtRp543
(dp544
g61
(dp545
g69
I3
ssg70
g539
sg63
(lp546
S''
asbasbasbag56
(g72
g58
NtRp547
(dp548
g61
(dp549
sg70
g463
sg63
(lp550
g56
(g77
g58
NtRp551
(dp552
g61
(dp553
g81
g82
ssg70
g547
sg63
(lp554
g366
asbag56
(g77
g58
NtRp555
(dp556
g61
(dp557
g88
g89
ssg70
g547
sg63
(lp558
S':'
asbag56
(g77
g58
NtRp559
(dp560
g61
(dp561
sg70
g547
sg63
(lp562
g56
(g57
g58
NtRp563
(dp564
g61
(dp565
g69
I3
ssg70
g559
sg63
(lp566
S''
asbasbasbag56
(g72
g58
NtRp567
(dp568
g61
(dp569
sg70
g463
sg63
(lp570
g56
(g77
g58
NtRp571
(dp572
g61
(dp573
g81
g82
ssg70
g567
sg63
(lp574
g387
asbag56
(g77
g58
NtRp575
(dp576
g61
(dp577
g88
g89
ssg70
g567
sg63
(lp578
S':'
asbag56
(g77
g58
NtRp579
(dp580
g61
(dp581
sg70
g567
sg63
(lp582
g56
(g57
g58
NtRp583
(dp584
g61
(dp585
g69
I3
ssg70
g579
sg63
(lp586
S''
asbasbasbag56
(g72
g58
NtRp587
(dp588
g61
(dp589
sg70
g463
sg63
(lp590
g56
(g77
g58
NtRp591
(dp592
g61
(dp593
g81
g82
ssg70
g587
sg63
(lp594
g408
asbag56
(g77
g58
NtRp595
(dp596
g61
(dp597
g88
g89
ssg70
g587
sg63
(lp598
S':'
asbag56
(g77
g58
NtRp599
(dp600
g61
(dp601
sg70
g587
sg63
(lp602
g56
(g57
g58
NtRp603
(dp604
g61
(dp605
g69
I3
ssg70
g599
sg63
(lp606
S''
asbasbasbag56
(g72
g58
NtRp607
(dp608
g61
(dp609
sg70
g463
sg63
(lp610
g56
(g77
g58
NtRp611
(dp612
g61
(dp613
g81
g82
ssg70
g607
sg63
(lp614
g429
asbag56
(g77
g58
NtRp615
(dp616
g61
(dp617
g88
g89
ssg70
g607
sg63
(lp618
S':'
asbag56
(g77
g58
NtRp619
(dp620
g61
(dp621
sg70
g607
sg63
(lp622
g56
(g57
g58
NtRp623
(dp624
g61
(dp625
g69
I3
ssg70
g619
sg63
(lp626
S''
asbasbasbasbasbasbasbag56
(g72
g58
NtRp627
(dp628
g61
(dp629
sg70
g245
sg63
(lp630
g56
(g77
g58
NtRp631
(dp632
g61
(dp633
g81
g82
ssg70
g627
sg63
(lp634
S'session_id_welcome'
p635
asbag56
(g77
g58
NtRp636
(dp637
g61
(dp638
g88
g89
ssg70
g627
sg63
(lp639
S':'
asbag56
(g77
g58
NtRp640
(dp641
g61
(dp642
sg70
g627
sg63
(lp643
g56
(g57
g58
NtRp644
(dp645
g61
(dp646
g69
I4
ssg70
g640
sg63
(lp647
g56
(g65
g58
NtRp648
(dp649
g61
(dp650
g69
I3
ssg70
Nsg63
(lp651
g56
(g72
g58
NtRp652
(dp653
g61
(dp654
sg70
g648
sg63
(lp655
g56
(g77
g58
NtRp656
(dp657
g61
(dp658
g81
g82
ssg70
g652
sg63
(lp659
g282
asbag56
(g77
g58
NtRp660
(dp661
g61
(dp662
g88
g89
ssg70
g652
sg63
(lp663
S':'
asbag56
(g77
g58
NtRp664
(dp665
g61
(dp666
sg70
g652
sg63
(lp667
g56
(g57
g58
NtRp668
(dp669
g61
(dp670
g69
I3
ssg70
g664
sg63
(lp671
S''
asbasbasbag56
(g72
g58
NtRp672
(dp673
g61
(dp674
sg70
g648
sg63
(lp675
g56
(g77
g58
NtRp676
(dp677
g61
(dp678
g81
g82
ssg70
g672
sg63
(lp679
g303
asbag56
(g77
g58
NtRp680
(dp681
g61
(dp682
g88
g89
ssg70
g672
sg63
(lp683
S':'
asbag56
(g77
g58
NtRp684
(dp685
g61
(dp686
sg70
g672
sg63
(lp687
g56
(g57
g58
NtRp688
(dp689
g61
(dp690
g69
I3
ssg70
g684
sg63
(lp691
S''
asbasbasbag56
(g72
g58
NtRp692
(dp693
g61
(dp694
sg70
g648
sg63
(lp695
g56
(g77
g58
NtRp696
(dp697
g61
(dp698
g81
g82
ssg70
g692
sg63
(lp699
g324
asbag56
(g77
g58
NtRp700
(dp701
g61
(dp702
g88
g89
ssg70
g692
sg63
(lp703
S':'
asbag56
(g77
g58
NtRp704
(dp705
g61
(dp706
sg70
g692
sg63
(lp707
g56
(g57
g58
NtRp708
(dp709
g61
(dp710
g69
I3
ssg70
g704
sg63
(lp711
S''
asbasbasbag56
(g72
g58
NtRp712
(dp713
g61
(dp714
sg70
g648
sg63
(lp715
g56
(g77
g58
NtRp716
(dp717
g61
(dp718
g81
g82
ssg70
g712
sg63
(lp719
g345
asbag56
(g77
g58
NtRp720
(dp721
g61
(dp722
g88
g89
ssg70
g712
sg63
(lp723
S':'
asbag56
(g77
g58
NtRp724
(dp725
g61
(dp726
sg70
g712
sg63
(lp727
g56
(g57
g58
NtRp728
(dp729
g61
(dp730
g69
I3
ssg70
g724
sg63
(lp731
S''
asbasbasbag56
(g72
g58
NtRp732
(dp733
g61
(dp734
sg70
g648
sg63
(lp735
g56
(g77
g58
NtRp736
(dp737
g61
(dp738
g81
g82
ssg70
g732
sg63
(lp739
g366
asbag56
(g77
g58
NtRp740
(dp741
g61
(dp742
g88
g89
ssg70
g732
sg63
(lp743
S':'
asbag56
(g77
g58
NtRp744
(dp745
g61
(dp746
sg70
g732
sg63
(lp747
g56
(g57
g58
NtRp748
(dp749
g61
(dp750
g69
I3
ssg70
g744
sg63
(lp751
S''
asbasbasbag56
(g72
g58
NtRp752
(dp753
g61
(dp754
sg70
g648
sg63
(lp755
g56
(g77
g58
NtRp756
(dp757
g61
(dp758
g81
g82
ssg70
g752
sg63
(lp759
g387
asbag56
(g77
g58
NtRp760
(dp761
g61
(dp762
g88
g89
ssg70
g752
sg63
(lp763
S':'
asbag56
(g77
g58
NtRp764
(dp765
g61
(dp766
sg70
g752
sg63
(lp767
g56
(g57
g58
NtRp768
(dp769
g61
(dp770
g69
I3
ssg70
g764
sg63
(lp771
S''
asbasbasbag56
(g72
g58
NtRp772
(dp773
g61
(dp774
sg70
g648
sg63
(lp775
g56
(g77
g58
NtRp776
(dp777
g61
(dp778
g81
g82
ssg70
g772
sg63
(lp779
g408
asbag56
(g77
g58
NtRp780
(dp781
g61
(dp782
g88
g89
ssg70
g772
sg63
(lp783
S':'
asbag56
(g77
g58
NtRp784
(dp785
g61
(dp786
sg70
g772
sg63
(lp787
g56
(g57
g58
NtRp788
(dp789
g61
(dp790
g69
I3
ssg70
g784
sg63
(lp791
S''
asbasbasbag56
(g72
g58
NtRp792
(dp793
g61
(dp794
sg70
g648
sg63
(lp795
g56
(g77
g58
NtRp796
(dp797
g61
(dp798
g81
g82
ssg70
g792
sg63
(lp799
g429
asbag56
(g77
g58
NtRp800
(dp801
g61
(dp802
g88
g89
ssg70
g792
sg63
(lp803
S':'
asbag56
(g77
g58
NtRp804
(dp805
g61
(dp806
sg70
g792
sg63
(lp807
g56
(g57
g58
NtRp808
(dp809
g61
(dp810
g69
I3
ssg70
g804
sg63
(lp811
S''
asbasbasbasbasbasbasbasbasbasbasbag56
(g72
g58
NtRp812
(dp813
g61
(dp814
sg70
g66
sg63
(lp815
g56
(g77
g58
NtRp816
(dp817
g61
(dp818
g81
g82
ssg70
g812
sg63
(lp819
S'env'
p820
asbag56
(g77
g58
NtRp821
(dp822
g61
(dp823
g88
g89
ssg70
g812
sg63
(lp824
S':'
asbag56
(g77
g58
NtRp825
(dp826
g61
(dp827
sg70
g812
sg63
(lp828
g56
(g57
g58
NtRp829
(dp830
g61
(dp831
g69
I5
ssg70
g825
sg63
(lp832
g56
(g65
g58
NtRp833
(dp834
g61
(dp835
g69
I4
ssg70
Nsg63
(lp836
g56
(g72
g58
NtRp837
(dp838
g61
(dp839
sg70
g833
sg63
(lp840
g56
(g77
g58
NtRp841
(dp842
g61
(dp843
g81
g82
ssg70
g837
sg63
(lp844
S'app_folders'
p845
asbag56
(g77
g58
NtRp846
(dp847
g61
(dp848
g88
g89
ssg70
g837
sg63
(lp849
S':'
asbag56
(g77
g58
NtRp850
(dp851
g61
(dp852
sg70
g837
sg63
(lp853
g56
(g57
g58
NtRp854
(dp855
g61
(dp856
g69
I4
ssg70
g850
sg63
(lp857
S"set(['/home/kaique/Projects/web2py/applications/synopsis/', '/home/kaique/Projects/web2py/applications/admin/'])"
p858
asbasbasbag56
(g72
g58
NtRp859
(dp860
g61
(dp861
sg70
g833
sg63
(lp862
g56
(g77
g58
NtRp863
(dp864
g61
(dp865
g81
g82
ssg70
g859
sg63
(lp866
S'applications_parent'
p867
asbag56
(g77
g58
NtRp868
(dp869
g61
(dp870
g88
g89
ssg70
g859
sg63
(lp871
S':'
asbag56
(g77
g58
NtRp872
(dp873
g61
(dp874
sg70
g859
sg63
(lp875
g56
(g57
g58
NtRp876
(dp877
g61
(dp878
g69
I4
ssg70
g872
sg63
(lp879
S'/home/kaique/Projects/web2py'
p880
asbasbasbag56
(g72
g58
NtRp881
(dp882
g61
(dp883
sg70
g833
sg63
(lp884
g56
(g77
g58
NtRp885
(dp886
g61
(dp887
g81
g82
ssg70
g881
sg63
(lp888
S'cmd_args'
p889
asbag56
(g77
g58
NtRp890
(dp891
g61
(dp892
g88
g89
ssg70
g881
sg63
(lp893
S':'
asbag56
(g77
g58
NtRp894
(dp895
g61
(dp896
sg70
g881
sg63
(lp897
g56
(g57
g58
NtRp898
(dp899
g61
(dp900
g69
I4
ssg70
g894
sg63
(lp901
g56
(g65
g58
NtRp902
(dp903
g61
(dp904
g69
I3
ssg70
Nsg63
(lp905
sbasbasbasbag56
(g72
g58
NtRp906
(dp907
g61
(dp908
sg70
g833
sg63
(lp909
g56
(g77
g58
NtRp910
(dp911
g61
(dp912
g81
g82
ssg70
g906
sg63
(lp913
S'cmd_options'
p914
asbag56
(g77
g58
NtRp915
(dp916
g61
(dp917
g88
g89
ssg70
g906
sg63
(lp918
S':'
asbag56
(g77
g58
NtRp919
(dp920
g61
(dp921
sg70
g906
sg63
(lp922
g56
(g57
g58
NtRp923
(dp924
g61
(dp925
g69
I4
ssg70
g919
sg63
(lp926
S"<Values at 0x2092950: {'verbose': False, 'ip': '127.0.0.1', 'shutdown_timeout': 5, 'taskbar': False, 'nocron': False, 'pid_filename': 'httpserver.pid', 'maxthreads': None, 'softcron': False, 'server_name': 'kaique-Pine-Trail-M', 'bpython': False, 'nogui': False, 'port': 8000, 'extcron': False, 'debuglevel': 30, 'test': None, 'folder': '/home/kaique/Projects/web2py', 'config': '', 'import_models': False, 'winservice': '', 'shell': None, 'run': '', 'log_filename': 'httpserver.log', 'args': [''], 'ssl_ca_certificate': None, 'scheduler': None, 'profiler_filename': None, 'ssl_private_key': '', 'password': 'dev', 'request_queue_size': 5, 'ssl_certificate': '', 'cronjob': False, 'plain': False, 'quiet': False, 'interfaces': None, 'minthreads': None, 'timeout': 10, 'numthreads': None, 'nobanner': False}>"
p927
asbasbasbag56
(g72
g58
NtRp928
(dp929
g61
(dp930
sg70
g833
sg63
(lp931
g56
(g77
g58
NtRp932
(dp933
g61
(dp934
g81
g82
ssg70
g928
sg63
(lp935
S'db_sessions'
p936
asbag56
(g77
g58
NtRp937
(dp938
g61
(dp939
g88
g89
ssg70
g928
sg63
(lp940
S':'
asbag56
(g77
g58
NtRp941
(dp942
g61
(dp943
sg70
g928
sg63
(lp944
g56
(g57
g58
NtRp945
(dp946
g61
(dp947
g69
I4
ssg70
g941
sg63
(lp948
S'set([])'
p949
asbasbasbag56
(g72
g58
NtRp950
(dp951
g61
(dp952
sg70
g833
sg63
(lp953
g56
(g77
g58
NtRp954
(dp955
g61
(dp956
g81
g82
ssg70
g950
sg63
(lp957
S'debugging'
p958
asbag56
(g77
g58
NtRp959
(dp960
g61
(dp961
g88
g89
ssg70
g950
sg63
(lp962
S':'
asbag56
(g77
g58
NtRp963
(dp964
g61
(dp965
sg70
g950
sg63
(lp966
g56
(g57
g58
NtRp967
(dp968
g61
(dp969
g69
I4
ssg70
g963
sg63
(lp970
g99
asbasbasbag56
(g72
g58
NtRp971
(dp972
g61
(dp973
sg70
g833
sg63
(lp974
g56
(g77
g58
NtRp975
(dp976
g61
(dp977
g81
g82
ssg70
g971
sg63
(lp978
S'gluon_parent'
p979
asbag56
(g77
g58
NtRp980
(dp981
g61
(dp982
g88
g89
ssg70
g971
sg63
(lp983
S':'
asbag56
(g77
g58
NtRp984
(dp985
g61
(dp986
sg70
g971
sg63
(lp987
g56
(g57
g58
NtRp988
(dp989
g61
(dp990
g69
I4
ssg70
g984
sg63
(lp991
S'/home/kaique/Projects/web2py'
p992
asbasbasbag56
(g72
g58
NtRp993
(dp994
g61
(dp995
sg70
g833
sg63
(lp996
g56
(g77
g58
NtRp997
(dp998
g61
(dp999
g81
g82
ssg70
g993
sg63
(lp1000
S'http_accept'
p1001
asbag56
(g77
g58
NtRp1002
(dp1003
g61
(dp1004
g88
g89
ssg70
g993
sg63
(lp1005
S':'
asbag56
(g77
g58
NtRp1006
(dp1007
g61
(dp1008
sg70
g993
sg63
(lp1009
g56
(g57
g58
NtRp1010
(dp1011
g61
(dp1012
g69
I4
ssg70
g1006
sg63
(lp1013
S'text/html,application/xhtml+xml,application/xml;q=0.9,*/*;q=0.8'
p1014
asbasbasbag56
(g72
g58
NtRp1015
(dp1016
g61
(dp1017
sg70
g833
sg63
(lp1018
g56
(g77
g58
NtRp1019
(dp1020
g61
(dp1021
g81
g82
ssg70
g1015
sg63
(lp1022
S'http_accept_charset'
p1023
asbag56
(g77
g58
NtRp1024
(dp1025
g61
(dp1026
g88
g89
ssg70
g1015
sg63
(lp1027
S':'
asbag56
(g77
g58
NtRp1028
(dp1029
g61
(dp1030
sg70
g1015
sg63
(lp1031
g56
(g57
g58
NtRp1032
(dp1033
g61
(dp1034
g69
I4
ssg70
g1028
sg63
(lp1035
S'ISO-8859-1,utf-8;q=0.7,*;q=0.7'
p1036
asbasbasbag56
(g72
g58
NtRp1037
(dp1038
g61
(dp1039
sg70
g833
sg63
(lp1040
g56
(g77
g58
NtRp1041
(dp1042
g61
(dp1043
g81
g82
ssg70
g1037
sg63
(lp1044
S'http_accept_encoding'
p1045
asbag56
(g77
g58
NtRp1046
(dp1047
g61
(dp1048
g88
g89
ssg70
g1037
sg63
(lp1049
S':'
asbag56
(g77
g58
NtRp1050
(dp1051
g61
(dp1052
sg70
g1037
sg63
(lp1053
g56
(g57
g58
NtRp1054
(dp1055
g61
(dp1056
g69
I4
ssg70
g1050
sg63
(lp1057
S'gzip, deflate'
p1058
asbasbasbag56
(g72
g58
NtRp1059
(dp1060
g61
(dp1061
sg70
g833
sg63
(lp1062
g56
(g77
g58
NtRp1063
(dp1064
g61
(dp1065
g81
g82
ssg70
g1059
sg63
(lp1066
S'http_accept_language'
p1067
asbag56
(g77
g58
NtRp1068
(dp1069
g61
(dp1070
g88
g89
ssg70
g1059
sg63
(lp1071
S':'
asbag56
(g77
g58
NtRp1072
(dp1073
g61
(dp1074
sg70
g1059
sg63
(lp1075
g56
(g57
g58
NtRp1076
(dp1077
g61
(dp1078
g69
I4
ssg70
g1072
sg63
(lp1079
S'pt-br,pt;q=0.8,en-us;q=0.5,en;q=0.3'
p1080
asbasbasbag56
(g72
g58
NtRp1081
(dp1082
g61
(dp1083
sg70
g833
sg63
(lp1084
g56
(g77
g58
NtRp1085
(dp1086
g61
(dp1087
g81
g82
ssg70
g1081
sg63
(lp1088
S'http_connection'
p1089
asbag56
(g77
g58
NtRp1090
(dp1091
g61
(dp1092
g88
g89
ssg70
g1081
sg63
(lp1093
S':'
asbag56
(g77
g58
NtRp1094
(dp1095
g61
(dp1096
sg70
g1081
sg63
(lp1097
g56
(g57
g58
NtRp1098
(dp1099
g61
(dp1100
g69
I4
ssg70
g1094
sg63
(lp1101
S'keep-alive'
p1102
asbasbasbag56
(g72
g58
NtRp1103
(dp1104
g61
(dp1105
sg70
g833
sg63
(lp1106
g56
(g77
g58
NtRp1107
(dp1108
g61
(dp1109
g81
g82
ssg70
g1103
sg63
(lp1110
S'http_cookie'
p1111
asbag56
(g77
g58
NtRp1112
(dp1113
g61
(dp1114
g88
g89
ssg70
g1103
sg63
(lp1115
S':'
asbag56
(g77
g58
NtRp1116
(dp1117
g61
(dp1118
sg70
g1103
sg63
(lp1119
g56
(g57
g58
NtRp1120
(dp1121
g61
(dp1122
g69
I4
ssg70
g1116
sg63
(lp1123
S'session_id_welcome=127.0.0.1-5cd27a60-9290-4dfd-905a-2cae79e1b71d; session_id_admin=127.0.0.1-4fcac13e-289c-4471-92ed-6d5dcbf185e6; session_id_synopsis=127.0.0.1-351efa91-66d9-4ca2-9c53-1a2177b18dc7'
p1124
asbasbasbag56
(g72
g58
NtRp1125
(dp1126
g61
(dp1127
sg70
g833
sg63
(lp1128
g56
(g77
g58
NtRp1129
(dp1130
g61
(dp1131
g81
g82
ssg70
g1125
sg63
(lp1132
S'http_host'
p1133
asbag56
(g77
g58
NtRp1134
(dp1135
g61
(dp1136
g88
g89
ssg70
g1125
sg63
(lp1137
S':'
asbag56
(g77
g58
NtRp1138
(dp1139
g61
(dp1140
sg70
g1125
sg63
(lp1141
g56
(g57
g58
NtRp1142
(dp1143
g61
(dp1144
g69
I4
ssg70
g1138
sg63
(lp1145
S'localhost:8000'
p1146
asbasbasbag56
(g72
g58
NtRp1147
(dp1148
g61
(dp1149
sg70
g833
sg63
(lp1150
g56
(g77
g58
NtRp1151
(dp1152
g61
(dp1153
g81
g82
ssg70
g1147
sg63
(lp1154
S'http_referer'
p1155
asbag56
(g77
g58
NtRp1156
(dp1157
g61
(dp1158
g88
g89
ssg70
g1147
sg63
(lp1159
S':'
asbag56
(g77
g58
NtRp1160
(dp1161
g61
(dp1162
sg70
g1147
sg63
(lp1163
g56
(g57
g58
NtRp1164
(dp1165
g61
(dp1166
g69
I4
ssg70
g1160
sg63
(lp1167
S'http://localhost:8000/synopsis/information/index'
p1168
asbasbasbag56
(g72
g58
NtRp1169
(dp1170
g61
(dp1171
sg70
g833
sg63
(lp1172
g56
(g77
g58
NtRp1173
(dp1174
g61
(dp1175
g81
g82
ssg70
g1169
sg63
(lp1176
S'http_user_agent'
p1177
asbag56
(g77
g58
NtRp1178
(dp1179
g61
(dp1180
g88
g89
ssg70
g1169
sg63
(lp1181
S':'
asbag56
(g77
g58
NtRp1182
(dp1183
g61
(dp1184
sg70
g1169
sg63
(lp1185
g56
(g57
g58
NtRp1186
(dp1187
g61
(dp1188
g69
I4
ssg70
g1182
sg63
(lp1189
S'Mozilla/5.0 (Ubuntu; X11; Linux x86_64; rv:9.0.1) Gecko/20100101 Firefox/9.0.1'
p1190
asbasbasbag56
(g72
g58
NtRp1191
(dp1192
g61
(dp1193
sg70
g833
sg63
(lp1194
g56
(g77
g58
NtRp1195
(dp1196
g61
(dp1197
g81
g82
ssg70
g1191
sg63
(lp1198
S'is_jython'
p1199
asbag56
(g77
g58
NtRp1200
(dp1201
g61
(dp1202
g88
g89
ssg70
g1191
sg63
(lp1203
S':'
asbag56
(g77
g58
NtRp1204
(dp1205
g61
(dp1206
sg70
g1191
sg63
(lp1207
g56
(g57
g58
NtRp1208
(dp1209
g61
(dp1210
g69
I4
ssg70
g1204
sg63
(lp1211
g99
asbasbasbag56
(g72
g58
NtRp1212
(dp1213
g61
(dp1214
sg70
g833
sg63
(lp1215
g56
(g77
g58
NtRp1216
(dp1217
g61
(dp1218
g81
g82
ssg70
g1212
sg63
(lp1219
S'path_info'
p1220
asbag56
(g77
g58
NtRp1221
(dp1222
g61
(dp1223
g88
g89
ssg70
g1212
sg63
(lp1224
S':'
asbag56
(g77
g58
NtRp1225
(dp1226
g61
(dp1227
sg70
g1212
sg63
(lp1228
g56
(g57
g58
NtRp1229
(dp1230
g61
(dp1231
g69
I4
ssg70
g1225
sg63
(lp1232
S'/synopsis/information/profile/1'
p1233
asbasbasbag56
(g72
g58
NtRp1234
(dp1235
g61
(dp1236
sg70
g833
sg63
(lp1237
g56
(g77
g58
NtRp1238
(dp1239
g61
(dp1240
g81
g82
ssg70
g1234
sg63
(lp1241
S'query_string'
p1242
asbag56
(g77
g58
NtRp1243
(dp1244
g61
(dp1245
g88
g89
ssg70
g1234
sg63
(lp1246
S':'
asbag56
(g77
g58
NtRp1247
(dp1248
g61
(dp1249
sg70
g1234
sg63
(lp1250
g56
(g57
g58
NtRp1251
(dp1252
g61
(dp1253
g69
I4
ssg70
g1247
sg63
(lp1254
S''
asbasbasbag56
(g72
g58
NtRp1255
(dp1256
g61
(dp1257
sg70
g833
sg63
(lp1258
g56
(g77
g58
NtRp1259
(dp1260
g61
(dp1261
g81
g82
ssg70
g1255
sg63
(lp1262
S'remote_addr'
p1263
asbag56
(g77
g58
NtRp1264
(dp1265
g61
(dp1266
g88
g89
ssg70
g1255
sg63
(lp1267
S':'
asbag56
(g77
g58
NtRp1268
(dp1269
g61
(dp1270
sg70
g1255
sg63
(lp1271
g56
(g57
g58
NtRp1272
(dp1273
g61
(dp1274
g69
I4
ssg70
g1268
sg63
(lp1275
g201
asbasbasbag56
(g72
g58
NtRp1276
(dp1277
g61
(dp1278
sg70
g833
sg63
(lp1279
g56
(g77
g58
NtRp1280
(dp1281
g61
(dp1282
g81
g82
ssg70
g1276
sg63
(lp1283
S'remote_port'
p1284
asbag56
(g77
g58
NtRp1285
(dp1286
g61
(dp1287
g88
g89
ssg70
g1276
sg63
(lp1288
S':'
asbag56
(g77
g58
NtRp1289
(dp1290
g61
(dp1291
sg70
g1276
sg63
(lp1292
g56
(g57
g58
NtRp1293
(dp1294
g61
(dp1295
g69
I4
ssg70
g1289
sg63
(lp1296
S'53635'
p1297
asbasbasbag56
(g72
g58
NtRp1298
(dp1299
g61
(dp1300
sg70
g833
sg63
(lp1301
g56
(g77
g58
NtRp1302
(dp1303
g61
(dp1304
g81
g82
ssg70
g1298
sg63
(lp1305
S'request_method'
p1306
asbag56
(g77
g58
NtRp1307
(dp1308
g61
(dp1309
g88
g89
ssg70
g1298
sg63
(lp1310
S':'
asbag56
(g77
g58
NtRp1311
(dp1312
g61
(dp1313
sg70
g1298
sg63
(lp1314
g56
(g57
g58
NtRp1315
(dp1316
g61
(dp1317
g69
I4
ssg70
g1311
sg63
(lp1318
S'GET'
p1319
asbasbasbag56
(g72
g58
NtRp1320
(dp1321
g61
(dp1322
sg70
g833
sg63
(lp1323
g56
(g77
g58
NtRp1324
(dp1325
g61
(dp1326
g81
g82
ssg70
g1320
sg63
(lp1327
S'script_name'
p1328
asbag56
(g77
g58
NtRp1329
(dp1330
g61
(dp1331
g88
g89
ssg70
g1320
sg63
(lp1332
S':'
asbag56
(g77
g58
NtRp1333
(dp1334
g61
(dp1335
sg70
g1320
sg63
(lp1336
g56
(g57
g58
NtRp1337
(dp1338
g61
(dp1339
g69
I4
ssg70
g1333
sg63
(lp1340
S''
asbasbasbag56
(g72
g58
NtRp1341
(dp1342
g61
(dp1343
sg70
g833
sg63
(lp1344
g56
(g77
g58
NtRp1345
(dp1346
g61
(dp1347
g81
g82
ssg70
g1341
sg63
(lp1348
S'server_name'
p1349
asbag56
(g77
g58
NtRp1350
(dp1351
g61
(dp1352
g88
g89
ssg70
g1341
sg63
(lp1353
S':'
asbag56
(g77
g58
NtRp1354
(dp1355
g61
(dp1356
sg70
g1341
sg63
(lp1357
g56
(g57
g58
NtRp1358
(dp1359
g61
(dp1360
g69
I4
ssg70
g1354
sg63
(lp1361
S'kaique-Pine-Trail-M'
p1362
asbasbasbag56
(g72
g58
NtRp1363
(dp1364
g61
(dp1365
sg70
g833
sg63
(lp1366
g56
(g77
g58
NtRp1367
(dp1368
g61
(dp1369
g81
g82
ssg70
g1363
sg63
(lp1370
S'server_port'
p1371
asbag56
(g77
g58
NtRp1372
(dp1373
g61
(dp1374
g88
g89
ssg70
g1363
sg63
(lp1375
S':'
asbag56
(g77
g58
NtRp1376
(dp1377
g61
(dp1378
sg70
g1363
sg63
(lp1379
g56
(g57
g58
NtRp1380
(dp1381
g61
(dp1382
g69
I4
ssg70
g1376
sg63
(lp1383
S'8000'
p1384
asbasbasbag56
(g72
g58
NtRp1385
(dp1386
g61
(dp1387
sg70
g833
sg63
(lp1388
g56
(g77
g58
NtRp1389
(dp1390
g61
(dp1391
g81
g82
ssg70
g1385
sg63
(lp1392
S'server_protocol'
p1393
asbag56
(g77
g58
NtRp1394
(dp1395
g61
(dp1396
g88
g89
ssg70
g1385
sg63
(lp1397
S':'
asbag56
(g77
g58
NtRp1398
(dp1399
g61
(dp1400
sg70
g1385
sg63
(lp1401
g56
(g57
g58
NtRp1402
(dp1403
g61
(dp1404
g69
I4
ssg70
g1398
sg63
(lp1405
S'HTTP/1.1'
p1406
asbasbasbag56
(g72
g58
NtRp1407
(dp1408
g61
(dp1409
sg70
g833
sg63
(lp1410
g56
(g77
g58
NtRp1411
(dp1412
g61
(dp1413
g81
g82
ssg70
g1407
sg63
(lp1414
S'server_software'
p1415
asbag56
(g77
g58
NtRp1416
(dp1417
g61
(dp1418
g88
g89
ssg70
g1407
sg63
(lp1419
S':'
asbag56
(g77
g58
NtRp1420
(dp1421
g61
(dp1422
sg70
g1407
sg63
(lp1423
g56
(g57
g58
NtRp1424
(dp1425
g61
(dp1426
g69
I4
ssg70
g1420
sg63
(lp1427
S'Rocket 1.2.4'
p1428
asbasbasbag56
(g72
g58
NtRp1429
(dp1430
g61
(dp1431
sg70
g833
sg63
(lp1432
g56
(g77
g58
NtRp1433
(dp1434
g61
(dp1435
g81
g82
ssg70
g1429
sg63
(lp1436
S'web2py_crontype'
p1437
asbag56
(g77
g58
NtRp1438
(dp1439
g61
(dp1440
g88
g89
ssg70
g1429
sg63
(lp1441
S':'
asbag56
(g77
g58
NtRp1442
(dp1443
g61
(dp1444
sg70
g1429
sg63
(lp1445
g56
(g57
g58
NtRp1446
(dp1447
g61
(dp1448
g69
I4
ssg70
g1442
sg63
(lp1449
S'hard'
p1450
asbasbasbag56
(g72
g58
NtRp1451
(dp1452
g61
(dp1453
sg70
g833
sg63
(lp1454
g56
(g77
g58
NtRp1455
(dp1456
g61
(dp1457
g81
g82
ssg70
g1451
sg63
(lp1458
S'web2py_path'
p1459
asbag56
(g77
g58
NtRp1460
(dp1461
g61
(dp1462
g88
g89
ssg70
g1451
sg63
(lp1463
S':'
asbag56
(g77
g58
NtRp1464
(dp1465
g61
(dp1466
sg70
g1451
sg63
(lp1467
g56
(g57
g58
NtRp1468
(dp1469
g61
(dp1470
g69
I4
ssg70
g1464
sg63
(lp1471
g880
asbasbasbag56
(g72
g58
NtRp1472
(dp1473
g61
(dp1474
sg70
g833
sg63
(lp1475
g56
(g77
g58
NtRp1476
(dp1477
g61
(dp1478
g81
g82
ssg70
g1472
sg63
(lp1479
S'web2py_version'
p1480
asbag56
(g77
g58
NtRp1481
(dp1482
g61
(dp1483
g88
g89
ssg70
g1472
sg63
(lp1484
S':'
asbag56
(g77
g58
NtRp1485
(dp1486
g61
(dp1487
sg70
g1472
sg63
(lp1488
g56
(g57
g58
NtRp1489
(dp1490
g61
(dp1491
g69
I4
ssg70
g1485
sg63
(lp1492
g56
(g65
g58
NtRp1493
(dp1494
g61
(dp1495
g69
I3
ssg70
Nsg63
(lp1496
g56
(g72
g58
NtRp1497
(dp1498
g61
(dp1499
sg70
g1493
sg63
(lp1500
g56
(g77
g58
NtRp1501
(dp1502
g61
(dp1503
sg70
g1497
sg63
(lp1504
g56
(g57
g58
NtRp1505
(dp1506
g61
(dp1507
g69
I3
ssg70
g1501
sg63
(lp1508
S'1'
asbasbasbag56
(g72
g58
NtRp1509
(dp1510
g61
(dp1511
sg70
g1493
sg63
(lp1512
g56
(g77
g58
NtRp1513
(dp1514
g61
(dp1515
sg70
g1509
sg63
(lp1516
g56
(g57
g58
NtRp1517
(dp1518
g61
(dp1519
g69
I3
ssg70
g1513
sg63
(lp1520
S'99'
p1521
asbasbasbag56
(g72
g58
NtRp1522
(dp1523
g61
(dp1524
sg70
g1493
sg63
(lp1525
g56
(g77
g58
NtRp1526
(dp1527
g61
(dp1528
sg70
g1522
sg63
(lp1529
g56
(g57
g58
NtRp1530
(dp1531
g61
(dp1532
g69
I3
ssg70
g1526
sg63
(lp1533
S'2'
asbasbasbag56
(g72
g58
NtRp1534
(dp1535
g61
(dp1536
sg70
g1493
sg63
(lp1537
g56
(g77
g58
NtRp1538
(dp1539
g61
(dp1540
sg70
g1534
sg63
(lp1541
g56
(g57
g58
NtRp1542
(dp1543
g61
(dp1544
g69
I3
ssg70
g1538
sg63
(lp1545
S'datetime.datetime(2011, 9, 26, 6, 55, 33)'
p1546
asbasbasbag56
(g72
g58
NtRp1547
(dp1548
g61
(dp1549
sg70
g1493
sg63
(lp1550
g56
(g77
g58
NtRp1551
(dp1552
g61
(dp1553
sg70
g1547
sg63
(lp1554
g56
(g57
g58
NtRp1555
(dp1556
g61
(dp1557
g69
I3
ssg70
g1551
sg63
(lp1558
S'stable'
p1559
asbasbasbasbasbasbasbag56
(g72
g58
NtRp1560
(dp1561
g61
(dp1562
sg70
g833
sg63
(lp1563
g56
(g77
g58
NtRp1564
(dp1565
g61
(dp1566
g81
g82
ssg70
g1560
sg63
(lp1567
S'wsgi_errors'
p1568
asbag56
(g77
g58
NtRp1569
(dp1570
g61
(dp1571
g88
g89
ssg70
g1560
sg63
(lp1572
S':'
asbag56
(g77
g58
NtRp1573
(dp1574
g61
(dp1575
sg70
g1560
sg63
(lp1576
g56
(g57
g58
NtRp1577
(dp1578
g61
(dp1579
g69
I4
ssg70
g1573
sg63
(lp1580
S"<open file '<stderr>', mode 'w' at 0x7f3591233270>"
p1581
asbasbasbag56
(g72
g58
NtRp1582
(dp1583
g61
(dp1584
sg70
g833
sg63
(lp1585
g56
(g77
g58
NtRp1586
(dp1587
g61
(dp1588
g81
g82
ssg70
g1582
sg63
(lp1589
S'wsgi_file_wrapper'
p1590
asbag56
(g77
g58
NtRp1591
(dp1592
g61
(dp1593
g88
g89
ssg70
g1582
sg63
(lp1594
S':'
asbag56
(g77
g58
NtRp1595
(dp1596
g61
(dp1597
sg70
g1582
sg63
(lp1598
g56
(g57
g58
NtRp1599
(dp1600
g61
(dp1601
g69
I4
ssg70
g1595
sg63
(lp1602
S'<class wsgiref.util.FileWrapper at 0x1f49ef0>'
p1603
asbasbasbag56
(g72
g58
NtRp1604
(dp1605
g61
(dp1606
sg70
g833
sg63
(lp1607
g56
(g77
g58
NtRp1608
(dp1609
g61
(dp1610
g81
g82
ssg70
g1604
sg63
(lp1611
S'wsgi_input'
p1612
asbag56
(g77
g58
NtRp1613
(dp1614
g61
(dp1615
g88
g89
ssg70
g1604
sg63
(lp1616
S':'
asbag56
(g77
g58
NtRp1617
(dp1618
g61
(dp1619
sg70
g1604
sg63
(lp1620
g56
(g57
g58
NtRp1621
(dp1622
g61
(dp1623
g69
I4
ssg70
g1617
sg63
(lp1624
S'<socket._fileobject object at 0x2506bd0>'
p1625
asbasbasbag56
(g72
g58
NtRp1626
(dp1627
g61
(dp1628
sg70
g833
sg63
(lp1629
g56
(g77
g58
NtRp1630
(dp1631
g61
(dp1632
g81
g82
ssg70
g1626
sg63
(lp1633
S'wsgi_multiprocess'
p1634
asbag56
(g77
g58
NtRp1635
(dp1636
g61
(dp1637
g88
g89
ssg70
g1626
sg63
(lp1638
S':'
asbag56
(g77
g58
NtRp1639
(dp1640
g61
(dp1641
sg70
g1626
sg63
(lp1642
g56
(g57
g58
NtRp1643
(dp1644
g61
(dp1645
g69
I4
ssg70
g1639
sg63
(lp1646
g99
asbasbasbag56
(g72
g58
NtRp1647
(dp1648
g61
(dp1649
sg70
g833
sg63
(lp1650
g56
(g77
g58
NtRp1651
(dp1652
g61
(dp1653
g81
g82
ssg70
g1647
sg63
(lp1654
S'wsgi_multithread'
p1655
asbag56
(g77
g58
NtRp1656
(dp1657
g61
(dp1658
g88
g89
ssg70
g1647
sg63
(lp1659
S':'
asbag56
(g77
g58
NtRp1660
(dp1661
g61
(dp1662
sg70
g1647
sg63
(lp1663
g56
(g57
g58
NtRp1664
(dp1665
g61
(dp1666
g69
I4
ssg70
g1660
sg63
(lp1667
S'True'
p1668
asbasbasbag56
(g72
g58
NtRp1669
(dp1670
g61
(dp1671
sg70
g833
sg63
(lp1672
g56
(g77
g58
NtRp1673
(dp1674
g61
(dp1675
g81
g82
ssg70
g1669
sg63
(lp1676
S'wsgi_run_once'
p1677
asbag56
(g77
g58
NtRp1678
(dp1679
g61
(dp1680
g88
g89
ssg70
g1669
sg63
(lp1681
S':'
asbag56
(g77
g58
NtRp1682
(dp1683
g61
(dp1684
sg70
g1669
sg63
(lp1685
g56
(g57
g58
NtRp1686
(dp1687
g61
(dp1688
g69
I4
ssg70
g1682
sg63
(lp1689
g99
asbasbasbag56
(g72
g58
NtRp1690
(dp1691
g61
(dp1692
sg70
g833
sg63
(lp1693
g56
(g77
g58
NtRp1694
(dp1695
g61
(dp1696
g81
g82
ssg70
g1690
sg63
(lp1697
S'wsgi_url_scheme'
p1698
asbag56
(g77
g58
NtRp1699
(dp1700
g61
(dp1701
g88
g89
ssg70
g1690
sg63
(lp1702
S':'
asbag56
(g77
g58
NtRp1703
(dp1704
g61
(dp1705
sg70
g1690
sg63
(lp1706
g56
(g57
g58
NtRp1707
(dp1708
g61
(dp1709
g69
I4
ssg70
g1703
sg63
(lp1710
S'http'
p1711
asbasbasbag56
(g72
g58
NtRp1712
(dp1713
g61
(dp1714
sg70
g833
sg63
(lp1715
g56
(g77
g58
NtRp1716
(dp1717
g61
(dp1718
g81
g82
ssg70
g1712
sg63
(lp1719
S'wsgi_version'
p1720
asbag56
(g77
g58
NtRp1721
(dp1722
g61
(dp1723
g88
g89
ssg70
g1712
sg63
(lp1724
S':'
asbag56
(g77
g58
NtRp1725
(dp1726
g61
(dp1727
sg70
g1712
sg63
(lp1728
g56
(g57
g58
NtRp1729
(dp1730
g61
(dp1731
g69
I4
ssg70
g1725
sg63
(lp1732
g56
(g65
g58
NtRp1733
(dp1734
g61
(dp1735
g69
I3
ssg70
Nsg63
(lp1736
g56
(g72
g58
NtRp1737
(dp1738
g61
(dp1739
sg70
g1733
sg63
(lp1740
g56
(g77
g58
NtRp1741
(dp1742
g61
(dp1743
sg70
g1737
sg63
(lp1744
g56
(g57
g58
NtRp1745
(dp1746
g61
(dp1747
g69
I3
ssg70
g1741
sg63
(lp1748
S'1'
asbasbasbag56
(g72
g58
NtRp1749
(dp1750
g61
(dp1751
sg70
g1733
sg63
(lp1752
g56
(g77
g58
NtRp1753
(dp1754
g61
(dp1755
sg70
g1749
sg63
(lp1756
g56
(g57
g58
NtRp1757
(dp1758
g61
(dp1759
g69
I3
ssg70
g1753
sg63
(lp1760
S'0'
asbasbasbasbasbasbasbasbasbasbasbag56
(g72
g58
NtRp1761
(dp1762
g61
(dp1763
sg70
g66
sg63
(lp1764
g56
(g77
g58
NtRp1765
(dp1766
g61
(dp1767
g81
g82
ssg70
g1761
sg63
(lp1768
S'extension'
p1769
asbag56
(g77
g58
NtRp1770
(dp1771
g61
(dp1772
g88
g89
ssg70
g1761
sg63
(lp1773
S':'
asbag56
(g77
g58
NtRp1774
(dp1775
g61
(dp1776
sg70
g1761
sg63
(lp1777
g56
(g57
g58
NtRp1778
(dp1779
g61
(dp1780
g69
I5
ssg70
g1774
sg63
(lp1781
S'html'
p1782
asbasbasbag56
(g72
g58
NtRp1783
(dp1784
g61
(dp1785
sg70
g66
sg63
(lp1786
g56
(g77
g58
NtRp1787
(dp1788
g61
(dp1789
g81
g82
ssg70
g1783
sg63
(lp1790
S'folder'
p1791
asbag56
(g77
g58
NtRp1792
(dp1793
g61
(dp1794
g88
g89
ssg70
g1783
sg63
(lp1795
S':'
asbag56
(g77
g58
NtRp1796
(dp1797
g61
(dp1798
sg70
g1783
sg63
(lp1799
g56
(g57
g58
NtRp1800
(dp1801
g61
(dp1802
g69
I5
ssg70
g1796
sg63
(lp1803
S'/home/kaique/Projects/web2py/applications/synopsis/'
p1804
asbasbasbag56
(g72
g58
NtRp1805
(dp1806
g61
(dp1807
sg70
g66
sg63
(lp1808
g56
(g77
g58
NtRp1809
(dp1810
g61
(dp1811
g81
g82
ssg70
g1805
sg63
(lp1812
S'function'
p1813
asbag56
(g77
g58
NtRp1814
(dp1815
g61
(dp1816
g88
g89
ssg70
g1805
sg63
(lp1817
S':'
asbag56
(g77
g58
NtRp1818
(dp1819
g61
(dp1820
sg70
g1805
sg63
(lp1821
g56
(g57
g58
NtRp1822
(dp1823
g61
(dp1824
g69
I5
ssg70
g1818
sg63
(lp1825
S'profile'
p1826
asbasbasbag56
(g72
g58
NtRp1827
(dp1828
g61
(dp1829
sg70
g66
sg63
(lp1830
g56
(g77
g58
NtRp1831
(dp1832
g61
(dp1833
g81
g82
ssg70
g1827
sg63
(lp1834
S'get_vars'
p1835
asbag56
(g77
g58
NtRp1836
(dp1837
g61
(dp1838
g88
g89
ssg70
g1827
sg63
(lp1839
S':'
asbag56
(g77
g58
NtRp1840
(dp1841
g61
(dp1842
sg70
g1827
sg63
(lp1843
g56
(g57
g58
NtRp1844
(dp1845
g61
(dp1846
g69
I5
ssg70
g1840
sg63
(lp1847
g56
(g65
g58
NtRp1848
(dp1849
g61
(dp1850
g69
I4
ssg70
Nsg63
(lp1851
sbasbasbasbag56
(g72
g58
NtRp1852
(dp1853
g61
(dp1854
sg70
g66
sg63
(lp1855
g56
(g77
g58
NtRp1856
(dp1857
g61
(dp1858
g81
g82
ssg70
g1852
sg63
(lp1859
S'global_settings'
p1860
asbag56
(g77
g58
NtRp1861
(dp1862
g61
(dp1863
g88
g89
ssg70
g1852
sg63
(lp1864
S':'
asbag56
(g77
g58
NtRp1865
(dp1866
g61
(dp1867
sg70
g1852
sg63
(lp1868
g56
(g57
g58
NtRp1869
(dp1870
g61
(dp1871
g69
I5
ssg70
g1865
sg63
(lp1872
g56
(g65
g58
NtRp1873
(dp1874
g61
(dp1875
g69
I4
ssg70
Nsg63
(lp1876
g56
(g72
g58
NtRp1877
(dp1878
g61
(dp1879
sg70
g1873
sg63
(lp1880
g56
(g77
g58
NtRp1881
(dp1882
g61
(dp1883
g81
g82
ssg70
g1877
sg63
(lp1884
g845
asbag56
(g77
g58
NtRp1885
(dp1886
g61
(dp1887
g88
g89
ssg70
g1877
sg63
(lp1888
S':'
asbag56
(g77
g58
NtRp1889
(dp1890
g61
(dp1891
sg70
g1877
sg63
(lp1892
g56
(g57
g58
NtRp1893
(dp1894
g61
(dp1895
g69
I4
ssg70
g1889
sg63
(lp1896
S"set(['/home/kaique/Projects/web2py/applications/synopsis/', '/home/kaique/Projects/web2py/applications/admin/'])"
p1897
asbasbasbag56
(g72
g58
NtRp1898
(dp1899
g61
(dp1900
sg70
g1873
sg63
(lp1901
g56
(g77
g58
NtRp1902
(dp1903
g61
(dp1904
g81
g82
ssg70
g1898
sg63
(lp1905
g867
asbag56
(g77
g58
NtRp1906
(dp1907
g61
(dp1908
g88
g89
ssg70
g1898
sg63
(lp1909
S':'
asbag56
(g77
g58
NtRp1910
(dp1911
g61
(dp1912
sg70
g1898
sg63
(lp1913
g56
(g57
g58
NtRp1914
(dp1915
g61
(dp1916
g69
I4
ssg70
g1910
sg63
(lp1917
g880
asbasbasbag56
(g72
g58
NtRp1918
(dp1919
g61
(dp1920
sg70
g1873
sg63
(lp1921
g56
(g77
g58
NtRp1922
(dp1923
g61
(dp1924
g81
g82
ssg70
g1918
sg63
(lp1925
g889
asbag56
(g77
g58
NtRp1926
(dp1927
g61
(dp1928
g88
g89
ssg70
g1918
sg63
(lp1929
S':'
asbag56
(g77
g58
NtRp1930
(dp1931
g61
(dp1932
sg70
g1918
sg63
(lp1933
g56
(g57
g58
NtRp1934
(dp1935
g61
(dp1936
g69
I4
ssg70
g1930
sg63
(lp1937
g56
(g65
g58
NtRp1938
(dp1939
g61
(dp1940
g69
I3
ssg70
Nsg63
(lp1941
sbasbasbasbag56
(g72
g58
NtRp1942
(dp1943
g61
(dp1944
sg70
g1873
sg63
(lp1945
g56
(g77
g58
NtRp1946
(dp1947
g61
(dp1948
g81
g82
ssg70
g1942
sg63
(lp1949
g914
asbag56
(g77
g58
NtRp1950
(dp1951
g61
(dp1952
g88
g89
ssg70
g1942
sg63
(lp1953
S':'
asbag56
(g77
g58
NtRp1954
(dp1955
g61
(dp1956
sg70
g1942
sg63
(lp1957
g56
(g57
g58
NtRp1958
(dp1959
g61
(dp1960
g69
I4
ssg70
g1954
sg63
(lp1961
S"<Values at 0x2092950: {'verbose': False, 'ip': '127.0.0.1', 'shutdown_timeout': 5, 'taskbar': False, 'nocron': False, 'pid_filename': 'httpserver.pid', 'maxthreads': None, 'softcron': False, 'server_name': 'kaique-Pine-Trail-M', 'bpython': False, 'nogui': False, 'port': 8000, 'extcron': False, 'debuglevel': 30, 'test': None, 'folder': '/home/kaique/Projects/web2py', 'config': '', 'import_models': False, 'winservice': '', 'shell': None, 'run': '', 'log_filename': 'httpserver.log', 'args': [''], 'ssl_ca_certificate': None, 'scheduler': None, 'profiler_filename': None, 'ssl_private_key': '', 'password': 'dev', 'request_queue_size': 5, 'ssl_certificate': '', 'cronjob': False, 'plain': False, 'quiet': False, 'interfaces': None, 'minthreads': None, 'timeout': 10, 'numthreads': None, 'nobanner': False}>"
p1962
asbasbasbag56
(g72
g58
NtRp1963
(dp1964
g61
(dp1965
sg70
g1873
sg63
(lp1966
g56
(g77
g58
NtRp1967
(dp1968
g61
(dp1969
g81
g82
ssg70
g1963
sg63
(lp1970
g936
asbag56
(g77
g58
NtRp1971
(dp1972
g61
(dp1973
g88
g89
ssg70
g1963
sg63
(lp1974
S':'
asbag56
(g77
g58
NtRp1975
(dp1976
g61
(dp1977
sg70
g1963
sg63
(lp1978
g56
(g57
g58
NtRp1979
(dp1980
g61
(dp1981
g69
I4
ssg70
g1975
sg63
(lp1982
S'set([])'
p1983
asbasbasbag56
(g72
g58
NtRp1984
(dp1985
g61
(dp1986
sg70
g1873
sg63
(lp1987
g56
(g77
g58
NtRp1988
(dp1989
g61
(dp1990
g81
g82
ssg70
g1984
sg63
(lp1991
g958
asbag56
(g77
g58
NtRp1992
(dp1993
g61
(dp1994
g88
g89
ssg70
g1984
sg63
(lp1995
S':'
asbag56
(g77
g58
NtRp1996
(dp1997
g61
(dp1998
sg70
g1984
sg63
(lp1999
g56
(g57
g58
NtRp2000
(dp2001
g61
(dp2002
g69
I4
ssg70
g1996
sg63
(lp2003
g99
asbasbasbag56
(g72
g58
NtRp2004
(dp2005
g61
(dp2006
sg70
g1873
sg63
(lp2007
g56
(g77
g58
NtRp2008
(dp2009
g61
(dp2010
g81
g82
ssg70
g2004
sg63
(lp2011
g979
asbag56
(g77
g58
NtRp2012
(dp2013
g61
(dp2014
g88
g89
ssg70
g2004
sg63
(lp2015
S':'
asbag56
(g77
g58
NtRp2016
(dp2017
g61
(dp2018
sg70
g2004
sg63
(lp2019
g56
(g57
g58
NtRp2020
(dp2021
g61
(dp2022
g69
I4
ssg70
g2016
sg63
(lp2023
g992
asbasbasbag56
(g72
g58
NtRp2024
(dp2025
g61
(dp2026
sg70
g1873
sg63
(lp2027
g56
(g77
g58
NtRp2028
(dp2029
g61
(dp2030
g81
g82
ssg70
g2024
sg63
(lp2031
g1199
asbag56
(g77
g58
NtRp2032
(dp2033
g61
(dp2034
g88
g89
ssg70
g2024
sg63
(lp2035
S':'
asbag56
(g77
g58
NtRp2036
(dp2037
g61
(dp2038
sg70
g2024
sg63
(lp2039
g56
(g57
g58
NtRp2040
(dp2041
g61
(dp2042
g69
I4
ssg70
g2036
sg63
(lp2043
g99
asbasbasbag56
(g72
g58
NtRp2044
(dp2045
g61
(dp2046
sg70
g1873
sg63
(lp2047
g56
(g77
g58
NtRp2048
(dp2049
g61
(dp2050
g81
g82
ssg70
g2044
sg63
(lp2051
g1437
asbag56
(g77
g58
NtRp2052
(dp2053
g61
(dp2054
g88
g89
ssg70
g2044
sg63
(lp2055
S':'
asbag56
(g77
g58
NtRp2056
(dp2057
g61
(dp2058
sg70
g2044
sg63
(lp2059
g56
(g57
g58
NtRp2060
(dp2061
g61
(dp2062
g69
I4
ssg70
g2056
sg63
(lp2063
g1450
asbasbasbag56
(g72
g58
NtRp2064
(dp2065
g61
(dp2066
sg70
g1873
sg63
(lp2067
g56
(g77
g58
NtRp2068
(dp2069
g61
(dp2070
g81
g82
ssg70
g2064
sg63
(lp2071
g1480
asbag56
(g77
g58
NtRp2072
(dp2073
g61
(dp2074
g88
g89
ssg70
g2064
sg63
(lp2075
S':'
asbag56
(g77
g58
NtRp2076
(dp2077
g61
(dp2078
sg70
g2064
sg63
(lp2079
g56
(g57
g58
NtRp2080
(dp2081
g61
(dp2082
g69
I4
ssg70
g2076
sg63
(lp2083
g56
(g65
g58
NtRp2084
(dp2085
g61
(dp2086
g69
I3
ssg70
Nsg63
(lp2087
g56
(g72
g58
NtRp2088
(dp2089
g61
(dp2090
sg70
g2084
sg63
(lp2091
g56
(g77
g58
NtRp2092
(dp2093
g61
(dp2094
sg70
g2088
sg63
(lp2095
g56
(g57
g58
NtRp2096
(dp2097
g61
(dp2098
g69
I3
ssg70
g2092
sg63
(lp2099
S'1'
asbasbasbag56
(g72
g58
NtRp2100
(dp2101
g61
(dp2102
sg70
g2084
sg63
(lp2103
g56
(g77
g58
NtRp2104
(dp2105
g61
(dp2106
sg70
g2100
sg63
(lp2107
g56
(g57
g58
NtRp2108
(dp2109
g61
(dp2110
g69
I3
ssg70
g2104
sg63
(lp2111
S'99'
p2112
asbasbasbag56
(g72
g58
NtRp2113
(dp2114
g61
(dp2115
sg70
g2084
sg63
(lp2116
g56
(g77
g58
NtRp2117
(dp2118
g61
(dp2119
sg70
g2113
sg63
(lp2120
g56
(g57
g58
NtRp2121
(dp2122
g61
(dp2123
g69
I3
ssg70
g2117
sg63
(lp2124
S'2'
asbasbasbag56
(g72
g58
NtRp2125
(dp2126
g61
(dp2127
sg70
g2084
sg63
(lp2128
g56
(g77
g58
NtRp2129
(dp2130
g61
(dp2131
sg70
g2125
sg63
(lp2132
g56
(g57
g58
NtRp2133
(dp2134
g61
(dp2135
g69
I3
ssg70
g2129
sg63
(lp2136
S'datetime.datetime(2011, 9, 26, 6, 55, 33)'
p2137
asbasbasbag56
(g72
g58
NtRp2138
(dp2139
g61
(dp2140
sg70
g2084
sg63
(lp2141
g56
(g77
g58
NtRp2142
(dp2143
g61
(dp2144
sg70
g2138
sg63
(lp2145
g56
(g57
g58
NtRp2146
(dp2147
g61
(dp2148
g69
I3
ssg70
g2142
sg63
(lp2149
g1559
asbasbasbasbasbasbasbasbasbasbasbag56
(g72
g58
NtRp2150
(dp2151
g61
(dp2152
sg70
g66
sg63
(lp2153
g56
(g77
g58
NtRp2154
(dp2155
g61
(dp2156
g81
g82
ssg70
g2150
sg63
(lp2157
S'is_https'
p2158
asbag56
(g77
g58
NtRp2159
(dp2160
g61
(dp2161
g88
g89
ssg70
g2150
sg63
(lp2162
S':'
asbag56
(g77
g58
NtRp2163
(dp2164
g61
(dp2165
sg70
g2150
sg63
(lp2166
g56
(g57
g58
NtRp2167
(dp2168
g61
(dp2169
g69
I5
ssg70
g2163
sg63
(lp2170
g99
asbasbasbag56
(g72
g58
NtRp2171
(dp2172
g61
(dp2173
sg70
g66
sg63
(lp2174
g56
(g77
g58
NtRp2175
(dp2176
g61
(dp2177
g81
g82
ssg70
g2171
sg63
(lp2178
S'is_local'
p2179
asbag56
(g77
g58
NtRp2180
(dp2181
g61
(dp2182
g88
g89
ssg70
g2171
sg63
(lp2183
S':'
asbag56
(g77
g58
NtRp2184
(dp2185
g61
(dp2186
sg70
g2171
sg63
(lp2187
g56
(g57
g58
NtRp2188
(dp2189
g61
(dp2190
g69
I5
ssg70
g2184
sg63
(lp2191
g1668
asbasbasbag56
(g72
g58
NtRp2192
(dp2193
g61
(dp2194
sg70
g66
sg63
(lp2195
g56
(g77
g58
NtRp2196
(dp2197
g61
(dp2198
g81
g82
ssg70
g2192
sg63
(lp2199
S'is_restful'
p2200
asbag56
(g77
g58
NtRp2201
(dp2202
g61
(dp2203
g88
g89
ssg70
g2192
sg63
(lp2204
S':'
asbag56
(g77
g58
NtRp2205
(dp2206
g61
(dp2207
sg70
g2192
sg63
(lp2208
g56
(g57
g58
NtRp2209
(dp2210
g61
(dp2211
g69
I5
ssg70
g2205
sg63
(lp2212
g99
asbasbasbag56
(g72
g58
NtRp2213
(dp2214
g61
(dp2215
sg70
g66
sg63
(lp2216
g56
(g77
g58
NtRp2217
(dp2218
g61
(dp2219
g81
g82
ssg70
g2213
sg63
(lp2220
S'now'
p2221
asbag56
(g77
g58
NtRp2222
(dp2223
g61
(dp2224
g88
g89
ssg70
g2213
sg63
(lp2225
S':'
asbag56
(g77
g58
NtRp2226
(dp2227
g61
(dp2228
sg70
g2213
sg63
(lp2229
g56
(g57
g58
NtRp2230
(dp2231
g61
(dp2232
g69
I5
ssg70
g2226
sg63
(lp2233
S'datetime.datetime(2012, 1, 12, 14, 45, 18, 866211)'
p2234
asbasbasbag56
(g72
g58
NtRp2235
(dp2236
g61
(dp2237
sg70
g66
sg63
(lp2238
g56
(g77
g58
NtRp2239
(dp2240
g61
(dp2241
g81
g82
ssg70
g2235
sg63
(lp2242
S'post_vars'
p2243
asbag56
(g77
g58
NtRp2244
(dp2245
g61
(dp2246
g88
g89
ssg70
g2235
sg63
(lp2247
S':'
asbag56
(g77
g58
NtRp2248
(dp2249
g61
(dp2250
sg70
g2235
sg63
(lp2251
g56
(g57
g58
NtRp2252
(dp2253
g61
(dp2254
g69
I5
ssg70
g2248
sg63
(lp2255
g56
(g65
g58
NtRp2256
(dp2257
g61
(dp2258
g69
I4
ssg70
Nsg63
(lp2259
sbasbasbasbag56
(g72
g58
NtRp2260
(dp2261
g61
(dp2262
sg70
g66
sg63
(lp2263
g56
(g77
g58
NtRp2264
(dp2265
g61
(dp2266
g81
g82
ssg70
g2260
sg63
(lp2267
S'raw_args'
p2268
asbag56
(g77
g58
NtRp2269
(dp2270
g61
(dp2271
g88
g89
ssg70
g2260
sg63
(lp2272
S':'
asbag56
(g77
g58
NtRp2273
(dp2274
g61
(dp2275
sg70
g2260
sg63
(lp2276
g56
(g57
g58
NtRp2277
(dp2278
g61
(dp2279
g69
I5
ssg70
g2273
sg63
(lp2280
S'1'
asbasbasbag56
(g72
g58
NtRp2281
(dp2282
g61
(dp2283
sg70
g66
sg63
(lp2284
g56
(g77
g58
NtRp2285
(dp2286
g61
(dp2287
g81
g82
ssg70
g2281
sg63
(lp2288
S'url'
p2289
asbag56
(g77
g58
NtRp2290
(dp2291
g61
(dp2292
g88
g89
ssg70
g2281
sg63
(lp2293
S':'
asbag56
(g77
g58
NtRp2294
(dp2295
g61
(dp2296
sg70
g2281
sg63
(lp2297
g56
(g57
g58
NtRp2298
(dp2299
g61
(dp2300
g69
I5
ssg70
g2294
sg63
(lp2301
S'/synopsis/information/profile/1'
p2302
asbasbasbag56
(g72
g58
NtRp2303
(dp2304
g61
(dp2305
sg70
g66
sg63
(lp2306
g56
(g77
g58
NtRp2307
(dp2308
g61
(dp2309
g81
g82
ssg70
g2303
sg63
(lp2310
S'utcnow'
p2311
asbag56
(g77
g58
NtRp2312
(dp2313
g61
(dp2314
g88
g89
ssg70
g2303
sg63
(lp2315
S':'
asbag56
(g77
g58
NtRp2316
(dp2317
g61
(dp2318
sg70
g2303
sg63
(lp2319
g56
(g57
g58
NtRp2320
(dp2321
g61
(dp2322
g69
I5
ssg70
g2316
sg63
(lp2323
S'datetime.datetime(2012, 1, 12, 16, 45, 18, 866277)'
p2324
asbasbasbag56
(g72
g58
NtRp2325
(dp2326
g61
(dp2327
sg70
g66
sg63
(lp2328
g56
(g77
g58
NtRp2329
(dp2330
g61
(dp2331
g81
g82
ssg70
g2325
sg63
(lp2332
S'uuid'
p2333
asbag56
(g77
g58
NtRp2334
(dp2335
g61
(dp2336
g88
g89
ssg70
g2325
sg63
(lp2337
S':'
asbag56
(g77
g58
NtRp2338
(dp2339
g61
(dp2340
sg70
g2325
sg63
(lp2341
g56
(g57
g58
NtRp2342
(dp2343
g61
(dp2344
g69
I5
ssg70
g2338
sg63
(lp2345
S'synopsis/127.0.0.1.2012-01-12.14-45-18.7e4cf38a-5f51-4f2d-af36-19f9fc5f950d'
p2346
asbasbasbag56
(g72
g58
NtRp2347
(dp2348
g61
(dp2349
sg70
g66
sg63
(lp2350
g56
(g77
g58
NtRp2351
(dp2352
g61
(dp2353
g81
g82
ssg70
g2347
sg63
(lp2354
S'vars'
p2355
asbag56
(g77
g58
NtRp2356
(dp2357
g61
(dp2358
g88
g89
ssg70
g2347
sg63
(lp2359
S':'
asbag56
(g77
g58
NtRp2360
(dp2361
g61
(dp2362
sg70
g2347
sg63
(lp2363
g56
(g57
g58
NtRp2364
(dp2365
g61
(dp2366
g69
I5
ssg70
g2360
sg63
(lp2367
g56
(g65
g58
NtRp2368
(dp2369
g61
(dp2370
g69
I4
ssg70
Nsg63
(lp2371
sbasbasbasbag56
(g72
g58
NtRp2372
(dp2373
g61
(dp2374
sg70
g66
sg63
(lp2375
g56
(g77
g58
NtRp2376
(dp2377
g61
(dp2378
g81
g82
ssg70
g2372
sg63
(lp2379
S'wsgi'
p2380
asbag56
(g77
g58
NtRp2381
(dp2382
g61
(dp2383
g88
g89
ssg70
g2372
sg63
(lp2384
S':'
asbag56
(g77
g58
NtRp2385
(dp2386
g61
(dp2387
sg70
g2372
sg63
(lp2388
g56
(g57
g58
NtRp2389
(dp2390
g61
(dp2391
g69
I5
ssg70
g2385
sg63
(lp2392
g56
(g65
g58
NtRp2393
(dp2394
g61
(dp2395
g69
I4
ssg70
Nsg63
(lp2396
g56
(g72
g58
NtRp2397
(dp2398
g61
(dp2399
sg70
g2393
sg63
(lp2400
g56
(g77
g58
NtRp2401
(dp2402
g61
(dp2403
g81
g82
ssg70
g2397
sg63
(lp2404
S'environ'
p2405
asbag56
(g77
g58
NtRp2406
(dp2407
g61
(dp2408
g88
g89
ssg70
g2397
sg63
(lp2409
S':'
asbag56
(g77
g58
NtRp2410
(dp2411
g61
(dp2412
sg70
g2397
sg63
(lp2413
g56
(g57
g58
NtRp2414
(dp2415
g61
(dp2416
g69
I4
ssg70
g2410
sg63
(lp2417
g56
(g65
g58
NtRp2418
(dp2419
g61
(dp2420
g69
I3
ssg70
Nsg63
(lp2421
g56
(g72
g58
NtRp2422
(dp2423
g61
(dp2424
sg70
g2418
sg63
(lp2425
g56
(g77
g58
NtRp2426
(dp2427
g61
(dp2428
g81
g82
ssg70
g2422
sg63
(lp2429
S'HTTP_ACCEPT'
p2430
asbag56
(g77
g58
NtRp2431
(dp2432
g61
(dp2433
g88
g89
ssg70
g2422
sg63
(lp2434
S':'
asbag56
(g77
g58
NtRp2435
(dp2436
g61
(dp2437
sg70
g2422
sg63
(lp2438
g56
(g57
g58
NtRp2439
(dp2440
g61
(dp2441
g69
I3
ssg70
g2435
sg63
(lp2442
g1014
asbasbasbag56
(g72
g58
NtRp2443
(dp2444
g61
(dp2445
sg70
g2418
sg63
(lp2446
g56
(g77
g58
NtRp2447
(dp2448
g61
(dp2449
g81
g82
ssg70
g2443
sg63
(lp2450
S'HTTP_ACCEPT_CHARSET'
p2451
asbag56
(g77
g58
NtRp2452
(dp2453
g61
(dp2454
g88
g89
ssg70
g2443
sg63
(lp2455
S':'
asbag56
(g77
g58
NtRp2456
(dp2457
g61
(dp2458
sg70
g2443
sg63
(lp2459
g56
(g57
g58
NtRp2460
(dp2461
g61
(dp2462
g69
I3
ssg70
g2456
sg63
(lp2463
g1036
asbasbasbag56
(g72
g58
NtRp2464
(dp2465
g61
(dp2466
sg70
g2418
sg63
(lp2467
g56
(g77
g58
NtRp2468
(dp2469
g61
(dp2470
g81
g82
ssg70
g2464
sg63
(lp2471
S'HTTP_ACCEPT_ENCODING'
p2472
asbag56
(g77
g58
NtRp2473
(dp2474
g61
(dp2475
g88
g89
ssg70
g2464
sg63
(lp2476
S':'
asbag56
(g77
g58
NtRp2477
(dp2478
g61
(dp2479
sg70
g2464
sg63
(lp2480
g56
(g57
g58
NtRp2481
(dp2482
g61
(dp2483
g69
I3
ssg70
g2477
sg63
(lp2484
g1058
asbasbasbag56
(g72
g58
NtRp2485
(dp2486
g61
(dp2487
sg70
g2418
sg63
(lp2488
g56
(g77
g58
NtRp2489
(dp2490
g61
(dp2491
g81
g82
ssg70
g2485
sg63
(lp2492
S'HTTP_ACCEPT_LANGUAGE'
p2493
asbag56
(g77
g58
NtRp2494
(dp2495
g61
(dp2496
g88
g89
ssg70
g2485
sg63
(lp2497
S':'
asbag56
(g77
g58
NtRp2498
(dp2499
g61
(dp2500
sg70
g2485
sg63
(lp2501
g56
(g57
g58
NtRp2502
(dp2503
g61
(dp2504
g69
I3
ssg70
g2498
sg63
(lp2505
g1080
asbasbasbag56
(g72
g58
NtRp2506
(dp2507
g61
(dp2508
sg70
g2418
sg63
(lp2509
g56
(g77
g58
NtRp2510
(dp2511
g61
(dp2512
g81
g82
ssg70
g2506
sg63
(lp2513
S'HTTP_CONNECTION'
p2514
asbag56
(g77
g58
NtRp2515
(dp2516
g61
(dp2517
g88
g89
ssg70
g2506
sg63
(lp2518
S':'
asbag56
(g77
g58
NtRp2519
(dp2520
g61
(dp2521
sg70
g2506
sg63
(lp2522
g56
(g57
g58
NtRp2523
(dp2524
g61
(dp2525
g69
I3
ssg70
g2519
sg63
(lp2526
g1102
asbasbasbag56
(g72
g58
NtRp2527
(dp2528
g61
(dp2529
sg70
g2418
sg63
(lp2530
g56
(g77
g58
NtRp2531
(dp2532
g61
(dp2533
g81
g82
ssg70
g2527
sg63
(lp2534
S'HTTP_COOKIE'
p2535
asbag56
(g77
g58
NtRp2536
(dp2537
g61
(dp2538
g88
g89
ssg70
g2527
sg63
(lp2539
S':'
asbag56
(g77
g58
NtRp2540
(dp2541
g61
(dp2542
sg70
g2527
sg63
(lp2543
g56
(g57
g58
NtRp2544
(dp2545
g61
(dp2546
g69
I3
ssg70
g2540
sg63
(lp2547
g1124
asbasbasbag56
(g72
g58
NtRp2548
(dp2549
g61
(dp2550
sg70
g2418
sg63
(lp2551
g56
(g77
g58
NtRp2552
(dp2553
g61
(dp2554
g81
g82
ssg70
g2548
sg63
(lp2555
S'HTTP_HOST'
p2556
asbag56
(g77
g58
NtRp2557
(dp2558
g61
(dp2559
g88
g89
ssg70
g2548
sg63
(lp2560
S':'
asbag56
(g77
g58
NtRp2561
(dp2562
g61
(dp2563
sg70
g2548
sg63
(lp2564
g56
(g57
g58
NtRp2565
(dp2566
g61
(dp2567
g69
I3
ssg70
g2561
sg63
(lp2568
g1146
asbasbasbag56
(g72
g58
NtRp2569
(dp2570
g61
(dp2571
sg70
g2418
sg63
(lp2572
g56
(g77
g58
NtRp2573
(dp2574
g61
(dp2575
g81
g82
ssg70
g2569
sg63
(lp2576
S'HTTP_REFERER'
p2577
asbag56
(g77
g58
NtRp2578
(dp2579
g61
(dp2580
g88
g89
ssg70
g2569
sg63
(lp2581
S':'
asbag56
(g77
g58
NtRp2582
(dp2583
g61
(dp2584
sg70
g2569
sg63
(lp2585
g56
(g57
g58
NtRp2586
(dp2587
g61
(dp2588
g69
I3
ssg70
g2582
sg63
(lp2589
g1168
asbasbasbag56
(g72
g58
NtRp2590
(dp2591
g61
(dp2592
sg70
g2418
sg63
(lp2593
g56
(g77
g58
NtRp2594
(dp2595
g61
(dp2596
g81
g82
ssg70
g2590
sg63
(lp2597
S'HTTP_USER_AGENT'
p2598
asbag56
(g77
g58
NtRp2599
(dp2600
g61
(dp2601
g88
g89
ssg70
g2590
sg63
(lp2602
S':'
asbag56
(g77
g58
NtRp2603
(dp2604
g61
(dp2605
sg70
g2590
sg63
(lp2606
g56
(g57
g58
NtRp2607
(dp2608
g61
(dp2609
g69
I3
ssg70
g2603
sg63
(lp2610
g1190
asbasbasbag56
(g72
g58
NtRp2611
(dp2612
g61
(dp2613
sg70
g2418
sg63
(lp2614
g56
(g77
g58
NtRp2615
(dp2616
g61
(dp2617
g81
g82
ssg70
g2611
sg63
(lp2618
S'PATH_INFO'
p2619
asbag56
(g77
g58
NtRp2620
(dp2621
g61
(dp2622
g88
g89
ssg70
g2611
sg63
(lp2623
S':'
asbag56
(g77
g58
NtRp2624
(dp2625
g61
(dp2626
sg70
g2611
sg63
(lp2627
g56
(g57
g58
NtRp2628
(dp2629
g61
(dp2630
g69
I3
ssg70
g2624
sg63
(lp2631
g1233
asbasbasbag56
(g72
g58
NtRp2632
(dp2633
g61
(dp2634
sg70
g2418
sg63
(lp2635
g56
(g77
g58
NtRp2636
(dp2637
g61
(dp2638
g81
g82
ssg70
g2632
sg63
(lp2639
S'QUERY_STRING'
p2640
asbag56
(g77
g58
NtRp2641
(dp2642
g61
(dp2643
g88
g89
ssg70
g2632
sg63
(lp2644
S':'
asbag56
(g77
g58
NtRp2645
(dp2646
g61
(dp2647
sg70
g2632
sg63
(lp2648
g56
(g57
g58
NtRp2649
(dp2650
g61
(dp2651
g69
I3
ssg70
g2645
sg63
(lp2652
S''
asbasbasbag56
(g72
g58
NtRp2653
(dp2654
g61
(dp2655
sg70
g2418
sg63
(lp2656
g56
(g77
g58
NtRp2657
(dp2658
g61
(dp2659
g81
g82
ssg70
g2653
sg63
(lp2660
S'REMOTE_ADDR'
p2661
asbag56
(g77
g58
NtRp2662
(dp2663
g61
(dp2664
g88
g89
ssg70
g2653
sg63
(lp2665
S':'
asbag56
(g77
g58
NtRp2666
(dp2667
g61
(dp2668
sg70
g2653
sg63
(lp2669
g56
(g57
g58
NtRp2670
(dp2671
g61
(dp2672
g69
I3
ssg70
g2666
sg63
(lp2673
g201
asbasbasbag56
(g72
g58
NtRp2674
(dp2675
g61
(dp2676
sg70
g2418
sg63
(lp2677
g56
(g77
g58
NtRp2678
(dp2679
g61
(dp2680
g81
g82
ssg70
g2674
sg63
(lp2681
S'REMOTE_PORT'
p2682
asbag56
(g77
g58
NtRp2683
(dp2684
g61
(dp2685
g88
g89
ssg70
g2674
sg63
(lp2686
S':'
asbag56
(g77
g58
NtRp2687
(dp2688
g61
(dp2689
sg70
g2674
sg63
(lp2690
g56
(g57
g58
NtRp2691
(dp2692
g61
(dp2693
g69
I3
ssg70
g2687
sg63
(lp2694
g1297
asbasbasbag56
(g72
g58
NtRp2695
(dp2696
g61
(dp2697
sg70
g2418
sg63
(lp2698
g56
(g77
g58
NtRp2699
(dp2700
g61
(dp2701
g81
g82
ssg70
g2695
sg63
(lp2702
S'REQUEST_METHOD'
p2703
asbag56
(g77
g58
NtRp2704
(dp2705
g61
(dp2706
g88
g89
ssg70
g2695
sg63
(lp2707
S':'
asbag56
(g77
g58
NtRp2708
(dp2709
g61
(dp2710
sg70
g2695
sg63
(lp2711
g56
(g57
g58
NtRp2712
(dp2713
g61
(dp2714
g69
I3
ssg70
g2708
sg63
(lp2715
g1319
asbasbasbag56
(g72
g58
NtRp2716
(dp2717
g61
(dp2718
sg70
g2418
sg63
(lp2719
g56
(g77
g58
NtRp2720
(dp2721
g61
(dp2722
g81
g82
ssg70
g2716
sg63
(lp2723
S'SCRIPT_NAME'
p2724
asbag56
(g77
g58
NtRp2725
(dp2726
g61
(dp2727
g88
g89
ssg70
g2716
sg63
(lp2728
S':'
asbag56
(g77
g58
NtRp2729
(dp2730
g61
(dp2731
sg70
g2716
sg63
(lp2732
g56
(g57
g58
NtRp2733
(dp2734
g61
(dp2735
g69
I3
ssg70
g2729
sg63
(lp2736
S''
asbasbasbag56
(g72
g58
NtRp2737
(dp2738
g61
(dp2739
sg70
g2418
sg63
(lp2740
g56
(g77
g58
NtRp2741
(dp2742
g61
(dp2743
g81
g82
ssg70
g2737
sg63
(lp2744
S'SERVER_NAME'
p2745
asbag56
(g77
g58
NtRp2746
(dp2747
g61
(dp2748
g88
g89
ssg70
g2737
sg63
(lp2749
S':'
asbag56
(g77
g58
NtRp2750
(dp2751
g61
(dp2752
sg70
g2737
sg63
(lp2753
g56
(g57
g58
NtRp2754
(dp2755
g61
(dp2756
g69
I3
ssg70
g2750
sg63
(lp2757
g1362
asbasbasbag56
(g72
g58
NtRp2758
(dp2759
g61
(dp2760
sg70
g2418
sg63
(lp2761
g56
(g77
g58
NtRp2762
(dp2763
g61
(dp2764
g81
g82
ssg70
g2758
sg63
(lp2765
S'SERVER_PORT'
p2766
asbag56
(g77
g58
NtRp2767
(dp2768
g61
(dp2769
g88
g89
ssg70
g2758
sg63
(lp2770
S':'
asbag56
(g77
g58
NtRp2771
(dp2772
g61
(dp2773
sg70
g2758
sg63
(lp2774
g56
(g57
g58
NtRp2775
(dp2776
g61
(dp2777
g69
I3
ssg70
g2771
sg63
(lp2778
g1384
asbasbasbag56
(g72
g58
NtRp2779
(dp2780
g61
(dp2781
sg70
g2418
sg63
(lp2782
g56
(g77
g58
NtRp2783
(dp2784
g61
(dp2785
g81
g82
ssg70
g2779
sg63
(lp2786
S'SERVER_PROTOCOL'
p2787
asbag56
(g77
g58
NtRp2788
(dp2789
g61
(dp2790
g88
g89
ssg70
g2779
sg63
(lp2791
S':'
asbag56
(g77
g58
NtRp2792
(dp2793
g61
(dp2794
sg70
g2779
sg63
(lp2795
g56
(g57
g58
NtRp2796
(dp2797
g61
(dp2798
g69
I3
ssg70
g2792
sg63
(lp2799
g1406
asbasbasbag56
(g72
g58
NtRp2800
(dp2801
g61
(dp2802
sg70
g2418
sg63
(lp2803
g56
(g77
g58
NtRp2804
(dp2805
g61
(dp2806
g81
g82
ssg70
g2800
sg63
(lp2807
S'SERVER_SOFTWARE'
p2808
asbag56
(g77
g58
NtRp2809
(dp2810
g61
(dp2811
g88
g89
ssg70
g2800
sg63
(lp2812
S':'
asbag56
(g77
g58
NtRp2813
(dp2814
g61
(dp2815
sg70
g2800
sg63
(lp2816
g56
(g57
g58
NtRp2817
(dp2818
g61
(dp2819
g69
I3
ssg70
g2813
sg63
(lp2820
g1428
asbasbasbag56
(g72
g58
NtRp2821
(dp2822
g61
(dp2823
sg70
g2418
sg63
(lp2824
g56
(g77
g58
NtRp2825
(dp2826
g61
(dp2827
g81
g82
ssg70
g2821
sg63
(lp2828
S'wsgi.errors'
p2829
asbag56
(g77
g58
NtRp2830
(dp2831
g61
(dp2832
g88
g89
ssg70
g2821
sg63
(lp2833
S':'
asbag56
(g77
g58
NtRp2834
(dp2835
g61
(dp2836
sg70
g2821
sg63
(lp2837
g56
(g57
g58
NtRp2838
(dp2839
g61
(dp2840
g69
I3
ssg70
g2834
sg63
(lp2841
S"<open file '<stderr>', mode 'w' at 0x7f3591233270>"
p2842
asbasbasbag56
(g72
g58
NtRp2843
(dp2844
g61
(dp2845
sg70
g2418
sg63
(lp2846
g56
(g77
g58
NtRp2847
(dp2848
g61
(dp2849
g81
g82
ssg70
g2843
sg63
(lp2850
S'wsgi.file_wrapper'
p2851
asbag56
(g77
g58
NtRp2852
(dp2853
g61
(dp2854
g88
g89
ssg70
g2843
sg63
(lp2855
S':'
asbag56
(g77
g58
NtRp2856
(dp2857
g61
(dp2858
sg70
g2843
sg63
(lp2859
g56
(g57
g58
NtRp2860
(dp2861
g61
(dp2862
g69
I3
ssg70
g2856
sg63
(lp2863
S'<class wsgiref.util.FileWrapper at 0x1f49ef0>'
p2864
asbasbasbag56
(g72
g58
NtRp2865
(dp2866
g61
(dp2867
sg70
g2418
sg63
(lp2868
g56
(g77
g58
NtRp2869
(dp2870
g61
(dp2871
g81
g82
ssg70
g2865
sg63
(lp2872
S'wsgi.input'
p2873
asbag56
(g77
g58
NtRp2874
(dp2875
g61
(dp2876
g88
g89
ssg70
g2865
sg63
(lp2877
S':'
asbag56
(g77
g58
NtRp2878
(dp2879
g61
(dp2880
sg70
g2865
sg63
(lp2881
g56
(g57
g58
NtRp2882
(dp2883
g61
(dp2884
g69
I3
ssg70
g2878
sg63
(lp2885
S'<cStringIO.StringO object at 0x3210998>'
p2886
asbasbasbag56
(g72
g58
NtRp2887
(dp2888
g61
(dp2889
sg70
g2418
sg63
(lp2890
g56
(g77
g58
NtRp2891
(dp2892
g61
(dp2893
g81
g82
ssg70
g2887
sg63
(lp2894
S'wsgi.multiprocess'
p2895
asbag56
(g77
g58
NtRp2896
(dp2897
g61
(dp2898
g88
g89
ssg70
g2887
sg63
(lp2899
S':'
asbag56
(g77
g58
NtRp2900
(dp2901
g61
(dp2902
sg70
g2887
sg63
(lp2903
g56
(g57
g58
NtRp2904
(dp2905
g61
(dp2906
g69
I3
ssg70
g2900
sg63
(lp2907
g99
asbasbasbag56
(g72
g58
NtRp2908
(dp2909
g61
(dp2910
sg70
g2418
sg63
(lp2911
g56
(g77
g58
NtRp2912
(dp2913
g61
(dp2914
g81
g82
ssg70
g2908
sg63
(lp2915
S'wsgi.multithread'
p2916
asbag56
(g77
g58
NtRp2917
(dp2918
g61
(dp2919
g88
g89
ssg70
g2908
sg63
(lp2920
S':'
asbag56
(g77
g58
NtRp2921
(dp2922
g61
(dp2923
sg70
g2908
sg63
(lp2924
g56
(g57
g58
NtRp2925
(dp2926
g61
(dp2927
g69
I3
ssg70
g2921
sg63
(lp2928
g1668
asbasbasbag56
(g72
g58
NtRp2929
(dp2930
g61
(dp2931
sg70
g2418
sg63
(lp2932
g56
(g77
g58
NtRp2933
(dp2934
g61
(dp2935
g81
g82
ssg70
g2929
sg63
(lp2936
S'wsgi.run_once'
p2937
asbag56
(g77
g58
NtRp2938
(dp2939
g61
(dp2940
g88
g89
ssg70
g2929
sg63
(lp2941
S':'
asbag56
(g77
g58
NtRp2942
(dp2943
g61
(dp2944
sg70
g2929
sg63
(lp2945
g56
(g57
g58
NtRp2946
(dp2947
g61
(dp2948
g69
I3
ssg70
g2942
sg63
(lp2949
g99
asbasbasbag56
(g72
g58
NtRp2950
(dp2951
g61
(dp2952
sg70
g2418
sg63
(lp2953
g56
(g77
g58
NtRp2954
(dp2955
g61
(dp2956
g81
g82
ssg70
g2950
sg63
(lp2957
S'wsgi.url_scheme'
p2958
asbag56
(g77
g58
NtRp2959
(dp2960
g61
(dp2961
g88
g89
ssg70
g2950
sg63
(lp2962
S':'
asbag56
(g77
g58
NtRp2963
(dp2964
g61
(dp2965
sg70
g2950
sg63
(lp2966
g56
(g57
g58
NtRp2967
(dp2968
g61
(dp2969
g69
I3
ssg70
g2963
sg63
(lp2970
g1711
asbasbasbag56
(g72
g58
NtRp2971
(dp2972
g61
(dp2973
sg70
g2418
sg63
(lp2974
g56
(g77
g58
NtRp2975
(dp2976
g61
(dp2977
g81
g82
ssg70
g2971
sg63
(lp2978
S'wsgi.version'
p2979
asbag56
(g77
g58
NtRp2980
(dp2981
g61
(dp2982
g88
g89
ssg70
g2971
sg63
(lp2983
S':'
asbag56
(g77
g58
NtRp2984
(dp2985
g61
(dp2986
sg70
g2971
sg63
(lp2987
g56
(g57
g58
NtRp2988
(dp2989
g61
(dp2990
g69
I3
ssg70
g2984
sg63
(lp2991
S'1'
asbasbasbasbasbasbasbasbasbasbasbasbasbsS'frames'
p2992
(lp2993
(dp2994
S'file'
p2995
S'/home/kaique/Projects/web2py/gluon/restricted.py'
p2996
sS'dump'
p2997
(dp2998
S'environment'
p2999
S"{'A': <class 'gluon.html.A'>, 'Auth': <class 'gluon.tools.Auth'>, 'B': <class 'gluon.html.B'>, 'BEAUTIFY': <class 'gluon.html.BEAUTIFY'>, 'BODY': <class 'gluon.html.BODY'>, 'BR': <class 'gluon.html.BR'>, 'BUTTON': <class 'gluon.html.BUTTON'>, 'CAT': <class 'gluon.html.CAT'>, 'CENTER': <class 'gluon.html.CENTER'>, 'CLEANUP': <class 'gluon.validators.CLEANUP'>, ...}"
p3000
sS'ccode'
p3001
S'<code object <module> at 0x2315a30, file "/home/...synopsis/views/information/profile.html", line 1>'
p3002
ssS'lnum'
p3003
I194
sS'lines'
p3004
(dp3005
I192
S'        else:'
p3006
sI193
S'            ccode = compile2(code,layer)'
p3007
sI194
S'        exec ccode in environment'
p3008
sI195
S'    except HTTP:'
p3009
sI196
S'        raise'
p3010
sI197
S'    except Exception, error:'
p3011
sI198
S'        # XXX Show exception in Wing IDE if running in debugger'
p3012
sI189
S'    try:'
p3013
sI190
S'        if type(code) == types.CodeType:'
p3014
sI191
S'            ccode = code'
p3015
ssS'call'
p3016
S'(code=\'response.write(\\\'<!DOCTYPE html>\\\\n<html lang="\\\', ...nse.write(\\\'\\\\n  </body>\\\\n</html>\\\\n\\\', escape=False)\', environment={\'A\': <class \'gluon.html.A\'>, \'Auth\': <class \'gluon.tools.Auth\'>, \'B\': <class \'gluon.html.B\'>, \'BEAUTIFY\': <class \'gluon.html.BEAUTIFY\'>, \'BODY\': <class \'gluon.html.BODY\'>, \'BR\': <class \'gluon.html.BR\'>, \'BUTTON\': <class \'gluon.html.BUTTON\'>, \'CAT\': <class \'gluon.html.CAT\'>, \'CENTER\': <class \'gluon.html.CENTER\'>, \'CLEANUP\': <class \'gluon.validators.CLEANUP\'>, ...}, layer=\'/home/kaique/Projects/web2py/applications/synopsis/views/information/profile.html\')'
p3017
sS'func'
p3018
S'restricted'
p3019
sa(dp3020
g2995
S'/home/kaique/Projects/web2py/applications/synopsis/views/information/profile.html'
p3021
sg2997
(dp3022
sg3003
I86
sg3004
(dp3023
I96
S"            response.write(A( T('Visualize this publication'),"
p3024
sI77
S'    pass'
p3025
sI78
S'response.write(\'\\n\\n      <!-- content -->\\n      <div id="content" \', escape=False)'
p3026
sI79
S'response.write(XML(style_content))'
p3027
sI80
S"response.write(' >\\n        ', escape=False)"
p3028
sI81
S'response.write(\'\\n\\n<div class="content">\\n\\t<section>\\n\\t\\t<article>\\n\\t\\t\\t\', escape=False)'
p3029
sI82
S'for subject in profile:'
p3030
sI83
S"    response.write('\\n\\t\\t\\t<header>\\n\\t\\t\\t\\t', escape=False)"
p3031
sI84
S"    response.write(A(T('Go back to synopses'), _href=URL('index') ))"
p3032
sI85
S"    response.write(' |\\n\\t\\t\\t\\t', escape=False)"
p3033
sI86
S"    response.write(A(T('Insert new publication'), _href=URL('publication', args=[request.args[1]]) ))"
p3034
sI87
S"    response.write('\\n\\t\\t\\t\\t<hr />\\n\\t\\t\\t\\t<h1>', escape=False)"
p3035
sI88
S'    response.write(subject.name)'
p3036
sI89
S'    response.write(\'</h1>\\n\\t\\t\\t\\t<hr />\\n\\t\\t\\t</header>\\n\\t\\t\\t<div>\\t\\n\\t\\t\\t\\t<table style="border: 1px solid #ccc;">\\n\\t\\t\\t\\t\\t<thead>\\n\\t\\t\\t\\t\\t\\t<tr>\\n\\t\\t\\t\\t\\t\\t\\t<td>Publication</td>\\n\\t\\t\\t\\t\\t\\t\\t<td></td>\\n\\t\\t\\t\\t\\t\\t</tr>\\n\\t\\t\\t\\t\\t</thead>\\n\\t\\t\\t\\t\\t<tbody>\\n\\t\\t\\t\\t\\t\\t\', escape=False)'
p3037
sI90
S'    for detail in subject.publication.select():'
p3038
sI91
S"        response.write(' ', escape=False)"
p3039
sI92
S'        if detail.subject_id == subject.id:'
p3040
sI93
S"            response.write('\\n\\t\\t\\t\\t\\t\\t<tr>\\n\\t\\t\\t\\t\\t\\t\\t<td>\\n\\t\\t\\t\\t\\t\\t\\t\\t', escape=False)"
p3041
sI94
S'            response.write(detail.title)'
p3042
sI95
S"            response.write('\\n\\t\\t\\t\\t\\t\\t\\t</td>\\n\\t\\t\\t\\t\\t\\t\\t<td>\\n\\t\\t\\t\\t\\t\\t\\t\\t', escape=False)"
p3043
ssg3016
S'()'
p3044
sg3018
S'<module>'
p3045
sasS'pyver'
p3046
S'Python 2.7.2+: /usr/bin/python'
p3047
sS'session'
p3048
g56
(g57
g58
NtRp3049
(dp3050
g61
(dp3051
sg63
(lp3052
g56
(g65
g58
NtRp3053
(dp3054
g61
(dp3055
g69
I5
ssg70
Nsg63
(lp3056
g56
(g72
g58
NtRp3057
(dp3058
g61
(dp3059
sg70
g3053
sg63
(lp3060
g56
(g77
g58
NtRp3061
(dp3062
g61
(dp3063
g81
g82
ssg70
g3057
sg63
(lp3064
S'auth'
p3065
asbag56
(g77
g58
NtRp3066
(dp3067
g61
(dp3068
g88
g89
ssg70
g3057
sg63
(lp3069
S':'
asbag56
(g77
g58
NtRp3070
(dp3071
g61
(dp3072
sg70
g3057
sg63
(lp3073
g56
(g57
g58
NtRp3074
(dp3075
g61
(dp3076
g69
I5
ssg70
g3070
sg63
(lp3077
g56
(g65
g58
NtRp3078
(dp3079
g61
(dp3080
g69
I4
ssg70
Nsg63
(lp3081
g56
(g72
g58
NtRp3082
(dp3083
g61
(dp3084
sg70
g3078
sg63
(lp3085
g56
(g77
g58
NtRp3086
(dp3087
g61
(dp3088
g81
g82
ssg70
g3082
sg63
(lp3089
S'expiration'
p3090
asbag56
(g77
g58
NtRp3091
(dp3092
g61
(dp3093
g88
g89
ssg70
g3082
sg63
(lp3094
S':'
asbag56
(g77
g58
NtRp3095
(dp3096
g61
(dp3097
sg70
g3082
sg63
(lp3098
g56
(g57
g58
NtRp3099
(dp3100
g61
(dp3101
g69
I4
ssg70
g3095
sg63
(lp3102
S'2592000'
p3103
asbasbasbag56
(g72
g58
NtRp3104
(dp3105
g61
(dp3106
sg70
g3078
sg63
(lp3107
g56
(g77
g58
NtRp3108
(dp3109
g61
(dp3110
g81
g82
ssg70
g3104
sg63
(lp3111
S'hmac_key'
p3112
asbag56
(g77
g58
NtRp3113
(dp3114
g61
(dp3115
g88
g89
ssg70
g3104
sg63
(lp3116
S':'
asbag56
(g77
g58
NtRp3117
(dp3118
g61
(dp3119
sg70
g3104
sg63
(lp3120
g56
(g57
g58
NtRp3121
(dp3122
g61
(dp3123
g69
I4
ssg70
g3117
sg63
(lp3124
S'4c32a183-7118-47f6-ab0b-21a33c2fc6ab'
p3125
asbasbasbag56
(g72
g58
NtRp3126
(dp3127
g61
(dp3128
sg70
g3078
sg63
(lp3129
g56
(g77
g58
NtRp3130
(dp3131
g61
(dp3132
g81
g82
ssg70
g3126
sg63
(lp3133
S'last_visit'
p3134
asbag56
(g77
g58
NtRp3135
(dp3136
g61
(dp3137
g88
g89
ssg70
g3126
sg63
(lp3138
S':'
asbag56
(g77
g58
NtRp3139
(dp3140
g61
(dp3141
sg70
g3126
sg63
(lp3142
g56
(g57
g58
NtRp3143
(dp3144
g61
(dp3145
g69
I4
ssg70
g3139
sg63
(lp3146
S'datetime.datetime(2012, 1, 11, 22, 1, 29, 654193)'
p3147
asbasbasbag56
(g72
g58
NtRp3148
(dp3149
g61
(dp3150
sg70
g3078
sg63
(lp3151
g56
(g77
g58
NtRp3152
(dp3153
g61
(dp3154
g81
g82
ssg70
g3148
sg63
(lp3155
S'remember'
p3156
asbag56
(g77
g58
NtRp3157
(dp3158
g61
(dp3159
g88
g89
ssg70
g3148
sg63
(lp3160
S':'
asbag56
(g77
g58
NtRp3161
(dp3162
g61
(dp3163
sg70
g3148
sg63
(lp3164
g56
(g57
g58
NtRp3165
(dp3166
g61
(dp3167
g69
I4
ssg70
g3161
sg63
(lp3168
g99
asbasbasbag56
(g72
g58
NtRp3169
(dp3170
g61
(dp3171
sg70
g3078
sg63
(lp3172
g56
(g77
g58
NtRp3173
(dp3174
g61
(dp3175
g81
g82
ssg70
g3169
sg63
(lp3176
S'user'
p3177
asbag56
(g77
g58
NtRp3178
(dp3179
g61
(dp3180
g88
g89
ssg70
g3169
sg63
(lp3181
S':'
asbag56
(g77
g58
NtRp3182
(dp3183
g61
(dp3184
sg70
g3169
sg63
(lp3185
g56
(g57
g58
NtRp3186
(dp3187
g61
(dp3188
g69
I4
ssg70
g3182
sg63
(lp3189
g56
(g65
g58
NtRp3190
(dp3191
g61
(dp3192
g69
I3
ssg70
Nsg63
(lp3193
g56
(g72
g58
NtRp3194
(dp3195
g61
(dp3196
sg70
g3190
sg63
(lp3197
g56
(g77
g58
NtRp3198
(dp3199
g61
(dp3200
g81
g82
ssg70
g3194
sg63
(lp3201
S'email'
p3202
asbag56
(g77
g58
NtRp3203
(dp3204
g61
(dp3205
g88
g89
ssg70
g3194
sg63
(lp3206
S':'
asbag56
(g77
g58
NtRp3207
(dp3208
g61
(dp3209
sg70
g3194
sg63
(lp3210
g56
(g57
g58
NtRp3211
(dp3212
g61
(dp3213
g69
I3
ssg70
g3207
sg63
(lp3214
S'kaique.developer@gmail.com'
p3215
asbasbasbag56
(g72
g58
NtRp3216
(dp3217
g61
(dp3218
sg70
g3190
sg63
(lp3219
g56
(g77
g58
NtRp3220
(dp3221
g61
(dp3222
g81
g82
ssg70
g3216
sg63
(lp3223
S'first_name'
p3224
asbag56
(g77
g58
NtRp3225
(dp3226
g61
(dp3227
g88
g89
ssg70
g3216
sg63
(lp3228
S':'
asbag56
(g77
g58
NtRp3229
(dp3230
g61
(dp3231
sg70
g3216
sg63
(lp3232
g56
(g57
g58
NtRp3233
(dp3234
g61
(dp3235
g69
I3
ssg70
g3229
sg63
(lp3236
S'kaique'
p3237
asbasbasbag56
(g72
g58
NtRp3238
(dp3239
g61
(dp3240
sg70
g3190
sg63
(lp3241
g56
(g77
g58
NtRp3242
(dp3243
g61
(dp3244
g81
g82
ssg70
g3238
sg63
(lp3245
S'id'
p3246
asbag56
(g77
g58
NtRp3247
(dp3248
g61
(dp3249
g88
g89
ssg70
g3238
sg63
(lp3250
S':'
asbag56
(g77
g58
NtRp3251
(dp3252
g61
(dp3253
sg70
g3238
sg63
(lp3254
g56
(g57
g58
NtRp3255
(dp3256
g61
(dp3257
g69
I3
ssg70
g3251
sg63
(lp3258
S'1'
asbasbasbag56
(g72
g58
NtRp3259
(dp3260
g61
(dp3261
sg70
g3190
sg63
(lp3262
g56
(g77
g58
NtRp3263
(dp3264
g61
(dp3265
g81
g82
ssg70
g3259
sg63
(lp3266
S'last_name'
p3267
asbag56
(g77
g58
NtRp3268
(dp3269
g61
(dp3270
g88
g89
ssg70
g3259
sg63
(lp3271
S':'
asbag56
(g77
g58
NtRp3272
(dp3273
g61
(dp3274
sg70
g3259
sg63
(lp3275
g56
(g57
g58
NtRp3276
(dp3277
g61
(dp3278
g69
I3
ssg70
g3272
sg63
(lp3279
S'silva'
p3280
asbasbasbag56
(g72
g58
NtRp3281
(dp3282
g61
(dp3283
sg70
g3190
sg63
(lp3284
g56
(g77
g58
NtRp3285
(dp3286
g61
(dp3287
g81
g82
ssg70
g3281
sg63
(lp3288
S'password'
p3289
asbag56
(g77
g58
NtRp3290
(dp3291
g61
(dp3292
g88
g89
ssg70
g3281
sg63
(lp3293
S':'
asbag56
(g77
g58
NtRp3294
(dp3295
g61
(dp3296
sg70
g3281
sg63
(lp3297
g56
(g57
g58
NtRp3298
(dp3299
g61
(dp3300
g69
I3
ssg70
g3294
sg63
(lp3301
S'72c6a018d62d3fb47d95389e4a062cd2'
p3302
asbasbasbag56
(g72
g58
NtRp3303
(dp3304
g61
(dp3305
sg70
g3190
sg63
(lp3306
g56
(g77
g58
NtRp3307
(dp3308
g61
(dp3309
g81
g82
ssg70
g3303
sg63
(lp3310
S'registration_key'
p3311
asbag56
(g77
g58
NtRp3312
(dp3313
g61
(dp3314
g88
g89
ssg70
g3303
sg63
(lp3315
S':'
asbag56
(g77
g58
NtRp3316
(dp3317
g61
(dp3318
sg70
g3303
sg63
(lp3319
g56
(g57
g58
NtRp3320
(dp3321
g61
(dp3322
g69
I3
ssg70
g3316
sg63
(lp3323
S''
asbasbasbag56
(g72
g58
NtRp3324
(dp3325
g61
(dp3326
sg70
g3190
sg63
(lp3327
g56
(g77
g58
NtRp3328
(dp3329
g61
(dp3330
g81
g82
ssg70
g3324
sg63
(lp3331
S'reset_password_key'
p3332
asbag56
(g77
g58
NtRp3333
(dp3334
g61
(dp3335
g88
g89
ssg70
g3324
sg63
(lp3336
S':'
asbag56
(g77
g58
NtRp3337
(dp3338
g61
(dp3339
sg70
g3324
sg63
(lp3340
g56
(g57
g58
NtRp3341
(dp3342
g61
(dp3343
g69
I3
ssg70
g3337
sg63
(lp3344
S''
asbasbasbasbasbasbasbasbasbasbasbag56
(g72
g58
NtRp3345
(dp3346
g61
(dp3347
sg70
g3053
sg63
(lp3348
g56
(g77
g58
NtRp3349
(dp3350
g61
(dp3351
g81
g82
ssg70
g3345
sg63
(lp3352
S'index'
p3353
asbag56
(g77
g58
NtRp3354
(dp3355
g61
(dp3356
g88
g89
ssg70
g3345
sg63
(lp3357
S':'
asbag56
(g77
g58
NtRp3358
(dp3359
g61
(dp3360
sg70
g3345
sg63
(lp3361
g56
(g57
g58
NtRp3362
(dp3363
g61
(dp3364
g69
I5
ssg70
g3358
sg63
(lp3365
S'1'
asbasbasbag56
(g72
g58
NtRp3366
(dp3367
g61
(dp3368
sg70
g3053
sg63
(lp3369
g56
(g77
g58
NtRp3370
(dp3371
g61
(dp3372
g81
g82
ssg70
g3366
sg63
(lp3373
S'last_query'
p3374
asbag56
(g77
g58
NtRp3375
(dp3376
g61
(dp3377
g88
g89
ssg70
g3366
sg63
(lp3378
S':'
asbag56
(g77
g58
NtRp3379
(dp3380
g61
(dp3381
sg70
g3366
sg63
(lp3382
g56
(g57
g58
NtRp3383
(dp3384
g61
(dp3385
g69
I5
ssg70
g3379
sg63
(lp3386
S'db.column.id>0'
p3387
asbasbasbasbasbsS'etype'
p3388
S"<type 'exceptions.IndexError'>"
p3389
sS'date'
p3390
S'Thu Jan 12 14:45:19 2012'
p3391
sS'response'
p3392
g56
(g57
g58
NtRp3393
(dp3394
g61
(dp3395
sg63
(lp3396
g56
(g65
g58
NtRp3397
(dp3398
g61
(dp3399
g69
I5
ssg70
Nsg63
(lp3400
g56
(g72
g58
NtRp3401
(dp3402
g61
(dp3403
sg70
g3397
sg63
(lp3404
g56
(g77
g58
NtRp3405
(dp3406
g61
(dp3407
g81
g82
ssg70
g3401
sg63
(lp3408
g166
asbag56
(g77
g58
NtRp3409
(dp3410
g61
(dp3411
g88
g89
ssg70
g3401
sg63
(lp3412
S':'
asbag56
(g77
g58
NtRp3413
(dp3414
g61
(dp3415
sg70
g3401
sg63
(lp3416
g56
(g57
g58
NtRp3417
(dp3418
g61
(dp3419
g69
I5
ssg70
g3413
sg63
(lp3420
S'<cStringIO.StringO object at 0x2fa21b8>'
p3421
asbasbasbag56
(g72
g58
NtRp3422
(dp3423
g61
(dp3424
sg70
g3397
sg63
(lp3425
g56
(g77
g58
NtRp3426
(dp3427
g61
(dp3428
g81
g82
ssg70
g3422
sg63
(lp3429
g232
asbag56
(g77
g58
NtRp3430
(dp3431
g61
(dp3432
g88
g89
ssg70
g3422
sg63
(lp3433
S':'
asbag56
(g77
g58
NtRp3434
(dp3435
g61
(dp3436
sg70
g3422
sg63
(lp3437
g56
(g57
g58
NtRp3438
(dp3439
g61
(dp3440
g69
I5
ssg70
g3434
sg63
(lp3441
g56
(g65
g58
NtRp3442
(dp3443
g61
(dp3444
g69
I4
ssg70
Nsg63
(lp3445
g56
(g72
g58
NtRp3446
(dp3447
g61
(dp3448
sg70
g3442
sg63
(lp3449
g56
(g77
g58
NtRp3450
(dp3451
g61
(dp3452
g81
g82
ssg70
g3446
sg63
(lp3453
S'session_id_synopsis'
p3454
asbag56
(g77
g58
NtRp3455
(dp3456
g61
(dp3457
g88
g89
ssg70
g3446
sg63
(lp3458
S':'
asbag56
(g77
g58
NtRp3459
(dp3460
g61
(dp3461
sg70
g3446
sg63
(lp3462
g56
(g57
g58
NtRp3463
(dp3464
g61
(dp3465
g69
I4
ssg70
g3459
sg63
(lp3466
g56
(g65
g58
NtRp3467
(dp3468
g61
(dp3469
g69
I3
ssg70
Nsg63
(lp3470
g56
(g72
g58
NtRp3471
(dp3472
g61
(dp3473
sg70
g3467
sg63
(lp3474
g56
(g77
g58
NtRp3475
(dp3476
g61
(dp3477
g81
g82
ssg70
g3471
sg63
(lp3478
g282
asbag56
(g77
g58
NtRp3479
(dp3480
g61
(dp3481
g88
g89
ssg70
g3471
sg63
(lp3482
S':'
asbag56
(g77
g58
NtRp3483
(dp3484
g61
(dp3485
sg70
g3471
sg63
(lp3486
g56
(g57
g58
NtRp3487
(dp3488
g61
(dp3489
g69
I3
ssg70
g3483
sg63
(lp3490
S''
asbasbasbag56
(g72
g58
NtRp3491
(dp3492
g61
(dp3493
sg70
g3467
sg63
(lp3494
g56
(g77
g58
NtRp3495
(dp3496
g61
(dp3497
g81
g82
ssg70
g3491
sg63
(lp3498
g303
asbag56
(g77
g58
NtRp3499
(dp3500
g61
(dp3501
g88
g89
ssg70
g3491
sg63
(lp3502
S':'
asbag56
(g77
g58
NtRp3503
(dp3504
g61
(dp3505
sg70
g3491
sg63
(lp3506
g56
(g57
g58
NtRp3507
(dp3508
g61
(dp3509
g69
I3
ssg70
g3503
sg63
(lp3510
S''
asbasbasbag56
(g72
g58
NtRp3511
(dp3512
g61
(dp3513
sg70
g3467
sg63
(lp3514
g56
(g77
g58
NtRp3515
(dp3516
g61
(dp3517
g81
g82
ssg70
g3511
sg63
(lp3518
g324
asbag56
(g77
g58
NtRp3519
(dp3520
g61
(dp3521
g88
g89
ssg70
g3511
sg63
(lp3522
S':'
asbag56
(g77
g58
NtRp3523
(dp3524
g61
(dp3525
sg70
g3511
sg63
(lp3526
g56
(g57
g58
NtRp3527
(dp3528
g61
(dp3529
g69
I3
ssg70
g3523
sg63
(lp3530
S''
asbasbasbag56
(g72
g58
NtRp3531
(dp3532
g61
(dp3533
sg70
g3467
sg63
(lp3534
g56
(g77
g58
NtRp3535
(dp3536
g61
(dp3537
g81
g82
ssg70
g3531
sg63
(lp3538
g345
asbag56
(g77
g58
NtRp3539
(dp3540
g61
(dp3541
g88
g89
ssg70
g3531
sg63
(lp3542
S':'
asbag56
(g77
g58
NtRp3543
(dp3544
g61
(dp3545
sg70
g3531
sg63
(lp3546
g56
(g57
g58
NtRp3547
(dp3548
g61
(dp3549
g69
I3
ssg70
g3543
sg63
(lp3550
S''
asbasbasbag56
(g72
g58
NtRp3551
(dp3552
g61
(dp3553
sg70
g3467
sg63
(lp3554
g56
(g77
g58
NtRp3555
(dp3556
g61
(dp3557
g81
g82
ssg70
g3551
sg63
(lp3558
g366
asbag56
(g77
g58
NtRp3559
(dp3560
g61
(dp3561
g88
g89
ssg70
g3551
sg63
(lp3562
S':'
asbag56
(g77
g58
NtRp3563
(dp3564
g61
(dp3565
sg70
g3551
sg63
(lp3566
g56
(g57
g58
NtRp3567
(dp3568
g61
(dp3569
g69
I3
ssg70
g3563
sg63
(lp3570
S''
asbasbasbag56
(g72
g58
NtRp3571
(dp3572
g61
(dp3573
sg70
g3467
sg63
(lp3574
g56
(g77
g58
NtRp3575
(dp3576
g61
(dp3577
g81
g82
ssg70
g3571
sg63
(lp3578
g387
asbag56
(g77
g58
NtRp3579
(dp3580
g61
(dp3581
g88
g89
ssg70
g3571
sg63
(lp3582
S':'
asbag56
(g77
g58
NtRp3583
(dp3584
g61
(dp3585
sg70
g3571
sg63
(lp3586
g56
(g57
g58
NtRp3587
(dp3588
g61
(dp3589
g69
I3
ssg70
g3583
sg63
(lp3590
S'/'
asbasbasbag56
(g72
g58
NtRp3591
(dp3592
g61
(dp3593
sg70
g3467
sg63
(lp3594
g56
(g77
g58
NtRp3595
(dp3596
g61
(dp3597
g81
g82
ssg70
g3591
sg63
(lp3598
g408
asbag56
(g77
g58
NtRp3599
(dp3600
g61
(dp3601
g88
g89
ssg70
g3591
sg63
(lp3602
S':'
asbag56
(g77
g58
NtRp3603
(dp3604
g61
(dp3605
sg70
g3591
sg63
(lp3606
g56
(g57
g58
NtRp3607
(dp3608
g61
(dp3609
g69
I3
ssg70
g3603
sg63
(lp3610
S''
asbasbasbag56
(g72
g58
NtRp3611
(dp3612
g61
(dp3613
sg70
g3467
sg63
(lp3614
g56
(g77
g58
NtRp3615
(dp3616
g61
(dp3617
g81
g82
ssg70
g3611
sg63
(lp3618
g429
asbag56
(g77
g58
NtRp3619
(dp3620
g61
(dp3621
g88
g89
ssg70
g3611
sg63
(lp3622
S':'
asbag56
(g77
g58
NtRp3623
(dp3624
g61
(dp3625
sg70
g3611
sg63
(lp3626
g56
(g57
g58
NtRp3627
(dp3628
g61
(dp3629
g69
I3
ssg70
g3623
sg63
(lp3630
S''
asbasbasbasbasbasbasbasbasbasbasbag56
(g72
g58
NtRp3631
(dp3632
g61
(dp3633
sg70
g3397
sg63
(lp3634
g56
(g77
g58
NtRp3635
(dp3636
g61
(dp3637
g81
g82
ssg70
g3631
sg63
(lp3638
S'files'
p3639
asbag56
(g77
g58
NtRp3640
(dp3641
g61
(dp3642
g88
g89
ssg70
g3631
sg63
(lp3643
S':'
asbag56
(g77
g58
NtRp3644
(dp3645
g61
(dp3646
sg70
g3631
sg63
(lp3647
g56
(g57
g58
NtRp3648
(dp3649
g61
(dp3650
g69
I5
ssg70
g3644
sg63
(lp3651
g56
(g65
g58
NtRp3652
(dp3653
g61
(dp3654
g69
I4
ssg70
Nsg63
(lp3655
g56
(g72
g58
NtRp3656
(dp3657
g61
(dp3658
sg70
g3652
sg63
(lp3659
g56
(g77
g58
NtRp3660
(dp3661
g61
(dp3662
sg70
g3656
sg63
(lp3663
g56
(g57
g58
NtRp3664
(dp3665
g61
(dp3666
g69
I4
ssg70
g3660
sg63
(lp3667
S'/synopsis/static/js/jquery.js'
p3668
asbasbasbag56
(g72
g58
NtRp3669
(dp3670
g61
(dp3671
sg70
g3652
sg63
(lp3672
g56
(g77
g58
NtRp3673
(dp3674
g61
(dp3675
sg70
g3669
sg63
(lp3676
g56
(g57
g58
NtRp3677
(dp3678
g61
(dp3679
g69
I4
ssg70
g3673
sg63
(lp3680
S'/synopsis/static/css/anytime.css'
p3681
asbasbasbag56
(g72
g58
NtRp3682
(dp3683
g61
(dp3684
sg70
g3652
sg63
(lp3685
g56
(g77
g58
NtRp3686
(dp3687
g61
(dp3688
sg70
g3682
sg63
(lp3689
g56
(g57
g58
NtRp3690
(dp3691
g61
(dp3692
g69
I4
ssg70
g3686
sg63
(lp3693
S'/synopsis/static/js/anytime.js'
p3694
asbasbasbag56
(g72
g58
NtRp3695
(dp3696
g61
(dp3697
sg70
g3652
sg63
(lp3698
g56
(g77
g58
NtRp3699
(dp3700
g61
(dp3701
sg70
g3695
sg63
(lp3702
g56
(g57
g58
NtRp3703
(dp3704
g61
(dp3705
g69
I4
ssg70
g3699
sg63
(lp3706
S'/synopsis/static/css/base.css'
p3707
asbasbasbag56
(g72
g58
NtRp3708
(dp3709
g61
(dp3710
sg70
g3652
sg63
(lp3711
g56
(g77
g58
NtRp3712
(dp3713
g61
(dp3714
sg70
g3708
sg63
(lp3715
g56
(g57
g58
NtRp3716
(dp3717
g61
(dp3718
g69
I4
ssg70
g3712
sg63
(lp3719
S'/synopsis/static/css/superfish.css'
p3720
asbasbasbag56
(g72
g58
NtRp3721
(dp3722
g61
(dp3723
sg70
g3652
sg63
(lp3724
g56
(g77
g58
NtRp3725
(dp3726
g61
(dp3727
sg70
g3721
sg63
(lp3728
g56
(g57
g58
NtRp3729
(dp3730
g61
(dp3731
g69
I4
ssg70
g3725
sg63
(lp3732
S'/synopsis/static/js/superfish.js'
p3733
asbasbasbasbasbasbasbag56
(g72
g58
NtRp3734
(dp3735
g61
(dp3736
sg70
g3397
sg63
(lp3737
g56
(g77
g58
NtRp3738
(dp3739
g61
(dp3740
g81
g82
ssg70
g3734
sg63
(lp3741
S'flash'
p3742
asbag56
(g77
g58
NtRp3743
(dp3744
g61
(dp3745
g88
g89
ssg70
g3734
sg63
(lp3746
S':'
asbag56
(g77
g58
NtRp3747
(dp3748
g61
(dp3749
sg70
g3734
sg63
(lp3750
g56
(g57
g58
NtRp3751
(dp3752
g61
(dp3753
g69
I5
ssg70
g3747
sg63
(lp3754
S''
asbasbasbag56
(g72
g58
NtRp3755
(dp3756
g61
(dp3757
sg70
g3397
sg63
(lp3758
g56
(g77
g58
NtRp3759
(dp3760
g61
(dp3761
g81
g82
ssg70
g3755
sg63
(lp3762
S'generic_patterns'
p3763
asbag56
(g77
g58
NtRp3764
(dp3765
g61
(dp3766
g88
g89
ssg70
g3755
sg63
(lp3767
S':'
asbag56
(g77
g58
NtRp3768
(dp3769
g61
(dp3770
sg70
g3755
sg63
(lp3771
g56
(g57
g58
NtRp3772
(dp3773
g61
(dp3774
g69
I5
ssg70
g3768
sg63
(lp3775
g56
(g65
g58
NtRp3776
(dp3777
g61
(dp3778
g69
I4
ssg70
Nsg63
(lp3779
g56
(g72
g58
NtRp3780
(dp3781
g61
(dp3782
sg70
g3776
sg63
(lp3783
g56
(g77
g58
NtRp3784
(dp3785
g61
(dp3786
sg70
g3780
sg63
(lp3787
g56
(g57
g58
NtRp3788
(dp3789
g61
(dp3790
g69
I4
ssg70
g3784
sg63
(lp3791
S'*'
asbasbasbasbasbasbasbag56
(g72
g58
NtRp3792
(dp3793
g61
(dp3794
sg70
g3397
sg63
(lp3795
g56
(g77
g58
NtRp3796
(dp3797
g61
(dp3798
g81
g82
ssg70
g3792
sg63
(lp3799
S'headers'
p3800
asbag56
(g77
g58
NtRp3801
(dp3802
g61
(dp3803
g88
g89
ssg70
g3792
sg63
(lp3804
S':'
asbag56
(g77
g58
NtRp3805
(dp3806
g61
(dp3807
sg70
g3792
sg63
(lp3808
g56
(g57
g58
NtRp3809
(dp3810
g61
(dp3811
g69
I5
ssg70
g3805
sg63
(lp3812
g56
(g65
g58
NtRp3813
(dp3814
g61
(dp3815
g69
I4
ssg70
Nsg63
(lp3816
g56
(g72
g58
NtRp3817
(dp3818
g61
(dp3819
sg70
g3813
sg63
(lp3820
g56
(g77
g58
NtRp3821
(dp3822
g61
(dp3823
g81
g82
ssg70
g3817
sg63
(lp3824
S'Cache-Control'
p3825
asbag56
(g77
g58
NtRp3826
(dp3827
g61
(dp3828
g88
g89
ssg70
g3817
sg63
(lp3829
S':'
asbag56
(g77
g58
NtRp3830
(dp3831
g61
(dp3832
sg70
g3817
sg63
(lp3833
g56
(g57
g58
NtRp3834
(dp3835
g61
(dp3836
g69
I4
ssg70
g3830
sg63
(lp3837
S'no-store, no-cache, must-revalidate, post-check=0, pre-check=0'
p3838
asbasbasbag56
(g72
g58
NtRp3839
(dp3840
g61
(dp3841
sg70
g3813
sg63
(lp3842
g56
(g77
g58
NtRp3843
(dp3844
g61
(dp3845
g81
g82
ssg70
g3839
sg63
(lp3846
S'Content-Type'
p3847
asbag56
(g77
g58
NtRp3848
(dp3849
g61
(dp3850
g88
g89
ssg70
g3839
sg63
(lp3851
S':'
asbag56
(g77
g58
NtRp3852
(dp3853
g61
(dp3854
sg70
g3839
sg63
(lp3855
g56
(g57
g58
NtRp3856
(dp3857
g61
(dp3858
g69
I4
ssg70
g3852
sg63
(lp3859
S'text/html; charset=utf-8'
p3860
asbasbasbag56
(g72
g58
NtRp3861
(dp3862
g61
(dp3863
sg70
g3813
sg63
(lp3864
g56
(g77
g58
NtRp3865
(dp3866
g61
(dp3867
g81
g82
ssg70
g3861
sg63
(lp3868
S'Expires'
p3869
asbag56
(g77
g58
NtRp3870
(dp3871
g61
(dp3872
g88
g89
ssg70
g3861
sg63
(lp3873
S':'
asbag56
(g77
g58
NtRp3874
(dp3875
g61
(dp3876
sg70
g3861
sg63
(lp3877
g56
(g57
g58
NtRp3878
(dp3879
g61
(dp3880
g69
I4
ssg70
g3874
sg63
(lp3881
S'Thu, 12 Jan 2012 16:45:18 GMT'
p3882
asbasbasbag56
(g72
g58
NtRp3883
(dp3884
g61
(dp3885
sg70
g3813
sg63
(lp3886
g56
(g77
g58
NtRp3887
(dp3888
g61
(dp3889
g81
g82
ssg70
g3883
sg63
(lp3890
S'Pragma'
p3891
asbag56
(g77
g58
NtRp3892
(dp3893
g61
(dp3894
g88
g89
ssg70
g3883
sg63
(lp3895
S':'
asbag56
(g77
g58
NtRp3896
(dp3897
g61
(dp3898
sg70
g3883
sg63
(lp3899
g56
(g57
g58
NtRp3900
(dp3901
g61
(dp3902
g69
I4
ssg70
g3896
sg63
(lp3903
S'no-cache'
p3904
asbasbasbag56
(g72
g58
NtRp3905
(dp3906
g61
(dp3907
sg70
g3813
sg63
(lp3908
g56
(g77
g58
NtRp3909
(dp3910
g61
(dp3911
g81
g82
ssg70
g3905
sg63
(lp3912
S'X-Powered-By'
p3913
asbag56
(g77
g58
NtRp3914
(dp3915
g61
(dp3916
g88
g89
ssg70
g3905
sg63
(lp3917
S':'
asbag56
(g77
g58
NtRp3918
(dp3919
g61
(dp3920
sg70
g3905
sg63
(lp3921
g56
(g57
g58
NtRp3922
(dp3923
g61
(dp3924
g69
I4
ssg70
g3918
sg63
(lp3925
S'web2py'
p3926
asbasbasbasbasbasbasbag56
(g72
g58
NtRp3927
(dp3928
g61
(dp3929
sg70
g3397
sg63
(lp3930
g56
(g77
g58
NtRp3931
(dp3932
g61
(dp3933
g81
g82
ssg70
g3927
sg63
(lp3934
S'menu'
p3935
asbag56
(g77
g58
NtRp3936
(dp3937
g61
(dp3938
g88
g89
ssg70
g3927
sg63
(lp3939
S':'
asbag56
(g77
g58
NtRp3940
(dp3941
g61
(dp3942
sg70
g3927
sg63
(lp3943
g56
(g57
g58
NtRp3944
(dp3945
g61
(dp3946
g69
I5
ssg70
g3940
sg63
(lp3947
g56
(g65
g58
NtRp3948
(dp3949
g61
(dp3950
g69
I4
ssg70
Nsg63
(lp3951
g56
(g72
g58
NtRp3952
(dp3953
g61
(dp3954
sg70
g3948
sg63
(lp3955
g56
(g77
g58
NtRp3956
(dp3957
g61
(dp3958
sg70
g3952
sg63
(lp3959
g56
(g57
g58
NtRp3960
(dp3961
g61
(dp3962
g69
I4
ssg70
g3956
sg63
(lp3963
g56
(g65
g58
NtRp3964
(dp3965
g61
(dp3966
g69
I3
ssg70
Nsg63
(lp3967
g56
(g72
g58
NtRp3968
(dp3969
g61
(dp3970
sg70
g3964
sg63
(lp3971
g56
(g77
g58
NtRp3972
(dp3973
g61
(dp3974
sg70
g3968
sg63
(lp3975
g56
(g57
g58
NtRp3976
(dp3977
g61
(dp3978
g69
I3
ssg70
g3972
sg63
(lp3979
cgluon.languages
lazyT_unpickle
p3980
(S't\x04\x00\x00\x00Home'
tRp3981
asbasbasbag56
(g72
g58
NtRp3982
(dp3983
g61
(dp3984
sg70
g3964
sg63
(lp3985
g56
(g77
g58
NtRp3986
(dp3987
g61
(dp3988
sg70
g3982
sg63
(lp3989
g56
(g57
g58
NtRp3990
(dp3991
g61
(dp3992
g69
I3
ssg70
g3986
sg63
(lp3993
g99
asbasbasbag56
(g72
g58
NtRp3994
(dp3995
g61
(dp3996
sg70
g3964
sg63
(lp3997
g56
(g77
g58
NtRp3998
(dp3999
g61
(dp4000
sg70
g3994
sg63
(lp4001
g56
(g57
g58
NtRp4002
(dp4003
g61
(dp4004
g69
I3
ssg70
g3998
sg63
(lp4005
S'/synopsis/default/index'
p4006
asbasbasbag56
(g72
g58
NtRp4007
(dp4008
g61
(dp4009
sg70
g3964
sg63
(lp4010
g56
(g77
g58
NtRp4011
(dp4012
g61
(dp4013
sg70
g4007
sg63
(lp4014
g56
(g57
g58
NtRp4015
(dp4016
g61
(dp4017
g69
I3
ssg70
g4011
sg63
(lp4018
g56
(g65
g58
NtRp4019
(dp4020
g61
(dp4021
g69
I2
ssg70
Nsg63
(lp4022
sbasbasbasbasbasbasbasbag56
(g72
g58
NtRp4023
(dp4024
g61
(dp4025
sg70
g3948
sg63
(lp4026
g56
(g77
g58
NtRp4027
(dp4028
g61
(dp4029
sg70
g4023
sg63
(lp4030
g56
(g57
g58
NtRp4031
(dp4032
g61
(dp4033
g69
I4
ssg70
g4027
sg63
(lp4034
g56
(g65
g58
NtRp4035
(dp4036
g61
(dp4037
g69
I3
ssg70
Nsg63
(lp4038
g56
(g72
g58
NtRp4039
(dp4040
g61
(dp4041
sg70
g4035
sg63
(lp4042
g56
(g77
g58
NtRp4043
(dp4044
g61
(dp4045
sg70
g4039
sg63
(lp4046
g56
(g57
g58
NtRp4047
(dp4048
g61
(dp4049
g69
I3
ssg70
g4043
sg63
(lp4050
g3980
(S't\x0b\x00\x00\x00Information'
tRp4051
asbasbasbag56
(g72
g58
NtRp4052
(dp4053
g61
(dp4054
sg70
g4035
sg63
(lp4055
g56
(g77
g58
NtRp4056
(dp4057
g61
(dp4058
sg70
g4052
sg63
(lp4059
g56
(g57
g58
NtRp4060
(dp4061
g61
(dp4062
g69
I3
ssg70
g4056
sg63
(lp4063
g99
asbasbasbag56
(g72
g58
NtRp4064
(dp4065
g61
(dp4066
sg70
g4035
sg63
(lp4067
g56
(g77
g58
NtRp4068
(dp4069
g61
(dp4070
sg70
g4064
sg63
(lp4071
g56
(g57
g58
NtRp4072
(dp4073
g61
(dp4074
g69
I3
ssg70
g4068
sg63
(lp4075
S'/synopsis/information/index'
p4076
asbasbasbag56
(g72
g58
NtRp4077
(dp4078
g61
(dp4079
sg70
g4035
sg63
(lp4080
g56
(g77
g58
NtRp4081
(dp4082
g61
(dp4083
sg70
g4077
sg63
(lp4084
g56
(g57
g58
NtRp4085
(dp4086
g61
(dp4087
g69
I3
ssg70
g4081
sg63
(lp4088
g56
(g65
g58
NtRp4089
(dp4090
g61
(dp4091
g69
I2
ssg70
Nsg63
(lp4092
sbasbasbasbasbasbasbasbag56
(g72
g58
NtRp4093
(dp4094
g61
(dp4095
sg70
g3948
sg63
(lp4096
g56
(g77
g58
NtRp4097
(dp4098
g61
(dp4099
sg70
g4093
sg63
(lp4100
g56
(g57
g58
NtRp4101
(dp4102
g61
(dp4103
g69
I4
ssg70
g4097
sg63
(lp4104
g56
(g65
g58
NtRp4105
(dp4106
g61
(dp4107
g69
I3
ssg70
Nsg63
(lp4108
g56
(g72
g58
NtRp4109
(dp4110
g61
(dp4111
sg70
g4105
sg63
(lp4112
g56
(g77
g58
NtRp4113
(dp4114
g61
(dp4115
sg70
g4109
sg63
(lp4116
g56
(g57
g58
NtRp4117
(dp4118
g61
(dp4119
g69
I3
ssg70
g4113
sg63
(lp4120
g3980
(S't\x05\x00\x00\x00About'
tRp4121
asbasbasbag56
(g72
g58
NtRp4122
(dp4123
g61
(dp4124
sg70
g4105
sg63
(lp4125
g56
(g77
g58
NtRp4126
(dp4127
g61
(dp4128
sg70
g4122
sg63
(lp4129
g56
(g57
g58
NtRp4130
(dp4131
g61
(dp4132
g69
I3
ssg70
g4126
sg63
(lp4133
g99
asbasbasbag56
(g72
g58
NtRp4134
(dp4135
g61
(dp4136
sg70
g4105
sg63
(lp4137
g56
(g77
g58
NtRp4138
(dp4139
g61
(dp4140
sg70
g4134
sg63
(lp4141
g56
(g57
g58
NtRp4142
(dp4143
g61
(dp4144
g69
I3
ssg70
g4138
sg63
(lp4145
S'/synopsis/about/index'
p4146
asbasbasbag56
(g72
g58
NtRp4147
(dp4148
g61
(dp4149
sg70
g4105
sg63
(lp4150
g56
(g77
g58
NtRp4151
(dp4152
g61
(dp4153
sg70
g4147
sg63
(lp4154
g56
(g57
g58
NtRp4155
(dp4156
g61
(dp4157
g69
I3
ssg70
g4151
sg63
(lp4158
g56
(g65
g58
NtRp4159
(dp4160
g61
(dp4161
g69
I2
ssg70
Nsg63
(lp4162
sbasbasbasbasbasbasbasbasbasbasbasbag56
(g72
g58
NtRp4163
(dp4164
g61
(dp4165
sg70
g3397
sg63
(lp4166
g56
(g77
g58
NtRp4167
(dp4168
g61
(dp4169
g81
g82
ssg70
g4163
sg63
(lp4170
S'meta'
p4171
asbag56
(g77
g58
NtRp4172
(dp4173
g61
(dp4174
g88
g89
ssg70
g4163
sg63
(lp4175
S':'
asbag56
(g77
g58
NtRp4176
(dp4177
g61
(dp4178
sg70
g4163
sg63
(lp4179
g56
(g57
g58
NtRp4180
(dp4181
g61
(dp4182
g69
I5
ssg70
g4176
sg63
(lp4183
g56
(g65
g58
NtRp4184
(dp4185
g61
(dp4186
g69
I4
ssg70
Nsg63
(lp4187
g56
(g72
g58
NtRp4188
(dp4189
g61
(dp4190
sg70
g4184
sg63
(lp4191
g56
(g77
g58
NtRp4192
(dp4193
g61
(dp4194
g81
g82
ssg70
g4188
sg63
(lp4195
S'author'
p4196
asbag56
(g77
g58
NtRp4197
(dp4198
g61
(dp4199
g88
g89
ssg70
g4188
sg63
(lp4200
S':'
asbag56
(g77
g58
NtRp4201
(dp4202
g61
(dp4203
sg70
g4188
sg63
(lp4204
g56
(g57
g58
NtRp4205
(dp4206
g61
(dp4207
g69
I4
ssg70
g4201
sg63
(lp4208
S'Your Name <you@example.com>'
p4209
asbasbasbag56
(g72
g58
NtRp4210
(dp4211
g61
(dp4212
sg70
g4184
sg63
(lp4213
g56
(g77
g58
NtRp4214
(dp4215
g61
(dp4216
g81
g82
ssg70
g4210
sg63
(lp4217
S'copyright'
p4218
asbag56
(g77
g58
NtRp4219
(dp4220
g61
(dp4221
g88
g89
ssg70
g4210
sg63
(lp4222
S':'
asbag56
(g77
g58
NtRp4223
(dp4224
g61
(dp4225
sg70
g4210
sg63
(lp4226
g56
(g57
g58
NtRp4227
(dp4228
g61
(dp4229
g69
I4
ssg70
g4223
sg63
(lp4230
S'Copyright 2011'
p4231
asbasbasbag56
(g72
g58
NtRp4232
(dp4233
g61
(dp4234
sg70
g4184
sg63
(lp4235
g56
(g77
g58
NtRp4236
(dp4237
g61
(dp4238
g81
g82
ssg70
g4232
sg63
(lp4239
S'description'
p4240
asbag56
(g77
g58
NtRp4241
(dp4242
g61
(dp4243
g88
g89
ssg70
g4232
sg63
(lp4244
S':'
asbag56
(g77
g58
NtRp4245
(dp4246
g61
(dp4247
sg70
g4232
sg63
(lp4248
g56
(g57
g58
NtRp4249
(dp4250
g61
(dp4251
g69
I4
ssg70
g4245
sg63
(lp4252
S'a cool new app'
p4253
asbasbasbag56
(g72
g58
NtRp4254
(dp4255
g61
(dp4256
sg70
g4184
sg63
(lp4257
g56
(g77
g58
NtRp4258
(dp4259
g61
(dp4260
g81
g82
ssg70
g4254
sg63
(lp4261
S'generator'
p4262
asbag56
(g77
g58
NtRp4263
(dp4264
g61
(dp4265
g88
g89
ssg70
g4254
sg63
(lp4266
S':'
asbag56
(g77
g58
NtRp4267
(dp4268
g61
(dp4269
sg70
g4254
sg63
(lp4270
g56
(g57
g58
NtRp4271
(dp4272
g61
(dp4273
g69
I4
ssg70
g4267
sg63
(lp4274
S'Web2py Web Framework'
p4275
asbasbasbag56
(g72
g58
NtRp4276
(dp4277
g61
(dp4278
sg70
g4184
sg63
(lp4279
g56
(g77
g58
NtRp4280
(dp4281
g61
(dp4282
g81
g82
ssg70
g4276
sg63
(lp4283
S'keywords'
p4284
asbag56
(g77
g58
NtRp4285
(dp4286
g61
(dp4287
g88
g89
ssg70
g4276
sg63
(lp4288
S':'
asbag56
(g77
g58
NtRp4289
(dp4290
g61
(dp4291
sg70
g4276
sg63
(lp4292
g56
(g57
g58
NtRp4293
(dp4294
g61
(dp4295
g69
I4
ssg70
g4289
sg63
(lp4296
S'web2py, python, framework'
p4297
asbasbasbasbasbasbasbag56
(g72
g58
NtRp4298
(dp4299
g61
(dp4300
sg70
g3397
sg63
(lp4301
g56
(g77
g58
NtRp4302
(dp4303
g61
(dp4304
g81
g82
ssg70
g4298
sg63
(lp4305
S'postprocessing'
p4306
asbag56
(g77
g58
NtRp4307
(dp4308
g61
(dp4309
g88
g89
ssg70
g4298
sg63
(lp4310
S':'
asbag56
(g77
g58
NtRp4311
(dp4312
g61
(dp4313
sg70
g4298
sg63
(lp4314
g56
(g57
g58
NtRp4315
(dp4316
g61
(dp4317
g69
I5
ssg70
g4311
sg63
(lp4318
g56
(g65
g58
NtRp4319
(dp4320
g61
(dp4321
g69
I4
ssg70
Nsg63
(lp4322
sbasbasbasbag56
(g72
g58
NtRp4323
(dp4324
g61
(dp4325
sg70
g3397
sg63
(lp4326
g56
(g77
g58
NtRp4327
(dp4328
g61
(dp4329
g81
g82
ssg70
g4323
sg63
(lp4330
S'session_file'
p4331
asbag56
(g77
g58
NtRp4332
(dp4333
g61
(dp4334
g88
g89
ssg70
g4323
sg63
(lp4335
S':'
asbag56
(g77
g58
NtRp4336
(dp4337
g61
(dp4338
sg70
g4323
sg63
(lp4339
g56
(g57
g58
NtRp4340
(dp4341
g61
(dp4342
g69
I5
ssg70
g4336
sg63
(lp4343
S"<open file '/home/kaique/Projects/web2py/applications/synopsis/sessions/127.0.0.1-351efa91-66d9-4ca2-9c53-1a2177b18dc7', mode 'rb+' at 0x2037b70>"
p4344
asbasbasbag56
(g72
g58
NtRp4345
(dp4346
g61
(dp4347
sg70
g3397
sg63
(lp4348
g56
(g77
g58
NtRp4349
(dp4350
g61
(dp4351
g81
g82
ssg70
g4345
sg63
(lp4352
S'session_filename'
p4353
asbag56
(g77
g58
NtRp4354
(dp4355
g61
(dp4356
g88
g89
ssg70
g4345
sg63
(lp4357
S':'
asbag56
(g77
g58
NtRp4358
(dp4359
g61
(dp4360
sg70
g4345
sg63
(lp4361
g56
(g57
g58
NtRp4362
(dp4363
g61
(dp4364
g69
I5
ssg70
g4358
sg63
(lp4365
S'/home/kaique/Projects/web2py/applications/synopsis/sessions/127.0.0.1-351efa91-66d9-4ca2-9c53-1a2177b18dc7'
p4366
asbasbasbag56
(g72
g58
NtRp4367
(dp4368
g61
(dp4369
sg70
g3397
sg63
(lp4370
g56
(g77
g58
NtRp4371
(dp4372
g61
(dp4373
g81
g82
ssg70
g4367
sg63
(lp4374
S'session_id'
p4375
asbag56
(g77
g58
NtRp4376
(dp4377
g61
(dp4378
g88
g89
ssg70
g4367
sg63
(lp4379
S':'
asbag56
(g77
g58
NtRp4380
(dp4381
g61
(dp4382
sg70
g4367
sg63
(lp4383
g56
(g57
g58
NtRp4384
(dp4385
g61
(dp4386
g69
I5
ssg70
g4380
sg63
(lp4387
S'127.0.0.1-351efa91-66d9-4ca2-9c53-1a2177b18dc7'
p4388
asbasbasbag56
(g72
g58
NtRp4389
(dp4390
g61
(dp4391
sg70
g3397
sg63
(lp4392
g56
(g77
g58
NtRp4393
(dp4394
g61
(dp4395
g81
g82
ssg70
g4389
sg63
(lp4396
S'session_id_name'
p4397
asbag56
(g77
g58
NtRp4398
(dp4399
g61
(dp4400
g88
g89
ssg70
g4389
sg63
(lp4401
S':'
asbag56
(g77
g58
NtRp4402
(dp4403
g61
(dp4404
sg70
g4389
sg63
(lp4405
g56
(g57
g58
NtRp4406
(dp4407
g61
(dp4408
g69
I5
ssg70
g4402
sg63
(lp4409
g3454
asbasbasbag56
(g72
g58
NtRp4410
(dp4411
g61
(dp4412
sg70
g3397
sg63
(lp4413
g56
(g77
g58
NtRp4414
(dp4415
g61
(dp4416
g81
g82
ssg70
g4410
sg63
(lp4417
S'session_locked'
p4418
asbag56
(g77
g58
NtRp4419
(dp4420
g61
(dp4421
g88
g89
ssg70
g4410
sg63
(lp4422
S':'
asbag56
(g77
g58
NtRp4423
(dp4424
g61
(dp4425
sg70
g4410
sg63
(lp4426
g56
(g57
g58
NtRp4427
(dp4428
g61
(dp4429
g69
I5
ssg70
g4423
sg63
(lp4430
g1668
asbasbasbag56
(g72
g58
NtRp4431
(dp4432
g61
(dp4433
sg70
g3397
sg63
(lp4434
g56
(g77
g58
NtRp4435
(dp4436
g61
(dp4437
g81
g82
ssg70
g4431
sg63
(lp4438
S'session_new'
p4439
asbag56
(g77
g58
NtRp4440
(dp4441
g61
(dp4442
g88
g89
ssg70
g4431
sg63
(lp4443
S':'
asbag56
(g77
g58
NtRp4444
(dp4445
g61
(dp4446
sg70
g4431
sg63
(lp4447
g56
(g57
g58
NtRp4448
(dp4449
g61
(dp4450
g69
I5
ssg70
g4444
sg63
(lp4451
g99
asbasbasbag56
(g72
g58
NtRp4452
(dp4453
g61
(dp4454
sg70
g3397
sg63
(lp4455
g56
(g77
g58
NtRp4456
(dp4457
g61
(dp4458
g81
g82
ssg70
g4452
sg63
(lp4459
S'status'
p4460
asbag56
(g77
g58
NtRp4461
(dp4462
g61
(dp4463
g88
g89
ssg70
g4452
sg63
(lp4464
S':'
asbag56
(g77
g58
NtRp4465
(dp4466
g61
(dp4467
sg70
g4452
sg63
(lp4468
g56
(g57
g58
NtRp4469
(dp4470
g61
(dp4471
g69
I5
ssg70
g4465
sg63
(lp4472
S'200'
p4473
asbasbasbag56
(g72
g58
NtRp4474
(dp4475
g61
(dp4476
sg70
g3397
sg63
(lp4477
g56
(g77
g58
NtRp4478
(dp4479
g61
(dp4480
g81
g82
ssg70
g4474
sg63
(lp4481
S'subtitle'
p4482
asbag56
(g77
g58
NtRp4483
(dp4484
g61
(dp4485
g88
g89
ssg70
g4474
sg63
(lp4486
S':'
asbag56
(g77
g58
NtRp4487
(dp4488
g61
(dp4489
sg70
g4474
sg63
(lp4490
g56
(g57
g58
NtRp4491
(dp4492
g61
(dp4493
g69
I5
ssg70
g4487
sg63
(lp4494
g3980
(S's\x0f\x00\x00\x00Personalize-me!'
tRp4495
asbasbasbag56
(g72
g58
NtRp4496
(dp4497
g61
(dp4498
sg70
g3397
sg63
(lp4499
g56
(g77
g58
NtRp4500
(dp4501
g61
(dp4502
g81
g82
ssg70
g4496
sg63
(lp4503
S'title'
p4504
asbag56
(g77
g58
NtRp4505
(dp4506
g61
(dp4507
g88
g89
ssg70
g4496
sg63
(lp4508
S':'
asbag56
(g77
g58
NtRp4509
(dp4510
g61
(dp4511
sg70
g4496
sg63
(lp4512
g56
(g57
g58
NtRp4513
(dp4514
g61
(dp4515
g69
I5
ssg70
g4509
sg63
(lp4516
g121
asbasbasbag56
(g72
g58
NtRp4517
(dp4518
g61
(dp4519
sg70
g3397
sg63
(lp4520
g56
(g77
g58
NtRp4521
(dp4522
g61
(dp4523
g81
g82
ssg70
g4517
sg63
(lp4524
g2333
asbag56
(g77
g58
NtRp4525
(dp4526
g61
(dp4527
g88
g89
ssg70
g4517
sg63
(lp4528
S':'
asbag56
(g77
g58
NtRp4529
(dp4530
g61
(dp4531
sg70
g4517
sg63
(lp4532
g56
(g57
g58
NtRp4533
(dp4534
g61
(dp4535
g69
I5
ssg70
g4529
sg63
(lp4536
g2346
asbasbasbag56
(g72
g58
NtRp4537
(dp4538
g61
(dp4539
sg70
g3397
sg63
(lp4540
g56
(g77
g58
NtRp4541
(dp4542
g61
(dp4543
g81
g82
ssg70
g4537
sg63
(lp4544
S'view'
p4545
asbag56
(g77
g58
NtRp4546
(dp4547
g61
(dp4548
g88
g89
ssg70
g4537
sg63
(lp4549
S':'
asbag56
(g77
g58
NtRp4550
(dp4551
g61
(dp4552
sg70
g4537
sg63
(lp4553
g56
(g57
g58
NtRp4554
(dp4555
g61
(dp4556
g69
I5
ssg70
g4550
sg63
(lp4557
S'information/profile.html'
p4558
asbasbasbasbasbsS'locals'
p4559
(dp4560
S'Service'
p4561
S"<class 'gluon.tools.Service'>"
p4562
sS'OBJECT'
p4563
S"<class 'gluon.html.OBJECT'>"
p4564
sS'LOAD'
p4565
S'<gluon.compileapp.LoadFactory object>'
p4566
sS'SQLDB'
p4567
S"<class 'gluon.dal.DAL'>"
p4568
sg3048
S"<Storage {'_formkey[column/create]': 'af1c28ef-3...login]': 'f47b1fcb-2e7e-44f1-a2bb-9c0e7bac300e'}>"
p4569
sS'LINK'
p4570
S"<class 'gluon.html.LINK'>"
p4571
sS'BR'
p4572
S"<class 'gluon.html.BR'>"
p4573
sS'local_import'
p4574
S'<function <lambda>>'
p4575
sS'OPTGROUP'
p4576
S"<class 'gluon.html.OPTGROUP'>"
p4577
sS'PRE'
p4578
S"<class 'gluon.html.PRE'>"
p4579
sS'IS_INT_IN_RANGE'
p4580
S"<class 'gluon.validators.IS_INT_IN_RANGE'>"
p4581
sS'left_sidebar_enabled'
p4582
g99
sS'IS_LOWER'
p4583
S"<class 'gluon.validators.IS_LOWER'>"
p4584
sS'IS_STRONG'
p4585
S"<class 'gluon.validators.IS_STRONG'>"
p4586
sS'cache'
p4587
S'<gluon.cache.Cache object>'
p4588
sS'IS_IN_DB'
p4589
S"<class 'gluon.validators.IS_IN_DB'>"
p4590
sS'TAG'
p4591
S'<gluon.html.__TAG__ object>'
p4592
sS'SQLField'
p4593
S"<class 'gluon.dal.Field'>"
p4594
sS'mail'
p4595
S'<gluon.tools.Mail object>'
p4596
sS'BODY'
p4597
S"<class 'gluon.html.BODY'>"
p4598
sS'IS_DATE_IN_RANGE'
p4599
S"<class 'gluon.validators.IS_DATE_IN_RANGE'>"
p4600
sS'TH'
p4601
S"<class 'gluon.html.TH'>"
p4602
sS'URL'
p4603
S'<function URL>'
p4604
sS'__file__'
p4605
S"'/home/kaique/Projects/web2py/applications/synopsis/views/information/profile.html'"
p4606
sS'db'
p4607
S"<DAL {'auth_event': <Table {'origin': <gluon.dal..., 'id': <gluon.dal.Field object at 0x2471e90>}>}>"
p4608
sS'auth'
p4609
S'<gluon.tools.Auth object>'
p4610
sS'P'
S"<class 'gluon.html.P'>"
p4611
sS'TFOOT'
p4612
S"<class 'gluon.html.TFOOT'>"
p4613
sS'XHTML'
p4614
S"<class 'gluon.html.XHTML'>"
p4615
sS'ON'
p4616
g1668
sS'OL'
p4617
S"<class 'gluon.html.OL'>"
p4618
sS'TEXTAREA'
p4619
S"<class 'gluon.html.TEXTAREA'>"
p4620
sS'MENU'
p4621
S"<class 'gluon.html.MENU'>"
p4622
sS'profile'
p4623
S'<gluon.dal.Rows object>'
p4624
sS'CODE'
p4625
S"<class 'gluon.html.CODE'>"
p4626
sS'HTTP'
p4627
S"<class 'gluon.http.HTTP'>"
p4628
sS'HR'
p4629
S"<class 'gluon.html.HR'>"
p4630
sS'IS_DATETIME'
p4631
S"<class 'gluon.validators.IS_DATETIME'>"
p4632
sS'HEAD'
p4633
S"<class 'gluon.html.HEAD'>"
p4634
sS'LABEL'
p4635
S"<class 'gluon.html.LABEL'>"
p4636
sS'CLEANUP'
p4637
S"<class 'gluon.validators.CLEANUP'>"
p4638
sS'plugins'
p4639
S'<gluon.tools.PluginManager object>'
p4640
sS'SELECT'
p4641
S"<class 'gluon.html.SELECT'>"
p4642
sS'subject'
p4643
S"<Row {'name': 'Ginecologia', 'update_record': <f...blication': <gluon.dal.Set object at 0x26c8b90>}>"
p4644
sS'use_janrain'
p4645
S'<function use_janrain>'
p4646
sS'CENTER'
p4647
S"<class 'gluon.html.CENTER'>"
p4648
sS'prettydate'
p4649
S'<function prettydate>'
p4650
sS'Crud'
p4651
S"<class 'gluon.tools.Crud'>"
p4652
sS'Auth'
p4653
S"<class 'gluon.tools.Auth'>"
p4654
sS'__builtins__'
p4655
S"{'ArithmeticError': <type 'exceptions.ArithmeticError'>, 'AssertionError': <type 'exceptions.AssertionError'>, 'AttributeError': <type 'exceptions.AttributeError'>, 'BaseException': <type 'exceptions.BaseException'>, 'BufferError': <type 'exceptions.BufferError'>, 'BytesWarning': <type 'exceptions.BytesWarning'>, 'DeprecationWarning': <type 'exceptions.DeprecationWarning'>, 'EOFError': <type 'exceptions.EOFError'>, 'Ellipsis': Ellipsis, 'EnvironmentError': <type 'exceptions.EnvironmentError'>, ...}"
p4656
sS'HTML'
p4657
S"<class 'gluon.html.HTML'>"
p4658
sS'SQLFORM'
p4659
S"<class 'gluon.sqlhtml.SQLFORM'>"
p4660
sS'EM'
p4661
S"<class 'gluon.html.EM'>"
p4662
sS'redirect'
p4663
S'<function redirect>'
p4664
sS'FIELDSET'
p4665
S"<class 'gluon.html.FIELDSET'>"
p4666
sS'IS_EQUAL_TO'
p4667
S"<class 'gluon.validators.IS_EQUAL_TO'>"
p4668
sS'embed64'
p4669
S'<function embed64>'
p4670
sS'IS_LIST_OF'
p4671
S"<class 'gluon.validators.IS_LIST_OF'>"
p4672
sS'INPUT'
p4673
S"<class 'gluon.html.INPUT'>"
p4674
sS'EMBED'
p4675
S"<class 'gluon.html.EMBED'>"
p4676
sS'FORM'
p4677
S"<class 'gluon.html.FORM'>"
p4678
sS'width_content'
p4679
S"'100%'"
p4680
sS'H2'
p4681
S"<class 'gluon.html.H2'>"
p4682
sS'H3'
p4683
S"<class 'gluon.html.H3'>"
p4684
sS'BUTTON'
p4685
S"<class 'gluon.html.BUTTON'>"
p4686
sS'H1'
p4687
S"<class 'gluon.html.H1'>"
p4688
sS'H6'
p4689
S"<class 'gluon.html.H6'>"
p4690
sS'H4'
p4691
S"<class 'gluon.html.H4'>"
p4692
sS'H5'
p4693
S"<class 'gluon.html.H5'>"
p4694
sS'UL'
p4695
S"<class 'gluon.html.UL'>"
p4696
sS'IS_UPPER'
p4697
S"<class 'gluon.validators.IS_UPPER'>"
p4698
sS'signature'
p4699
S"<Table {'ALL': <gluon.dal.SQLALL object at 0x244...0>, 'id': <gluon.dal.Field object at 0x244fb90>}>"
p4700
sS'IS_TIME'
p4701
S"<class 'gluon.validators.IS_TIME'>"
p4702
sS'OPTION'
p4703
S"<class 'gluon.html.OPTION'>"
p4704
sS'TITLE'
p4705
S"<class 'gluon.html.TITLE'>"
p4706
sS'CRYPT'
p4707
S"<class 'gluon.validators.CRYPT'>"
p4708
sS'IS_EMPTY_OR'
p4709
S"<class 'gluon.validators.IS_EMPTY_OR'>"
p4710
sS'MARKMIN'
p4711
S"<class 'gluon.html.MARKMIN'>"
p4712
sS'COL'
p4713
S"<class 'gluon.html.COL'>"
p4714
sS'service'
p4715
S'<gluon.tools.Service object>'
p4716
sS'SCRIPT'
p4717
S"<class 'gluon.html.SCRIPT'>"
p4718
sS'TABLE'
p4719
S"<class 'gluon.html.TABLE'>"
p4720
sS'IS_IPV4'
p4721
S"<class 'gluon.validators.IS_IPV4'>"
p4722
sS'IS_LENGTH'
p4723
S"<class 'gluon.validators.IS_LENGTH'>"
p4724
sS'XML'
p4725
S"<class 'gluon.html.XML'>"
p4726
sS'B'
S"<class 'gluon.html.B'>"
p4727
sS'IMG'
p4728
S"<class 'gluon.html.IMG'>"
p4729
sS'SQLTABLE'
p4730
S"<class 'gluon.sqlhtml.SQLTABLE'>"
p4731
sS'IS_MATCH'
p4732
S"<class 'gluon.validators.IS_MATCH'>"
p4733
sS'IS_ALPHANUMERIC'
p4734
S"<class 'gluon.validators.IS_ALPHANUMERIC'>"
p4735
sS'SPAN'
p4736
S"<class 'gluon.html.SPAN'>"
p4737
sS'IS_SLUG'
p4738
S"<class 'gluon.validators.IS_SLUG'>"
p4739
sS'BEAUTIFY'
p4740
S"<class 'gluon.html.BEAUTIFY'>"
p4741
sS'META'
p4742
S"<class 'gluon.html.META'>"
p4743
sS'IS_DATE'
p4744
S"<class 'gluon.validators.IS_DATE'>"
p4745
sS'IS_EMAIL'
p4746
S"<class 'gluon.validators.IS_EMAIL'>"
p4747
sS'IS_NOT_EMPTY'
p4748
S"<class 'gluon.validators.IS_NOT_EMPTY'>"
p4749
sS'IS_FLOAT_IN_RANGE'
p4750
S"<class 'gluon.validators.IS_FLOAT_IN_RANGE'>"
p4751
sS'TBODY'
p4752
S"<class 'gluon.html.TBODY'>"
p4753
sS'CAT'
p4754
S"<class 'gluon.html.CAT'>"
p4755
sS'Field'
p4756
S"<class 'gluon.dal.Field'>"
p4757
sS'DIV'
p4758
S"<class 'gluon.html.DIV'>"
p4759
sS'LEGEND'
p4760
S"<class 'gluon.html.LEGEND'>"
p4761
sS'COLGROUP'
p4762
S"<class 'gluon.html.COLGROUP'>"
p4763
sS'DAL'
p4764
S"<class 'gluon.dal.DAL'>"
p4765
sS'TT'
p4766
S"<class 'gluon.html.TT'>"
p4767
sS'TR'
p4768
S"<class 'gluon.html.TR'>"
p4769
sS'LI'
p4770
S"<class 'gluon.html.LI'>"
p4771
sS'right_sidebar_enabled'
p4772
g99
sS'IFRAME'
p4773
S"<class 'gluon.html.IFRAME'>"
p4774
sS'TD'
p4775
S"<class 'gluon.html.TD'>"
p4776
sS'PluginManager'
p4777
S"<class 'gluon.tools.PluginManager'>"
p4778
sS'IS_URL'
p4779
S"<class 'gluon.validators.IS_URL'>"
p4780
sS'A'
S"<class 'gluon.html.A'>"
p4781
sS'STYLE'
p4782
S"<class 'gluon.html.STYLE'>"
p4783
sS'IS_DATETIME_IN_RANGE'
p4784
S"<class 'gluon.validators.IS_DATETIME_IN_RANGE'>"
p4785
sS'IS_IMAGE'
p4786
S"<class 'gluon.validators.IS_IMAGE'>"
p4787
sS'I'
S"<class 'gluon.html.I'>"
p4788
sS'crud'
p4789
S'<gluon.tools.Crud object>'
p4790
sS'xmlescape'
p4791
S'<function xmlescape>'
p4792
sS'right_sidebar_style'
p4793
S'\'style="display: none;"\''
p4794
sS'IS_NOT_IN_DB'
p4795
S"<class 'gluon.validators.IS_NOT_IN_DB'>"
p4796
sg3392
S"<Storage {'body': <cStringIO.StringO object at 0... 0x32137d0>, 'view': 'information/profile.html'}>"
p4797
sS'THEAD'
p4798
S"<class 'gluon.html.THEAD'>"
p4799
sS'IS_NULL_OR'
p4800
S"<class 'gluon.validators.IS_EMPTY_OR'>"
p4801
sS'left_sidebar_style'
p4802
S'\'style="display: none;"\''
p4803
sg55
S"<Storage {'body': <cStringIO.StringO object at 0..._vars': <Storage {}>, 'post_vars': <Storage {}>}>"
p4804
sS'IS_EXPR'
p4805
S"<class 'gluon.validators.IS_EXPR'>"
p4806
sS'T'
S'<gluon.languages.translator object>'
p4807
sS'IS_IN_SET'
p4808
S"<class 'gluon.validators.IS_IN_SET'>"
p4809
sS'IS_UPLOAD_FILENAME'
p4810
S"<class 'gluon.validators.IS_UPLOAD_FILENAME'>"
p4811
sS'style_content'
p4812
S'\'style="width: 100%"\''
p4813
sS'IS_DECIMAL_IN_RANGE'
p4814
S"<class 'gluon.validators.IS_DECIMAL_IN_RANGE'>"
p4815
sssS'traceback'
p4816
S'Traceback (most recent call last):\n  File "/home/kaique/Projects/web2py/gluon/restricted.py", line 194, in restricted\n    exec ccode in environment\n  File "/home/kaique/Projects/web2py/applications/synopsis/views/information/profile.html", line 86, in <module>\nIndexError: list index out of range\n'
p4817
s.