(dp1
S'output'
p2
S''
sS'layer'
p3
S'/home/kaique/Projects/web2py/applications/synopsis/views/information/publication.html'
p4
sS'code'
p5
S'response.write(\'<!DOCTYPE html>\\n<html lang="\', escape=False)\nresponse.write(T.accepted_language or \'en\')\nresponse.write(\'" class="no-js"><!-- no-js need it for modernzr -->\\n  <head>\\n    \\n    <meta charset="utf-8" />        \\n    <!-- www.phpied.com/conditional-comments-block-downloads/ -->\\n    <!--[if IE]>\\n      <!-- Always force latest IE rendering engine \\n       (even in intranet) & Chrome Frame \\n       Remove this if you use the .htaccess -->\\n      <meta http-equiv="X-UA-Compatible" content="IE=edge,chrome=1">\\n    <![endif]-->    \\n\\n    <title>\', escape=False)\nresponse.write(response.title or request.application)\nresponse.write(\'</title>\\n    \\n    <!-- http://dev.w3.org/html5/markup/meta.name.html -->\\n    <meta name="application-name" content="\', escape=False)\nresponse.write(request.application)\nresponse.write(\'" /> \\n    \\n    <!-- Speaking of Google, don\\\'t forget to set your site up: \\n     http://google.com/webmasters -->\\n    <meta name="google-site-verification" content="" />\\n    \\n    <!--  Mobile Viewport Fix\\n      j.mp/mobileviewport & davidbcalhoun.com/2010/viewport-metatag \\n      device-width: Occupy full width of the screen in its current orientation\\n      initial-scale = 1.0 retains dimensions instead of zooming out if page height > device height\\n      maximum-scale = 1.0 retains dimensions instead of zooming in if page width < device width\\n      -->\\n    <meta name="viewport" content="width=device-width, initial-scale=1.0, maximum-scale=1.0">\\n    \\n    <!-- Place favicon.ico and apple-touch-icon.png in the root of your domain and delete these references -->\\n    <link rel="shortcut icon" href="\', escape=False)\nresponse.write(URL(\'static\',\'favicon.ico\'))\nresponse.write(\'" type="image/x-icon">\\n    <link rel="apple-touch-icon" href="\', escape=False)\nresponse.write(URL(\'static\',\'favicon.png\'))\nresponse.write(\'">\\n\\n    <!-- For the less-enabled mobile browsers like Opera Mini -->\\n    <link rel="stylesheet" media="handheld" href="\', escape=False)\nresponse.write(URL(\'static\',\'css/handheld.css\'))\nresponse.write(\'">\\n    \\n    <!-- All JavaScript at the bottom, except for Modernizr which enables HTML5 elements & feature detects -->\\n    <script src="\', escape=False)\nresponse.write(URL(\'static\',\'js/modernizr-1.7.min.js\'))\nresponse.write(\'"></script>\\n    \\n    \', escape=False)\n#------  require CSS and JS files for this page (read info in base.css) ------\nresponse.write(\'\\n    \', escape=False)\nresponse.files.append(URL(\'static\',\'css/base.css\'))\nresponse.write(\'\\n    \', escape=False)\nresponse.files.append(URL(\'static\',\'css/superfish.css\'))\nresponse.write(\'\\n    \', escape=False)\nresponse.files.append(URL(\'static\',\'js/superfish.js\'))\nresponse.write(\'\\n    \', escape=False)\n#------ include web2py specific js code (jquery, calendar, form stuff) ------\nresponse.write(\'\\n    \', escape=False)\nresponse.files.insert(0,URL(\'static\',\'js/jquery.js\'))\nresponse.files.insert(1,URL(\'static\',\'css/anytime.css\'))\nresponse.files.insert(2,URL(\'static\',\'js/anytime.js\'))\nresponse.include_meta()\nresponse.include_files()\nresponse.write(\'\\n<script type="text/javascript"><!--\\n    // These variables are used by the web2py_ajax_init function in web2py_ajax.js (which is loaded below).\\n    var w2p_ajax_confirm_message = "\', escape=False)\nresponse.write(T(\'Are you sure you want to delete this object?\'))\nresponse.write(\'";\\n    var w2p_ajax_date_format = "\', escape=False)\nresponse.write(T(\'%Y-%m-%d\'))\nresponse.write(\'";\\n    var w2p_ajax_datetime_format = "\', escape=False)\nresponse.write(T(\'%Y-%m-%d %H:%M:%S\'))\nresponse.write(\'";\\n    //--></script>\\n    <script src="\', escape=False)\nresponse.write(URL(\'static\',\'js/web2py_ajax.js\'))\nresponse.write(\'" type="text/javascript"></script>\\n\', escape=False)\nresponse.write(\'\\n\\n    \', escape=False)\n#using sidebars need to know what sidebar you want to use\n#prior of using it, because of static width size of content, you can use\n#left_sidebar, right_sidebar, both or none (False left and right)\nleft_sidebar_enabled = globals().get(\'left_sidebar_enabled\',False)\nright_sidebar_enabled = globals().get(\'right_sidebar_enabled\',False)\nif left_sidebar_enabled and right_sidebar_enabled: width_content=\'63%\'\nelif left_sidebar_enabled != right_sidebar_enabled: width_content=\'740px\'\nelse: width_content=\'100%\'\nif left_sidebar_enabled: left_sidebar_style = \'style="display: block;"\'\nelse: left_sidebar_style = \'style="display: none;"\'\nif right_sidebar_enabled: right_sidebar_style = \'style="display: block;"\'\nelse: right_sidebar_style = \'style="display: none;"\'\nstyle_content = \'style="width: %s"\' % width_content\nresponse.write(\'\\n    \\n    <!-- uncomment here to load jquery-ui -->\\n    \\n    <link rel="stylesheet" href="http://ajax.googleapis.com/ajax/libs/jqueryui/1.8.16/themes/base/jquery-ui.css" type="text/css" media="all" />\\n    <script src="http://ajax.googleapis.com/ajax/libs/jqueryui/1.8.16/jquery-ui.min.js" type="text/javascript"></script>\\n    \\n   <!-- uncomment to load jquery-ui -->\\n    \\n    \\n  </head>\\n  \\n  <!-- paulirish.com/2008/conditional-stylesheets-vs-css-hacks-answer-neither/ -->  \\n  <!--[if lt IE 7 ]> <body class="ie6"> <![endif]-->\\n  <!--[if IE 7 ]>    <body class="ie7"> <![endif]-->\\n  <!--[if IE 8 ]>    <body class="ie8"> <![endif]-->\\n  <!--[if IE 9 ]>    <body class="ie9"> <![endif]-->\\n  <!--[if (gt IE 9)|!(IE)]><!--> <body> <!--<![endif]-->\\n    \\n    <div class="flash">\', escape=False)\nresponse.write(response.flash or \'\')\nresponse.write(\'</div> <!-- notification div -->\\n\\n        \\n\\n    <div id="container">                        \\n      \\n      <div id="wrapper">        \\n      \', escape=False)\ntry:\n    response.write(auth.navbar(action=URL(\'default\',\'user\')))\nexcept:pass\nresponse.write(\'\\n    \\n    <div id="header"> <!-- header and login nav -->\\n      \', escape=False)\nresponse.write(\' <!-- this is default header -->\\n      \\n      <h1>\\n        <span id="appname">\', escape=False)\nresponse.write(request.application.capitalize())\nresponse.write(\'</span>App\\n      </h1>\\n      <div style="clear: both;"></div><!-- Clear the divs -->\\n      \', escape=False)\nresponse.write(\'\\n    </div><!-- header  -->\\n    \\n    <div id="statusbar"><!-- statusbar is menu zone -->\\n      \', escape=False)\nresponse.write(\' <!-- this is default statusbar -->\\n      \', escape=False)\n#------ superfish menu ------\nresponse.write(\'\\n      \', escape=False)\nresponse.write(MENU(response.menu,_class=\'sf-menu\'))\nresponse.write(\'\\n      <script type="text/javascript">\\n        jQuery(document).ready(function(){\\n        jQuery(\\\'ul.sf-menu\\\').superfish();});\\n      </script>\\n\\n      <!-- AddToAny BEGIN -->\\n      <div style="padding: 7px; float:right;" class="a2a_kit a2a_default_style"><a class="a2a_dd" href="http://www.addtoany.com/share_save">Share</a></div><script type="text/javascript" src="http://static.addtoany.com/menu/page.js"></script>\\n      <!-- AddToAny END -->\\n\\n      <div style="clear: both;"></div><!-- Clear the divs -->   \\n      \', escape=False)\nresponse.write(\'               \\n    </div><!-- statusbar -->\\n    \\n    <div id="page"> <!-- Here my central body -->     \\n\\n      \', escape=False)\nif left_sidebar_enabled:\n    response.write(\'\\n          <div id="left_sidebar" \', escape=False)\n    response.write(XML(left_sidebar_style))\n    response.write(\' >\\n            <div style="padding: 4px;">\\n          \', escape=False)\n    response.write(\'Content Left Sidebar\', escape=False)\n    response.write(\'       \\n            </div>\\n          </div><!-- left_sidebar -->\\n      \', escape=False)\n    pass\nresponse.write(\'\\n\\n      <!-- content -->\\n      <div id="content" \', escape=False)\nresponse.write(XML(style_content))\nresponse.write(\' >\\n        \', escape=False)\nresponse.write(\'\\n\\n<div class="content">\\n\\t<section>\\n\\t\\t<article>\\n\\t\\t\\t\', escape=False)\nif not publication: return redirect(URL(\'information\', \'index\'))\nresponse.write(\'\\n\\t\\t\\t\', escape=False)\nfor detail in publication:\n    response.write(\'\\n\\t\\t\\t<header>\\n\\t\\t\\t\\t<h1>\', escape=False)\n    response.write(detail.title)\n    response.write(\'</h1>\\n\\t\\t\\t\\t<hr />\\n\\t\\t\\t</header>\\n\\t\\t\\t<div>\\t\\n\\t\\t\\t\\t<table style="border: 1px solid #ccc;">\\n\\t\\t\\t\\t\\t<thead>\\n\\t\\t\\t\\t\\t\\t<tr>\\n\\t\\t\\t\\t\\t\\t\\t\', escape=False)\n    for column in detail.column.select():\n        response.write(\' \', escape=False)\n        if column.row_id == column.id:\n            response.write(\'\\n\\t\\t\\t\\t\\t\\t\\t\\t<td>\', escape=False)\n            response.write(column.title)\n            response.write(\'</td>\\t\\t\\t\\t\\t\\t\\t\\n\\t\\t\\t\\t\\t\\t\\t\', escape=False)\n            pass\n        response.write(\' \', escape=False)\n        pass\n    response.write(\'\\n\\t\\t\\t\\t\\t\\t</tr>\\n\\t\\t\\t\\t\\t</thead>\\n\\t\\t\\t\\t\\t<tbody>\\n\\t\\t\\t\\t\\t\\t\\t<tr>\\n\\t\\t\\t\\t\\t\\t\\t\\t<td>\\n\\t\\t\\t\\t\\t\\t\\t\\t</td>\\n\\t\\t\\t\\t\\t\\t\\t\\t<td>\\n\\t\\t\\t\\t\\t\\t\\t\\t</td>\\n\\t\\t\\t\\t\\t\\t\\t</tr>\\n\\t\\t\\t\\t\\t</tbody>\\n\\t\\t\\t\\t</table>\\n\\t\\t\\t</div>\\n\\t\\t\\t\', escape=False)\n    pass\nresponse.write(\'\\n\\t\\t</article>\\n\\t</section>\\n</div>\\n\', escape=False)\nresponse.write(\' \\n      </div>\\n      <!-- content -->\\n\\n      \', escape=False)\nif right_sidebar_enabled:\n    response.write(\'\\n          <div id="right_sidebar" \', escape=False)\n    response.write(XML(right_sidebar_style))\n    response.write(\' >\\n            <div style="padding: 4px;">\\n              \', escape=False)\n    response.write(\'Content Right Sidebar\', escape=False)\n    response.write(\'\\n            </div>\\n      </div><!-- right_sidebar -->\\n          \', escape=False)\n    pass\nresponse.write(\'\\n\\n\\n      <div style="clear: both;"></div><!-- Clear the divs -->\\n      \\n    </div><!-- page -->                         \\n    \\n    <div id="footer">\\n      \', escape=False)\nresponse.write(\' <!-- this is default footer -->\\n      <a href="http://www.web2py.com/" style="float: left; padding-right: 6px;">\\n        <img src="\', escape=False)\nresponse.write(URL(\'static\',\'images/poweredby.png\'))\nresponse.write(\'"/>\\n      </a>\\n      \', escape=False)\nresponse.write(T(\'Copyright\'))\nresponse.write(\' &#169; 2011               \\n      <div style="clear: both;"></div><!-- Clear the divs -->\\n      \', escape=False)\nresponse.write(\'\\n\\n    </div><!-- footer -->           \\n      </div><!-- wrapper -->\\n    </div><!-- container -->        \\n    \\n    <!--[if lt IE 7 ]>\\n    <script src="\', escape=False)\nresponse.write(URL(\'static\',\'js/dd_belatedpng.js\'))\nresponse.write(\'"></script>\\n    <script> DD_belatedPNG.fix(\\\'img, .png_bg\\\'); //fix any <img> or .png_bg background-images </script>\\n    <![endif]-->\\n    \', escape=False)\nif response.google_analytics_id:\n    response.write("<script>/* http://mathiasbynens.be/notes/async-analytics-snippet */ var _gaq=[[\'_setAccount\',\'", escape=False)\n    response.write(response.google_analyitics_id)\n    response.write("\'],[\'_trackPageview\']];(function(d,t){var g=d.createElement(t),s=d.getElementsByTagName(t)[0];g.src=\'//www.google-analytics.com/ga.js\';s.parentNode.insertBefore(g,s)}(document,\'script\')) </script>", escape=False)\n    pass\nresponse.write(\'\\n  </body>\\n</html>\\n\', escape=False)'
p6
sS'snapshot'
p7
(dp8
S'exception'
p9
(dp10
S'__getslice__'
p11
S"<method-wrapper '__getslice__' of exceptions.SyntaxError object>"
p12
sS'text'
p13
S"''"
p14
sS'__str__'
p15
S"<method-wrapper '__str__' of exceptions.SyntaxError object>"
p16
sS'__reduce__'
p17
S'<built-in method __reduce__ of exceptions.SyntaxError object>'
p18
sS'__dict__'
p19
S'{}'
p20
sS'__sizeof__'
p21
S'<built-in method __sizeof__ of exceptions.SyntaxError object>'
p22
sS'__init__'
p23
S"<method-wrapper '__init__' of exceptions.SyntaxError object>"
p24
sS'__setattr__'
p25
S"<method-wrapper '__setattr__' of exceptions.SyntaxError object>"
p26
sS'__reduce_ex__'
p27
S'<built-in method __reduce_ex__ of exceptions.SyntaxError object>'
p28
sS'__new__'
p29
S'<built-in method __new__ of type object>'
p30
sS'__format__'
p31
S'<built-in method __format__ of exceptions.SyntaxError object>'
p32
sS'__class__'
p33
S"<type 'exceptions.SyntaxError'>"
p34
sS'filename'
p35
S"'/home/kaique/Projects/web2py/applications/synopsis/views/information/publication.html'"
p36
sS'lineno'
p37
S'82'
p38
sS'msg'
p39
S'"\'return\' outside function"'
p40
sS'__doc__'
p41
S"'Invalid syntax.'"
p42
sS'__getitem__'
p43
S"<method-wrapper '__getitem__' of exceptions.SyntaxError object>"
p44
sS'__setstate__'
p45
S'<built-in method __setstate__ of exceptions.SyntaxError object>'
p46
sS'__getattribute__'
p47
S"<method-wrapper '__getattribute__' of exceptions.SyntaxError object>"
p48
sS'print_file_and_line'
p49
S'None'
p50
sS'args'
p51
S'("\'return\' outside function", (\'/home/kaique/Projects/web2py/applications/synopsis/views/information/publication.html\', 82, None, \'\'))'
p52
sS'__subclasshook__'
p53
S'<built-in method __subclasshook__ of type object>'
p54
sS'offset'
p55
S'None'
p56
sS'__unicode__'
p57
S'<built-in method __unicode__ of exceptions.SyntaxError object>'
p58
sS'__delattr__'
p59
S"<method-wrapper '__delattr__' of exceptions.SyntaxError object>"
p60
sS'__repr__'
p61
S"<method-wrapper '__repr__' of exceptions.SyntaxError object>"
p62
sS'__hash__'
p63
S"<method-wrapper '__hash__' of exceptions.SyntaxError object>"
p64
ssS'evalue'
p65
S"'return' outside function (publication.html, line 82)"
p66
sS'request'
p67
ccopy_reg
_reconstructor
p68
(cgluon.html
BEAUTIFY
p69
c__builtin__
object
p70
NtRp71
(dp72
S'attributes'
p73
(dp74
sS'components'
p75
(lp76
g68
(cgluon.html
TABLE
p77
g70
NtRp78
(dp79
g73
(dp80
S'level'
p81
I5
ssS'parent'
p82
Nsg75
(lp83
g68
(cgluon.html
TR
p84
g70
NtRp85
(dp86
g73
(dp87
sg82
g78
sg75
(lp88
g68
(cgluon.html
TD
p89
g70
NtRp90
(dp91
g73
(dp92
S'_style'
p93
S'font-weight:bold;'
p94
ssg82
g85
sg75
(lp95
S'ajax'
p96
asbag68
(g89
g70
NtRp97
(dp98
g73
(dp99
S'_valign'
p100
S'top'
p101
ssg82
g85
sg75
(lp102
S':'
asbag68
(g89
g70
NtRp103
(dp104
g73
(dp105
sg82
g85
sg75
(lp106
g68
(g69
g70
NtRp107
(dp108
g73
(dp109
g81
I5
ssg82
g103
sg75
(lp110
S'False'
p111
asbasbasbag68
(g84
g70
NtRp112
(dp113
g73
(dp114
sg82
g78
sg75
(lp115
g68
(g89
g70
NtRp116
(dp117
g73
(dp118
g93
g94
ssg82
g112
sg75
(lp119
S'application'
p120
asbag68
(g89
g70
NtRp121
(dp122
g73
(dp123
g100
g101
ssg82
g112
sg75
(lp124
S':'
asbag68
(g89
g70
NtRp125
(dp126
g73
(dp127
sg82
g112
sg75
(lp128
g68
(g69
g70
NtRp129
(dp130
g73
(dp131
g81
I5
ssg82
g125
sg75
(lp132
S'synopsis'
p133
asbasbasbag68
(g84
g70
NtRp134
(dp135
g73
(dp136
sg82
g78
sg75
(lp137
g68
(g89
g70
NtRp138
(dp139
g73
(dp140
g93
g94
ssg82
g134
sg75
(lp141
g51
asbag68
(g89
g70
NtRp142
(dp143
g73
(dp144
g100
g101
ssg82
g134
sg75
(lp145
S':'
asbag68
(g89
g70
NtRp146
(dp147
g73
(dp148
sg82
g134
sg75
(lp149
g68
(g69
g70
NtRp150
(dp151
g73
(dp152
g81
I5
ssg82
g146
sg75
(lp153
g68
(g77
g70
NtRp154
(dp155
g73
(dp156
g81
I4
ssg82
Nsg75
(lp157
g68
(g84
g70
NtRp158
(dp159
g73
(dp160
sg82
g154
sg75
(lp161
g68
(g89
g70
NtRp162
(dp163
g73
(dp164
sg82
g158
sg75
(lp165
g68
(g69
g70
NtRp166
(dp167
g73
(dp168
g81
I4
ssg82
g162
sg75
(lp169
S'1'
asbasbasbasbasbasbasbag68
(g84
g70
NtRp170
(dp171
g73
(dp172
sg82
g78
sg75
(lp173
g68
(g89
g70
NtRp174
(dp175
g73
(dp176
g93
g94
ssg82
g170
sg75
(lp177
S'body'
p178
asbag68
(g89
g70
NtRp179
(dp180
g73
(dp181
g100
g101
ssg82
g170
sg75
(lp182
S':'
asbag68
(g89
g70
NtRp183
(dp184
g73
(dp185
sg82
g170
sg75
(lp186
g68
(g69
g70
NtRp187
(dp188
g73
(dp189
g81
I5
ssg82
g183
sg75
(lp190
S'<cStringIO.StringO object at 0x328e8f0>'
p191
asbasbasbag68
(g84
g70
NtRp192
(dp193
g73
(dp194
sg82
g78
sg75
(lp195
g68
(g89
g70
NtRp196
(dp197
g73
(dp198
g93
g94
ssg82
g192
sg75
(lp199
S'client'
p200
asbag68
(g89
g70
NtRp201
(dp202
g73
(dp203
g100
g101
ssg82
g192
sg75
(lp204
S':'
asbag68
(g89
g70
NtRp205
(dp206
g73
(dp207
sg82
g192
sg75
(lp208
g68
(g69
g70
NtRp209
(dp210
g73
(dp211
g81
I5
ssg82
g205
sg75
(lp212
S'127.0.0.1'
p213
asbasbasbag68
(g84
g70
NtRp214
(dp215
g73
(dp216
sg82
g78
sg75
(lp217
g68
(g89
g70
NtRp218
(dp219
g73
(dp220
g93
g94
ssg82
g214
sg75
(lp221
S'controller'
p222
asbag68
(g89
g70
NtRp223
(dp224
g73
(dp225
g100
g101
ssg82
g214
sg75
(lp226
S':'
asbag68
(g89
g70
NtRp227
(dp228
g73
(dp229
sg82
g214
sg75
(lp230
g68
(g69
g70
NtRp231
(dp232
g73
(dp233
g81
I5
ssg82
g227
sg75
(lp234
S'information'
p235
asbasbasbag68
(g84
g70
NtRp236
(dp237
g73
(dp238
sg82
g78
sg75
(lp239
g68
(g89
g70
NtRp240
(dp241
g73
(dp242
g93
g94
ssg82
g236
sg75
(lp243
S'cookies'
p244
asbag68
(g89
g70
NtRp245
(dp246
g73
(dp247
g100
g101
ssg82
g236
sg75
(lp248
S':'
asbag68
(g89
g70
NtRp249
(dp250
g73
(dp251
sg82
g236
sg75
(lp252
g68
(g69
g70
NtRp253
(dp254
g73
(dp255
g81
I5
ssg82
g249
sg75
(lp256
g68
(g77
g70
NtRp257
(dp258
g73
(dp259
g81
I4
ssg82
Nsg75
(lp260
g68
(g84
g70
NtRp261
(dp262
g73
(dp263
sg82
g257
sg75
(lp264
g68
(g89
g70
NtRp265
(dp266
g73
(dp267
g93
g94
ssg82
g261
sg75
(lp268
S'session_id_admin'
p269
asbag68
(g89
g70
NtRp270
(dp271
g73
(dp272
g100
g101
ssg82
g261
sg75
(lp273
S':'
asbag68
(g89
g70
NtRp274
(dp275
g73
(dp276
sg82
g261
sg75
(lp277
g68
(g69
g70
NtRp278
(dp279
g73
(dp280
g81
I4
ssg82
g274
sg75
(lp281
g68
(g77
g70
NtRp282
(dp283
g73
(dp284
g81
I3
ssg82
Nsg75
(lp285
g68
(g84
g70
NtRp286
(dp287
g73
(dp288
sg82
g282
sg75
(lp289
g68
(g89
g70
NtRp290
(dp291
g73
(dp292
g93
g94
ssg82
g286
sg75
(lp293
S'comment'
p294
asbag68
(g89
g70
NtRp295
(dp296
g73
(dp297
g100
g101
ssg82
g286
sg75
(lp298
S':'
asbag68
(g89
g70
NtRp299
(dp300
g73
(dp301
sg82
g286
sg75
(lp302
g68
(g69
g70
NtRp303
(dp304
g73
(dp305
g81
I3
ssg82
g299
sg75
(lp306
S''
asbasbasbag68
(g84
g70
NtRp307
(dp308
g73
(dp309
sg82
g282
sg75
(lp310
g68
(g89
g70
NtRp311
(dp312
g73
(dp313
g93
g94
ssg82
g307
sg75
(lp314
S'domain'
p315
asbag68
(g89
g70
NtRp316
(dp317
g73
(dp318
g100
g101
ssg82
g307
sg75
(lp319
S':'
asbag68
(g89
g70
NtRp320
(dp321
g73
(dp322
sg82
g307
sg75
(lp323
g68
(g69
g70
NtRp324
(dp325
g73
(dp326
g81
I3
ssg82
g320
sg75
(lp327
S''
asbasbasbag68
(g84
g70
NtRp328
(dp329
g73
(dp330
sg82
g282
sg75
(lp331
g68
(g89
g70
NtRp332
(dp333
g73
(dp334
g93
g94
ssg82
g328
sg75
(lp335
S'expires'
p336
asbag68
(g89
g70
NtRp337
(dp338
g73
(dp339
g100
g101
ssg82
g328
sg75
(lp340
S':'
asbag68
(g89
g70
NtRp341
(dp342
g73
(dp343
sg82
g328
sg75
(lp344
g68
(g69
g70
NtRp345
(dp346
g73
(dp347
g81
I3
ssg82
g341
sg75
(lp348
S''
asbasbasbag68
(g84
g70
NtRp349
(dp350
g73
(dp351
sg82
g282
sg75
(lp352
g68
(g89
g70
NtRp353
(dp354
g73
(dp355
g93
g94
ssg82
g349
sg75
(lp356
S'httponly'
p357
asbag68
(g89
g70
NtRp358
(dp359
g73
(dp360
g100
g101
ssg82
g349
sg75
(lp361
S':'
asbag68
(g89
g70
NtRp362
(dp363
g73
(dp364
sg82
g349
sg75
(lp365
g68
(g69
g70
NtRp366
(dp367
g73
(dp368
g81
I3
ssg82
g362
sg75
(lp369
S''
asbasbasbag68
(g84
g70
NtRp370
(dp371
g73
(dp372
sg82
g282
sg75
(lp373
g68
(g89
g70
NtRp374
(dp375
g73
(dp376
g93
g94
ssg82
g370
sg75
(lp377
S'max-age'
p378
asbag68
(g89
g70
NtRp379
(dp380
g73
(dp381
g100
g101
ssg82
g370
sg75
(lp382
S':'
asbag68
(g89
g70
NtRp383
(dp384
g73
(dp385
sg82
g370
sg75
(lp386
g68
(g69
g70
NtRp387
(dp388
g73
(dp389
g81
I3
ssg82
g383
sg75
(lp390
S''
asbasbasbag68
(g84
g70
NtRp391
(dp392
g73
(dp393
sg82
g282
sg75
(lp394
g68
(g89
g70
NtRp395
(dp396
g73
(dp397
g93
g94
ssg82
g391
sg75
(lp398
S'path'
p399
asbag68
(g89
g70
NtRp400
(dp401
g73
(dp402
g100
g101
ssg82
g391
sg75
(lp403
S':'
asbag68
(g89
g70
NtRp404
(dp405
g73
(dp406
sg82
g391
sg75
(lp407
g68
(g69
g70
NtRp408
(dp409
g73
(dp410
g81
I3
ssg82
g404
sg75
(lp411
S''
asbasbasbag68
(g84
g70
NtRp412
(dp413
g73
(dp414
sg82
g282
sg75
(lp415
g68
(g89
g70
NtRp416
(dp417
g73
(dp418
g93
g94
ssg82
g412
sg75
(lp419
S'secure'
p420
asbag68
(g89
g70
NtRp421
(dp422
g73
(dp423
g100
g101
ssg82
g412
sg75
(lp424
S':'
asbag68
(g89
g70
NtRp425
(dp426
g73
(dp427
sg82
g412
sg75
(lp428
g68
(g69
g70
NtRp429
(dp430
g73
(dp431
g81
I3
ssg82
g425
sg75
(lp432
S''
asbasbasbag68
(g84
g70
NtRp433
(dp434
g73
(dp435
sg82
g282
sg75
(lp436
g68
(g89
g70
NtRp437
(dp438
g73
(dp439
g93
g94
ssg82
g433
sg75
(lp440
S'version'
p441
asbag68
(g89
g70
NtRp442
(dp443
g73
(dp444
g100
g101
ssg82
g433
sg75
(lp445
S':'
asbag68
(g89
g70
NtRp446
(dp447
g73
(dp448
sg82
g433
sg75
(lp449
g68
(g69
g70
NtRp450
(dp451
g73
(dp452
g81
I3
ssg82
g446
sg75
(lp453
S''
asbasbasbasbasbasbasbag68
(g84
g70
NtRp454
(dp455
g73
(dp456
sg82
g257
sg75
(lp457
g68
(g89
g70
NtRp458
(dp459
g73
(dp460
g93
g94
ssg82
g454
sg75
(lp461
S'session_id_synopsis'
p462
asbag68
(g89
g70
NtRp463
(dp464
g73
(dp465
g100
g101
ssg82
g454
sg75
(lp466
S':'
asbag68
(g89
g70
NtRp467
(dp468
g73
(dp469
sg82
g454
sg75
(lp470
g68
(g69
g70
NtRp471
(dp472
g73
(dp473
g81
I4
ssg82
g467
sg75
(lp474
g68
(g77
g70
NtRp475
(dp476
g73
(dp477
g81
I3
ssg82
Nsg75
(lp478
g68
(g84
g70
NtRp479
(dp480
g73
(dp481
sg82
g475
sg75
(lp482
g68
(g89
g70
NtRp483
(dp484
g73
(dp485
g93
g94
ssg82
g479
sg75
(lp486
g294
asbag68
(g89
g70
NtRp487
(dp488
g73
(dp489
g100
g101
ssg82
g479
sg75
(lp490
S':'
asbag68
(g89
g70
NtRp491
(dp492
g73
(dp493
sg82
g479
sg75
(lp494
g68
(g69
g70
NtRp495
(dp496
g73
(dp497
g81
I3
ssg82
g491
sg75
(lp498
S''
asbasbasbag68
(g84
g70
NtRp499
(dp500
g73
(dp501
sg82
g475
sg75
(lp502
g68
(g89
g70
NtRp503
(dp504
g73
(dp505
g93
g94
ssg82
g499
sg75
(lp506
g315
asbag68
(g89
g70
NtRp507
(dp508
g73
(dp509
g100
g101
ssg82
g499
sg75
(lp510
S':'
asbag68
(g89
g70
NtRp511
(dp512
g73
(dp513
sg82
g499
sg75
(lp514
g68
(g69
g70
NtRp515
(dp516
g73
(dp517
g81
I3
ssg82
g511
sg75
(lp518
S''
asbasbasbag68
(g84
g70
NtRp519
(dp520
g73
(dp521
sg82
g475
sg75
(lp522
g68
(g89
g70
NtRp523
(dp524
g73
(dp525
g93
g94
ssg82
g519
sg75
(lp526
g336
asbag68
(g89
g70
NtRp527
(dp528
g73
(dp529
g100
g101
ssg82
g519
sg75
(lp530
S':'
asbag68
(g89
g70
NtRp531
(dp532
g73
(dp533
sg82
g519
sg75
(lp534
g68
(g69
g70
NtRp535
(dp536
g73
(dp537
g81
I3
ssg82
g531
sg75
(lp538
S''
asbasbasbag68
(g84
g70
NtRp539
(dp540
g73
(dp541
sg82
g475
sg75
(lp542
g68
(g89
g70
NtRp543
(dp544
g73
(dp545
g93
g94
ssg82
g539
sg75
(lp546
g357
asbag68
(g89
g70
NtRp547
(dp548
g73
(dp549
g100
g101
ssg82
g539
sg75
(lp550
S':'
asbag68
(g89
g70
NtRp551
(dp552
g73
(dp553
sg82
g539
sg75
(lp554
g68
(g69
g70
NtRp555
(dp556
g73
(dp557
g81
I3
ssg82
g551
sg75
(lp558
S''
asbasbasbag68
(g84
g70
NtRp559
(dp560
g73
(dp561
sg82
g475
sg75
(lp562
g68
(g89
g70
NtRp563
(dp564
g73
(dp565
g93
g94
ssg82
g559
sg75
(lp566
g378
asbag68
(g89
g70
NtRp567
(dp568
g73
(dp569
g100
g101
ssg82
g559
sg75
(lp570
S':'
asbag68
(g89
g70
NtRp571
(dp572
g73
(dp573
sg82
g559
sg75
(lp574
g68
(g69
g70
NtRp575
(dp576
g73
(dp577
g81
I3
ssg82
g571
sg75
(lp578
S''
asbasbasbag68
(g84
g70
NtRp579
(dp580
g73
(dp581
sg82
g475
sg75
(lp582
g68
(g89
g70
NtRp583
(dp584
g73
(dp585
g93
g94
ssg82
g579
sg75
(lp586
g399
asbag68
(g89
g70
NtRp587
(dp588
g73
(dp589
g100
g101
ssg82
g579
sg75
(lp590
S':'
asbag68
(g89
g70
NtRp591
(dp592
g73
(dp593
sg82
g579
sg75
(lp594
g68
(g69
g70
NtRp595
(dp596
g73
(dp597
g81
I3
ssg82
g591
sg75
(lp598
S''
asbasbasbag68
(g84
g70
NtRp599
(dp600
g73
(dp601
sg82
g475
sg75
(lp602
g68
(g89
g70
NtRp603
(dp604
g73
(dp605
g93
g94
ssg82
g599
sg75
(lp606
g420
asbag68
(g89
g70
NtRp607
(dp608
g73
(dp609
g100
g101
ssg82
g599
sg75
(lp610
S':'
asbag68
(g89
g70
NtRp611
(dp612
g73
(dp613
sg82
g599
sg75
(lp614
g68
(g69
g70
NtRp615
(dp616
g73
(dp617
g81
I3
ssg82
g611
sg75
(lp618
S''
asbasbasbag68
(g84
g70
NtRp619
(dp620
g73
(dp621
sg82
g475
sg75
(lp622
g68
(g89
g70
NtRp623
(dp624
g73
(dp625
g93
g94
ssg82
g619
sg75
(lp626
g441
asbag68
(g89
g70
NtRp627
(dp628
g73
(dp629
g100
g101
ssg82
g619
sg75
(lp630
S':'
asbag68
(g89
g70
NtRp631
(dp632
g73
(dp633
sg82
g619
sg75
(lp634
g68
(g69
g70
NtRp635
(dp636
g73
(dp637
g81
I3
ssg82
g631
sg75
(lp638
S''
asbasbasbasbasbasbasbag68
(g84
g70
NtRp639
(dp640
g73
(dp641
sg82
g257
sg75
(lp642
g68
(g89
g70
NtRp643
(dp644
g73
(dp645
g93
g94
ssg82
g639
sg75
(lp646
S'session_id_welcome'
p647
asbag68
(g89
g70
NtRp648
(dp649
g73
(dp650
g100
g101
ssg82
g639
sg75
(lp651
S':'
asbag68
(g89
g70
NtRp652
(dp653
g73
(dp654
sg82
g639
sg75
(lp655
g68
(g69
g70
NtRp656
(dp657
g73
(dp658
g81
I4
ssg82
g652
sg75
(lp659
g68
(g77
g70
NtRp660
(dp661
g73
(dp662
g81
I3
ssg82
Nsg75
(lp663
g68
(g84
g70
NtRp664
(dp665
g73
(dp666
sg82
g660
sg75
(lp667
g68
(g89
g70
NtRp668
(dp669
g73
(dp670
g93
g94
ssg82
g664
sg75
(lp671
g294
asbag68
(g89
g70
NtRp672
(dp673
g73
(dp674
g100
g101
ssg82
g664
sg75
(lp675
S':'
asbag68
(g89
g70
NtRp676
(dp677
g73
(dp678
sg82
g664
sg75
(lp679
g68
(g69
g70
NtRp680
(dp681
g73
(dp682
g81
I3
ssg82
g676
sg75
(lp683
S''
asbasbasbag68
(g84
g70
NtRp684
(dp685
g73
(dp686
sg82
g660
sg75
(lp687
g68
(g89
g70
NtRp688
(dp689
g73
(dp690
g93
g94
ssg82
g684
sg75
(lp691
g315
asbag68
(g89
g70
NtRp692
(dp693
g73
(dp694
g100
g101
ssg82
g684
sg75
(lp695
S':'
asbag68
(g89
g70
NtRp696
(dp697
g73
(dp698
sg82
g684
sg75
(lp699
g68
(g69
g70
NtRp700
(dp701
g73
(dp702
g81
I3
ssg82
g696
sg75
(lp703
S''
asbasbasbag68
(g84
g70
NtRp704
(dp705
g73
(dp706
sg82
g660
sg75
(lp707
g68
(g89
g70
NtRp708
(dp709
g73
(dp710
g93
g94
ssg82
g704
sg75
(lp711
g336
asbag68
(g89
g70
NtRp712
(dp713
g73
(dp714
g100
g101
ssg82
g704
sg75
(lp715
S':'
asbag68
(g89
g70
NtRp716
(dp717
g73
(dp718
sg82
g704
sg75
(lp719
g68
(g69
g70
NtRp720
(dp721
g73
(dp722
g81
I3
ssg82
g716
sg75
(lp723
S''
asbasbasbag68
(g84
g70
NtRp724
(dp725
g73
(dp726
sg82
g660
sg75
(lp727
g68
(g89
g70
NtRp728
(dp729
g73
(dp730
g93
g94
ssg82
g724
sg75
(lp731
g357
asbag68
(g89
g70
NtRp732
(dp733
g73
(dp734
g100
g101
ssg82
g724
sg75
(lp735
S':'
asbag68
(g89
g70
NtRp736
(dp737
g73
(dp738
sg82
g724
sg75
(lp739
g68
(g69
g70
NtRp740
(dp741
g73
(dp742
g81
I3
ssg82
g736
sg75
(lp743
S''
asbasbasbag68
(g84
g70
NtRp744
(dp745
g73
(dp746
sg82
g660
sg75
(lp747
g68
(g89
g70
NtRp748
(dp749
g73
(dp750
g93
g94
ssg82
g744
sg75
(lp751
g378
asbag68
(g89
g70
NtRp752
(dp753
g73
(dp754
g100
g101
ssg82
g744
sg75
(lp755
S':'
asbag68
(g89
g70
NtRp756
(dp757
g73
(dp758
sg82
g744
sg75
(lp759
g68
(g69
g70
NtRp760
(dp761
g73
(dp762
g81
I3
ssg82
g756
sg75
(lp763
S''
asbasbasbag68
(g84
g70
NtRp764
(dp765
g73
(dp766
sg82
g660
sg75
(lp767
g68
(g89
g70
NtRp768
(dp769
g73
(dp770
g93
g94
ssg82
g764
sg75
(lp771
g399
asbag68
(g89
g70
NtRp772
(dp773
g73
(dp774
g100
g101
ssg82
g764
sg75
(lp775
S':'
asbag68
(g89
g70
NtRp776
(dp777
g73
(dp778
sg82
g764
sg75
(lp779
g68
(g69
g70
NtRp780
(dp781
g73
(dp782
g81
I3
ssg82
g776
sg75
(lp783
S''
asbasbasbag68
(g84
g70
NtRp784
(dp785
g73
(dp786
sg82
g660
sg75
(lp787
g68
(g89
g70
NtRp788
(dp789
g73
(dp790
g93
g94
ssg82
g784
sg75
(lp791
g420
asbag68
(g89
g70
NtRp792
(dp793
g73
(dp794
g100
g101
ssg82
g784
sg75
(lp795
S':'
asbag68
(g89
g70
NtRp796
(dp797
g73
(dp798
sg82
g784
sg75
(lp799
g68
(g69
g70
NtRp800
(dp801
g73
(dp802
g81
I3
ssg82
g796
sg75
(lp803
S''
asbasbasbag68
(g84
g70
NtRp804
(dp805
g73
(dp806
sg82
g660
sg75
(lp807
g68
(g89
g70
NtRp808
(dp809
g73
(dp810
g93
g94
ssg82
g804
sg75
(lp811
g441
asbag68
(g89
g70
NtRp812
(dp813
g73
(dp814
g100
g101
ssg82
g804
sg75
(lp815
S':'
asbag68
(g89
g70
NtRp816
(dp817
g73
(dp818
sg82
g804
sg75
(lp819
g68
(g69
g70
NtRp820
(dp821
g73
(dp822
g81
I3
ssg82
g816
sg75
(lp823
S''
asbasbasbasbasbasbasbasbasbasbasbag68
(g84
g70
NtRp824
(dp825
g73
(dp826
sg82
g78
sg75
(lp827
g68
(g89
g70
NtRp828
(dp829
g73
(dp830
g93
g94
ssg82
g824
sg75
(lp831
S'env'
p832
asbag68
(g89
g70
NtRp833
(dp834
g73
(dp835
g100
g101
ssg82
g824
sg75
(lp836
S':'
asbag68
(g89
g70
NtRp837
(dp838
g73
(dp839
sg82
g824
sg75
(lp840
g68
(g69
g70
NtRp841
(dp842
g73
(dp843
g81
I5
ssg82
g837
sg75
(lp844
g68
(g77
g70
NtRp845
(dp846
g73
(dp847
g81
I4
ssg82
Nsg75
(lp848
g68
(g84
g70
NtRp849
(dp850
g73
(dp851
sg82
g845
sg75
(lp852
g68
(g89
g70
NtRp853
(dp854
g73
(dp855
g93
g94
ssg82
g849
sg75
(lp856
S'app_folders'
p857
asbag68
(g89
g70
NtRp858
(dp859
g73
(dp860
g100
g101
ssg82
g849
sg75
(lp861
S':'
asbag68
(g89
g70
NtRp862
(dp863
g73
(dp864
sg82
g849
sg75
(lp865
g68
(g69
g70
NtRp866
(dp867
g73
(dp868
g81
I4
ssg82
g862
sg75
(lp869
S"set(['/home/kaique/Projects/web2py/applications/synopsis/', '/home/kaique/Projects/web2py/applications/admin/'])"
p870
asbasbasbag68
(g84
g70
NtRp871
(dp872
g73
(dp873
sg82
g845
sg75
(lp874
g68
(g89
g70
NtRp875
(dp876
g73
(dp877
g93
g94
ssg82
g871
sg75
(lp878
S'applications_parent'
p879
asbag68
(g89
g70
NtRp880
(dp881
g73
(dp882
g100
g101
ssg82
g871
sg75
(lp883
S':'
asbag68
(g89
g70
NtRp884
(dp885
g73
(dp886
sg82
g871
sg75
(lp887
g68
(g69
g70
NtRp888
(dp889
g73
(dp890
g81
I4
ssg82
g884
sg75
(lp891
S'/home/kaique/Projects/web2py'
p892
asbasbasbag68
(g84
g70
NtRp893
(dp894
g73
(dp895
sg82
g845
sg75
(lp896
g68
(g89
g70
NtRp897
(dp898
g73
(dp899
g93
g94
ssg82
g893
sg75
(lp900
S'cmd_args'
p901
asbag68
(g89
g70
NtRp902
(dp903
g73
(dp904
g100
g101
ssg82
g893
sg75
(lp905
S':'
asbag68
(g89
g70
NtRp906
(dp907
g73
(dp908
sg82
g893
sg75
(lp909
g68
(g69
g70
NtRp910
(dp911
g73
(dp912
g81
I4
ssg82
g906
sg75
(lp913
g68
(g77
g70
NtRp914
(dp915
g73
(dp916
g81
I3
ssg82
Nsg75
(lp917
sbasbasbasbag68
(g84
g70
NtRp918
(dp919
g73
(dp920
sg82
g845
sg75
(lp921
g68
(g89
g70
NtRp922
(dp923
g73
(dp924
g93
g94
ssg82
g918
sg75
(lp925
S'cmd_options'
p926
asbag68
(g89
g70
NtRp927
(dp928
g73
(dp929
g100
g101
ssg82
g918
sg75
(lp930
S':'
asbag68
(g89
g70
NtRp931
(dp932
g73
(dp933
sg82
g918
sg75
(lp934
g68
(g69
g70
NtRp935
(dp936
g73
(dp937
g81
I4
ssg82
g931
sg75
(lp938
S"<Values at 0x2d3b950: {'verbose': False, 'ip': '127.0.0.1', 'shutdown_timeout': 5, 'taskbar': False, 'nocron': False, 'pid_filename': 'httpserver.pid', 'maxthreads': None, 'softcron': False, 'server_name': 'kaique-Pine-Trail-M', 'bpython': False, 'nogui': False, 'port': 8000, 'extcron': False, 'debuglevel': 30, 'test': None, 'folder': '/home/kaique/Projects/web2py', 'config': '', 'import_models': False, 'winservice': '', 'shell': None, 'run': '', 'log_filename': 'httpserver.log', 'args': [''], 'ssl_ca_certificate': None, 'scheduler': None, 'profiler_filename': None, 'ssl_private_key': '', 'password': 'dev', 'request_queue_size': 5, 'ssl_certificate': '', 'cronjob': False, 'plain': False, 'quiet': False, 'interfaces': None, 'minthreads': None, 'timeout': 10, 'numthreads': None, 'nobanner': False}>"
p939
asbasbasbag68
(g84
g70
NtRp940
(dp941
g73
(dp942
sg82
g845
sg75
(lp943
g68
(g89
g70
NtRp944
(dp945
g73
(dp946
g93
g94
ssg82
g940
sg75
(lp947
S'db_sessions'
p948
asbag68
(g89
g70
NtRp949
(dp950
g73
(dp951
g100
g101
ssg82
g940
sg75
(lp952
S':'
asbag68
(g89
g70
NtRp953
(dp954
g73
(dp955
sg82
g940
sg75
(lp956
g68
(g69
g70
NtRp957
(dp958
g73
(dp959
g81
I4
ssg82
g953
sg75
(lp960
S'set([])'
p961
asbasbasbag68
(g84
g70
NtRp962
(dp963
g73
(dp964
sg82
g845
sg75
(lp965
g68
(g89
g70
NtRp966
(dp967
g73
(dp968
g93
g94
ssg82
g962
sg75
(lp969
S'debugging'
p970
asbag68
(g89
g70
NtRp971
(dp972
g73
(dp973
g100
g101
ssg82
g962
sg75
(lp974
S':'
asbag68
(g89
g70
NtRp975
(dp976
g73
(dp977
sg82
g962
sg75
(lp978
g68
(g69
g70
NtRp979
(dp980
g73
(dp981
g81
I4
ssg82
g975
sg75
(lp982
g111
asbasbasbag68
(g84
g70
NtRp983
(dp984
g73
(dp985
sg82
g845
sg75
(lp986
g68
(g89
g70
NtRp987
(dp988
g73
(dp989
g93
g94
ssg82
g983
sg75
(lp990
S'gluon_parent'
p991
asbag68
(g89
g70
NtRp992
(dp993
g73
(dp994
g100
g101
ssg82
g983
sg75
(lp995
S':'
asbag68
(g89
g70
NtRp996
(dp997
g73
(dp998
sg82
g983
sg75
(lp999
g68
(g69
g70
NtRp1000
(dp1001
g73
(dp1002
g81
I4
ssg82
g996
sg75
(lp1003
S'/home/kaique/Projects/web2py'
p1004
asbasbasbag68
(g84
g70
NtRp1005
(dp1006
g73
(dp1007
sg82
g845
sg75
(lp1008
g68
(g89
g70
NtRp1009
(dp1010
g73
(dp1011
g93
g94
ssg82
g1005
sg75
(lp1012
S'http_accept'
p1013
asbag68
(g89
g70
NtRp1014
(dp1015
g73
(dp1016
g100
g101
ssg82
g1005
sg75
(lp1017
S':'
asbag68
(g89
g70
NtRp1018
(dp1019
g73
(dp1020
sg82
g1005
sg75
(lp1021
g68
(g69
g70
NtRp1022
(dp1023
g73
(dp1024
g81
I4
ssg82
g1018
sg75
(lp1025
S'text/html,application/xhtml+xml,application/xml;q=0.9,*/*;q=0.8'
p1026
asbasbasbag68
(g84
g70
NtRp1027
(dp1028
g73
(dp1029
sg82
g845
sg75
(lp1030
g68
(g89
g70
NtRp1031
(dp1032
g73
(dp1033
g93
g94
ssg82
g1027
sg75
(lp1034
S'http_accept_charset'
p1035
asbag68
(g89
g70
NtRp1036
(dp1037
g73
(dp1038
g100
g101
ssg82
g1027
sg75
(lp1039
S':'
asbag68
(g89
g70
NtRp1040
(dp1041
g73
(dp1042
sg82
g1027
sg75
(lp1043
g68
(g69
g70
NtRp1044
(dp1045
g73
(dp1046
g81
I4
ssg82
g1040
sg75
(lp1047
S'ISO-8859-1,utf-8;q=0.7,*;q=0.7'
p1048
asbasbasbag68
(g84
g70
NtRp1049
(dp1050
g73
(dp1051
sg82
g845
sg75
(lp1052
g68
(g89
g70
NtRp1053
(dp1054
g73
(dp1055
g93
g94
ssg82
g1049
sg75
(lp1056
S'http_accept_encoding'
p1057
asbag68
(g89
g70
NtRp1058
(dp1059
g73
(dp1060
g100
g101
ssg82
g1049
sg75
(lp1061
S':'
asbag68
(g89
g70
NtRp1062
(dp1063
g73
(dp1064
sg82
g1049
sg75
(lp1065
g68
(g69
g70
NtRp1066
(dp1067
g73
(dp1068
g81
I4
ssg82
g1062
sg75
(lp1069
S'gzip, deflate'
p1070
asbasbasbag68
(g84
g70
NtRp1071
(dp1072
g73
(dp1073
sg82
g845
sg75
(lp1074
g68
(g89
g70
NtRp1075
(dp1076
g73
(dp1077
g93
g94
ssg82
g1071
sg75
(lp1078
S'http_accept_language'
p1079
asbag68
(g89
g70
NtRp1080
(dp1081
g73
(dp1082
g100
g101
ssg82
g1071
sg75
(lp1083
S':'
asbag68
(g89
g70
NtRp1084
(dp1085
g73
(dp1086
sg82
g1071
sg75
(lp1087
g68
(g69
g70
NtRp1088
(dp1089
g73
(dp1090
g81
I4
ssg82
g1084
sg75
(lp1091
S'pt-br,pt;q=0.8,en-us;q=0.5,en;q=0.3'
p1092
asbasbasbag68
(g84
g70
NtRp1093
(dp1094
g73
(dp1095
sg82
g845
sg75
(lp1096
g68
(g89
g70
NtRp1097
(dp1098
g73
(dp1099
g93
g94
ssg82
g1093
sg75
(lp1100
S'http_cache_control'
p1101
asbag68
(g89
g70
NtRp1102
(dp1103
g73
(dp1104
g100
g101
ssg82
g1093
sg75
(lp1105
S':'
asbag68
(g89
g70
NtRp1106
(dp1107
g73
(dp1108
sg82
g1093
sg75
(lp1109
g68
(g69
g70
NtRp1110
(dp1111
g73
(dp1112
g81
I4
ssg82
g1106
sg75
(lp1113
S'max-age=0'
p1114
asbasbasbag68
(g84
g70
NtRp1115
(dp1116
g73
(dp1117
sg82
g845
sg75
(lp1118
g68
(g89
g70
NtRp1119
(dp1120
g73
(dp1121
g93
g94
ssg82
g1115
sg75
(lp1122
S'http_connection'
p1123
asbag68
(g89
g70
NtRp1124
(dp1125
g73
(dp1126
g100
g101
ssg82
g1115
sg75
(lp1127
S':'
asbag68
(g89
g70
NtRp1128
(dp1129
g73
(dp1130
sg82
g1115
sg75
(lp1131
g68
(g69
g70
NtRp1132
(dp1133
g73
(dp1134
g81
I4
ssg82
g1128
sg75
(lp1135
S'keep-alive'
p1136
asbasbasbag68
(g84
g70
NtRp1137
(dp1138
g73
(dp1139
sg82
g845
sg75
(lp1140
g68
(g89
g70
NtRp1141
(dp1142
g73
(dp1143
g93
g94
ssg82
g1137
sg75
(lp1144
S'http_cookie'
p1145
asbag68
(g89
g70
NtRp1146
(dp1147
g73
(dp1148
g100
g101
ssg82
g1137
sg75
(lp1149
S':'
asbag68
(g89
g70
NtRp1150
(dp1151
g73
(dp1152
sg82
g1137
sg75
(lp1153
g68
(g69
g70
NtRp1154
(dp1155
g73
(dp1156
g81
I4
ssg82
g1150
sg75
(lp1157
S'session_id_welcome=127.0.0.1-5cd27a60-9290-4dfd-905a-2cae79e1b71d; session_id_admin=127.0.0.1-e5d8c817-47f0-409a-b156-aacf18b23a2f; session_id_synopsis=127.0.0.1-351efa91-66d9-4ca2-9c53-1a2177b18dc7'
p1158
asbasbasbag68
(g84
g70
NtRp1159
(dp1160
g73
(dp1161
sg82
g845
sg75
(lp1162
g68
(g89
g70
NtRp1163
(dp1164
g73
(dp1165
g93
g94
ssg82
g1159
sg75
(lp1166
S'http_host'
p1167
asbag68
(g89
g70
NtRp1168
(dp1169
g73
(dp1170
g100
g101
ssg82
g1159
sg75
(lp1171
S':'
asbag68
(g89
g70
NtRp1172
(dp1173
g73
(dp1174
sg82
g1159
sg75
(lp1175
g68
(g69
g70
NtRp1176
(dp1177
g73
(dp1178
g81
I4
ssg82
g1172
sg75
(lp1179
S'localhost:8000'
p1180
asbasbasbag68
(g84
g70
NtRp1181
(dp1182
g73
(dp1183
sg82
g845
sg75
(lp1184
g68
(g89
g70
NtRp1185
(dp1186
g73
(dp1187
g93
g94
ssg82
g1181
sg75
(lp1188
S'http_referer'
p1189
asbag68
(g89
g70
NtRp1190
(dp1191
g73
(dp1192
g100
g101
ssg82
g1181
sg75
(lp1193
S':'
asbag68
(g89
g70
NtRp1194
(dp1195
g73
(dp1196
sg82
g1181
sg75
(lp1197
g68
(g69
g70
NtRp1198
(dp1199
g73
(dp1200
g81
I4
ssg82
g1194
sg75
(lp1201
S'http://localhost:8000/synopsis/information/profile/1'
p1202
asbasbasbag68
(g84
g70
NtRp1203
(dp1204
g73
(dp1205
sg82
g845
sg75
(lp1206
g68
(g89
g70
NtRp1207
(dp1208
g73
(dp1209
g93
g94
ssg82
g1203
sg75
(lp1210
S'http_user_agent'
p1211
asbag68
(g89
g70
NtRp1212
(dp1213
g73
(dp1214
g100
g101
ssg82
g1203
sg75
(lp1215
S':'
asbag68
(g89
g70
NtRp1216
(dp1217
g73
(dp1218
sg82
g1203
sg75
(lp1219
g68
(g69
g70
NtRp1220
(dp1221
g73
(dp1222
g81
I4
ssg82
g1216
sg75
(lp1223
S'Mozilla/5.0 (Ubuntu; X11; Linux x86_64; rv:9.0.1) Gecko/20100101 Firefox/9.0.1'
p1224
asbasbasbag68
(g84
g70
NtRp1225
(dp1226
g73
(dp1227
sg82
g845
sg75
(lp1228
g68
(g89
g70
NtRp1229
(dp1230
g73
(dp1231
g93
g94
ssg82
g1225
sg75
(lp1232
S'is_jython'
p1233
asbag68
(g89
g70
NtRp1234
(dp1235
g73
(dp1236
g100
g101
ssg82
g1225
sg75
(lp1237
S':'
asbag68
(g89
g70
NtRp1238
(dp1239
g73
(dp1240
sg82
g1225
sg75
(lp1241
g68
(g69
g70
NtRp1242
(dp1243
g73
(dp1244
g81
I4
ssg82
g1238
sg75
(lp1245
g111
asbasbasbag68
(g84
g70
NtRp1246
(dp1247
g73
(dp1248
sg82
g845
sg75
(lp1249
g68
(g89
g70
NtRp1250
(dp1251
g73
(dp1252
g93
g94
ssg82
g1246
sg75
(lp1253
S'path_info'
p1254
asbag68
(g89
g70
NtRp1255
(dp1256
g73
(dp1257
g100
g101
ssg82
g1246
sg75
(lp1258
S':'
asbag68
(g89
g70
NtRp1259
(dp1260
g73
(dp1261
sg82
g1246
sg75
(lp1262
g68
(g69
g70
NtRp1263
(dp1264
g73
(dp1265
g81
I4
ssg82
g1259
sg75
(lp1266
S'/synopsis/information/publication/1'
p1267
asbasbasbag68
(g84
g70
NtRp1268
(dp1269
g73
(dp1270
sg82
g845
sg75
(lp1271
g68
(g89
g70
NtRp1272
(dp1273
g73
(dp1274
g93
g94
ssg82
g1268
sg75
(lp1275
S'query_string'
p1276
asbag68
(g89
g70
NtRp1277
(dp1278
g73
(dp1279
g100
g101
ssg82
g1268
sg75
(lp1280
S':'
asbag68
(g89
g70
NtRp1281
(dp1282
g73
(dp1283
sg82
g1268
sg75
(lp1284
g68
(g69
g70
NtRp1285
(dp1286
g73
(dp1287
g81
I4
ssg82
g1281
sg75
(lp1288
S''
asbasbasbag68
(g84
g70
NtRp1289
(dp1290
g73
(dp1291
sg82
g845
sg75
(lp1292
g68
(g89
g70
NtRp1293
(dp1294
g73
(dp1295
g93
g94
ssg82
g1289
sg75
(lp1296
S'remote_addr'
p1297
asbag68
(g89
g70
NtRp1298
(dp1299
g73
(dp1300
g100
g101
ssg82
g1289
sg75
(lp1301
S':'
asbag68
(g89
g70
NtRp1302
(dp1303
g73
(dp1304
sg82
g1289
sg75
(lp1305
g68
(g69
g70
NtRp1306
(dp1307
g73
(dp1308
g81
I4
ssg82
g1302
sg75
(lp1309
g213
asbasbasbag68
(g84
g70
NtRp1310
(dp1311
g73
(dp1312
sg82
g845
sg75
(lp1313
g68
(g89
g70
NtRp1314
(dp1315
g73
(dp1316
g93
g94
ssg82
g1310
sg75
(lp1317
S'remote_port'
p1318
asbag68
(g89
g70
NtRp1319
(dp1320
g73
(dp1321
g100
g101
ssg82
g1310
sg75
(lp1322
S':'
asbag68
(g89
g70
NtRp1323
(dp1324
g73
(dp1325
sg82
g1310
sg75
(lp1326
g68
(g69
g70
NtRp1327
(dp1328
g73
(dp1329
g81
I4
ssg82
g1323
sg75
(lp1330
S'52470'
p1331
asbasbasbag68
(g84
g70
NtRp1332
(dp1333
g73
(dp1334
sg82
g845
sg75
(lp1335
g68
(g89
g70
NtRp1336
(dp1337
g73
(dp1338
g93
g94
ssg82
g1332
sg75
(lp1339
S'request_method'
p1340
asbag68
(g89
g70
NtRp1341
(dp1342
g73
(dp1343
g100
g101
ssg82
g1332
sg75
(lp1344
S':'
asbag68
(g89
g70
NtRp1345
(dp1346
g73
(dp1347
sg82
g1332
sg75
(lp1348
g68
(g69
g70
NtRp1349
(dp1350
g73
(dp1351
g81
I4
ssg82
g1345
sg75
(lp1352
S'GET'
p1353
asbasbasbag68
(g84
g70
NtRp1354
(dp1355
g73
(dp1356
sg82
g845
sg75
(lp1357
g68
(g89
g70
NtRp1358
(dp1359
g73
(dp1360
g93
g94
ssg82
g1354
sg75
(lp1361
S'script_name'
p1362
asbag68
(g89
g70
NtRp1363
(dp1364
g73
(dp1365
g100
g101
ssg82
g1354
sg75
(lp1366
S':'
asbag68
(g89
g70
NtRp1367
(dp1368
g73
(dp1369
sg82
g1354
sg75
(lp1370
g68
(g69
g70
NtRp1371
(dp1372
g73
(dp1373
g81
I4
ssg82
g1367
sg75
(lp1374
S''
asbasbasbag68
(g84
g70
NtRp1375
(dp1376
g73
(dp1377
sg82
g845
sg75
(lp1378
g68
(g89
g70
NtRp1379
(dp1380
g73
(dp1381
g93
g94
ssg82
g1375
sg75
(lp1382
S'server_name'
p1383
asbag68
(g89
g70
NtRp1384
(dp1385
g73
(dp1386
g100
g101
ssg82
g1375
sg75
(lp1387
S':'
asbag68
(g89
g70
NtRp1388
(dp1389
g73
(dp1390
sg82
g1375
sg75
(lp1391
g68
(g69
g70
NtRp1392
(dp1393
g73
(dp1394
g81
I4
ssg82
g1388
sg75
(lp1395
S'kaique-Pine-Trail-M'
p1396
asbasbasbag68
(g84
g70
NtRp1397
(dp1398
g73
(dp1399
sg82
g845
sg75
(lp1400
g68
(g89
g70
NtRp1401
(dp1402
g73
(dp1403
g93
g94
ssg82
g1397
sg75
(lp1404
S'server_port'
p1405
asbag68
(g89
g70
NtRp1406
(dp1407
g73
(dp1408
g100
g101
ssg82
g1397
sg75
(lp1409
S':'
asbag68
(g89
g70
NtRp1410
(dp1411
g73
(dp1412
sg82
g1397
sg75
(lp1413
g68
(g69
g70
NtRp1414
(dp1415
g73
(dp1416
g81
I4
ssg82
g1410
sg75
(lp1417
S'8000'
p1418
asbasbasbag68
(g84
g70
NtRp1419
(dp1420
g73
(dp1421
sg82
g845
sg75
(lp1422
g68
(g89
g70
NtRp1423
(dp1424
g73
(dp1425
g93
g94
ssg82
g1419
sg75
(lp1426
S'server_protocol'
p1427
asbag68
(g89
g70
NtRp1428
(dp1429
g73
(dp1430
g100
g101
ssg82
g1419
sg75
(lp1431
S':'
asbag68
(g89
g70
NtRp1432
(dp1433
g73
(dp1434
sg82
g1419
sg75
(lp1435
g68
(g69
g70
NtRp1436
(dp1437
g73
(dp1438
g81
I4
ssg82
g1432
sg75
(lp1439
S'HTTP/1.1'
p1440
asbasbasbag68
(g84
g70
NtRp1441
(dp1442
g73
(dp1443
sg82
g845
sg75
(lp1444
g68
(g89
g70
NtRp1445
(dp1446
g73
(dp1447
g93
g94
ssg82
g1441
sg75
(lp1448
S'server_software'
p1449
asbag68
(g89
g70
NtRp1450
(dp1451
g73
(dp1452
g100
g101
ssg82
g1441
sg75
(lp1453
S':'
asbag68
(g89
g70
NtRp1454
(dp1455
g73
(dp1456
sg82
g1441
sg75
(lp1457
g68
(g69
g70
NtRp1458
(dp1459
g73
(dp1460
g81
I4
ssg82
g1454
sg75
(lp1461
S'Rocket 1.2.4'
p1462
asbasbasbag68
(g84
g70
NtRp1463
(dp1464
g73
(dp1465
sg82
g845
sg75
(lp1466
g68
(g89
g70
NtRp1467
(dp1468
g73
(dp1469
g93
g94
ssg82
g1463
sg75
(lp1470
S'web2py_crontype'
p1471
asbag68
(g89
g70
NtRp1472
(dp1473
g73
(dp1474
g100
g101
ssg82
g1463
sg75
(lp1475
S':'
asbag68
(g89
g70
NtRp1476
(dp1477
g73
(dp1478
sg82
g1463
sg75
(lp1479
g68
(g69
g70
NtRp1480
(dp1481
g73
(dp1482
g81
I4
ssg82
g1476
sg75
(lp1483
S'hard'
p1484
asbasbasbag68
(g84
g70
NtRp1485
(dp1486
g73
(dp1487
sg82
g845
sg75
(lp1488
g68
(g89
g70
NtRp1489
(dp1490
g73
(dp1491
g93
g94
ssg82
g1485
sg75
(lp1492
S'web2py_path'
p1493
asbag68
(g89
g70
NtRp1494
(dp1495
g73
(dp1496
g100
g101
ssg82
g1485
sg75
(lp1497
S':'
asbag68
(g89
g70
NtRp1498
(dp1499
g73
(dp1500
sg82
g1485
sg75
(lp1501
g68
(g69
g70
NtRp1502
(dp1503
g73
(dp1504
g81
I4
ssg82
g1498
sg75
(lp1505
g892
asbasbasbag68
(g84
g70
NtRp1506
(dp1507
g73
(dp1508
sg82
g845
sg75
(lp1509
g68
(g89
g70
NtRp1510
(dp1511
g73
(dp1512
g93
g94
ssg82
g1506
sg75
(lp1513
S'web2py_version'
p1514
asbag68
(g89
g70
NtRp1515
(dp1516
g73
(dp1517
g100
g101
ssg82
g1506
sg75
(lp1518
S':'
asbag68
(g89
g70
NtRp1519
(dp1520
g73
(dp1521
sg82
g1506
sg75
(lp1522
g68
(g69
g70
NtRp1523
(dp1524
g73
(dp1525
g81
I4
ssg82
g1519
sg75
(lp1526
g68
(g77
g70
NtRp1527
(dp1528
g73
(dp1529
g81
I3
ssg82
Nsg75
(lp1530
g68
(g84
g70
NtRp1531
(dp1532
g73
(dp1533
sg82
g1527
sg75
(lp1534
g68
(g89
g70
NtRp1535
(dp1536
g73
(dp1537
sg82
g1531
sg75
(lp1538
g68
(g69
g70
NtRp1539
(dp1540
g73
(dp1541
g81
I3
ssg82
g1535
sg75
(lp1542
S'1'
asbasbasbag68
(g84
g70
NtRp1543
(dp1544
g73
(dp1545
sg82
g1527
sg75
(lp1546
g68
(g89
g70
NtRp1547
(dp1548
g73
(dp1549
sg82
g1543
sg75
(lp1550
g68
(g69
g70
NtRp1551
(dp1552
g73
(dp1553
g81
I3
ssg82
g1547
sg75
(lp1554
S'99'
p1555
asbasbasbag68
(g84
g70
NtRp1556
(dp1557
g73
(dp1558
sg82
g1527
sg75
(lp1559
g68
(g89
g70
NtRp1560
(dp1561
g73
(dp1562
sg82
g1556
sg75
(lp1563
g68
(g69
g70
NtRp1564
(dp1565
g73
(dp1566
g81
I3
ssg82
g1560
sg75
(lp1567
S'2'
asbasbasbag68
(g84
g70
NtRp1568
(dp1569
g73
(dp1570
sg82
g1527
sg75
(lp1571
g68
(g89
g70
NtRp1572
(dp1573
g73
(dp1574
sg82
g1568
sg75
(lp1575
g68
(g69
g70
NtRp1576
(dp1577
g73
(dp1578
g81
I3
ssg82
g1572
sg75
(lp1579
S'datetime.datetime(2011, 9, 26, 6, 55, 33)'
p1580
asbasbasbag68
(g84
g70
NtRp1581
(dp1582
g73
(dp1583
sg82
g1527
sg75
(lp1584
g68
(g89
g70
NtRp1585
(dp1586
g73
(dp1587
sg82
g1581
sg75
(lp1588
g68
(g69
g70
NtRp1589
(dp1590
g73
(dp1591
g81
I3
ssg82
g1585
sg75
(lp1592
S'stable'
p1593
asbasbasbasbasbasbasbag68
(g84
g70
NtRp1594
(dp1595
g73
(dp1596
sg82
g845
sg75
(lp1597
g68
(g89
g70
NtRp1598
(dp1599
g73
(dp1600
g93
g94
ssg82
g1594
sg75
(lp1601
S'wsgi_errors'
p1602
asbag68
(g89
g70
NtRp1603
(dp1604
g73
(dp1605
g100
g101
ssg82
g1594
sg75
(lp1606
S':'
asbag68
(g89
g70
NtRp1607
(dp1608
g73
(dp1609
sg82
g1594
sg75
(lp1610
g68
(g69
g70
NtRp1611
(dp1612
g73
(dp1613
g81
I4
ssg82
g1607
sg75
(lp1614
S"<open file '<stderr>', mode 'w' at 0x7f2b12e1a270>"
p1615
asbasbasbag68
(g84
g70
NtRp1616
(dp1617
g73
(dp1618
sg82
g845
sg75
(lp1619
g68
(g89
g70
NtRp1620
(dp1621
g73
(dp1622
g93
g94
ssg82
g1616
sg75
(lp1623
S'wsgi_file_wrapper'
p1624
asbag68
(g89
g70
NtRp1625
(dp1626
g73
(dp1627
g100
g101
ssg82
g1616
sg75
(lp1628
S':'
asbag68
(g89
g70
NtRp1629
(dp1630
g73
(dp1631
sg82
g1616
sg75
(lp1632
g68
(g69
g70
NtRp1633
(dp1634
g73
(dp1635
g81
I4
ssg82
g1629
sg75
(lp1636
S'<class wsgiref.util.FileWrapper at 0x2bf2ef0>'
p1637
asbasbasbag68
(g84
g70
NtRp1638
(dp1639
g73
(dp1640
sg82
g845
sg75
(lp1641
g68
(g89
g70
NtRp1642
(dp1643
g73
(dp1644
g93
g94
ssg82
g1638
sg75
(lp1645
S'wsgi_input'
p1646
asbag68
(g89
g70
NtRp1647
(dp1648
g73
(dp1649
g100
g101
ssg82
g1638
sg75
(lp1650
S':'
asbag68
(g89
g70
NtRp1651
(dp1652
g73
(dp1653
sg82
g1638
sg75
(lp1654
g68
(g69
g70
NtRp1655
(dp1656
g73
(dp1657
g81
I4
ssg82
g1651
sg75
(lp1658
S'<socket._fileobject object at 0x2ef07d0>'
p1659
asbasbasbag68
(g84
g70
NtRp1660
(dp1661
g73
(dp1662
sg82
g845
sg75
(lp1663
g68
(g89
g70
NtRp1664
(dp1665
g73
(dp1666
g93
g94
ssg82
g1660
sg75
(lp1667
S'wsgi_multiprocess'
p1668
asbag68
(g89
g70
NtRp1669
(dp1670
g73
(dp1671
g100
g101
ssg82
g1660
sg75
(lp1672
S':'
asbag68
(g89
g70
NtRp1673
(dp1674
g73
(dp1675
sg82
g1660
sg75
(lp1676
g68
(g69
g70
NtRp1677
(dp1678
g73
(dp1679
g81
I4
ssg82
g1673
sg75
(lp1680
g111
asbasbasbag68
(g84
g70
NtRp1681
(dp1682
g73
(dp1683
sg82
g845
sg75
(lp1684
g68
(g89
g70
NtRp1685
(dp1686
g73
(dp1687
g93
g94
ssg82
g1681
sg75
(lp1688
S'wsgi_multithread'
p1689
asbag68
(g89
g70
NtRp1690
(dp1691
g73
(dp1692
g100
g101
ssg82
g1681
sg75
(lp1693
S':'
asbag68
(g89
g70
NtRp1694
(dp1695
g73
(dp1696
sg82
g1681
sg75
(lp1697
g68
(g69
g70
NtRp1698
(dp1699
g73
(dp1700
g81
I4
ssg82
g1694
sg75
(lp1701
S'True'
p1702
asbasbasbag68
(g84
g70
NtRp1703
(dp1704
g73
(dp1705
sg82
g845
sg75
(lp1706
g68
(g89
g70
NtRp1707
(dp1708
g73
(dp1709
g93
g94
ssg82
g1703
sg75
(lp1710
S'wsgi_run_once'
p1711
asbag68
(g89
g70
NtRp1712
(dp1713
g73
(dp1714
g100
g101
ssg82
g1703
sg75
(lp1715
S':'
asbag68
(g89
g70
NtRp1716
(dp1717
g73
(dp1718
sg82
g1703
sg75
(lp1719
g68
(g69
g70
NtRp1720
(dp1721
g73
(dp1722
g81
I4
ssg82
g1716
sg75
(lp1723
g111
asbasbasbag68
(g84
g70
NtRp1724
(dp1725
g73
(dp1726
sg82
g845
sg75
(lp1727
g68
(g89
g70
NtRp1728
(dp1729
g73
(dp1730
g93
g94
ssg82
g1724
sg75
(lp1731
S'wsgi_url_scheme'
p1732
asbag68
(g89
g70
NtRp1733
(dp1734
g73
(dp1735
g100
g101
ssg82
g1724
sg75
(lp1736
S':'
asbag68
(g89
g70
NtRp1737
(dp1738
g73
(dp1739
sg82
g1724
sg75
(lp1740
g68
(g69
g70
NtRp1741
(dp1742
g73
(dp1743
g81
I4
ssg82
g1737
sg75
(lp1744
S'http'
p1745
asbasbasbag68
(g84
g70
NtRp1746
(dp1747
g73
(dp1748
sg82
g845
sg75
(lp1749
g68
(g89
g70
NtRp1750
(dp1751
g73
(dp1752
g93
g94
ssg82
g1746
sg75
(lp1753
S'wsgi_version'
p1754
asbag68
(g89
g70
NtRp1755
(dp1756
g73
(dp1757
g100
g101
ssg82
g1746
sg75
(lp1758
S':'
asbag68
(g89
g70
NtRp1759
(dp1760
g73
(dp1761
sg82
g1746
sg75
(lp1762
g68
(g69
g70
NtRp1763
(dp1764
g73
(dp1765
g81
I4
ssg82
g1759
sg75
(lp1766
g68
(g77
g70
NtRp1767
(dp1768
g73
(dp1769
g81
I3
ssg82
Nsg75
(lp1770
g68
(g84
g70
NtRp1771
(dp1772
g73
(dp1773
sg82
g1767
sg75
(lp1774
g68
(g89
g70
NtRp1775
(dp1776
g73
(dp1777
sg82
g1771
sg75
(lp1778
g68
(g69
g70
NtRp1779
(dp1780
g73
(dp1781
g81
I3
ssg82
g1775
sg75
(lp1782
S'1'
asbasbasbag68
(g84
g70
NtRp1783
(dp1784
g73
(dp1785
sg82
g1767
sg75
(lp1786
g68
(g89
g70
NtRp1787
(dp1788
g73
(dp1789
sg82
g1783
sg75
(lp1790
g68
(g69
g70
NtRp1791
(dp1792
g73
(dp1793
g81
I3
ssg82
g1787
sg75
(lp1794
S'0'
asbasbasbasbasbasbasbasbasbasbasbag68
(g84
g70
NtRp1795
(dp1796
g73
(dp1797
sg82
g78
sg75
(lp1798
g68
(g89
g70
NtRp1799
(dp1800
g73
(dp1801
g93
g94
ssg82
g1795
sg75
(lp1802
S'extension'
p1803
asbag68
(g89
g70
NtRp1804
(dp1805
g73
(dp1806
g100
g101
ssg82
g1795
sg75
(lp1807
S':'
asbag68
(g89
g70
NtRp1808
(dp1809
g73
(dp1810
sg82
g1795
sg75
(lp1811
g68
(g69
g70
NtRp1812
(dp1813
g73
(dp1814
g81
I5
ssg82
g1808
sg75
(lp1815
S'html'
p1816
asbasbasbag68
(g84
g70
NtRp1817
(dp1818
g73
(dp1819
sg82
g78
sg75
(lp1820
g68
(g89
g70
NtRp1821
(dp1822
g73
(dp1823
g93
g94
ssg82
g1817
sg75
(lp1824
S'folder'
p1825
asbag68
(g89
g70
NtRp1826
(dp1827
g73
(dp1828
g100
g101
ssg82
g1817
sg75
(lp1829
S':'
asbag68
(g89
g70
NtRp1830
(dp1831
g73
(dp1832
sg82
g1817
sg75
(lp1833
g68
(g69
g70
NtRp1834
(dp1835
g73
(dp1836
g81
I5
ssg82
g1830
sg75
(lp1837
S'/home/kaique/Projects/web2py/applications/synopsis/'
p1838
asbasbasbag68
(g84
g70
NtRp1839
(dp1840
g73
(dp1841
sg82
g78
sg75
(lp1842
g68
(g89
g70
NtRp1843
(dp1844
g73
(dp1845
g93
g94
ssg82
g1839
sg75
(lp1846
S'function'
p1847
asbag68
(g89
g70
NtRp1848
(dp1849
g73
(dp1850
g100
g101
ssg82
g1839
sg75
(lp1851
S':'
asbag68
(g89
g70
NtRp1852
(dp1853
g73
(dp1854
sg82
g1839
sg75
(lp1855
g68
(g69
g70
NtRp1856
(dp1857
g73
(dp1858
g81
I5
ssg82
g1852
sg75
(lp1859
S'publication'
p1860
asbasbasbag68
(g84
g70
NtRp1861
(dp1862
g73
(dp1863
sg82
g78
sg75
(lp1864
g68
(g89
g70
NtRp1865
(dp1866
g73
(dp1867
g93
g94
ssg82
g1861
sg75
(lp1868
S'get_vars'
p1869
asbag68
(g89
g70
NtRp1870
(dp1871
g73
(dp1872
g100
g101
ssg82
g1861
sg75
(lp1873
S':'
asbag68
(g89
g70
NtRp1874
(dp1875
g73
(dp1876
sg82
g1861
sg75
(lp1877
g68
(g69
g70
NtRp1878
(dp1879
g73
(dp1880
g81
I5
ssg82
g1874
sg75
(lp1881
g68
(g77
g70
NtRp1882
(dp1883
g73
(dp1884
g81
I4
ssg82
Nsg75
(lp1885
sbasbasbasbag68
(g84
g70
NtRp1886
(dp1887
g73
(dp1888
sg82
g78
sg75
(lp1889
g68
(g89
g70
NtRp1890
(dp1891
g73
(dp1892
g93
g94
ssg82
g1886
sg75
(lp1893
S'global_settings'
p1894
asbag68
(g89
g70
NtRp1895
(dp1896
g73
(dp1897
g100
g101
ssg82
g1886
sg75
(lp1898
S':'
asbag68
(g89
g70
NtRp1899
(dp1900
g73
(dp1901
sg82
g1886
sg75
(lp1902
g68
(g69
g70
NtRp1903
(dp1904
g73
(dp1905
g81
I5
ssg82
g1899
sg75
(lp1906
g68
(g77
g70
NtRp1907
(dp1908
g73
(dp1909
g81
I4
ssg82
Nsg75
(lp1910
g68
(g84
g70
NtRp1911
(dp1912
g73
(dp1913
sg82
g1907
sg75
(lp1914
g68
(g89
g70
NtRp1915
(dp1916
g73
(dp1917
g93
g94
ssg82
g1911
sg75
(lp1918
g857
asbag68
(g89
g70
NtRp1919
(dp1920
g73
(dp1921
g100
g101
ssg82
g1911
sg75
(lp1922
S':'
asbag68
(g89
g70
NtRp1923
(dp1924
g73
(dp1925
sg82
g1911
sg75
(lp1926
g68
(g69
g70
NtRp1927
(dp1928
g73
(dp1929
g81
I4
ssg82
g1923
sg75
(lp1930
S"set(['/home/kaique/Projects/web2py/applications/synopsis/', '/home/kaique/Projects/web2py/applications/admin/'])"
p1931
asbasbasbag68
(g84
g70
NtRp1932
(dp1933
g73
(dp1934
sg82
g1907
sg75
(lp1935
g68
(g89
g70
NtRp1936
(dp1937
g73
(dp1938
g93
g94
ssg82
g1932
sg75
(lp1939
g879
asbag68
(g89
g70
NtRp1940
(dp1941
g73
(dp1942
g100
g101
ssg82
g1932
sg75
(lp1943
S':'
asbag68
(g89
g70
NtRp1944
(dp1945
g73
(dp1946
sg82
g1932
sg75
(lp1947
g68
(g69
g70
NtRp1948
(dp1949
g73
(dp1950
g81
I4
ssg82
g1944
sg75
(lp1951
g892
asbasbasbag68
(g84
g70
NtRp1952
(dp1953
g73
(dp1954
sg82
g1907
sg75
(lp1955
g68
(g89
g70
NtRp1956
(dp1957
g73
(dp1958
g93
g94
ssg82
g1952
sg75
(lp1959
g901
asbag68
(g89
g70
NtRp1960
(dp1961
g73
(dp1962
g100
g101
ssg82
g1952
sg75
(lp1963
S':'
asbag68
(g89
g70
NtRp1964
(dp1965
g73
(dp1966
sg82
g1952
sg75
(lp1967
g68
(g69
g70
NtRp1968
(dp1969
g73
(dp1970
g81
I4
ssg82
g1964
sg75
(lp1971
g68
(g77
g70
NtRp1972
(dp1973
g73
(dp1974
g81
I3
ssg82
Nsg75
(lp1975
sbasbasbasbag68
(g84
g70
NtRp1976
(dp1977
g73
(dp1978
sg82
g1907
sg75
(lp1979
g68
(g89
g70
NtRp1980
(dp1981
g73
(dp1982
g93
g94
ssg82
g1976
sg75
(lp1983
g926
asbag68
(g89
g70
NtRp1984
(dp1985
g73
(dp1986
g100
g101
ssg82
g1976
sg75
(lp1987
S':'
asbag68
(g89
g70
NtRp1988
(dp1989
g73
(dp1990
sg82
g1976
sg75
(lp1991
g68
(g69
g70
NtRp1992
(dp1993
g73
(dp1994
g81
I4
ssg82
g1988
sg75
(lp1995
S"<Values at 0x2d3b950: {'verbose': False, 'ip': '127.0.0.1', 'shutdown_timeout': 5, 'taskbar': False, 'nocron': False, 'pid_filename': 'httpserver.pid', 'maxthreads': None, 'softcron': False, 'server_name': 'kaique-Pine-Trail-M', 'bpython': False, 'nogui': False, 'port': 8000, 'extcron': False, 'debuglevel': 30, 'test': None, 'folder': '/home/kaique/Projects/web2py', 'config': '', 'import_models': False, 'winservice': '', 'shell': None, 'run': '', 'log_filename': 'httpserver.log', 'args': [''], 'ssl_ca_certificate': None, 'scheduler': None, 'profiler_filename': None, 'ssl_private_key': '', 'password': 'dev', 'request_queue_size': 5, 'ssl_certificate': '', 'cronjob': False, 'plain': False, 'quiet': False, 'interfaces': None, 'minthreads': None, 'timeout': 10, 'numthreads': None, 'nobanner': False}>"
p1996
asbasbasbag68
(g84
g70
NtRp1997
(dp1998
g73
(dp1999
sg82
g1907
sg75
(lp2000
g68
(g89
g70
NtRp2001
(dp2002
g73
(dp2003
g93
g94
ssg82
g1997
sg75
(lp2004
g948
asbag68
(g89
g70
NtRp2005
(dp2006
g73
(dp2007
g100
g101
ssg82
g1997
sg75
(lp2008
S':'
asbag68
(g89
g70
NtRp2009
(dp2010
g73
(dp2011
sg82
g1997
sg75
(lp2012
g68
(g69
g70
NtRp2013
(dp2014
g73
(dp2015
g81
I4
ssg82
g2009
sg75
(lp2016
S'set([])'
p2017
asbasbasbag68
(g84
g70
NtRp2018
(dp2019
g73
(dp2020
sg82
g1907
sg75
(lp2021
g68
(g89
g70
NtRp2022
(dp2023
g73
(dp2024
g93
g94
ssg82
g2018
sg75
(lp2025
g970
asbag68
(g89
g70
NtRp2026
(dp2027
g73
(dp2028
g100
g101
ssg82
g2018
sg75
(lp2029
S':'
asbag68
(g89
g70
NtRp2030
(dp2031
g73
(dp2032
sg82
g2018
sg75
(lp2033
g68
(g69
g70
NtRp2034
(dp2035
g73
(dp2036
g81
I4
ssg82
g2030
sg75
(lp2037
g111
asbasbasbag68
(g84
g70
NtRp2038
(dp2039
g73
(dp2040
sg82
g1907
sg75
(lp2041
g68
(g89
g70
NtRp2042
(dp2043
g73
(dp2044
g93
g94
ssg82
g2038
sg75
(lp2045
g991
asbag68
(g89
g70
NtRp2046
(dp2047
g73
(dp2048
g100
g101
ssg82
g2038
sg75
(lp2049
S':'
asbag68
(g89
g70
NtRp2050
(dp2051
g73
(dp2052
sg82
g2038
sg75
(lp2053
g68
(g69
g70
NtRp2054
(dp2055
g73
(dp2056
g81
I4
ssg82
g2050
sg75
(lp2057
g1004
asbasbasbag68
(g84
g70
NtRp2058
(dp2059
g73
(dp2060
sg82
g1907
sg75
(lp2061
g68
(g89
g70
NtRp2062
(dp2063
g73
(dp2064
g93
g94
ssg82
g2058
sg75
(lp2065
g1233
asbag68
(g89
g70
NtRp2066
(dp2067
g73
(dp2068
g100
g101
ssg82
g2058
sg75
(lp2069
S':'
asbag68
(g89
g70
NtRp2070
(dp2071
g73
(dp2072
sg82
g2058
sg75
(lp2073
g68
(g69
g70
NtRp2074
(dp2075
g73
(dp2076
g81
I4
ssg82
g2070
sg75
(lp2077
g111
asbasbasbag68
(g84
g70
NtRp2078
(dp2079
g73
(dp2080
sg82
g1907
sg75
(lp2081
g68
(g89
g70
NtRp2082
(dp2083
g73
(dp2084
g93
g94
ssg82
g2078
sg75
(lp2085
g1471
asbag68
(g89
g70
NtRp2086
(dp2087
g73
(dp2088
g100
g101
ssg82
g2078
sg75
(lp2089
S':'
asbag68
(g89
g70
NtRp2090
(dp2091
g73
(dp2092
sg82
g2078
sg75
(lp2093
g68
(g69
g70
NtRp2094
(dp2095
g73
(dp2096
g81
I4
ssg82
g2090
sg75
(lp2097
g1484
asbasbasbag68
(g84
g70
NtRp2098
(dp2099
g73
(dp2100
sg82
g1907
sg75
(lp2101
g68
(g89
g70
NtRp2102
(dp2103
g73
(dp2104
g93
g94
ssg82
g2098
sg75
(lp2105
g1514
asbag68
(g89
g70
NtRp2106
(dp2107
g73
(dp2108
g100
g101
ssg82
g2098
sg75
(lp2109
S':'
asbag68
(g89
g70
NtRp2110
(dp2111
g73
(dp2112
sg82
g2098
sg75
(lp2113
g68
(g69
g70
NtRp2114
(dp2115
g73
(dp2116
g81
I4
ssg82
g2110
sg75
(lp2117
g68
(g77
g70
NtRp2118
(dp2119
g73
(dp2120
g81
I3
ssg82
Nsg75
(lp2121
g68
(g84
g70
NtRp2122
(dp2123
g73
(dp2124
sg82
g2118
sg75
(lp2125
g68
(g89
g70
NtRp2126
(dp2127
g73
(dp2128
sg82
g2122
sg75
(lp2129
g68
(g69
g70
NtRp2130
(dp2131
g73
(dp2132
g81
I3
ssg82
g2126
sg75
(lp2133
S'1'
asbasbasbag68
(g84
g70
NtRp2134
(dp2135
g73
(dp2136
sg82
g2118
sg75
(lp2137
g68
(g89
g70
NtRp2138
(dp2139
g73
(dp2140
sg82
g2134
sg75
(lp2141
g68
(g69
g70
NtRp2142
(dp2143
g73
(dp2144
g81
I3
ssg82
g2138
sg75
(lp2145
S'99'
p2146
asbasbasbag68
(g84
g70
NtRp2147
(dp2148
g73
(dp2149
sg82
g2118
sg75
(lp2150
g68
(g89
g70
NtRp2151
(dp2152
g73
(dp2153
sg82
g2147
sg75
(lp2154
g68
(g69
g70
NtRp2155
(dp2156
g73
(dp2157
g81
I3
ssg82
g2151
sg75
(lp2158
S'2'
asbasbasbag68
(g84
g70
NtRp2159
(dp2160
g73
(dp2161
sg82
g2118
sg75
(lp2162
g68
(g89
g70
NtRp2163
(dp2164
g73
(dp2165
sg82
g2159
sg75
(lp2166
g68
(g69
g70
NtRp2167
(dp2168
g73
(dp2169
g81
I3
ssg82
g2163
sg75
(lp2170
S'datetime.datetime(2011, 9, 26, 6, 55, 33)'
p2171
asbasbasbag68
(g84
g70
NtRp2172
(dp2173
g73
(dp2174
sg82
g2118
sg75
(lp2175
g68
(g89
g70
NtRp2176
(dp2177
g73
(dp2178
sg82
g2172
sg75
(lp2179
g68
(g69
g70
NtRp2180
(dp2181
g73
(dp2182
g81
I3
ssg82
g2176
sg75
(lp2183
g1593
asbasbasbasbasbasbasbasbasbasbasbag68
(g84
g70
NtRp2184
(dp2185
g73
(dp2186
sg82
g78
sg75
(lp2187
g68
(g89
g70
NtRp2188
(dp2189
g73
(dp2190
g93
g94
ssg82
g2184
sg75
(lp2191
S'is_https'
p2192
asbag68
(g89
g70
NtRp2193
(dp2194
g73
(dp2195
g100
g101
ssg82
g2184
sg75
(lp2196
S':'
asbag68
(g89
g70
NtRp2197
(dp2198
g73
(dp2199
sg82
g2184
sg75
(lp2200
g68
(g69
g70
NtRp2201
(dp2202
g73
(dp2203
g81
I5
ssg82
g2197
sg75
(lp2204
g111
asbasbasbag68
(g84
g70
NtRp2205
(dp2206
g73
(dp2207
sg82
g78
sg75
(lp2208
g68
(g89
g70
NtRp2209
(dp2210
g73
(dp2211
g93
g94
ssg82
g2205
sg75
(lp2212
S'is_local'
p2213
asbag68
(g89
g70
NtRp2214
(dp2215
g73
(dp2216
g100
g101
ssg82
g2205
sg75
(lp2217
S':'
asbag68
(g89
g70
NtRp2218
(dp2219
g73
(dp2220
sg82
g2205
sg75
(lp2221
g68
(g69
g70
NtRp2222
(dp2223
g73
(dp2224
g81
I5
ssg82
g2218
sg75
(lp2225
g1702
asbasbasbag68
(g84
g70
NtRp2226
(dp2227
g73
(dp2228
sg82
g78
sg75
(lp2229
g68
(g89
g70
NtRp2230
(dp2231
g73
(dp2232
g93
g94
ssg82
g2226
sg75
(lp2233
S'is_restful'
p2234
asbag68
(g89
g70
NtRp2235
(dp2236
g73
(dp2237
g100
g101
ssg82
g2226
sg75
(lp2238
S':'
asbag68
(g89
g70
NtRp2239
(dp2240
g73
(dp2241
sg82
g2226
sg75
(lp2242
g68
(g69
g70
NtRp2243
(dp2244
g73
(dp2245
g81
I5
ssg82
g2239
sg75
(lp2246
g111
asbasbasbag68
(g84
g70
NtRp2247
(dp2248
g73
(dp2249
sg82
g78
sg75
(lp2250
g68
(g89
g70
NtRp2251
(dp2252
g73
(dp2253
g93
g94
ssg82
g2247
sg75
(lp2254
S'now'
p2255
asbag68
(g89
g70
NtRp2256
(dp2257
g73
(dp2258
g100
g101
ssg82
g2247
sg75
(lp2259
S':'
asbag68
(g89
g70
NtRp2260
(dp2261
g73
(dp2262
sg82
g2247
sg75
(lp2263
g68
(g69
g70
NtRp2264
(dp2265
g73
(dp2266
g81
I5
ssg82
g2260
sg75
(lp2267
S'datetime.datetime(2012, 1, 12, 9, 19, 44, 348635)'
p2268
asbasbasbag68
(g84
g70
NtRp2269
(dp2270
g73
(dp2271
sg82
g78
sg75
(lp2272
g68
(g89
g70
NtRp2273
(dp2274
g73
(dp2275
g93
g94
ssg82
g2269
sg75
(lp2276
S'post_vars'
p2277
asbag68
(g89
g70
NtRp2278
(dp2279
g73
(dp2280
g100
g101
ssg82
g2269
sg75
(lp2281
S':'
asbag68
(g89
g70
NtRp2282
(dp2283
g73
(dp2284
sg82
g2269
sg75
(lp2285
g68
(g69
g70
NtRp2286
(dp2287
g73
(dp2288
g81
I5
ssg82
g2282
sg75
(lp2289
g68
(g77
g70
NtRp2290
(dp2291
g73
(dp2292
g81
I4
ssg82
Nsg75
(lp2293
sbasbasbasbag68
(g84
g70
NtRp2294
(dp2295
g73
(dp2296
sg82
g78
sg75
(lp2297
g68
(g89
g70
NtRp2298
(dp2299
g73
(dp2300
g93
g94
ssg82
g2294
sg75
(lp2301
S'raw_args'
p2302
asbag68
(g89
g70
NtRp2303
(dp2304
g73
(dp2305
g100
g101
ssg82
g2294
sg75
(lp2306
S':'
asbag68
(g89
g70
NtRp2307
(dp2308
g73
(dp2309
sg82
g2294
sg75
(lp2310
g68
(g69
g70
NtRp2311
(dp2312
g73
(dp2313
g81
I5
ssg82
g2307
sg75
(lp2314
S'1'
asbasbasbag68
(g84
g70
NtRp2315
(dp2316
g73
(dp2317
sg82
g78
sg75
(lp2318
g68
(g89
g70
NtRp2319
(dp2320
g73
(dp2321
g93
g94
ssg82
g2315
sg75
(lp2322
S'url'
p2323
asbag68
(g89
g70
NtRp2324
(dp2325
g73
(dp2326
g100
g101
ssg82
g2315
sg75
(lp2327
S':'
asbag68
(g89
g70
NtRp2328
(dp2329
g73
(dp2330
sg82
g2315
sg75
(lp2331
g68
(g69
g70
NtRp2332
(dp2333
g73
(dp2334
g81
I5
ssg82
g2328
sg75
(lp2335
S'/synopsis/information/publication/1'
p2336
asbasbasbag68
(g84
g70
NtRp2337
(dp2338
g73
(dp2339
sg82
g78
sg75
(lp2340
g68
(g89
g70
NtRp2341
(dp2342
g73
(dp2343
g93
g94
ssg82
g2337
sg75
(lp2344
S'utcnow'
p2345
asbag68
(g89
g70
NtRp2346
(dp2347
g73
(dp2348
g100
g101
ssg82
g2337
sg75
(lp2349
S':'
asbag68
(g89
g70
NtRp2350
(dp2351
g73
(dp2352
sg82
g2337
sg75
(lp2353
g68
(g69
g70
NtRp2354
(dp2355
g73
(dp2356
g81
I5
ssg82
g2350
sg75
(lp2357
S'datetime.datetime(2012, 1, 12, 11, 19, 44, 348691)'
p2358
asbasbasbag68
(g84
g70
NtRp2359
(dp2360
g73
(dp2361
sg82
g78
sg75
(lp2362
g68
(g89
g70
NtRp2363
(dp2364
g73
(dp2365
g93
g94
ssg82
g2359
sg75
(lp2366
S'uuid'
p2367
asbag68
(g89
g70
NtRp2368
(dp2369
g73
(dp2370
g100
g101
ssg82
g2359
sg75
(lp2371
S':'
asbag68
(g89
g70
NtRp2372
(dp2373
g73
(dp2374
sg82
g2359
sg75
(lp2375
g68
(g69
g70
NtRp2376
(dp2377
g73
(dp2378
g81
I5
ssg82
g2372
sg75
(lp2379
S'synopsis/127.0.0.1.2012-01-12.09-19-44.67e9b529-9915-4071-84f9-f3808fea2682'
p2380
asbasbasbag68
(g84
g70
NtRp2381
(dp2382
g73
(dp2383
sg82
g78
sg75
(lp2384
g68
(g89
g70
NtRp2385
(dp2386
g73
(dp2387
g93
g94
ssg82
g2381
sg75
(lp2388
S'vars'
p2389
asbag68
(g89
g70
NtRp2390
(dp2391
g73
(dp2392
g100
g101
ssg82
g2381
sg75
(lp2393
S':'
asbag68
(g89
g70
NtRp2394
(dp2395
g73
(dp2396
sg82
g2381
sg75
(lp2397
g68
(g69
g70
NtRp2398
(dp2399
g73
(dp2400
g81
I5
ssg82
g2394
sg75
(lp2401
g68
(g77
g70
NtRp2402
(dp2403
g73
(dp2404
g81
I4
ssg82
Nsg75
(lp2405
sbasbasbasbag68
(g84
g70
NtRp2406
(dp2407
g73
(dp2408
sg82
g78
sg75
(lp2409
g68
(g89
g70
NtRp2410
(dp2411
g73
(dp2412
g93
g94
ssg82
g2406
sg75
(lp2413
S'wsgi'
p2414
asbag68
(g89
g70
NtRp2415
(dp2416
g73
(dp2417
g100
g101
ssg82
g2406
sg75
(lp2418
S':'
asbag68
(g89
g70
NtRp2419
(dp2420
g73
(dp2421
sg82
g2406
sg75
(lp2422
g68
(g69
g70
NtRp2423
(dp2424
g73
(dp2425
g81
I5
ssg82
g2419
sg75
(lp2426
g68
(g77
g70
NtRp2427
(dp2428
g73
(dp2429
g81
I4
ssg82
Nsg75
(lp2430
g68
(g84
g70
NtRp2431
(dp2432
g73
(dp2433
sg82
g2427
sg75
(lp2434
g68
(g89
g70
NtRp2435
(dp2436
g73
(dp2437
g93
g94
ssg82
g2431
sg75
(lp2438
S'environ'
p2439
asbag68
(g89
g70
NtRp2440
(dp2441
g73
(dp2442
g100
g101
ssg82
g2431
sg75
(lp2443
S':'
asbag68
(g89
g70
NtRp2444
(dp2445
g73
(dp2446
sg82
g2431
sg75
(lp2447
g68
(g69
g70
NtRp2448
(dp2449
g73
(dp2450
g81
I4
ssg82
g2444
sg75
(lp2451
g68
(g77
g70
NtRp2452
(dp2453
g73
(dp2454
g81
I3
ssg82
Nsg75
(lp2455
g68
(g84
g70
NtRp2456
(dp2457
g73
(dp2458
sg82
g2452
sg75
(lp2459
g68
(g89
g70
NtRp2460
(dp2461
g73
(dp2462
g93
g94
ssg82
g2456
sg75
(lp2463
S'HTTP_ACCEPT'
p2464
asbag68
(g89
g70
NtRp2465
(dp2466
g73
(dp2467
g100
g101
ssg82
g2456
sg75
(lp2468
S':'
asbag68
(g89
g70
NtRp2469
(dp2470
g73
(dp2471
sg82
g2456
sg75
(lp2472
g68
(g69
g70
NtRp2473
(dp2474
g73
(dp2475
g81
I3
ssg82
g2469
sg75
(lp2476
g1026
asbasbasbag68
(g84
g70
NtRp2477
(dp2478
g73
(dp2479
sg82
g2452
sg75
(lp2480
g68
(g89
g70
NtRp2481
(dp2482
g73
(dp2483
g93
g94
ssg82
g2477
sg75
(lp2484
S'HTTP_ACCEPT_CHARSET'
p2485
asbag68
(g89
g70
NtRp2486
(dp2487
g73
(dp2488
g100
g101
ssg82
g2477
sg75
(lp2489
S':'
asbag68
(g89
g70
NtRp2490
(dp2491
g73
(dp2492
sg82
g2477
sg75
(lp2493
g68
(g69
g70
NtRp2494
(dp2495
g73
(dp2496
g81
I3
ssg82
g2490
sg75
(lp2497
g1048
asbasbasbag68
(g84
g70
NtRp2498
(dp2499
g73
(dp2500
sg82
g2452
sg75
(lp2501
g68
(g89
g70
NtRp2502
(dp2503
g73
(dp2504
g93
g94
ssg82
g2498
sg75
(lp2505
S'HTTP_ACCEPT_ENCODING'
p2506
asbag68
(g89
g70
NtRp2507
(dp2508
g73
(dp2509
g100
g101
ssg82
g2498
sg75
(lp2510
S':'
asbag68
(g89
g70
NtRp2511
(dp2512
g73
(dp2513
sg82
g2498
sg75
(lp2514
g68
(g69
g70
NtRp2515
(dp2516
g73
(dp2517
g81
I3
ssg82
g2511
sg75
(lp2518
g1070
asbasbasbag68
(g84
g70
NtRp2519
(dp2520
g73
(dp2521
sg82
g2452
sg75
(lp2522
g68
(g89
g70
NtRp2523
(dp2524
g73
(dp2525
g93
g94
ssg82
g2519
sg75
(lp2526
S'HTTP_ACCEPT_LANGUAGE'
p2527
asbag68
(g89
g70
NtRp2528
(dp2529
g73
(dp2530
g100
g101
ssg82
g2519
sg75
(lp2531
S':'
asbag68
(g89
g70
NtRp2532
(dp2533
g73
(dp2534
sg82
g2519
sg75
(lp2535
g68
(g69
g70
NtRp2536
(dp2537
g73
(dp2538
g81
I3
ssg82
g2532
sg75
(lp2539
g1092
asbasbasbag68
(g84
g70
NtRp2540
(dp2541
g73
(dp2542
sg82
g2452
sg75
(lp2543
g68
(g89
g70
NtRp2544
(dp2545
g73
(dp2546
g93
g94
ssg82
g2540
sg75
(lp2547
S'HTTP_CACHE_CONTROL'
p2548
asbag68
(g89
g70
NtRp2549
(dp2550
g73
(dp2551
g100
g101
ssg82
g2540
sg75
(lp2552
S':'
asbag68
(g89
g70
NtRp2553
(dp2554
g73
(dp2555
sg82
g2540
sg75
(lp2556
g68
(g69
g70
NtRp2557
(dp2558
g73
(dp2559
g81
I3
ssg82
g2553
sg75
(lp2560
g1114
asbasbasbag68
(g84
g70
NtRp2561
(dp2562
g73
(dp2563
sg82
g2452
sg75
(lp2564
g68
(g89
g70
NtRp2565
(dp2566
g73
(dp2567
g93
g94
ssg82
g2561
sg75
(lp2568
S'HTTP_CONNECTION'
p2569
asbag68
(g89
g70
NtRp2570
(dp2571
g73
(dp2572
g100
g101
ssg82
g2561
sg75
(lp2573
S':'
asbag68
(g89
g70
NtRp2574
(dp2575
g73
(dp2576
sg82
g2561
sg75
(lp2577
g68
(g69
g70
NtRp2578
(dp2579
g73
(dp2580
g81
I3
ssg82
g2574
sg75
(lp2581
g1136
asbasbasbag68
(g84
g70
NtRp2582
(dp2583
g73
(dp2584
sg82
g2452
sg75
(lp2585
g68
(g89
g70
NtRp2586
(dp2587
g73
(dp2588
g93
g94
ssg82
g2582
sg75
(lp2589
S'HTTP_COOKIE'
p2590
asbag68
(g89
g70
NtRp2591
(dp2592
g73
(dp2593
g100
g101
ssg82
g2582
sg75
(lp2594
S':'
asbag68
(g89
g70
NtRp2595
(dp2596
g73
(dp2597
sg82
g2582
sg75
(lp2598
g68
(g69
g70
NtRp2599
(dp2600
g73
(dp2601
g81
I3
ssg82
g2595
sg75
(lp2602
g1158
asbasbasbag68
(g84
g70
NtRp2603
(dp2604
g73
(dp2605
sg82
g2452
sg75
(lp2606
g68
(g89
g70
NtRp2607
(dp2608
g73
(dp2609
g93
g94
ssg82
g2603
sg75
(lp2610
S'HTTP_HOST'
p2611
asbag68
(g89
g70
NtRp2612
(dp2613
g73
(dp2614
g100
g101
ssg82
g2603
sg75
(lp2615
S':'
asbag68
(g89
g70
NtRp2616
(dp2617
g73
(dp2618
sg82
g2603
sg75
(lp2619
g68
(g69
g70
NtRp2620
(dp2621
g73
(dp2622
g81
I3
ssg82
g2616
sg75
(lp2623
g1180
asbasbasbag68
(g84
g70
NtRp2624
(dp2625
g73
(dp2626
sg82
g2452
sg75
(lp2627
g68
(g89
g70
NtRp2628
(dp2629
g73
(dp2630
g93
g94
ssg82
g2624
sg75
(lp2631
S'HTTP_REFERER'
p2632
asbag68
(g89
g70
NtRp2633
(dp2634
g73
(dp2635
g100
g101
ssg82
g2624
sg75
(lp2636
S':'
asbag68
(g89
g70
NtRp2637
(dp2638
g73
(dp2639
sg82
g2624
sg75
(lp2640
g68
(g69
g70
NtRp2641
(dp2642
g73
(dp2643
g81
I3
ssg82
g2637
sg75
(lp2644
g1202
asbasbasbag68
(g84
g70
NtRp2645
(dp2646
g73
(dp2647
sg82
g2452
sg75
(lp2648
g68
(g89
g70
NtRp2649
(dp2650
g73
(dp2651
g93
g94
ssg82
g2645
sg75
(lp2652
S'HTTP_USER_AGENT'
p2653
asbag68
(g89
g70
NtRp2654
(dp2655
g73
(dp2656
g100
g101
ssg82
g2645
sg75
(lp2657
S':'
asbag68
(g89
g70
NtRp2658
(dp2659
g73
(dp2660
sg82
g2645
sg75
(lp2661
g68
(g69
g70
NtRp2662
(dp2663
g73
(dp2664
g81
I3
ssg82
g2658
sg75
(lp2665
g1224
asbasbasbag68
(g84
g70
NtRp2666
(dp2667
g73
(dp2668
sg82
g2452
sg75
(lp2669
g68
(g89
g70
NtRp2670
(dp2671
g73
(dp2672
g93
g94
ssg82
g2666
sg75
(lp2673
S'PATH_INFO'
p2674
asbag68
(g89
g70
NtRp2675
(dp2676
g73
(dp2677
g100
g101
ssg82
g2666
sg75
(lp2678
S':'
asbag68
(g89
g70
NtRp2679
(dp2680
g73
(dp2681
sg82
g2666
sg75
(lp2682
g68
(g69
g70
NtRp2683
(dp2684
g73
(dp2685
g81
I3
ssg82
g2679
sg75
(lp2686
g1267
asbasbasbag68
(g84
g70
NtRp2687
(dp2688
g73
(dp2689
sg82
g2452
sg75
(lp2690
g68
(g89
g70
NtRp2691
(dp2692
g73
(dp2693
g93
g94
ssg82
g2687
sg75
(lp2694
S'QUERY_STRING'
p2695
asbag68
(g89
g70
NtRp2696
(dp2697
g73
(dp2698
g100
g101
ssg82
g2687
sg75
(lp2699
S':'
asbag68
(g89
g70
NtRp2700
(dp2701
g73
(dp2702
sg82
g2687
sg75
(lp2703
g68
(g69
g70
NtRp2704
(dp2705
g73
(dp2706
g81
I3
ssg82
g2700
sg75
(lp2707
S''
asbasbasbag68
(g84
g70
NtRp2708
(dp2709
g73
(dp2710
sg82
g2452
sg75
(lp2711
g68
(g89
g70
NtRp2712
(dp2713
g73
(dp2714
g93
g94
ssg82
g2708
sg75
(lp2715
S'REMOTE_ADDR'
p2716
asbag68
(g89
g70
NtRp2717
(dp2718
g73
(dp2719
g100
g101
ssg82
g2708
sg75
(lp2720
S':'
asbag68
(g89
g70
NtRp2721
(dp2722
g73
(dp2723
sg82
g2708
sg75
(lp2724
g68
(g69
g70
NtRp2725
(dp2726
g73
(dp2727
g81
I3
ssg82
g2721
sg75
(lp2728
g213
asbasbasbag68
(g84
g70
NtRp2729
(dp2730
g73
(dp2731
sg82
g2452
sg75
(lp2732
g68
(g89
g70
NtRp2733
(dp2734
g73
(dp2735
g93
g94
ssg82
g2729
sg75
(lp2736
S'REMOTE_PORT'
p2737
asbag68
(g89
g70
NtRp2738
(dp2739
g73
(dp2740
g100
g101
ssg82
g2729
sg75
(lp2741
S':'
asbag68
(g89
g70
NtRp2742
(dp2743
g73
(dp2744
sg82
g2729
sg75
(lp2745
g68
(g69
g70
NtRp2746
(dp2747
g73
(dp2748
g81
I3
ssg82
g2742
sg75
(lp2749
g1331
asbasbasbag68
(g84
g70
NtRp2750
(dp2751
g73
(dp2752
sg82
g2452
sg75
(lp2753
g68
(g89
g70
NtRp2754
(dp2755
g73
(dp2756
g93
g94
ssg82
g2750
sg75
(lp2757
S'REQUEST_METHOD'
p2758
asbag68
(g89
g70
NtRp2759
(dp2760
g73
(dp2761
g100
g101
ssg82
g2750
sg75
(lp2762
S':'
asbag68
(g89
g70
NtRp2763
(dp2764
g73
(dp2765
sg82
g2750
sg75
(lp2766
g68
(g69
g70
NtRp2767
(dp2768
g73
(dp2769
g81
I3
ssg82
g2763
sg75
(lp2770
g1353
asbasbasbag68
(g84
g70
NtRp2771
(dp2772
g73
(dp2773
sg82
g2452
sg75
(lp2774
g68
(g89
g70
NtRp2775
(dp2776
g73
(dp2777
g93
g94
ssg82
g2771
sg75
(lp2778
S'SCRIPT_NAME'
p2779
asbag68
(g89
g70
NtRp2780
(dp2781
g73
(dp2782
g100
g101
ssg82
g2771
sg75
(lp2783
S':'
asbag68
(g89
g70
NtRp2784
(dp2785
g73
(dp2786
sg82
g2771
sg75
(lp2787
g68
(g69
g70
NtRp2788
(dp2789
g73
(dp2790
g81
I3
ssg82
g2784
sg75
(lp2791
S''
asbasbasbag68
(g84
g70
NtRp2792
(dp2793
g73
(dp2794
sg82
g2452
sg75
(lp2795
g68
(g89
g70
NtRp2796
(dp2797
g73
(dp2798
g93
g94
ssg82
g2792
sg75
(lp2799
S'SERVER_NAME'
p2800
asbag68
(g89
g70
NtRp2801
(dp2802
g73
(dp2803
g100
g101
ssg82
g2792
sg75
(lp2804
S':'
asbag68
(g89
g70
NtRp2805
(dp2806
g73
(dp2807
sg82
g2792
sg75
(lp2808
g68
(g69
g70
NtRp2809
(dp2810
g73
(dp2811
g81
I3
ssg82
g2805
sg75
(lp2812
g1396
asbasbasbag68
(g84
g70
NtRp2813
(dp2814
g73
(dp2815
sg82
g2452
sg75
(lp2816
g68
(g89
g70
NtRp2817
(dp2818
g73
(dp2819
g93
g94
ssg82
g2813
sg75
(lp2820
S'SERVER_PORT'
p2821
asbag68
(g89
g70
NtRp2822
(dp2823
g73
(dp2824
g100
g101
ssg82
g2813
sg75
(lp2825
S':'
asbag68
(g89
g70
NtRp2826
(dp2827
g73
(dp2828
sg82
g2813
sg75
(lp2829
g68
(g69
g70
NtRp2830
(dp2831
g73
(dp2832
g81
I3
ssg82
g2826
sg75
(lp2833
g1418
asbasbasbag68
(g84
g70
NtRp2834
(dp2835
g73
(dp2836
sg82
g2452
sg75
(lp2837
g68
(g89
g70
NtRp2838
(dp2839
g73
(dp2840
g93
g94
ssg82
g2834
sg75
(lp2841
S'SERVER_PROTOCOL'
p2842
asbag68
(g89
g70
NtRp2843
(dp2844
g73
(dp2845
g100
g101
ssg82
g2834
sg75
(lp2846
S':'
asbag68
(g89
g70
NtRp2847
(dp2848
g73
(dp2849
sg82
g2834
sg75
(lp2850
g68
(g69
g70
NtRp2851
(dp2852
g73
(dp2853
g81
I3
ssg82
g2847
sg75
(lp2854
g1440
asbasbasbag68
(g84
g70
NtRp2855
(dp2856
g73
(dp2857
sg82
g2452
sg75
(lp2858
g68
(g89
g70
NtRp2859
(dp2860
g73
(dp2861
g93
g94
ssg82
g2855
sg75
(lp2862
S'SERVER_SOFTWARE'
p2863
asbag68
(g89
g70
NtRp2864
(dp2865
g73
(dp2866
g100
g101
ssg82
g2855
sg75
(lp2867
S':'
asbag68
(g89
g70
NtRp2868
(dp2869
g73
(dp2870
sg82
g2855
sg75
(lp2871
g68
(g69
g70
NtRp2872
(dp2873
g73
(dp2874
g81
I3
ssg82
g2868
sg75
(lp2875
g1462
asbasbasbag68
(g84
g70
NtRp2876
(dp2877
g73
(dp2878
sg82
g2452
sg75
(lp2879
g68
(g89
g70
NtRp2880
(dp2881
g73
(dp2882
g93
g94
ssg82
g2876
sg75
(lp2883
S'wsgi.errors'
p2884
asbag68
(g89
g70
NtRp2885
(dp2886
g73
(dp2887
g100
g101
ssg82
g2876
sg75
(lp2888
S':'
asbag68
(g89
g70
NtRp2889
(dp2890
g73
(dp2891
sg82
g2876
sg75
(lp2892
g68
(g69
g70
NtRp2893
(dp2894
g73
(dp2895
g81
I3
ssg82
g2889
sg75
(lp2896
S"<open file '<stderr>', mode 'w' at 0x7f2b12e1a270>"
p2897
asbasbasbag68
(g84
g70
NtRp2898
(dp2899
g73
(dp2900
sg82
g2452
sg75
(lp2901
g68
(g89
g70
NtRp2902
(dp2903
g73
(dp2904
g93
g94
ssg82
g2898
sg75
(lp2905
S'wsgi.file_wrapper'
p2906
asbag68
(g89
g70
NtRp2907
(dp2908
g73
(dp2909
g100
g101
ssg82
g2898
sg75
(lp2910
S':'
asbag68
(g89
g70
NtRp2911
(dp2912
g73
(dp2913
sg82
g2898
sg75
(lp2914
g68
(g69
g70
NtRp2915
(dp2916
g73
(dp2917
g81
I3
ssg82
g2911
sg75
(lp2918
S'<class wsgiref.util.FileWrapper at 0x2bf2ef0>'
p2919
asbasbasbag68
(g84
g70
NtRp2920
(dp2921
g73
(dp2922
sg82
g2452
sg75
(lp2923
g68
(g89
g70
NtRp2924
(dp2925
g73
(dp2926
g93
g94
ssg82
g2920
sg75
(lp2927
S'wsgi.input'
p2928
asbag68
(g89
g70
NtRp2929
(dp2930
g73
(dp2931
g100
g101
ssg82
g2920
sg75
(lp2932
S':'
asbag68
(g89
g70
NtRp2933
(dp2934
g73
(dp2935
sg82
g2920
sg75
(lp2936
g68
(g69
g70
NtRp2937
(dp2938
g73
(dp2939
g81
I3
ssg82
g2933
sg75
(lp2940
S'<cStringIO.StringO object at 0x328e8f0>'
p2941
asbasbasbag68
(g84
g70
NtRp2942
(dp2943
g73
(dp2944
sg82
g2452
sg75
(lp2945
g68
(g89
g70
NtRp2946
(dp2947
g73
(dp2948
g93
g94
ssg82
g2942
sg75
(lp2949
S'wsgi.multiprocess'
p2950
asbag68
(g89
g70
NtRp2951
(dp2952
g73
(dp2953
g100
g101
ssg82
g2942
sg75
(lp2954
S':'
asbag68
(g89
g70
NtRp2955
(dp2956
g73
(dp2957
sg82
g2942
sg75
(lp2958
g68
(g69
g70
NtRp2959
(dp2960
g73
(dp2961
g81
I3
ssg82
g2955
sg75
(lp2962
g111
asbasbasbag68
(g84
g70
NtRp2963
(dp2964
g73
(dp2965
sg82
g2452
sg75
(lp2966
g68
(g89
g70
NtRp2967
(dp2968
g73
(dp2969
g93
g94
ssg82
g2963
sg75
(lp2970
S'wsgi.multithread'
p2971
asbag68
(g89
g70
NtRp2972
(dp2973
g73
(dp2974
g100
g101
ssg82
g2963
sg75
(lp2975
S':'
asbag68
(g89
g70
NtRp2976
(dp2977
g73
(dp2978
sg82
g2963
sg75
(lp2979
g68
(g69
g70
NtRp2980
(dp2981
g73
(dp2982
g81
I3
ssg82
g2976
sg75
(lp2983
g1702
asbasbasbag68
(g84
g70
NtRp2984
(dp2985
g73
(dp2986
sg82
g2452
sg75
(lp2987
g68
(g89
g70
NtRp2988
(dp2989
g73
(dp2990
g93
g94
ssg82
g2984
sg75
(lp2991
S'wsgi.run_once'
p2992
asbag68
(g89
g70
NtRp2993
(dp2994
g73
(dp2995
g100
g101
ssg82
g2984
sg75
(lp2996
S':'
asbag68
(g89
g70
NtRp2997
(dp2998
g73
(dp2999
sg82
g2984
sg75
(lp3000
g68
(g69
g70
NtRp3001
(dp3002
g73
(dp3003
g81
I3
ssg82
g2997
sg75
(lp3004
g111
asbasbasbag68
(g84
g70
NtRp3005
(dp3006
g73
(dp3007
sg82
g2452
sg75
(lp3008
g68
(g89
g70
NtRp3009
(dp3010
g73
(dp3011
g93
g94
ssg82
g3005
sg75
(lp3012
S'wsgi.url_scheme'
p3013
asbag68
(g89
g70
NtRp3014
(dp3015
g73
(dp3016
g100
g101
ssg82
g3005
sg75
(lp3017
S':'
asbag68
(g89
g70
NtRp3018
(dp3019
g73
(dp3020
sg82
g3005
sg75
(lp3021
g68
(g69
g70
NtRp3022
(dp3023
g73
(dp3024
g81
I3
ssg82
g3018
sg75
(lp3025
g1745
asbasbasbag68
(g84
g70
NtRp3026
(dp3027
g73
(dp3028
sg82
g2452
sg75
(lp3029
g68
(g89
g70
NtRp3030
(dp3031
g73
(dp3032
g93
g94
ssg82
g3026
sg75
(lp3033
S'wsgi.version'
p3034
asbag68
(g89
g70
NtRp3035
(dp3036
g73
(dp3037
g100
g101
ssg82
g3026
sg75
(lp3038
S':'
asbag68
(g89
g70
NtRp3039
(dp3040
g73
(dp3041
sg82
g3026
sg75
(lp3042
g68
(g69
g70
NtRp3043
(dp3044
g73
(dp3045
g81
I3
ssg82
g3039
sg75
(lp3046
S'1'
asbasbasbasbasbasbasbasbasbasbasbasbasbsS'frames'
p3047
(lp3048
(dp3049
S'file'
p3050
S'/home/kaique/Projects/web2py/gluon/restricted.py'
p3051
sS'dump'
p3052
(dp3053
S'code'
p3054
S'\'response.write(\\\'<!DOCTYPE html>\\\\n<html lang="\\\', ...nse.write(\\\'\\\\n  </body>\\\\n</html>\\\\n\\\', escape=False)\''
p3055
sS'layer'
p3056
S"'/home/kaique/Projects/web2py/applications/synopsis/views/information/publication.html'"
p3057
sS'global compile2'
p3058
S'<function compile2>'
p3059
sS'ccode'
p3060
S'undefined'
p3061
ssS'lnum'
p3062
I193
sS'lines'
p3063
(dp3064
I192
S'        else:'
p3065
sI193
S'            ccode = compile2(code,layer)'
p3066
sI194
S'        exec ccode in environment'
p3067
sI195
S'    except HTTP:'
p3068
sI196
S'        raise'
p3069
sI197
S'    except Exception, error:'
p3070
sI188
S"    environment['__file__'] = layer"
p3071
sI189
S'    try:'
p3072
sI190
S'        if type(code) == types.CodeType:'
p3073
sI191
S'            ccode = code'
p3074
ssS'call'
p3075
S'(code=\'response.write(\\\'<!DOCTYPE html>\\\\n<html lang="\\\', ...nse.write(\\\'\\\\n  </body>\\\\n</html>\\\\n\\\', escape=False)\', environment={\'A\': <class \'gluon.html.A\'>, \'Auth\': <class \'gluon.tools.Auth\'>, \'B\': <class \'gluon.html.B\'>, \'BEAUTIFY\': <class \'gluon.html.BEAUTIFY\'>, \'BODY\': <class \'gluon.html.BODY\'>, \'BR\': <class \'gluon.html.BR\'>, \'BUTTON\': <class \'gluon.html.BUTTON\'>, \'CAT\': <class \'gluon.html.CAT\'>, \'CENTER\': <class \'gluon.html.CENTER\'>, \'CLEANUP\': <class \'gluon.validators.CLEANUP\'>, ...}, layer=\'/home/kaique/Projects/web2py/applications/synopsis/views/information/publication.html\')'
p3076
sS'func'
p3077
S'restricted'
p3078
sa(dp3079
g3050
S'/home/kaique/Projects/web2py/gluon/restricted.py'
p3080
sg3052
(dp3081
S'builtincompile'
p3082
S'<built-in function compile>'
p3083
sS'code'
p3084
S'\'response.write(\\\'<!DOCTYPE html>\\\\n<html lang="\\\', ...nse.write(\\\'\\\\n  </body>\\\\n</html>\\\\n\\\', escape=False)\''
p3085
sS'code.rstrip'
p3086
S'<built-in method rstrip of str object>'
p3087
sS').replace'
p3088
g3061
sS'layer'
p3089
S"'/home/kaique/Projects/web2py/applications/synopsis/views/information/publication.html'"
p3090
ssg3062
I179
sg3063
(dp3091
I174
S''
sI175
S'def compile2(code,layer):'
p3092
sI176
S'    """'
p3093
sI177
S"    The +'\\n' is necessary else compile fails when code ends in a comment."
p3094
sI178
S'    """'
p3095
sI179
S"    return compile(code.rstrip().replace('\\r\\n','\\n')+'\\n', layer, 'exec')"
p3096
sI180
S''
sI181
S"def restricted(code, environment=None, layer='Unknown'):"
p3097
sI182
S'    """'
p3098
sI183
S'    runs code in environment and returns the output. if an exception occurs'
p3099
ssg3075
S'(code=\'response.write(\\\'<!DOCTYPE html>\\\\n<html lang="\\\', ...nse.write(\\\'\\\\n  </body>\\\\n</html>\\\\n\\\', escape=False)\', layer=\'/home/kaique/Projects/web2py/applications/synopsis/views/information/publication.html\')'
p3100
sg3077
S'compile2'
p3101
sasS'pyver'
p3102
S'Python 2.7.2+: /usr/bin/python'
p3103
sS'session'
p3104
g68
(g69
g70
NtRp3105
(dp3106
g73
(dp3107
sg75
(lp3108
g68
(g77
g70
NtRp3109
(dp3110
g73
(dp3111
g81
I5
ssg82
Nsg75
(lp3112
g68
(g84
g70
NtRp3113
(dp3114
g73
(dp3115
sg82
g3109
sg75
(lp3116
g68
(g89
g70
NtRp3117
(dp3118
g73
(dp3119
g93
g94
ssg82
g3113
sg75
(lp3120
S'auth'
p3121
asbag68
(g89
g70
NtRp3122
(dp3123
g73
(dp3124
g100
g101
ssg82
g3113
sg75
(lp3125
S':'
asbag68
(g89
g70
NtRp3126
(dp3127
g73
(dp3128
sg82
g3113
sg75
(lp3129
g68
(g69
g70
NtRp3130
(dp3131
g73
(dp3132
g81
I5
ssg82
g3126
sg75
(lp3133
g68
(g77
g70
NtRp3134
(dp3135
g73
(dp3136
g81
I4
ssg82
Nsg75
(lp3137
g68
(g84
g70
NtRp3138
(dp3139
g73
(dp3140
sg82
g3134
sg75
(lp3141
g68
(g89
g70
NtRp3142
(dp3143
g73
(dp3144
g93
g94
ssg82
g3138
sg75
(lp3145
S'expiration'
p3146
asbag68
(g89
g70
NtRp3147
(dp3148
g73
(dp3149
g100
g101
ssg82
g3138
sg75
(lp3150
S':'
asbag68
(g89
g70
NtRp3151
(dp3152
g73
(dp3153
sg82
g3138
sg75
(lp3154
g68
(g69
g70
NtRp3155
(dp3156
g73
(dp3157
g81
I4
ssg82
g3151
sg75
(lp3158
S'2592000'
p3159
asbasbasbag68
(g84
g70
NtRp3160
(dp3161
g73
(dp3162
sg82
g3134
sg75
(lp3163
g68
(g89
g70
NtRp3164
(dp3165
g73
(dp3166
g93
g94
ssg82
g3160
sg75
(lp3167
S'hmac_key'
p3168
asbag68
(g89
g70
NtRp3169
(dp3170
g73
(dp3171
g100
g101
ssg82
g3160
sg75
(lp3172
S':'
asbag68
(g89
g70
NtRp3173
(dp3174
g73
(dp3175
sg82
g3160
sg75
(lp3176
g68
(g69
g70
NtRp3177
(dp3178
g73
(dp3179
g81
I4
ssg82
g3173
sg75
(lp3180
S'4c32a183-7118-47f6-ab0b-21a33c2fc6ab'
p3181
asbasbasbag68
(g84
g70
NtRp3182
(dp3183
g73
(dp3184
sg82
g3134
sg75
(lp3185
g68
(g89
g70
NtRp3186
(dp3187
g73
(dp3188
g93
g94
ssg82
g3182
sg75
(lp3189
S'last_visit'
p3190
asbag68
(g89
g70
NtRp3191
(dp3192
g73
(dp3193
g100
g101
ssg82
g3182
sg75
(lp3194
S':'
asbag68
(g89
g70
NtRp3195
(dp3196
g73
(dp3197
sg82
g3182
sg75
(lp3198
g68
(g69
g70
NtRp3199
(dp3200
g73
(dp3201
g81
I4
ssg82
g3195
sg75
(lp3202
S'datetime.datetime(2012, 1, 11, 22, 1, 29, 654193)'
p3203
asbasbasbag68
(g84
g70
NtRp3204
(dp3205
g73
(dp3206
sg82
g3134
sg75
(lp3207
g68
(g89
g70
NtRp3208
(dp3209
g73
(dp3210
g93
g94
ssg82
g3204
sg75
(lp3211
S'remember'
p3212
asbag68
(g89
g70
NtRp3213
(dp3214
g73
(dp3215
g100
g101
ssg82
g3204
sg75
(lp3216
S':'
asbag68
(g89
g70
NtRp3217
(dp3218
g73
(dp3219
sg82
g3204
sg75
(lp3220
g68
(g69
g70
NtRp3221
(dp3222
g73
(dp3223
g81
I4
ssg82
g3217
sg75
(lp3224
g111
asbasbasbag68
(g84
g70
NtRp3225
(dp3226
g73
(dp3227
sg82
g3134
sg75
(lp3228
g68
(g89
g70
NtRp3229
(dp3230
g73
(dp3231
g93
g94
ssg82
g3225
sg75
(lp3232
S'user'
p3233
asbag68
(g89
g70
NtRp3234
(dp3235
g73
(dp3236
g100
g101
ssg82
g3225
sg75
(lp3237
S':'
asbag68
(g89
g70
NtRp3238
(dp3239
g73
(dp3240
sg82
g3225
sg75
(lp3241
g68
(g69
g70
NtRp3242
(dp3243
g73
(dp3244
g81
I4
ssg82
g3238
sg75
(lp3245
g68
(g77
g70
NtRp3246
(dp3247
g73
(dp3248
g81
I3
ssg82
Nsg75
(lp3249
g68
(g84
g70
NtRp3250
(dp3251
g73
(dp3252
sg82
g3246
sg75
(lp3253
g68
(g89
g70
NtRp3254
(dp3255
g73
(dp3256
g93
g94
ssg82
g3250
sg75
(lp3257
S'email'
p3258
asbag68
(g89
g70
NtRp3259
(dp3260
g73
(dp3261
g100
g101
ssg82
g3250
sg75
(lp3262
S':'
asbag68
(g89
g70
NtRp3263
(dp3264
g73
(dp3265
sg82
g3250
sg75
(lp3266
g68
(g69
g70
NtRp3267
(dp3268
g73
(dp3269
g81
I3
ssg82
g3263
sg75
(lp3270
S'kaique.developer@gmail.com'
p3271
asbasbasbag68
(g84
g70
NtRp3272
(dp3273
g73
(dp3274
sg82
g3246
sg75
(lp3275
g68
(g89
g70
NtRp3276
(dp3277
g73
(dp3278
g93
g94
ssg82
g3272
sg75
(lp3279
S'first_name'
p3280
asbag68
(g89
g70
NtRp3281
(dp3282
g73
(dp3283
g100
g101
ssg82
g3272
sg75
(lp3284
S':'
asbag68
(g89
g70
NtRp3285
(dp3286
g73
(dp3287
sg82
g3272
sg75
(lp3288
g68
(g69
g70
NtRp3289
(dp3290
g73
(dp3291
g81
I3
ssg82
g3285
sg75
(lp3292
S'kaique'
p3293
asbasbasbag68
(g84
g70
NtRp3294
(dp3295
g73
(dp3296
sg82
g3246
sg75
(lp3297
g68
(g89
g70
NtRp3298
(dp3299
g73
(dp3300
g93
g94
ssg82
g3294
sg75
(lp3301
S'id'
p3302
asbag68
(g89
g70
NtRp3303
(dp3304
g73
(dp3305
g100
g101
ssg82
g3294
sg75
(lp3306
S':'
asbag68
(g89
g70
NtRp3307
(dp3308
g73
(dp3309
sg82
g3294
sg75
(lp3310
g68
(g69
g70
NtRp3311
(dp3312
g73
(dp3313
g81
I3
ssg82
g3307
sg75
(lp3314
S'1'
asbasbasbag68
(g84
g70
NtRp3315
(dp3316
g73
(dp3317
sg82
g3246
sg75
(lp3318
g68
(g89
g70
NtRp3319
(dp3320
g73
(dp3321
g93
g94
ssg82
g3315
sg75
(lp3322
S'last_name'
p3323
asbag68
(g89
g70
NtRp3324
(dp3325
g73
(dp3326
g100
g101
ssg82
g3315
sg75
(lp3327
S':'
asbag68
(g89
g70
NtRp3328
(dp3329
g73
(dp3330
sg82
g3315
sg75
(lp3331
g68
(g69
g70
NtRp3332
(dp3333
g73
(dp3334
g81
I3
ssg82
g3328
sg75
(lp3335
S'silva'
p3336
asbasbasbag68
(g84
g70
NtRp3337
(dp3338
g73
(dp3339
sg82
g3246
sg75
(lp3340
g68
(g89
g70
NtRp3341
(dp3342
g73
(dp3343
g93
g94
ssg82
g3337
sg75
(lp3344
S'password'
p3345
asbag68
(g89
g70
NtRp3346
(dp3347
g73
(dp3348
g100
g101
ssg82
g3337
sg75
(lp3349
S':'
asbag68
(g89
g70
NtRp3350
(dp3351
g73
(dp3352
sg82
g3337
sg75
(lp3353
g68
(g69
g70
NtRp3354
(dp3355
g73
(dp3356
g81
I3
ssg82
g3350
sg75
(lp3357
S'72c6a018d62d3fb47d95389e4a062cd2'
p3358
asbasbasbag68
(g84
g70
NtRp3359
(dp3360
g73
(dp3361
sg82
g3246
sg75
(lp3362
g68
(g89
g70
NtRp3363
(dp3364
g73
(dp3365
g93
g94
ssg82
g3359
sg75
(lp3366
S'registration_key'
p3367
asbag68
(g89
g70
NtRp3368
(dp3369
g73
(dp3370
g100
g101
ssg82
g3359
sg75
(lp3371
S':'
asbag68
(g89
g70
NtRp3372
(dp3373
g73
(dp3374
sg82
g3359
sg75
(lp3375
g68
(g69
g70
NtRp3376
(dp3377
g73
(dp3378
g81
I3
ssg82
g3372
sg75
(lp3379
S''
asbasbasbag68
(g84
g70
NtRp3380
(dp3381
g73
(dp3382
sg82
g3246
sg75
(lp3383
g68
(g89
g70
NtRp3384
(dp3385
g73
(dp3386
g93
g94
ssg82
g3380
sg75
(lp3387
S'reset_password_key'
p3388
asbag68
(g89
g70
NtRp3389
(dp3390
g73
(dp3391
g100
g101
ssg82
g3380
sg75
(lp3392
S':'
asbag68
(g89
g70
NtRp3393
(dp3394
g73
(dp3395
sg82
g3380
sg75
(lp3396
g68
(g69
g70
NtRp3397
(dp3398
g73
(dp3399
g81
I3
ssg82
g3393
sg75
(lp3400
S''
asbasbasbasbasbasbasbasbasbasbasbag68
(g84
g70
NtRp3401
(dp3402
g73
(dp3403
sg82
g3109
sg75
(lp3404
g68
(g89
g70
NtRp3405
(dp3406
g73
(dp3407
g93
g94
ssg82
g3401
sg75
(lp3408
S'last_orderby'
p3409
asbag68
(g89
g70
NtRp3410
(dp3411
g73
(dp3412
g100
g101
ssg82
g3401
sg75
(lp3413
S':'
asbag68
(g89
g70
NtRp3414
(dp3415
g73
(dp3416
sg82
g3401
sg75
(lp3417
g68
(g69
g70
NtRp3418
(dp3419
g73
(dp3420
g81
I5
ssg82
g3414
sg75
(lp3421
S'db.subject.id'
p3422
asbasbasbag68
(g84
g70
NtRp3423
(dp3424
g73
(dp3425
sg82
g3109
sg75
(lp3426
g68
(g89
g70
NtRp3427
(dp3428
g73
(dp3429
g93
g94
ssg82
g3423
sg75
(lp3430
S'last_query'
p3431
asbag68
(g89
g70
NtRp3432
(dp3433
g73
(dp3434
g100
g101
ssg82
g3423
sg75
(lp3435
S':'
asbag68
(g89
g70
NtRp3436
(dp3437
g73
(dp3438
sg82
g3423
sg75
(lp3439
g68
(g69
g70
NtRp3440
(dp3441
g73
(dp3442
g81
I5
ssg82
g3436
sg75
(lp3443
S'db.subject.id==1'
p3444
asbasbasbasbasbsS'etype'
p3445
S"<type 'exceptions.SyntaxError'>"
p3446
sS'date'
p3447
S'Thu Jan 12 09:19:44 2012'
p3448
sS'response'
p3449
g68
(g69
g70
NtRp3450
(dp3451
g73
(dp3452
sg75
(lp3453
g68
(g77
g70
NtRp3454
(dp3455
g73
(dp3456
g81
I5
ssg82
Nsg75
(lp3457
g68
(g84
g70
NtRp3458
(dp3459
g73
(dp3460
sg82
g3454
sg75
(lp3461
g68
(g89
g70
NtRp3462
(dp3463
g73
(dp3464
g93
g94
ssg82
g3458
sg75
(lp3465
g178
asbag68
(g89
g70
NtRp3466
(dp3467
g73
(dp3468
g100
g101
ssg82
g3458
sg75
(lp3469
S':'
asbag68
(g89
g70
NtRp3470
(dp3471
g73
(dp3472
sg82
g3458
sg75
(lp3473
g68
(g69
g70
NtRp3474
(dp3475
g73
(dp3476
g81
I5
ssg82
g3470
sg75
(lp3477
S'<cStringIO.StringO object at 0x36c6570>'
p3478
asbasbasbag68
(g84
g70
NtRp3479
(dp3480
g73
(dp3481
sg82
g3454
sg75
(lp3482
g68
(g89
g70
NtRp3483
(dp3484
g73
(dp3485
g93
g94
ssg82
g3479
sg75
(lp3486
g244
asbag68
(g89
g70
NtRp3487
(dp3488
g73
(dp3489
g100
g101
ssg82
g3479
sg75
(lp3490
S':'
asbag68
(g89
g70
NtRp3491
(dp3492
g73
(dp3493
sg82
g3479
sg75
(lp3494
g68
(g69
g70
NtRp3495
(dp3496
g73
(dp3497
g81
I5
ssg82
g3491
sg75
(lp3498
g68
(g77
g70
NtRp3499
(dp3500
g73
(dp3501
g81
I4
ssg82
Nsg75
(lp3502
g68
(g84
g70
NtRp3503
(dp3504
g73
(dp3505
sg82
g3499
sg75
(lp3506
g68
(g89
g70
NtRp3507
(dp3508
g73
(dp3509
g93
g94
ssg82
g3503
sg75
(lp3510
S'session_id_synopsis'
p3511
asbag68
(g89
g70
NtRp3512
(dp3513
g73
(dp3514
g100
g101
ssg82
g3503
sg75
(lp3515
S':'
asbag68
(g89
g70
NtRp3516
(dp3517
g73
(dp3518
sg82
g3503
sg75
(lp3519
g68
(g69
g70
NtRp3520
(dp3521
g73
(dp3522
g81
I4
ssg82
g3516
sg75
(lp3523
g68
(g77
g70
NtRp3524
(dp3525
g73
(dp3526
g81
I3
ssg82
Nsg75
(lp3527
g68
(g84
g70
NtRp3528
(dp3529
g73
(dp3530
sg82
g3524
sg75
(lp3531
g68
(g89
g70
NtRp3532
(dp3533
g73
(dp3534
g93
g94
ssg82
g3528
sg75
(lp3535
g294
asbag68
(g89
g70
NtRp3536
(dp3537
g73
(dp3538
g100
g101
ssg82
g3528
sg75
(lp3539
S':'
asbag68
(g89
g70
NtRp3540
(dp3541
g73
(dp3542
sg82
g3528
sg75
(lp3543
g68
(g69
g70
NtRp3544
(dp3545
g73
(dp3546
g81
I3
ssg82
g3540
sg75
(lp3547
S''
asbasbasbag68
(g84
g70
NtRp3548
(dp3549
g73
(dp3550
sg82
g3524
sg75
(lp3551
g68
(g89
g70
NtRp3552
(dp3553
g73
(dp3554
g93
g94
ssg82
g3548
sg75
(lp3555
g315
asbag68
(g89
g70
NtRp3556
(dp3557
g73
(dp3558
g100
g101
ssg82
g3548
sg75
(lp3559
S':'
asbag68
(g89
g70
NtRp3560
(dp3561
g73
(dp3562
sg82
g3548
sg75
(lp3563
g68
(g69
g70
NtRp3564
(dp3565
g73
(dp3566
g81
I3
ssg82
g3560
sg75
(lp3567
S''
asbasbasbag68
(g84
g70
NtRp3568
(dp3569
g73
(dp3570
sg82
g3524
sg75
(lp3571
g68
(g89
g70
NtRp3572
(dp3573
g73
(dp3574
g93
g94
ssg82
g3568
sg75
(lp3575
g336
asbag68
(g89
g70
NtRp3576
(dp3577
g73
(dp3578
g100
g101
ssg82
g3568
sg75
(lp3579
S':'
asbag68
(g89
g70
NtRp3580
(dp3581
g73
(dp3582
sg82
g3568
sg75
(lp3583
g68
(g69
g70
NtRp3584
(dp3585
g73
(dp3586
g81
I3
ssg82
g3580
sg75
(lp3587
S''
asbasbasbag68
(g84
g70
NtRp3588
(dp3589
g73
(dp3590
sg82
g3524
sg75
(lp3591
g68
(g89
g70
NtRp3592
(dp3593
g73
(dp3594
g93
g94
ssg82
g3588
sg75
(lp3595
g357
asbag68
(g89
g70
NtRp3596
(dp3597
g73
(dp3598
g100
g101
ssg82
g3588
sg75
(lp3599
S':'
asbag68
(g89
g70
NtRp3600
(dp3601
g73
(dp3602
sg82
g3588
sg75
(lp3603
g68
(g69
g70
NtRp3604
(dp3605
g73
(dp3606
g81
I3
ssg82
g3600
sg75
(lp3607
S''
asbasbasbag68
(g84
g70
NtRp3608
(dp3609
g73
(dp3610
sg82
g3524
sg75
(lp3611
g68
(g89
g70
NtRp3612
(dp3613
g73
(dp3614
g93
g94
ssg82
g3608
sg75
(lp3615
g378
asbag68
(g89
g70
NtRp3616
(dp3617
g73
(dp3618
g100
g101
ssg82
g3608
sg75
(lp3619
S':'
asbag68
(g89
g70
NtRp3620
(dp3621
g73
(dp3622
sg82
g3608
sg75
(lp3623
g68
(g69
g70
NtRp3624
(dp3625
g73
(dp3626
g81
I3
ssg82
g3620
sg75
(lp3627
S''
asbasbasbag68
(g84
g70
NtRp3628
(dp3629
g73
(dp3630
sg82
g3524
sg75
(lp3631
g68
(g89
g70
NtRp3632
(dp3633
g73
(dp3634
g93
g94
ssg82
g3628
sg75
(lp3635
g399
asbag68
(g89
g70
NtRp3636
(dp3637
g73
(dp3638
g100
g101
ssg82
g3628
sg75
(lp3639
S':'
asbag68
(g89
g70
NtRp3640
(dp3641
g73
(dp3642
sg82
g3628
sg75
(lp3643
g68
(g69
g70
NtRp3644
(dp3645
g73
(dp3646
g81
I3
ssg82
g3640
sg75
(lp3647
S'/'
asbasbasbag68
(g84
g70
NtRp3648
(dp3649
g73
(dp3650
sg82
g3524
sg75
(lp3651
g68
(g89
g70
NtRp3652
(dp3653
g73
(dp3654
g93
g94
ssg82
g3648
sg75
(lp3655
g420
asbag68
(g89
g70
NtRp3656
(dp3657
g73
(dp3658
g100
g101
ssg82
g3648
sg75
(lp3659
S':'
asbag68
(g89
g70
NtRp3660
(dp3661
g73
(dp3662
sg82
g3648
sg75
(lp3663
g68
(g69
g70
NtRp3664
(dp3665
g73
(dp3666
g81
I3
ssg82
g3660
sg75
(lp3667
S''
asbasbasbag68
(g84
g70
NtRp3668
(dp3669
g73
(dp3670
sg82
g3524
sg75
(lp3671
g68
(g89
g70
NtRp3672
(dp3673
g73
(dp3674
g93
g94
ssg82
g3668
sg75
(lp3675
g441
asbag68
(g89
g70
NtRp3676
(dp3677
g73
(dp3678
g100
g101
ssg82
g3668
sg75
(lp3679
S':'
asbag68
(g89
g70
NtRp3680
(dp3681
g73
(dp3682
sg82
g3668
sg75
(lp3683
g68
(g69
g70
NtRp3684
(dp3685
g73
(dp3686
g81
I3
ssg82
g3680
sg75
(lp3687
S''
asbasbasbasbasbasbasbasbasbasbasbag68
(g84
g70
NtRp3688
(dp3689
g73
(dp3690
sg82
g3454
sg75
(lp3691
g68
(g89
g70
NtRp3692
(dp3693
g73
(dp3694
g93
g94
ssg82
g3688
sg75
(lp3695
S'files'
p3696
asbag68
(g89
g70
NtRp3697
(dp3698
g73
(dp3699
g100
g101
ssg82
g3688
sg75
(lp3700
S':'
asbag68
(g89
g70
NtRp3701
(dp3702
g73
(dp3703
sg82
g3688
sg75
(lp3704
g68
(g69
g70
NtRp3705
(dp3706
g73
(dp3707
g81
I5
ssg82
g3701
sg75
(lp3708
g68
(g77
g70
NtRp3709
(dp3710
g73
(dp3711
g81
I4
ssg82
Nsg75
(lp3712
sbasbasbasbag68
(g84
g70
NtRp3713
(dp3714
g73
(dp3715
sg82
g3454
sg75
(lp3716
g68
(g89
g70
NtRp3717
(dp3718
g73
(dp3719
g93
g94
ssg82
g3713
sg75
(lp3720
S'flash'
p3721
asbag68
(g89
g70
NtRp3722
(dp3723
g73
(dp3724
g100
g101
ssg82
g3713
sg75
(lp3725
S':'
asbag68
(g89
g70
NtRp3726
(dp3727
g73
(dp3728
sg82
g3713
sg75
(lp3729
g68
(g69
g70
NtRp3730
(dp3731
g73
(dp3732
g81
I5
ssg82
g3726
sg75
(lp3733
S''
asbasbasbag68
(g84
g70
NtRp3734
(dp3735
g73
(dp3736
sg82
g3454
sg75
(lp3737
g68
(g89
g70
NtRp3738
(dp3739
g73
(dp3740
g93
g94
ssg82
g3734
sg75
(lp3741
S'generic_patterns'
p3742
asbag68
(g89
g70
NtRp3743
(dp3744
g73
(dp3745
g100
g101
ssg82
g3734
sg75
(lp3746
S':'
asbag68
(g89
g70
NtRp3747
(dp3748
g73
(dp3749
sg82
g3734
sg75
(lp3750
g68
(g69
g70
NtRp3751
(dp3752
g73
(dp3753
g81
I5
ssg82
g3747
sg75
(lp3754
g68
(g77
g70
NtRp3755
(dp3756
g73
(dp3757
g81
I4
ssg82
Nsg75
(lp3758
g68
(g84
g70
NtRp3759
(dp3760
g73
(dp3761
sg82
g3755
sg75
(lp3762
g68
(g89
g70
NtRp3763
(dp3764
g73
(dp3765
sg82
g3759
sg75
(lp3766
g68
(g69
g70
NtRp3767
(dp3768
g73
(dp3769
g81
I4
ssg82
g3763
sg75
(lp3770
S'*'
asbasbasbasbasbasbasbag68
(g84
g70
NtRp3771
(dp3772
g73
(dp3773
sg82
g3454
sg75
(lp3774
g68
(g89
g70
NtRp3775
(dp3776
g73
(dp3777
g93
g94
ssg82
g3771
sg75
(lp3778
S'headers'
p3779
asbag68
(g89
g70
NtRp3780
(dp3781
g73
(dp3782
g100
g101
ssg82
g3771
sg75
(lp3783
S':'
asbag68
(g89
g70
NtRp3784
(dp3785
g73
(dp3786
sg82
g3771
sg75
(lp3787
g68
(g69
g70
NtRp3788
(dp3789
g73
(dp3790
g81
I5
ssg82
g3784
sg75
(lp3791
g68
(g77
g70
NtRp3792
(dp3793
g73
(dp3794
g81
I4
ssg82
Nsg75
(lp3795
g68
(g84
g70
NtRp3796
(dp3797
g73
(dp3798
sg82
g3792
sg75
(lp3799
g68
(g89
g70
NtRp3800
(dp3801
g73
(dp3802
g93
g94
ssg82
g3796
sg75
(lp3803
S'Cache-Control'
p3804
asbag68
(g89
g70
NtRp3805
(dp3806
g73
(dp3807
g100
g101
ssg82
g3796
sg75
(lp3808
S':'
asbag68
(g89
g70
NtRp3809
(dp3810
g73
(dp3811
sg82
g3796
sg75
(lp3812
g68
(g69
g70
NtRp3813
(dp3814
g73
(dp3815
g81
I4
ssg82
g3809
sg75
(lp3816
S'no-store, no-cache, must-revalidate, post-check=0, pre-check=0'
p3817
asbasbasbag68
(g84
g70
NtRp3818
(dp3819
g73
(dp3820
sg82
g3792
sg75
(lp3821
g68
(g89
g70
NtRp3822
(dp3823
g73
(dp3824
g93
g94
ssg82
g3818
sg75
(lp3825
S'Content-Type'
p3826
asbag68
(g89
g70
NtRp3827
(dp3828
g73
(dp3829
g100
g101
ssg82
g3818
sg75
(lp3830
S':'
asbag68
(g89
g70
NtRp3831
(dp3832
g73
(dp3833
sg82
g3818
sg75
(lp3834
g68
(g69
g70
NtRp3835
(dp3836
g73
(dp3837
g81
I4
ssg82
g3831
sg75
(lp3838
S'text/html; charset=utf-8'
p3839
asbasbasbag68
(g84
g70
NtRp3840
(dp3841
g73
(dp3842
sg82
g3792
sg75
(lp3843
g68
(g89
g70
NtRp3844
(dp3845
g73
(dp3846
g93
g94
ssg82
g3840
sg75
(lp3847
S'Expires'
p3848
asbag68
(g89
g70
NtRp3849
(dp3850
g73
(dp3851
g100
g101
ssg82
g3840
sg75
(lp3852
S':'
asbag68
(g89
g70
NtRp3853
(dp3854
g73
(dp3855
sg82
g3840
sg75
(lp3856
g68
(g69
g70
NtRp3857
(dp3858
g73
(dp3859
g81
I4
ssg82
g3853
sg75
(lp3860
S'Thu, 12 Jan 2012 11:19:44 GMT'
p3861
asbasbasbag68
(g84
g70
NtRp3862
(dp3863
g73
(dp3864
sg82
g3792
sg75
(lp3865
g68
(g89
g70
NtRp3866
(dp3867
g73
(dp3868
g93
g94
ssg82
g3862
sg75
(lp3869
S'Pragma'
p3870
asbag68
(g89
g70
NtRp3871
(dp3872
g73
(dp3873
g100
g101
ssg82
g3862
sg75
(lp3874
S':'
asbag68
(g89
g70
NtRp3875
(dp3876
g73
(dp3877
sg82
g3862
sg75
(lp3878
g68
(g69
g70
NtRp3879
(dp3880
g73
(dp3881
g81
I4
ssg82
g3875
sg75
(lp3882
S'no-cache'
p3883
asbasbasbag68
(g84
g70
NtRp3884
(dp3885
g73
(dp3886
sg82
g3792
sg75
(lp3887
g68
(g89
g70
NtRp3888
(dp3889
g73
(dp3890
g93
g94
ssg82
g3884
sg75
(lp3891
S'X-Powered-By'
p3892
asbag68
(g89
g70
NtRp3893
(dp3894
g73
(dp3895
g100
g101
ssg82
g3884
sg75
(lp3896
S':'
asbag68
(g89
g70
NtRp3897
(dp3898
g73
(dp3899
sg82
g3884
sg75
(lp3900
g68
(g69
g70
NtRp3901
(dp3902
g73
(dp3903
g81
I4
ssg82
g3897
sg75
(lp3904
S'web2py'
p3905
asbasbasbasbasbasbasbag68
(g84
g70
NtRp3906
(dp3907
g73
(dp3908
sg82
g3454
sg75
(lp3909
g68
(g89
g70
NtRp3910
(dp3911
g73
(dp3912
g93
g94
ssg82
g3906
sg75
(lp3913
S'menu'
p3914
asbag68
(g89
g70
NtRp3915
(dp3916
g73
(dp3917
g100
g101
ssg82
g3906
sg75
(lp3918
S':'
asbag68
(g89
g70
NtRp3919
(dp3920
g73
(dp3921
sg82
g3906
sg75
(lp3922
g68
(g69
g70
NtRp3923
(dp3924
g73
(dp3925
g81
I5
ssg82
g3919
sg75
(lp3926
g68
(g77
g70
NtRp3927
(dp3928
g73
(dp3929
g81
I4
ssg82
Nsg75
(lp3930
g68
(g84
g70
NtRp3931
(dp3932
g73
(dp3933
sg82
g3927
sg75
(lp3934
g68
(g89
g70
NtRp3935
(dp3936
g73
(dp3937
sg82
g3931
sg75
(lp3938
g68
(g69
g70
NtRp3939
(dp3940
g73
(dp3941
g81
I4
ssg82
g3935
sg75
(lp3942
g68
(g77
g70
NtRp3943
(dp3944
g73
(dp3945
g81
I3
ssg82
Nsg75
(lp3946
g68
(g84
g70
NtRp3947
(dp3948
g73
(dp3949
sg82
g3943
sg75
(lp3950
g68
(g89
g70
NtRp3951
(dp3952
g73
(dp3953
sg82
g3947
sg75
(lp3954
g68
(g69
g70
NtRp3955
(dp3956
g73
(dp3957
g81
I3
ssg82
g3951
sg75
(lp3958
cgluon.languages
lazyT_unpickle
p3959
(S't\x04\x00\x00\x00Home'
tRp3960
asbasbasbag68
(g84
g70
NtRp3961
(dp3962
g73
(dp3963
sg82
g3943
sg75
(lp3964
g68
(g89
g70
NtRp3965
(dp3966
g73
(dp3967
sg82
g3961
sg75
(lp3968
g68
(g69
g70
NtRp3969
(dp3970
g73
(dp3971
g81
I3
ssg82
g3965
sg75
(lp3972
g111
asbasbasbag68
(g84
g70
NtRp3973
(dp3974
g73
(dp3975
sg82
g3943
sg75
(lp3976
g68
(g89
g70
NtRp3977
(dp3978
g73
(dp3979
sg82
g3973
sg75
(lp3980
g68
(g69
g70
NtRp3981
(dp3982
g73
(dp3983
g81
I3
ssg82
g3977
sg75
(lp3984
S'/synopsis/default/index'
p3985
asbasbasbag68
(g84
g70
NtRp3986
(dp3987
g73
(dp3988
sg82
g3943
sg75
(lp3989
g68
(g89
g70
NtRp3990
(dp3991
g73
(dp3992
sg82
g3986
sg75
(lp3993
g68
(g69
g70
NtRp3994
(dp3995
g73
(dp3996
g81
I3
ssg82
g3990
sg75
(lp3997
g68
(g77
g70
NtRp3998
(dp3999
g73
(dp4000
g81
I2
ssg82
Nsg75
(lp4001
sbasbasbasbasbasbasbasbag68
(g84
g70
NtRp4002
(dp4003
g73
(dp4004
sg82
g3927
sg75
(lp4005
g68
(g89
g70
NtRp4006
(dp4007
g73
(dp4008
sg82
g4002
sg75
(lp4009
g68
(g69
g70
NtRp4010
(dp4011
g73
(dp4012
g81
I4
ssg82
g4006
sg75
(lp4013
g68
(g77
g70
NtRp4014
(dp4015
g73
(dp4016
g81
I3
ssg82
Nsg75
(lp4017
g68
(g84
g70
NtRp4018
(dp4019
g73
(dp4020
sg82
g4014
sg75
(lp4021
g68
(g89
g70
NtRp4022
(dp4023
g73
(dp4024
sg82
g4018
sg75
(lp4025
g68
(g69
g70
NtRp4026
(dp4027
g73
(dp4028
g81
I3
ssg82
g4022
sg75
(lp4029
g3959
(S't\x0b\x00\x00\x00Information'
tRp4030
asbasbasbag68
(g84
g70
NtRp4031
(dp4032
g73
(dp4033
sg82
g4014
sg75
(lp4034
g68
(g89
g70
NtRp4035
(dp4036
g73
(dp4037
sg82
g4031
sg75
(lp4038
g68
(g69
g70
NtRp4039
(dp4040
g73
(dp4041
g81
I3
ssg82
g4035
sg75
(lp4042
g111
asbasbasbag68
(g84
g70
NtRp4043
(dp4044
g73
(dp4045
sg82
g4014
sg75
(lp4046
g68
(g89
g70
NtRp4047
(dp4048
g73
(dp4049
sg82
g4043
sg75
(lp4050
g68
(g69
g70
NtRp4051
(dp4052
g73
(dp4053
g81
I3
ssg82
g4047
sg75
(lp4054
S'/synopsis/information/index'
p4055
asbasbasbag68
(g84
g70
NtRp4056
(dp4057
g73
(dp4058
sg82
g4014
sg75
(lp4059
g68
(g89
g70
NtRp4060
(dp4061
g73
(dp4062
sg82
g4056
sg75
(lp4063
g68
(g69
g70
NtRp4064
(dp4065
g73
(dp4066
g81
I3
ssg82
g4060
sg75
(lp4067
g68
(g77
g70
NtRp4068
(dp4069
g73
(dp4070
g81
I2
ssg82
Nsg75
(lp4071
sbasbasbasbasbasbasbasbag68
(g84
g70
NtRp4072
(dp4073
g73
(dp4074
sg82
g3927
sg75
(lp4075
g68
(g89
g70
NtRp4076
(dp4077
g73
(dp4078
sg82
g4072
sg75
(lp4079
g68
(g69
g70
NtRp4080
(dp4081
g73
(dp4082
g81
I4
ssg82
g4076
sg75
(lp4083
g68
(g77
g70
NtRp4084
(dp4085
g73
(dp4086
g81
I3
ssg82
Nsg75
(lp4087
g68
(g84
g70
NtRp4088
(dp4089
g73
(dp4090
sg82
g4084
sg75
(lp4091
g68
(g89
g70
NtRp4092
(dp4093
g73
(dp4094
sg82
g4088
sg75
(lp4095
g68
(g69
g70
NtRp4096
(dp4097
g73
(dp4098
g81
I3
ssg82
g4092
sg75
(lp4099
g3959
(S't\x05\x00\x00\x00About'
tRp4100
asbasbasbag68
(g84
g70
NtRp4101
(dp4102
g73
(dp4103
sg82
g4084
sg75
(lp4104
g68
(g89
g70
NtRp4105
(dp4106
g73
(dp4107
sg82
g4101
sg75
(lp4108
g68
(g69
g70
NtRp4109
(dp4110
g73
(dp4111
g81
I3
ssg82
g4105
sg75
(lp4112
g111
asbasbasbag68
(g84
g70
NtRp4113
(dp4114
g73
(dp4115
sg82
g4084
sg75
(lp4116
g68
(g89
g70
NtRp4117
(dp4118
g73
(dp4119
sg82
g4113
sg75
(lp4120
g68
(g69
g70
NtRp4121
(dp4122
g73
(dp4123
g81
I3
ssg82
g4117
sg75
(lp4124
S'/synopsis/about/index'
p4125
asbasbasbag68
(g84
g70
NtRp4126
(dp4127
g73
(dp4128
sg82
g4084
sg75
(lp4129
g68
(g89
g70
NtRp4130
(dp4131
g73
(dp4132
sg82
g4126
sg75
(lp4133
g68
(g69
g70
NtRp4134
(dp4135
g73
(dp4136
g81
I3
ssg82
g4130
sg75
(lp4137
g68
(g77
g70
NtRp4138
(dp4139
g73
(dp4140
g81
I2
ssg82
Nsg75
(lp4141
sbasbasbasbasbasbasbasbasbasbasbasbag68
(g84
g70
NtRp4142
(dp4143
g73
(dp4144
sg82
g3454
sg75
(lp4145
g68
(g89
g70
NtRp4146
(dp4147
g73
(dp4148
g93
g94
ssg82
g4142
sg75
(lp4149
S'meta'
p4150
asbag68
(g89
g70
NtRp4151
(dp4152
g73
(dp4153
g100
g101
ssg82
g4142
sg75
(lp4154
S':'
asbag68
(g89
g70
NtRp4155
(dp4156
g73
(dp4157
sg82
g4142
sg75
(lp4158
g68
(g69
g70
NtRp4159
(dp4160
g73
(dp4161
g81
I5
ssg82
g4155
sg75
(lp4162
g68
(g77
g70
NtRp4163
(dp4164
g73
(dp4165
g81
I4
ssg82
Nsg75
(lp4166
g68
(g84
g70
NtRp4167
(dp4168
g73
(dp4169
sg82
g4163
sg75
(lp4170
g68
(g89
g70
NtRp4171
(dp4172
g73
(dp4173
g93
g94
ssg82
g4167
sg75
(lp4174
S'author'
p4175
asbag68
(g89
g70
NtRp4176
(dp4177
g73
(dp4178
g100
g101
ssg82
g4167
sg75
(lp4179
S':'
asbag68
(g89
g70
NtRp4180
(dp4181
g73
(dp4182
sg82
g4167
sg75
(lp4183
g68
(g69
g70
NtRp4184
(dp4185
g73
(dp4186
g81
I4
ssg82
g4180
sg75
(lp4187
S'Your Name <you@example.com>'
p4188
asbasbasbag68
(g84
g70
NtRp4189
(dp4190
g73
(dp4191
sg82
g4163
sg75
(lp4192
g68
(g89
g70
NtRp4193
(dp4194
g73
(dp4195
g93
g94
ssg82
g4189
sg75
(lp4196
S'copyright'
p4197
asbag68
(g89
g70
NtRp4198
(dp4199
g73
(dp4200
g100
g101
ssg82
g4189
sg75
(lp4201
S':'
asbag68
(g89
g70
NtRp4202
(dp4203
g73
(dp4204
sg82
g4189
sg75
(lp4205
g68
(g69
g70
NtRp4206
(dp4207
g73
(dp4208
g81
I4
ssg82
g4202
sg75
(lp4209
S'Copyright 2011'
p4210
asbasbasbag68
(g84
g70
NtRp4211
(dp4212
g73
(dp4213
sg82
g4163
sg75
(lp4214
g68
(g89
g70
NtRp4215
(dp4216
g73
(dp4217
g93
g94
ssg82
g4211
sg75
(lp4218
S'description'
p4219
asbag68
(g89
g70
NtRp4220
(dp4221
g73
(dp4222
g100
g101
ssg82
g4211
sg75
(lp4223
S':'
asbag68
(g89
g70
NtRp4224
(dp4225
g73
(dp4226
sg82
g4211
sg75
(lp4227
g68
(g69
g70
NtRp4228
(dp4229
g73
(dp4230
g81
I4
ssg82
g4224
sg75
(lp4231
S'a cool new app'
p4232
asbasbasbag68
(g84
g70
NtRp4233
(dp4234
g73
(dp4235
sg82
g4163
sg75
(lp4236
g68
(g89
g70
NtRp4237
(dp4238
g73
(dp4239
g93
g94
ssg82
g4233
sg75
(lp4240
S'generator'
p4241
asbag68
(g89
g70
NtRp4242
(dp4243
g73
(dp4244
g100
g101
ssg82
g4233
sg75
(lp4245
S':'
asbag68
(g89
g70
NtRp4246
(dp4247
g73
(dp4248
sg82
g4233
sg75
(lp4249
g68
(g69
g70
NtRp4250
(dp4251
g73
(dp4252
g81
I4
ssg82
g4246
sg75
(lp4253
S'Web2py Web Framework'
p4254
asbasbasbag68
(g84
g70
NtRp4255
(dp4256
g73
(dp4257
sg82
g4163
sg75
(lp4258
g68
(g89
g70
NtRp4259
(dp4260
g73
(dp4261
g93
g94
ssg82
g4255
sg75
(lp4262
S'keywords'
p4263
asbag68
(g89
g70
NtRp4264
(dp4265
g73
(dp4266
g100
g101
ssg82
g4255
sg75
(lp4267
S':'
asbag68
(g89
g70
NtRp4268
(dp4269
g73
(dp4270
sg82
g4255
sg75
(lp4271
g68
(g69
g70
NtRp4272
(dp4273
g73
(dp4274
g81
I4
ssg82
g4268
sg75
(lp4275
S'web2py, python, framework'
p4276
asbasbasbasbasbasbasbag68
(g84
g70
NtRp4277
(dp4278
g73
(dp4279
sg82
g3454
sg75
(lp4280
g68
(g89
g70
NtRp4281
(dp4282
g73
(dp4283
g93
g94
ssg82
g4277
sg75
(lp4284
S'postprocessing'
p4285
asbag68
(g89
g70
NtRp4286
(dp4287
g73
(dp4288
g100
g101
ssg82
g4277
sg75
(lp4289
S':'
asbag68
(g89
g70
NtRp4290
(dp4291
g73
(dp4292
sg82
g4277
sg75
(lp4293
g68
(g69
g70
NtRp4294
(dp4295
g73
(dp4296
g81
I5
ssg82
g4290
sg75
(lp4297
g68
(g77
g70
NtRp4298
(dp4299
g73
(dp4300
g81
I4
ssg82
Nsg75
(lp4301
sbasbasbasbag68
(g84
g70
NtRp4302
(dp4303
g73
(dp4304
sg82
g3454
sg75
(lp4305
g68
(g89
g70
NtRp4306
(dp4307
g73
(dp4308
g93
g94
ssg82
g4302
sg75
(lp4309
S'session_file'
p4310
asbag68
(g89
g70
NtRp4311
(dp4312
g73
(dp4313
g100
g101
ssg82
g4302
sg75
(lp4314
S':'
asbag68
(g89
g70
NtRp4315
(dp4316
g73
(dp4317
sg82
g4302
sg75
(lp4318
g68
(g69
g70
NtRp4319
(dp4320
g73
(dp4321
g81
I5
ssg82
g4315
sg75
(lp4322
S"<open file '/home/kaique/Projects/web2py/applications/synopsis/sessions/127.0.0.1-351efa91-66d9-4ca2-9c53-1a2177b18dc7', mode 'rb+' at 0x39a0420>"
p4323
asbasbasbag68
(g84
g70
NtRp4324
(dp4325
g73
(dp4326
sg82
g3454
sg75
(lp4327
g68
(g89
g70
NtRp4328
(dp4329
g73
(dp4330
g93
g94
ssg82
g4324
sg75
(lp4331
S'session_filename'
p4332
asbag68
(g89
g70
NtRp4333
(dp4334
g73
(dp4335
g100
g101
ssg82
g4324
sg75
(lp4336
S':'
asbag68
(g89
g70
NtRp4337
(dp4338
g73
(dp4339
sg82
g4324
sg75
(lp4340
g68
(g69
g70
NtRp4341
(dp4342
g73
(dp4343
g81
I5
ssg82
g4337
sg75
(lp4344
S'/home/kaique/Projects/web2py/applications/synopsis/sessions/127.0.0.1-351efa91-66d9-4ca2-9c53-1a2177b18dc7'
p4345
asbasbasbag68
(g84
g70
NtRp4346
(dp4347
g73
(dp4348
sg82
g3454
sg75
(lp4349
g68
(g89
g70
NtRp4350
(dp4351
g73
(dp4352
g93
g94
ssg82
g4346
sg75
(lp4353
S'session_id'
p4354
asbag68
(g89
g70
NtRp4355
(dp4356
g73
(dp4357
g100
g101
ssg82
g4346
sg75
(lp4358
S':'
asbag68
(g89
g70
NtRp4359
(dp4360
g73
(dp4361
sg82
g4346
sg75
(lp4362
g68
(g69
g70
NtRp4363
(dp4364
g73
(dp4365
g81
I5
ssg82
g4359
sg75
(lp4366
S'127.0.0.1-351efa91-66d9-4ca2-9c53-1a2177b18dc7'
p4367
asbasbasbag68
(g84
g70
NtRp4368
(dp4369
g73
(dp4370
sg82
g3454
sg75
(lp4371
g68
(g89
g70
NtRp4372
(dp4373
g73
(dp4374
g93
g94
ssg82
g4368
sg75
(lp4375
S'session_id_name'
p4376
asbag68
(g89
g70
NtRp4377
(dp4378
g73
(dp4379
g100
g101
ssg82
g4368
sg75
(lp4380
S':'
asbag68
(g89
g70
NtRp4381
(dp4382
g73
(dp4383
sg82
g4368
sg75
(lp4384
g68
(g69
g70
NtRp4385
(dp4386
g73
(dp4387
g81
I5
ssg82
g4381
sg75
(lp4388
g3511
asbasbasbag68
(g84
g70
NtRp4389
(dp4390
g73
(dp4391
sg82
g3454
sg75
(lp4392
g68
(g89
g70
NtRp4393
(dp4394
g73
(dp4395
g93
g94
ssg82
g4389
sg75
(lp4396
S'session_locked'
p4397
asbag68
(g89
g70
NtRp4398
(dp4399
g73
(dp4400
g100
g101
ssg82
g4389
sg75
(lp4401
S':'
asbag68
(g89
g70
NtRp4402
(dp4403
g73
(dp4404
sg82
g4389
sg75
(lp4405
g68
(g69
g70
NtRp4406
(dp4407
g73
(dp4408
g81
I5
ssg82
g4402
sg75
(lp4409
g1702
asbasbasbag68
(g84
g70
NtRp4410
(dp4411
g73
(dp4412
sg82
g3454
sg75
(lp4413
g68
(g89
g70
NtRp4414
(dp4415
g73
(dp4416
g93
g94
ssg82
g4410
sg75
(lp4417
S'session_new'
p4418
asbag68
(g89
g70
NtRp4419
(dp4420
g73
(dp4421
g100
g101
ssg82
g4410
sg75
(lp4422
S':'
asbag68
(g89
g70
NtRp4423
(dp4424
g73
(dp4425
sg82
g4410
sg75
(lp4426
g68
(g69
g70
NtRp4427
(dp4428
g73
(dp4429
g81
I5
ssg82
g4423
sg75
(lp4430
g111
asbasbasbag68
(g84
g70
NtRp4431
(dp4432
g73
(dp4433
sg82
g3454
sg75
(lp4434
g68
(g89
g70
NtRp4435
(dp4436
g73
(dp4437
g93
g94
ssg82
g4431
sg75
(lp4438
S'status'
p4439
asbag68
(g89
g70
NtRp4440
(dp4441
g73
(dp4442
g100
g101
ssg82
g4431
sg75
(lp4443
S':'
asbag68
(g89
g70
NtRp4444
(dp4445
g73
(dp4446
sg82
g4431
sg75
(lp4447
g68
(g69
g70
NtRp4448
(dp4449
g73
(dp4450
g81
I5
ssg82
g4444
sg75
(lp4451
S'200'
p4452
asbasbasbag68
(g84
g70
NtRp4453
(dp4454
g73
(dp4455
sg82
g3454
sg75
(lp4456
g68
(g89
g70
NtRp4457
(dp4458
g73
(dp4459
g93
g94
ssg82
g4453
sg75
(lp4460
S'subtitle'
p4461
asbag68
(g89
g70
NtRp4462
(dp4463
g73
(dp4464
g100
g101
ssg82
g4453
sg75
(lp4465
S':'
asbag68
(g89
g70
NtRp4466
(dp4467
g73
(dp4468
sg82
g4453
sg75
(lp4469
g68
(g69
g70
NtRp4470
(dp4471
g73
(dp4472
g81
I5
ssg82
g4466
sg75
(lp4473
g3959
(S's\x0f\x00\x00\x00Personalize-me!'
tRp4474
asbasbasbag68
(g84
g70
NtRp4475
(dp4476
g73
(dp4477
sg82
g3454
sg75
(lp4478
g68
(g89
g70
NtRp4479
(dp4480
g73
(dp4481
g93
g94
ssg82
g4475
sg75
(lp4482
S'title'
p4483
asbag68
(g89
g70
NtRp4484
(dp4485
g73
(dp4486
g100
g101
ssg82
g4475
sg75
(lp4487
S':'
asbag68
(g89
g70
NtRp4488
(dp4489
g73
(dp4490
sg82
g4475
sg75
(lp4491
g68
(g69
g70
NtRp4492
(dp4493
g73
(dp4494
g81
I5
ssg82
g4488
sg75
(lp4495
g133
asbasbasbag68
(g84
g70
NtRp4496
(dp4497
g73
(dp4498
sg82
g3454
sg75
(lp4499
g68
(g89
g70
NtRp4500
(dp4501
g73
(dp4502
g93
g94
ssg82
g4496
sg75
(lp4503
g2367
asbag68
(g89
g70
NtRp4504
(dp4505
g73
(dp4506
g100
g101
ssg82
g4496
sg75
(lp4507
S':'
asbag68
(g89
g70
NtRp4508
(dp4509
g73
(dp4510
sg82
g4496
sg75
(lp4511
g68
(g69
g70
NtRp4512
(dp4513
g73
(dp4514
g81
I5
ssg82
g4508
sg75
(lp4515
g2380
asbasbasbag68
(g84
g70
NtRp4516
(dp4517
g73
(dp4518
sg82
g3454
sg75
(lp4519
g68
(g89
g70
NtRp4520
(dp4521
g73
(dp4522
g93
g94
ssg82
g4516
sg75
(lp4523
S'view'
p4524
asbag68
(g89
g70
NtRp4525
(dp4526
g73
(dp4527
g100
g101
ssg82
g4516
sg75
(lp4528
S':'
asbag68
(g89
g70
NtRp4529
(dp4530
g73
(dp4531
sg82
g4516
sg75
(lp4532
g68
(g69
g70
NtRp4533
(dp4534
g73
(dp4535
g81
I5
ssg82
g4529
sg75
(lp4536
S'information/publication.html'
p4537
asbasbasbasbasbsS'locals'
p4538
(dp4539
g3
S"'/home/kaique/Projects/web2py/applications/synopsis/views/information/publication.html'"
p4540
sg5
S'\'response.write(\\\'<!DOCTYPE html>\\\\n<html lang="\\\', ...nse.write(\\\'\\\\n  </body>\\\\n</html>\\\\n\\\', escape=False)\''
p4541
sssS'traceback'
p4542
S'Traceback (most recent call last):\n  File "/home/kaique/Projects/web2py/gluon/restricted.py", line 193, in restricted\n    ccode = compile2(code,layer)\n  File "/home/kaique/Projects/web2py/gluon/restricted.py", line 179, in compile2\n    return compile(code.rstrip().replace(\'\\r\\n\',\'\\n\')+\'\\n\', layer, \'exec\')\n  File "/home/kaique/Projects/web2py/applications/synopsis/views/information/publication.html", line 82\n    \nSyntaxError: \'return\' outside function\n'
p4543
s.