(dp1
S'output'
p2
S''
sS'layer'
p3
S'/home/kaique/Projects/web2py/applications/synopsis/controllers/information.py'
p4
sS'code'
p5
S"# -*- coding: utf-8 -*-\nimport functions as f # shorthand function\n\n@auth.requires_membership('admin')\ndef index(): # Show the all content for redirect to profile\n\tsubject = f.get_table(db, 'subject', order='created_on')\n\treturn { 'subject': subject }\n\n@auth.requires_membership('admin')\ndef profile(): # Show the profile of subject\n\targs = request.args # query url's\n\tif args: \n\t\tprofile = f.get_table(db, 'subject', id=args[0]) \n\t\tsession.index = args[0] \n\tif not args or not profile: return redirect( URL('index') )\n\treturn { 'profile': profile }\n\n@auth.requires_membership('admin')\ndef publication(): # Show the publication profile\n\targs = request.args # query url's\n\tif args: publication = f.get_table(db, 'publication', id=args[0]) \n\tif not args or not publication: return redirect( URL('profile') )\n\treturn { 'publication': publication }\n\n@auth.requires_membership('admin')\ndef new(): # Create a new subject\n\targs = request.args\n\t\n\tif not args:\n\t\ttitle = 'Subject'\n\t\tsubject = SQLFORM(db.subject, fields=['name'])\n\t\tsubject.elements(_type='submit')[0]['_value'] = 'Create'\n\t\t\n\t\tif subject.process().accepted:\n\t\t\tresponse.flash = T('{0} {1} {2}'.format('New', title.lower(), 'inserted!'))\n\t\telif subject.errors:\n\t\t\tresponse.flash = T('Sorry, try again!')\n\t\telse:\n\t\t\tresponse.flah = T('Please, fill the field...')\n\t\t\t\n\t\treturn { 'form': subject, \n\t\t\t \t 'title': title }\n\t\t\t \t  \n\tif args[0] == 'publication':\n\t\ttitle = 'Publication'\n\t\tpublication = SQLFORM(db.publication, fields=['title', 'sub_title'])\n\t\t\n\t\tif publication.process().accepted:\n\t\t\tdb.publication.insert( id = args[1] )\n\t\t\tresponse.flash = T(T('{0} {1} {2}'.format('New', title.lower(), 'inserted!')))\n\t\telif publication.errors:\n\t\t\tresponse.flash = T('Sorry, try again!')\n\t\telse:\n\t\t\tresponse.flah = T('Please, fill the field...')\n\t\n\t\treturn { 'form': publication,\n\t\t\t\t 'title': title }\n\n@auth.requires_membership('admin')\ndef edit(): # Edit the subject\n\treturn {}\n\nresponse._vars=response._caller(new)\n"
p6
sS'snapshot'
p7
(dp8
S'exception'
p9
(dp10
S'__getslice__'
p11
S"<method-wrapper '__getslice__' of exceptions.SyntaxError object>"
p12
sS'text'
p13
S'None'
p14
sS'__str__'
p15
S"<method-wrapper '__str__' of exceptions.SyntaxError object>"
p16
sS'__reduce__'
p17
S'<built-in method __reduce__ of exceptions.SyntaxError object>'
p18
sS'__dict__'
p19
S'{}'
p20
sS'__sizeof__'
p21
S'<built-in method __sizeof__ of exceptions.SyntaxError object>'
p22
sS'__init__'
p23
S"<method-wrapper '__init__' of exceptions.SyntaxError object>"
p24
sS'__setattr__'
p25
S"<method-wrapper '__setattr__' of exceptions.SyntaxError object>"
p26
sS'__reduce_ex__'
p27
S'<built-in method __reduce_ex__ of exceptions.SyntaxError object>'
p28
sS'__new__'
p29
S'<built-in method __new__ of type object>'
p30
sS'__format__'
p31
S'<built-in method __format__ of exceptions.SyntaxError object>'
p32
sS'__class__'
p33
S"<type 'exceptions.SyntaxError'>"
p34
sS'filename'
p35
S'None'
p36
sS'lineno'
p37
S'None'
p38
sS'msg'
p39
S"'Table: missing required field: title'"
p40
sS'__doc__'
p41
S"'Invalid syntax.'"
p42
sS'__getitem__'
p43
S"<method-wrapper '__getitem__' of exceptions.SyntaxError object>"
p44
sS'__setstate__'
p45
S'<built-in method __setstate__ of exceptions.SyntaxError object>'
p46
sS'__getattribute__'
p47
S"<method-wrapper '__getattribute__' of exceptions.SyntaxError object>"
p48
sS'print_file_and_line'
p49
S'None'
p50
sS'args'
p51
S"('Table: missing required field: title',)"
p52
sS'__subclasshook__'
p53
S'<built-in method __subclasshook__ of type object>'
p54
sS'offset'
p55
S'None'
p56
sS'__unicode__'
p57
S'<built-in method __unicode__ of exceptions.SyntaxError object>'
p58
sS'__delattr__'
p59
S"<method-wrapper '__delattr__' of exceptions.SyntaxError object>"
p60
sS'__repr__'
p61
S"<method-wrapper '__repr__' of exceptions.SyntaxError object>"
p62
sS'__hash__'
p63
S"<method-wrapper '__hash__' of exceptions.SyntaxError object>"
p64
ssS'evalue'
p65
S'Table: missing required field: title'
p66
sS'request'
p67
ccopy_reg
_reconstructor
p68
(cgluon.html
BEAUTIFY
p69
c__builtin__
object
p70
NtRp71
(dp72
S'attributes'
p73
(dp74
sS'components'
p75
(lp76
g68
(cgluon.html
TABLE
p77
g70
NtRp78
(dp79
g73
(dp80
S'level'
p81
I5
ssS'parent'
p82
Nsg75
(lp83
g68
(cgluon.html
TR
p84
g70
NtRp85
(dp86
g73
(dp87
sg82
g78
sg75
(lp88
g68
(cgluon.html
TD
p89
g70
NtRp90
(dp91
g73
(dp92
S'_style'
p93
S'font-weight:bold;'
p94
ssg82
g85
sg75
(lp95
S'ajax'
p96
asbag68
(g89
g70
NtRp97
(dp98
g73
(dp99
S'_valign'
p100
S'top'
p101
ssg82
g85
sg75
(lp102
S':'
asbag68
(g89
g70
NtRp103
(dp104
g73
(dp105
sg82
g85
sg75
(lp106
g68
(g69
g70
NtRp107
(dp108
g73
(dp109
g81
I5
ssg82
g103
sg75
(lp110
S'False'
p111
asbasbasbag68
(g84
g70
NtRp112
(dp113
g73
(dp114
sg82
g78
sg75
(lp115
g68
(g89
g70
NtRp116
(dp117
g73
(dp118
g93
g94
ssg82
g112
sg75
(lp119
S'application'
p120
asbag68
(g89
g70
NtRp121
(dp122
g73
(dp123
g100
g101
ssg82
g112
sg75
(lp124
S':'
asbag68
(g89
g70
NtRp125
(dp126
g73
(dp127
sg82
g112
sg75
(lp128
g68
(g69
g70
NtRp129
(dp130
g73
(dp131
g81
I5
ssg82
g125
sg75
(lp132
S'synopsis'
p133
asbasbasbag68
(g84
g70
NtRp134
(dp135
g73
(dp136
sg82
g78
sg75
(lp137
g68
(g89
g70
NtRp138
(dp139
g73
(dp140
g93
g94
ssg82
g134
sg75
(lp141
g51
asbag68
(g89
g70
NtRp142
(dp143
g73
(dp144
g100
g101
ssg82
g134
sg75
(lp145
S':'
asbag68
(g89
g70
NtRp146
(dp147
g73
(dp148
sg82
g134
sg75
(lp149
g68
(g69
g70
NtRp150
(dp151
g73
(dp152
g81
I5
ssg82
g146
sg75
(lp153
g68
(g77
g70
NtRp154
(dp155
g73
(dp156
g81
I4
ssg82
Nsg75
(lp157
g68
(g84
g70
NtRp158
(dp159
g73
(dp160
sg82
g154
sg75
(lp161
g68
(g89
g70
NtRp162
(dp163
g73
(dp164
sg82
g158
sg75
(lp165
g68
(g69
g70
NtRp166
(dp167
g73
(dp168
g81
I4
ssg82
g162
sg75
(lp169
S'publication'
p170
asbasbasbag68
(g84
g70
NtRp171
(dp172
g73
(dp173
sg82
g154
sg75
(lp174
g68
(g89
g70
NtRp175
(dp176
g73
(dp177
sg82
g171
sg75
(lp178
g68
(g69
g70
NtRp179
(dp180
g73
(dp181
g81
I4
ssg82
g175
sg75
(lp182
S'2'
asbasbasbasbasbasbasbag68
(g84
g70
NtRp183
(dp184
g73
(dp185
sg82
g78
sg75
(lp186
g68
(g89
g70
NtRp187
(dp188
g73
(dp189
g93
g94
ssg82
g183
sg75
(lp190
S'body'
p191
asbag68
(g89
g70
NtRp192
(dp193
g73
(dp194
g100
g101
ssg82
g183
sg75
(lp195
S':'
asbag68
(g89
g70
NtRp196
(dp197
g73
(dp198
sg82
g183
sg75
(lp199
g68
(g69
g70
NtRp200
(dp201
g73
(dp202
g81
I5
ssg82
g196
sg75
(lp203
S"<open file '<fdopen>', mode 'w+b' at 0x41d2540>"
p204
asbasbasbag68
(g84
g70
NtRp205
(dp206
g73
(dp207
sg82
g78
sg75
(lp208
g68
(g89
g70
NtRp209
(dp210
g73
(dp211
g93
g94
ssg82
g205
sg75
(lp212
S'client'
p213
asbag68
(g89
g70
NtRp214
(dp215
g73
(dp216
g100
g101
ssg82
g205
sg75
(lp217
S':'
asbag68
(g89
g70
NtRp218
(dp219
g73
(dp220
sg82
g205
sg75
(lp221
g68
(g69
g70
NtRp222
(dp223
g73
(dp224
g81
I5
ssg82
g218
sg75
(lp225
S'127.0.0.1'
p226
asbasbasbag68
(g84
g70
NtRp227
(dp228
g73
(dp229
sg82
g78
sg75
(lp230
g68
(g89
g70
NtRp231
(dp232
g73
(dp233
g93
g94
ssg82
g227
sg75
(lp234
S'controller'
p235
asbag68
(g89
g70
NtRp236
(dp237
g73
(dp238
g100
g101
ssg82
g227
sg75
(lp239
S':'
asbag68
(g89
g70
NtRp240
(dp241
g73
(dp242
sg82
g227
sg75
(lp243
g68
(g69
g70
NtRp244
(dp245
g73
(dp246
g81
I5
ssg82
g240
sg75
(lp247
S'information'
p248
asbasbasbag68
(g84
g70
NtRp249
(dp250
g73
(dp251
sg82
g78
sg75
(lp252
g68
(g89
g70
NtRp253
(dp254
g73
(dp255
g93
g94
ssg82
g249
sg75
(lp256
S'cookies'
p257
asbag68
(g89
g70
NtRp258
(dp259
g73
(dp260
g100
g101
ssg82
g249
sg75
(lp261
S':'
asbag68
(g89
g70
NtRp262
(dp263
g73
(dp264
sg82
g249
sg75
(lp265
g68
(g69
g70
NtRp266
(dp267
g73
(dp268
g81
I5
ssg82
g262
sg75
(lp269
g68
(g77
g70
NtRp270
(dp271
g73
(dp272
g81
I4
ssg82
Nsg75
(lp273
g68
(g84
g70
NtRp274
(dp275
g73
(dp276
sg82
g270
sg75
(lp277
g68
(g89
g70
NtRp278
(dp279
g73
(dp280
g93
g94
ssg82
g274
sg75
(lp281
S'session_id_admin'
p282
asbag68
(g89
g70
NtRp283
(dp284
g73
(dp285
g100
g101
ssg82
g274
sg75
(lp286
S':'
asbag68
(g89
g70
NtRp287
(dp288
g73
(dp289
sg82
g274
sg75
(lp290
g68
(g69
g70
NtRp291
(dp292
g73
(dp293
g81
I4
ssg82
g287
sg75
(lp294
g68
(g77
g70
NtRp295
(dp296
g73
(dp297
g81
I3
ssg82
Nsg75
(lp298
g68
(g84
g70
NtRp299
(dp300
g73
(dp301
sg82
g295
sg75
(lp302
g68
(g89
g70
NtRp303
(dp304
g73
(dp305
g93
g94
ssg82
g299
sg75
(lp306
S'comment'
p307
asbag68
(g89
g70
NtRp308
(dp309
g73
(dp310
g100
g101
ssg82
g299
sg75
(lp311
S':'
asbag68
(g89
g70
NtRp312
(dp313
g73
(dp314
sg82
g299
sg75
(lp315
g68
(g69
g70
NtRp316
(dp317
g73
(dp318
g81
I3
ssg82
g312
sg75
(lp319
S''
asbasbasbag68
(g84
g70
NtRp320
(dp321
g73
(dp322
sg82
g295
sg75
(lp323
g68
(g89
g70
NtRp324
(dp325
g73
(dp326
g93
g94
ssg82
g320
sg75
(lp327
S'domain'
p328
asbag68
(g89
g70
NtRp329
(dp330
g73
(dp331
g100
g101
ssg82
g320
sg75
(lp332
S':'
asbag68
(g89
g70
NtRp333
(dp334
g73
(dp335
sg82
g320
sg75
(lp336
g68
(g69
g70
NtRp337
(dp338
g73
(dp339
g81
I3
ssg82
g333
sg75
(lp340
S''
asbasbasbag68
(g84
g70
NtRp341
(dp342
g73
(dp343
sg82
g295
sg75
(lp344
g68
(g89
g70
NtRp345
(dp346
g73
(dp347
g93
g94
ssg82
g341
sg75
(lp348
S'expires'
p349
asbag68
(g89
g70
NtRp350
(dp351
g73
(dp352
g100
g101
ssg82
g341
sg75
(lp353
S':'
asbag68
(g89
g70
NtRp354
(dp355
g73
(dp356
sg82
g341
sg75
(lp357
g68
(g69
g70
NtRp358
(dp359
g73
(dp360
g81
I3
ssg82
g354
sg75
(lp361
S''
asbasbasbag68
(g84
g70
NtRp362
(dp363
g73
(dp364
sg82
g295
sg75
(lp365
g68
(g89
g70
NtRp366
(dp367
g73
(dp368
g93
g94
ssg82
g362
sg75
(lp369
S'httponly'
p370
asbag68
(g89
g70
NtRp371
(dp372
g73
(dp373
g100
g101
ssg82
g362
sg75
(lp374
S':'
asbag68
(g89
g70
NtRp375
(dp376
g73
(dp377
sg82
g362
sg75
(lp378
g68
(g69
g70
NtRp379
(dp380
g73
(dp381
g81
I3
ssg82
g375
sg75
(lp382
S''
asbasbasbag68
(g84
g70
NtRp383
(dp384
g73
(dp385
sg82
g295
sg75
(lp386
g68
(g89
g70
NtRp387
(dp388
g73
(dp389
g93
g94
ssg82
g383
sg75
(lp390
S'max-age'
p391
asbag68
(g89
g70
NtRp392
(dp393
g73
(dp394
g100
g101
ssg82
g383
sg75
(lp395
S':'
asbag68
(g89
g70
NtRp396
(dp397
g73
(dp398
sg82
g383
sg75
(lp399
g68
(g69
g70
NtRp400
(dp401
g73
(dp402
g81
I3
ssg82
g396
sg75
(lp403
S''
asbasbasbag68
(g84
g70
NtRp404
(dp405
g73
(dp406
sg82
g295
sg75
(lp407
g68
(g89
g70
NtRp408
(dp409
g73
(dp410
g93
g94
ssg82
g404
sg75
(lp411
S'path'
p412
asbag68
(g89
g70
NtRp413
(dp414
g73
(dp415
g100
g101
ssg82
g404
sg75
(lp416
S':'
asbag68
(g89
g70
NtRp417
(dp418
g73
(dp419
sg82
g404
sg75
(lp420
g68
(g69
g70
NtRp421
(dp422
g73
(dp423
g81
I3
ssg82
g417
sg75
(lp424
S''
asbasbasbag68
(g84
g70
NtRp425
(dp426
g73
(dp427
sg82
g295
sg75
(lp428
g68
(g89
g70
NtRp429
(dp430
g73
(dp431
g93
g94
ssg82
g425
sg75
(lp432
S'secure'
p433
asbag68
(g89
g70
NtRp434
(dp435
g73
(dp436
g100
g101
ssg82
g425
sg75
(lp437
S':'
asbag68
(g89
g70
NtRp438
(dp439
g73
(dp440
sg82
g425
sg75
(lp441
g68
(g69
g70
NtRp442
(dp443
g73
(dp444
g81
I3
ssg82
g438
sg75
(lp445
S''
asbasbasbag68
(g84
g70
NtRp446
(dp447
g73
(dp448
sg82
g295
sg75
(lp449
g68
(g89
g70
NtRp450
(dp451
g73
(dp452
g93
g94
ssg82
g446
sg75
(lp453
S'version'
p454
asbag68
(g89
g70
NtRp455
(dp456
g73
(dp457
g100
g101
ssg82
g446
sg75
(lp458
S':'
asbag68
(g89
g70
NtRp459
(dp460
g73
(dp461
sg82
g446
sg75
(lp462
g68
(g69
g70
NtRp463
(dp464
g73
(dp465
g81
I3
ssg82
g459
sg75
(lp466
S''
asbasbasbasbasbasbasbag68
(g84
g70
NtRp467
(dp468
g73
(dp469
sg82
g270
sg75
(lp470
g68
(g89
g70
NtRp471
(dp472
g73
(dp473
g93
g94
ssg82
g467
sg75
(lp474
S'session_id_synopsis'
p475
asbag68
(g89
g70
NtRp476
(dp477
g73
(dp478
g100
g101
ssg82
g467
sg75
(lp479
S':'
asbag68
(g89
g70
NtRp480
(dp481
g73
(dp482
sg82
g467
sg75
(lp483
g68
(g69
g70
NtRp484
(dp485
g73
(dp486
g81
I4
ssg82
g480
sg75
(lp487
g68
(g77
g70
NtRp488
(dp489
g73
(dp490
g81
I3
ssg82
Nsg75
(lp491
g68
(g84
g70
NtRp492
(dp493
g73
(dp494
sg82
g488
sg75
(lp495
g68
(g89
g70
NtRp496
(dp497
g73
(dp498
g93
g94
ssg82
g492
sg75
(lp499
g307
asbag68
(g89
g70
NtRp500
(dp501
g73
(dp502
g100
g101
ssg82
g492
sg75
(lp503
S':'
asbag68
(g89
g70
NtRp504
(dp505
g73
(dp506
sg82
g492
sg75
(lp507
g68
(g69
g70
NtRp508
(dp509
g73
(dp510
g81
I3
ssg82
g504
sg75
(lp511
S''
asbasbasbag68
(g84
g70
NtRp512
(dp513
g73
(dp514
sg82
g488
sg75
(lp515
g68
(g89
g70
NtRp516
(dp517
g73
(dp518
g93
g94
ssg82
g512
sg75
(lp519
g328
asbag68
(g89
g70
NtRp520
(dp521
g73
(dp522
g100
g101
ssg82
g512
sg75
(lp523
S':'
asbag68
(g89
g70
NtRp524
(dp525
g73
(dp526
sg82
g512
sg75
(lp527
g68
(g69
g70
NtRp528
(dp529
g73
(dp530
g81
I3
ssg82
g524
sg75
(lp531
S''
asbasbasbag68
(g84
g70
NtRp532
(dp533
g73
(dp534
sg82
g488
sg75
(lp535
g68
(g89
g70
NtRp536
(dp537
g73
(dp538
g93
g94
ssg82
g532
sg75
(lp539
g349
asbag68
(g89
g70
NtRp540
(dp541
g73
(dp542
g100
g101
ssg82
g532
sg75
(lp543
S':'
asbag68
(g89
g70
NtRp544
(dp545
g73
(dp546
sg82
g532
sg75
(lp547
g68
(g69
g70
NtRp548
(dp549
g73
(dp550
g81
I3
ssg82
g544
sg75
(lp551
S''
asbasbasbag68
(g84
g70
NtRp552
(dp553
g73
(dp554
sg82
g488
sg75
(lp555
g68
(g89
g70
NtRp556
(dp557
g73
(dp558
g93
g94
ssg82
g552
sg75
(lp559
g370
asbag68
(g89
g70
NtRp560
(dp561
g73
(dp562
g100
g101
ssg82
g552
sg75
(lp563
S':'
asbag68
(g89
g70
NtRp564
(dp565
g73
(dp566
sg82
g552
sg75
(lp567
g68
(g69
g70
NtRp568
(dp569
g73
(dp570
g81
I3
ssg82
g564
sg75
(lp571
S''
asbasbasbag68
(g84
g70
NtRp572
(dp573
g73
(dp574
sg82
g488
sg75
(lp575
g68
(g89
g70
NtRp576
(dp577
g73
(dp578
g93
g94
ssg82
g572
sg75
(lp579
g391
asbag68
(g89
g70
NtRp580
(dp581
g73
(dp582
g100
g101
ssg82
g572
sg75
(lp583
S':'
asbag68
(g89
g70
NtRp584
(dp585
g73
(dp586
sg82
g572
sg75
(lp587
g68
(g69
g70
NtRp588
(dp589
g73
(dp590
g81
I3
ssg82
g584
sg75
(lp591
S''
asbasbasbag68
(g84
g70
NtRp592
(dp593
g73
(dp594
sg82
g488
sg75
(lp595
g68
(g89
g70
NtRp596
(dp597
g73
(dp598
g93
g94
ssg82
g592
sg75
(lp599
g412
asbag68
(g89
g70
NtRp600
(dp601
g73
(dp602
g100
g101
ssg82
g592
sg75
(lp603
S':'
asbag68
(g89
g70
NtRp604
(dp605
g73
(dp606
sg82
g592
sg75
(lp607
g68
(g69
g70
NtRp608
(dp609
g73
(dp610
g81
I3
ssg82
g604
sg75
(lp611
S''
asbasbasbag68
(g84
g70
NtRp612
(dp613
g73
(dp614
sg82
g488
sg75
(lp615
g68
(g89
g70
NtRp616
(dp617
g73
(dp618
g93
g94
ssg82
g612
sg75
(lp619
g433
asbag68
(g89
g70
NtRp620
(dp621
g73
(dp622
g100
g101
ssg82
g612
sg75
(lp623
S':'
asbag68
(g89
g70
NtRp624
(dp625
g73
(dp626
sg82
g612
sg75
(lp627
g68
(g69
g70
NtRp628
(dp629
g73
(dp630
g81
I3
ssg82
g624
sg75
(lp631
S''
asbasbasbag68
(g84
g70
NtRp632
(dp633
g73
(dp634
sg82
g488
sg75
(lp635
g68
(g89
g70
NtRp636
(dp637
g73
(dp638
g93
g94
ssg82
g632
sg75
(lp639
g454
asbag68
(g89
g70
NtRp640
(dp641
g73
(dp642
g100
g101
ssg82
g632
sg75
(lp643
S':'
asbag68
(g89
g70
NtRp644
(dp645
g73
(dp646
sg82
g632
sg75
(lp647
g68
(g69
g70
NtRp648
(dp649
g73
(dp650
g81
I3
ssg82
g644
sg75
(lp651
S''
asbasbasbasbasbasbasbag68
(g84
g70
NtRp652
(dp653
g73
(dp654
sg82
g270
sg75
(lp655
g68
(g89
g70
NtRp656
(dp657
g73
(dp658
g93
g94
ssg82
g652
sg75
(lp659
S'session_id_welcome'
p660
asbag68
(g89
g70
NtRp661
(dp662
g73
(dp663
g100
g101
ssg82
g652
sg75
(lp664
S':'
asbag68
(g89
g70
NtRp665
(dp666
g73
(dp667
sg82
g652
sg75
(lp668
g68
(g69
g70
NtRp669
(dp670
g73
(dp671
g81
I4
ssg82
g665
sg75
(lp672
g68
(g77
g70
NtRp673
(dp674
g73
(dp675
g81
I3
ssg82
Nsg75
(lp676
g68
(g84
g70
NtRp677
(dp678
g73
(dp679
sg82
g673
sg75
(lp680
g68
(g89
g70
NtRp681
(dp682
g73
(dp683
g93
g94
ssg82
g677
sg75
(lp684
g307
asbag68
(g89
g70
NtRp685
(dp686
g73
(dp687
g100
g101
ssg82
g677
sg75
(lp688
S':'
asbag68
(g89
g70
NtRp689
(dp690
g73
(dp691
sg82
g677
sg75
(lp692
g68
(g69
g70
NtRp693
(dp694
g73
(dp695
g81
I3
ssg82
g689
sg75
(lp696
S''
asbasbasbag68
(g84
g70
NtRp697
(dp698
g73
(dp699
sg82
g673
sg75
(lp700
g68
(g89
g70
NtRp701
(dp702
g73
(dp703
g93
g94
ssg82
g697
sg75
(lp704
g328
asbag68
(g89
g70
NtRp705
(dp706
g73
(dp707
g100
g101
ssg82
g697
sg75
(lp708
S':'
asbag68
(g89
g70
NtRp709
(dp710
g73
(dp711
sg82
g697
sg75
(lp712
g68
(g69
g70
NtRp713
(dp714
g73
(dp715
g81
I3
ssg82
g709
sg75
(lp716
S''
asbasbasbag68
(g84
g70
NtRp717
(dp718
g73
(dp719
sg82
g673
sg75
(lp720
g68
(g89
g70
NtRp721
(dp722
g73
(dp723
g93
g94
ssg82
g717
sg75
(lp724
g349
asbag68
(g89
g70
NtRp725
(dp726
g73
(dp727
g100
g101
ssg82
g717
sg75
(lp728
S':'
asbag68
(g89
g70
NtRp729
(dp730
g73
(dp731
sg82
g717
sg75
(lp732
g68
(g69
g70
NtRp733
(dp734
g73
(dp735
g81
I3
ssg82
g729
sg75
(lp736
S''
asbasbasbag68
(g84
g70
NtRp737
(dp738
g73
(dp739
sg82
g673
sg75
(lp740
g68
(g89
g70
NtRp741
(dp742
g73
(dp743
g93
g94
ssg82
g737
sg75
(lp744
g370
asbag68
(g89
g70
NtRp745
(dp746
g73
(dp747
g100
g101
ssg82
g737
sg75
(lp748
S':'
asbag68
(g89
g70
NtRp749
(dp750
g73
(dp751
sg82
g737
sg75
(lp752
g68
(g69
g70
NtRp753
(dp754
g73
(dp755
g81
I3
ssg82
g749
sg75
(lp756
S''
asbasbasbag68
(g84
g70
NtRp757
(dp758
g73
(dp759
sg82
g673
sg75
(lp760
g68
(g89
g70
NtRp761
(dp762
g73
(dp763
g93
g94
ssg82
g757
sg75
(lp764
g391
asbag68
(g89
g70
NtRp765
(dp766
g73
(dp767
g100
g101
ssg82
g757
sg75
(lp768
S':'
asbag68
(g89
g70
NtRp769
(dp770
g73
(dp771
sg82
g757
sg75
(lp772
g68
(g69
g70
NtRp773
(dp774
g73
(dp775
g81
I3
ssg82
g769
sg75
(lp776
S''
asbasbasbag68
(g84
g70
NtRp777
(dp778
g73
(dp779
sg82
g673
sg75
(lp780
g68
(g89
g70
NtRp781
(dp782
g73
(dp783
g93
g94
ssg82
g777
sg75
(lp784
g412
asbag68
(g89
g70
NtRp785
(dp786
g73
(dp787
g100
g101
ssg82
g777
sg75
(lp788
S':'
asbag68
(g89
g70
NtRp789
(dp790
g73
(dp791
sg82
g777
sg75
(lp792
g68
(g69
g70
NtRp793
(dp794
g73
(dp795
g81
I3
ssg82
g789
sg75
(lp796
S''
asbasbasbag68
(g84
g70
NtRp797
(dp798
g73
(dp799
sg82
g673
sg75
(lp800
g68
(g89
g70
NtRp801
(dp802
g73
(dp803
g93
g94
ssg82
g797
sg75
(lp804
g433
asbag68
(g89
g70
NtRp805
(dp806
g73
(dp807
g100
g101
ssg82
g797
sg75
(lp808
S':'
asbag68
(g89
g70
NtRp809
(dp810
g73
(dp811
sg82
g797
sg75
(lp812
g68
(g69
g70
NtRp813
(dp814
g73
(dp815
g81
I3
ssg82
g809
sg75
(lp816
S''
asbasbasbag68
(g84
g70
NtRp817
(dp818
g73
(dp819
sg82
g673
sg75
(lp820
g68
(g89
g70
NtRp821
(dp822
g73
(dp823
g93
g94
ssg82
g817
sg75
(lp824
g454
asbag68
(g89
g70
NtRp825
(dp826
g73
(dp827
g100
g101
ssg82
g817
sg75
(lp828
S':'
asbag68
(g89
g70
NtRp829
(dp830
g73
(dp831
sg82
g817
sg75
(lp832
g68
(g69
g70
NtRp833
(dp834
g73
(dp835
g81
I3
ssg82
g829
sg75
(lp836
S''
asbasbasbasbasbasbasbasbasbasbasbag68
(g84
g70
NtRp837
(dp838
g73
(dp839
sg82
g78
sg75
(lp840
g68
(g89
g70
NtRp841
(dp842
g73
(dp843
g93
g94
ssg82
g837
sg75
(lp844
S'env'
p845
asbag68
(g89
g70
NtRp846
(dp847
g73
(dp848
g100
g101
ssg82
g837
sg75
(lp849
S':'
asbag68
(g89
g70
NtRp850
(dp851
g73
(dp852
sg82
g837
sg75
(lp853
g68
(g69
g70
NtRp854
(dp855
g73
(dp856
g81
I5
ssg82
g850
sg75
(lp857
g68
(g77
g70
NtRp858
(dp859
g73
(dp860
g81
I4
ssg82
Nsg75
(lp861
g68
(g84
g70
NtRp862
(dp863
g73
(dp864
sg82
g858
sg75
(lp865
g68
(g89
g70
NtRp866
(dp867
g73
(dp868
g93
g94
ssg82
g862
sg75
(lp869
S'app_folders'
p870
asbag68
(g89
g70
NtRp871
(dp872
g73
(dp873
g100
g101
ssg82
g862
sg75
(lp874
S':'
asbag68
(g89
g70
NtRp875
(dp876
g73
(dp877
sg82
g862
sg75
(lp878
g68
(g69
g70
NtRp879
(dp880
g73
(dp881
g81
I4
ssg82
g875
sg75
(lp882
S"set(['/home/kaique/Projects/web2py/applications/synopsis/', '/home/kaique/Projects/web2py/applications/admin/'])"
p883
asbasbasbag68
(g84
g70
NtRp884
(dp885
g73
(dp886
sg82
g858
sg75
(lp887
g68
(g89
g70
NtRp888
(dp889
g73
(dp890
g93
g94
ssg82
g884
sg75
(lp891
S'applications_parent'
p892
asbag68
(g89
g70
NtRp893
(dp894
g73
(dp895
g100
g101
ssg82
g884
sg75
(lp896
S':'
asbag68
(g89
g70
NtRp897
(dp898
g73
(dp899
sg82
g884
sg75
(lp900
g68
(g69
g70
NtRp901
(dp902
g73
(dp903
g81
I4
ssg82
g897
sg75
(lp904
S'/home/kaique/Projects/web2py'
p905
asbasbasbag68
(g84
g70
NtRp906
(dp907
g73
(dp908
sg82
g858
sg75
(lp909
g68
(g89
g70
NtRp910
(dp911
g73
(dp912
g93
g94
ssg82
g906
sg75
(lp913
S'cmd_args'
p914
asbag68
(g89
g70
NtRp915
(dp916
g73
(dp917
g100
g101
ssg82
g906
sg75
(lp918
S':'
asbag68
(g89
g70
NtRp919
(dp920
g73
(dp921
sg82
g906
sg75
(lp922
g68
(g69
g70
NtRp923
(dp924
g73
(dp925
g81
I4
ssg82
g919
sg75
(lp926
g68
(g77
g70
NtRp927
(dp928
g73
(dp929
g81
I3
ssg82
Nsg75
(lp930
sbasbasbasbag68
(g84
g70
NtRp931
(dp932
g73
(dp933
sg82
g858
sg75
(lp934
g68
(g89
g70
NtRp935
(dp936
g73
(dp937
g93
g94
ssg82
g931
sg75
(lp938
S'cmd_options'
p939
asbag68
(g89
g70
NtRp940
(dp941
g73
(dp942
g100
g101
ssg82
g931
sg75
(lp943
S':'
asbag68
(g89
g70
NtRp944
(dp945
g73
(dp946
sg82
g931
sg75
(lp947
g68
(g69
g70
NtRp948
(dp949
g73
(dp950
g81
I4
ssg82
g944
sg75
(lp951
S"<Values at 0x2d3b950: {'verbose': False, 'ip': '127.0.0.1', 'shutdown_timeout': 5, 'taskbar': False, 'nocron': False, 'pid_filename': 'httpserver.pid', 'maxthreads': None, 'softcron': False, 'server_name': 'kaique-Pine-Trail-M', 'bpython': False, 'nogui': False, 'port': 8000, 'extcron': False, 'debuglevel': 30, 'test': None, 'folder': '/home/kaique/Projects/web2py', 'config': '', 'import_models': False, 'winservice': '', 'shell': None, 'run': '', 'log_filename': 'httpserver.log', 'args': [''], 'ssl_ca_certificate': None, 'scheduler': None, 'profiler_filename': None, 'ssl_private_key': '', 'password': 'dev', 'request_queue_size': 5, 'ssl_certificate': '', 'cronjob': False, 'plain': False, 'quiet': False, 'interfaces': None, 'minthreads': None, 'timeout': 10, 'numthreads': None, 'nobanner': False}>"
p952
asbasbasbag68
(g84
g70
NtRp953
(dp954
g73
(dp955
sg82
g858
sg75
(lp956
g68
(g89
g70
NtRp957
(dp958
g73
(dp959
g93
g94
ssg82
g953
sg75
(lp960
S'content_length'
p961
asbag68
(g89
g70
NtRp962
(dp963
g73
(dp964
g100
g101
ssg82
g953
sg75
(lp965
S':'
asbag68
(g89
g70
NtRp966
(dp967
g73
(dp968
sg82
g953
sg75
(lp969
g68
(g69
g70
NtRp970
(dp971
g73
(dp972
g81
I4
ssg82
g966
sg75
(lp973
S'569'
p974
asbasbasbag68
(g84
g70
NtRp975
(dp976
g73
(dp977
sg82
g858
sg75
(lp978
g68
(g89
g70
NtRp979
(dp980
g73
(dp981
g93
g94
ssg82
g975
sg75
(lp982
S'content_type'
p983
asbag68
(g89
g70
NtRp984
(dp985
g73
(dp986
g100
g101
ssg82
g975
sg75
(lp987
S':'
asbag68
(g89
g70
NtRp988
(dp989
g73
(dp990
sg82
g975
sg75
(lp991
g68
(g69
g70
NtRp992
(dp993
g73
(dp994
g81
I4
ssg82
g988
sg75
(lp995
S'multipart/form-data; boundary=---------------------------2101272227319242238256815094'
p996
asbasbasbag68
(g84
g70
NtRp997
(dp998
g73
(dp999
sg82
g858
sg75
(lp1000
g68
(g89
g70
NtRp1001
(dp1002
g73
(dp1003
g93
g94
ssg82
g997
sg75
(lp1004
S'db_sessions'
p1005
asbag68
(g89
g70
NtRp1006
(dp1007
g73
(dp1008
g100
g101
ssg82
g997
sg75
(lp1009
S':'
asbag68
(g89
g70
NtRp1010
(dp1011
g73
(dp1012
sg82
g997
sg75
(lp1013
g68
(g69
g70
NtRp1014
(dp1015
g73
(dp1016
g81
I4
ssg82
g1010
sg75
(lp1017
S'set([])'
p1018
asbasbasbag68
(g84
g70
NtRp1019
(dp1020
g73
(dp1021
sg82
g858
sg75
(lp1022
g68
(g89
g70
NtRp1023
(dp1024
g73
(dp1025
g93
g94
ssg82
g1019
sg75
(lp1026
S'debugging'
p1027
asbag68
(g89
g70
NtRp1028
(dp1029
g73
(dp1030
g100
g101
ssg82
g1019
sg75
(lp1031
S':'
asbag68
(g89
g70
NtRp1032
(dp1033
g73
(dp1034
sg82
g1019
sg75
(lp1035
g68
(g69
g70
NtRp1036
(dp1037
g73
(dp1038
g81
I4
ssg82
g1032
sg75
(lp1039
g111
asbasbasbag68
(g84
g70
NtRp1040
(dp1041
g73
(dp1042
sg82
g858
sg75
(lp1043
g68
(g89
g70
NtRp1044
(dp1045
g73
(dp1046
g93
g94
ssg82
g1040
sg75
(lp1047
S'gluon_parent'
p1048
asbag68
(g89
g70
NtRp1049
(dp1050
g73
(dp1051
g100
g101
ssg82
g1040
sg75
(lp1052
S':'
asbag68
(g89
g70
NtRp1053
(dp1054
g73
(dp1055
sg82
g1040
sg75
(lp1056
g68
(g69
g70
NtRp1057
(dp1058
g73
(dp1059
g81
I4
ssg82
g1053
sg75
(lp1060
S'/home/kaique/Projects/web2py'
p1061
asbasbasbag68
(g84
g70
NtRp1062
(dp1063
g73
(dp1064
sg82
g858
sg75
(lp1065
g68
(g89
g70
NtRp1066
(dp1067
g73
(dp1068
g93
g94
ssg82
g1062
sg75
(lp1069
S'http_accept'
p1070
asbag68
(g89
g70
NtRp1071
(dp1072
g73
(dp1073
g100
g101
ssg82
g1062
sg75
(lp1074
S':'
asbag68
(g89
g70
NtRp1075
(dp1076
g73
(dp1077
sg82
g1062
sg75
(lp1078
g68
(g69
g70
NtRp1079
(dp1080
g73
(dp1081
g81
I4
ssg82
g1075
sg75
(lp1082
S'text/html,application/xhtml+xml,application/xml;q=0.9,*/*;q=0.8'
p1083
asbasbasbag68
(g84
g70
NtRp1084
(dp1085
g73
(dp1086
sg82
g858
sg75
(lp1087
g68
(g89
g70
NtRp1088
(dp1089
g73
(dp1090
g93
g94
ssg82
g1084
sg75
(lp1091
S'http_accept_charset'
p1092
asbag68
(g89
g70
NtRp1093
(dp1094
g73
(dp1095
g100
g101
ssg82
g1084
sg75
(lp1096
S':'
asbag68
(g89
g70
NtRp1097
(dp1098
g73
(dp1099
sg82
g1084
sg75
(lp1100
g68
(g69
g70
NtRp1101
(dp1102
g73
(dp1103
g81
I4
ssg82
g1097
sg75
(lp1104
S'ISO-8859-1,utf-8;q=0.7,*;q=0.7'
p1105
asbasbasbag68
(g84
g70
NtRp1106
(dp1107
g73
(dp1108
sg82
g858
sg75
(lp1109
g68
(g89
g70
NtRp1110
(dp1111
g73
(dp1112
g93
g94
ssg82
g1106
sg75
(lp1113
S'http_accept_encoding'
p1114
asbag68
(g89
g70
NtRp1115
(dp1116
g73
(dp1117
g100
g101
ssg82
g1106
sg75
(lp1118
S':'
asbag68
(g89
g70
NtRp1119
(dp1120
g73
(dp1121
sg82
g1106
sg75
(lp1122
g68
(g69
g70
NtRp1123
(dp1124
g73
(dp1125
g81
I4
ssg82
g1119
sg75
(lp1126
S'gzip, deflate'
p1127
asbasbasbag68
(g84
g70
NtRp1128
(dp1129
g73
(dp1130
sg82
g858
sg75
(lp1131
g68
(g89
g70
NtRp1132
(dp1133
g73
(dp1134
g93
g94
ssg82
g1128
sg75
(lp1135
S'http_accept_language'
p1136
asbag68
(g89
g70
NtRp1137
(dp1138
g73
(dp1139
g100
g101
ssg82
g1128
sg75
(lp1140
S':'
asbag68
(g89
g70
NtRp1141
(dp1142
g73
(dp1143
sg82
g1128
sg75
(lp1144
g68
(g69
g70
NtRp1145
(dp1146
g73
(dp1147
g81
I4
ssg82
g1141
sg75
(lp1148
S'pt-br,pt;q=0.8,en-us;q=0.5,en;q=0.3'
p1149
asbasbasbag68
(g84
g70
NtRp1150
(dp1151
g73
(dp1152
sg82
g858
sg75
(lp1153
g68
(g89
g70
NtRp1154
(dp1155
g73
(dp1156
g93
g94
ssg82
g1150
sg75
(lp1157
S'http_connection'
p1158
asbag68
(g89
g70
NtRp1159
(dp1160
g73
(dp1161
g100
g101
ssg82
g1150
sg75
(lp1162
S':'
asbag68
(g89
g70
NtRp1163
(dp1164
g73
(dp1165
sg82
g1150
sg75
(lp1166
g68
(g69
g70
NtRp1167
(dp1168
g73
(dp1169
g81
I4
ssg82
g1163
sg75
(lp1170
S'keep-alive'
p1171
asbasbasbag68
(g84
g70
NtRp1172
(dp1173
g73
(dp1174
sg82
g858
sg75
(lp1175
g68
(g89
g70
NtRp1176
(dp1177
g73
(dp1178
g93
g94
ssg82
g1172
sg75
(lp1179
S'http_content_length'
p1180
asbag68
(g89
g70
NtRp1181
(dp1182
g73
(dp1183
g100
g101
ssg82
g1172
sg75
(lp1184
S':'
asbag68
(g89
g70
NtRp1185
(dp1186
g73
(dp1187
sg82
g1172
sg75
(lp1188
g68
(g69
g70
NtRp1189
(dp1190
g73
(dp1191
g81
I4
ssg82
g1185
sg75
(lp1192
g974
asbasbasbag68
(g84
g70
NtRp1193
(dp1194
g73
(dp1195
sg82
g858
sg75
(lp1196
g68
(g89
g70
NtRp1197
(dp1198
g73
(dp1199
g93
g94
ssg82
g1193
sg75
(lp1200
S'http_content_type'
p1201
asbag68
(g89
g70
NtRp1202
(dp1203
g73
(dp1204
g100
g101
ssg82
g1193
sg75
(lp1205
S':'
asbag68
(g89
g70
NtRp1206
(dp1207
g73
(dp1208
sg82
g1193
sg75
(lp1209
g68
(g69
g70
NtRp1210
(dp1211
g73
(dp1212
g81
I4
ssg82
g1206
sg75
(lp1213
g996
asbasbasbag68
(g84
g70
NtRp1214
(dp1215
g73
(dp1216
sg82
g858
sg75
(lp1217
g68
(g89
g70
NtRp1218
(dp1219
g73
(dp1220
g93
g94
ssg82
g1214
sg75
(lp1221
S'http_cookie'
p1222
asbag68
(g89
g70
NtRp1223
(dp1224
g73
(dp1225
g100
g101
ssg82
g1214
sg75
(lp1226
S':'
asbag68
(g89
g70
NtRp1227
(dp1228
g73
(dp1229
sg82
g1214
sg75
(lp1230
g68
(g69
g70
NtRp1231
(dp1232
g73
(dp1233
g81
I4
ssg82
g1227
sg75
(lp1234
S'session_id_welcome=127.0.0.1-5cd27a60-9290-4dfd-905a-2cae79e1b71d; session_id_admin=127.0.0.1-4fcac13e-289c-4471-92ed-6d5dcbf185e6; session_id_synopsis=127.0.0.1-351efa91-66d9-4ca2-9c53-1a2177b18dc7'
p1235
asbasbasbag68
(g84
g70
NtRp1236
(dp1237
g73
(dp1238
sg82
g858
sg75
(lp1239
g68
(g89
g70
NtRp1240
(dp1241
g73
(dp1242
g93
g94
ssg82
g1236
sg75
(lp1243
S'http_host'
p1244
asbag68
(g89
g70
NtRp1245
(dp1246
g73
(dp1247
g100
g101
ssg82
g1236
sg75
(lp1248
S':'
asbag68
(g89
g70
NtRp1249
(dp1250
g73
(dp1251
sg82
g1236
sg75
(lp1252
g68
(g69
g70
NtRp1253
(dp1254
g73
(dp1255
g81
I4
ssg82
g1249
sg75
(lp1256
S'localhost:8000'
p1257
asbasbasbag68
(g84
g70
NtRp1258
(dp1259
g73
(dp1260
sg82
g858
sg75
(lp1261
g68
(g89
g70
NtRp1262
(dp1263
g73
(dp1264
g93
g94
ssg82
g1258
sg75
(lp1265
S'http_referer'
p1266
asbag68
(g89
g70
NtRp1267
(dp1268
g73
(dp1269
g100
g101
ssg82
g1258
sg75
(lp1270
S':'
asbag68
(g89
g70
NtRp1271
(dp1272
g73
(dp1273
sg82
g1258
sg75
(lp1274
g68
(g69
g70
NtRp1275
(dp1276
g73
(dp1277
g81
I4
ssg82
g1271
sg75
(lp1278
S'http://localhost:8000/synopsis/information/new/publication/2'
p1279
asbasbasbag68
(g84
g70
NtRp1280
(dp1281
g73
(dp1282
sg82
g858
sg75
(lp1283
g68
(g89
g70
NtRp1284
(dp1285
g73
(dp1286
g93
g94
ssg82
g1280
sg75
(lp1287
S'http_user_agent'
p1288
asbag68
(g89
g70
NtRp1289
(dp1290
g73
(dp1291
g100
g101
ssg82
g1280
sg75
(lp1292
S':'
asbag68
(g89
g70
NtRp1293
(dp1294
g73
(dp1295
sg82
g1280
sg75
(lp1296
g68
(g69
g70
NtRp1297
(dp1298
g73
(dp1299
g81
I4
ssg82
g1293
sg75
(lp1300
S'Mozilla/5.0 (Ubuntu; X11; Linux x86_64; rv:9.0.1) Gecko/20100101 Firefox/9.0.1'
p1301
asbasbasbag68
(g84
g70
NtRp1302
(dp1303
g73
(dp1304
sg82
g858
sg75
(lp1305
g68
(g89
g70
NtRp1306
(dp1307
g73
(dp1308
g93
g94
ssg82
g1302
sg75
(lp1309
S'is_jython'
p1310
asbag68
(g89
g70
NtRp1311
(dp1312
g73
(dp1313
g100
g101
ssg82
g1302
sg75
(lp1314
S':'
asbag68
(g89
g70
NtRp1315
(dp1316
g73
(dp1317
sg82
g1302
sg75
(lp1318
g68
(g69
g70
NtRp1319
(dp1320
g73
(dp1321
g81
I4
ssg82
g1315
sg75
(lp1322
g111
asbasbasbag68
(g84
g70
NtRp1323
(dp1324
g73
(dp1325
sg82
g858
sg75
(lp1326
g68
(g89
g70
NtRp1327
(dp1328
g73
(dp1329
g93
g94
ssg82
g1323
sg75
(lp1330
S'path_info'
p1331
asbag68
(g89
g70
NtRp1332
(dp1333
g73
(dp1334
g100
g101
ssg82
g1323
sg75
(lp1335
S':'
asbag68
(g89
g70
NtRp1336
(dp1337
g73
(dp1338
sg82
g1323
sg75
(lp1339
g68
(g69
g70
NtRp1340
(dp1341
g73
(dp1342
g81
I4
ssg82
g1336
sg75
(lp1343
S'/synopsis/information/new/publication/2'
p1344
asbasbasbag68
(g84
g70
NtRp1345
(dp1346
g73
(dp1347
sg82
g858
sg75
(lp1348
g68
(g89
g70
NtRp1349
(dp1350
g73
(dp1351
g93
g94
ssg82
g1345
sg75
(lp1352
S'query_string'
p1353
asbag68
(g89
g70
NtRp1354
(dp1355
g73
(dp1356
g100
g101
ssg82
g1345
sg75
(lp1357
S':'
asbag68
(g89
g70
NtRp1358
(dp1359
g73
(dp1360
sg82
g1345
sg75
(lp1361
g68
(g69
g70
NtRp1362
(dp1363
g73
(dp1364
g81
I4
ssg82
g1358
sg75
(lp1365
S''
asbasbasbag68
(g84
g70
NtRp1366
(dp1367
g73
(dp1368
sg82
g858
sg75
(lp1369
g68
(g89
g70
NtRp1370
(dp1371
g73
(dp1372
g93
g94
ssg82
g1366
sg75
(lp1373
S'remote_addr'
p1374
asbag68
(g89
g70
NtRp1375
(dp1376
g73
(dp1377
g100
g101
ssg82
g1366
sg75
(lp1378
S':'
asbag68
(g89
g70
NtRp1379
(dp1380
g73
(dp1381
sg82
g1366
sg75
(lp1382
g68
(g69
g70
NtRp1383
(dp1384
g73
(dp1385
g81
I4
ssg82
g1379
sg75
(lp1386
g226
asbasbasbag68
(g84
g70
NtRp1387
(dp1388
g73
(dp1389
sg82
g858
sg75
(lp1390
g68
(g89
g70
NtRp1391
(dp1392
g73
(dp1393
g93
g94
ssg82
g1387
sg75
(lp1394
S'remote_port'
p1395
asbag68
(g89
g70
NtRp1396
(dp1397
g73
(dp1398
g100
g101
ssg82
g1387
sg75
(lp1399
S':'
asbag68
(g89
g70
NtRp1400
(dp1401
g73
(dp1402
sg82
g1387
sg75
(lp1403
g68
(g69
g70
NtRp1404
(dp1405
g73
(dp1406
g81
I4
ssg82
g1400
sg75
(lp1407
S'53230'
p1408
asbasbasbag68
(g84
g70
NtRp1409
(dp1410
g73
(dp1411
sg82
g858
sg75
(lp1412
g68
(g89
g70
NtRp1413
(dp1414
g73
(dp1415
g93
g94
ssg82
g1409
sg75
(lp1416
S'request_method'
p1417
asbag68
(g89
g70
NtRp1418
(dp1419
g73
(dp1420
g100
g101
ssg82
g1409
sg75
(lp1421
S':'
asbag68
(g89
g70
NtRp1422
(dp1423
g73
(dp1424
sg82
g1409
sg75
(lp1425
g68
(g69
g70
NtRp1426
(dp1427
g73
(dp1428
g81
I4
ssg82
g1422
sg75
(lp1429
S'POST'
p1430
asbasbasbag68
(g84
g70
NtRp1431
(dp1432
g73
(dp1433
sg82
g858
sg75
(lp1434
g68
(g89
g70
NtRp1435
(dp1436
g73
(dp1437
g93
g94
ssg82
g1431
sg75
(lp1438
S'script_name'
p1439
asbag68
(g89
g70
NtRp1440
(dp1441
g73
(dp1442
g100
g101
ssg82
g1431
sg75
(lp1443
S':'
asbag68
(g89
g70
NtRp1444
(dp1445
g73
(dp1446
sg82
g1431
sg75
(lp1447
g68
(g69
g70
NtRp1448
(dp1449
g73
(dp1450
g81
I4
ssg82
g1444
sg75
(lp1451
S''
asbasbasbag68
(g84
g70
NtRp1452
(dp1453
g73
(dp1454
sg82
g858
sg75
(lp1455
g68
(g89
g70
NtRp1456
(dp1457
g73
(dp1458
g93
g94
ssg82
g1452
sg75
(lp1459
S'server_name'
p1460
asbag68
(g89
g70
NtRp1461
(dp1462
g73
(dp1463
g100
g101
ssg82
g1452
sg75
(lp1464
S':'
asbag68
(g89
g70
NtRp1465
(dp1466
g73
(dp1467
sg82
g1452
sg75
(lp1468
g68
(g69
g70
NtRp1469
(dp1470
g73
(dp1471
g81
I4
ssg82
g1465
sg75
(lp1472
S'kaique-Pine-Trail-M'
p1473
asbasbasbag68
(g84
g70
NtRp1474
(dp1475
g73
(dp1476
sg82
g858
sg75
(lp1477
g68
(g89
g70
NtRp1478
(dp1479
g73
(dp1480
g93
g94
ssg82
g1474
sg75
(lp1481
S'server_port'
p1482
asbag68
(g89
g70
NtRp1483
(dp1484
g73
(dp1485
g100
g101
ssg82
g1474
sg75
(lp1486
S':'
asbag68
(g89
g70
NtRp1487
(dp1488
g73
(dp1489
sg82
g1474
sg75
(lp1490
g68
(g69
g70
NtRp1491
(dp1492
g73
(dp1493
g81
I4
ssg82
g1487
sg75
(lp1494
S'8000'
p1495
asbasbasbag68
(g84
g70
NtRp1496
(dp1497
g73
(dp1498
sg82
g858
sg75
(lp1499
g68
(g89
g70
NtRp1500
(dp1501
g73
(dp1502
g93
g94
ssg82
g1496
sg75
(lp1503
S'server_protocol'
p1504
asbag68
(g89
g70
NtRp1505
(dp1506
g73
(dp1507
g100
g101
ssg82
g1496
sg75
(lp1508
S':'
asbag68
(g89
g70
NtRp1509
(dp1510
g73
(dp1511
sg82
g1496
sg75
(lp1512
g68
(g69
g70
NtRp1513
(dp1514
g73
(dp1515
g81
I4
ssg82
g1509
sg75
(lp1516
S'HTTP/1.1'
p1517
asbasbasbag68
(g84
g70
NtRp1518
(dp1519
g73
(dp1520
sg82
g858
sg75
(lp1521
g68
(g89
g70
NtRp1522
(dp1523
g73
(dp1524
g93
g94
ssg82
g1518
sg75
(lp1525
S'server_software'
p1526
asbag68
(g89
g70
NtRp1527
(dp1528
g73
(dp1529
g100
g101
ssg82
g1518
sg75
(lp1530
S':'
asbag68
(g89
g70
NtRp1531
(dp1532
g73
(dp1533
sg82
g1518
sg75
(lp1534
g68
(g69
g70
NtRp1535
(dp1536
g73
(dp1537
g81
I4
ssg82
g1531
sg75
(lp1538
S'Rocket 1.2.4'
p1539
asbasbasbag68
(g84
g70
NtRp1540
(dp1541
g73
(dp1542
sg82
g858
sg75
(lp1543
g68
(g89
g70
NtRp1544
(dp1545
g73
(dp1546
g93
g94
ssg82
g1540
sg75
(lp1547
S'web2py_crontype'
p1548
asbag68
(g89
g70
NtRp1549
(dp1550
g73
(dp1551
g100
g101
ssg82
g1540
sg75
(lp1552
S':'
asbag68
(g89
g70
NtRp1553
(dp1554
g73
(dp1555
sg82
g1540
sg75
(lp1556
g68
(g69
g70
NtRp1557
(dp1558
g73
(dp1559
g81
I4
ssg82
g1553
sg75
(lp1560
S'hard'
p1561
asbasbasbag68
(g84
g70
NtRp1562
(dp1563
g73
(dp1564
sg82
g858
sg75
(lp1565
g68
(g89
g70
NtRp1566
(dp1567
g73
(dp1568
g93
g94
ssg82
g1562
sg75
(lp1569
S'web2py_path'
p1570
asbag68
(g89
g70
NtRp1571
(dp1572
g73
(dp1573
g100
g101
ssg82
g1562
sg75
(lp1574
S':'
asbag68
(g89
g70
NtRp1575
(dp1576
g73
(dp1577
sg82
g1562
sg75
(lp1578
g68
(g69
g70
NtRp1579
(dp1580
g73
(dp1581
g81
I4
ssg82
g1575
sg75
(lp1582
g905
asbasbasbag68
(g84
g70
NtRp1583
(dp1584
g73
(dp1585
sg82
g858
sg75
(lp1586
g68
(g89
g70
NtRp1587
(dp1588
g73
(dp1589
g93
g94
ssg82
g1583
sg75
(lp1590
S'web2py_version'
p1591
asbag68
(g89
g70
NtRp1592
(dp1593
g73
(dp1594
g100
g101
ssg82
g1583
sg75
(lp1595
S':'
asbag68
(g89
g70
NtRp1596
(dp1597
g73
(dp1598
sg82
g1583
sg75
(lp1599
g68
(g69
g70
NtRp1600
(dp1601
g73
(dp1602
g81
I4
ssg82
g1596
sg75
(lp1603
g68
(g77
g70
NtRp1604
(dp1605
g73
(dp1606
g81
I3
ssg82
Nsg75
(lp1607
g68
(g84
g70
NtRp1608
(dp1609
g73
(dp1610
sg82
g1604
sg75
(lp1611
g68
(g89
g70
NtRp1612
(dp1613
g73
(dp1614
sg82
g1608
sg75
(lp1615
g68
(g69
g70
NtRp1616
(dp1617
g73
(dp1618
g81
I3
ssg82
g1612
sg75
(lp1619
S'1'
asbasbasbag68
(g84
g70
NtRp1620
(dp1621
g73
(dp1622
sg82
g1604
sg75
(lp1623
g68
(g89
g70
NtRp1624
(dp1625
g73
(dp1626
sg82
g1620
sg75
(lp1627
g68
(g69
g70
NtRp1628
(dp1629
g73
(dp1630
g81
I3
ssg82
g1624
sg75
(lp1631
S'99'
p1632
asbasbasbag68
(g84
g70
NtRp1633
(dp1634
g73
(dp1635
sg82
g1604
sg75
(lp1636
g68
(g89
g70
NtRp1637
(dp1638
g73
(dp1639
sg82
g1633
sg75
(lp1640
g68
(g69
g70
NtRp1641
(dp1642
g73
(dp1643
g81
I3
ssg82
g1637
sg75
(lp1644
S'2'
asbasbasbag68
(g84
g70
NtRp1645
(dp1646
g73
(dp1647
sg82
g1604
sg75
(lp1648
g68
(g89
g70
NtRp1649
(dp1650
g73
(dp1651
sg82
g1645
sg75
(lp1652
g68
(g69
g70
NtRp1653
(dp1654
g73
(dp1655
g81
I3
ssg82
g1649
sg75
(lp1656
S'datetime.datetime(2011, 9, 26, 6, 55, 33)'
p1657
asbasbasbag68
(g84
g70
NtRp1658
(dp1659
g73
(dp1660
sg82
g1604
sg75
(lp1661
g68
(g89
g70
NtRp1662
(dp1663
g73
(dp1664
sg82
g1658
sg75
(lp1665
g68
(g69
g70
NtRp1666
(dp1667
g73
(dp1668
g81
I3
ssg82
g1662
sg75
(lp1669
S'stable'
p1670
asbasbasbasbasbasbasbag68
(g84
g70
NtRp1671
(dp1672
g73
(dp1673
sg82
g858
sg75
(lp1674
g68
(g89
g70
NtRp1675
(dp1676
g73
(dp1677
g93
g94
ssg82
g1671
sg75
(lp1678
S'wsgi_errors'
p1679
asbag68
(g89
g70
NtRp1680
(dp1681
g73
(dp1682
g100
g101
ssg82
g1671
sg75
(lp1683
S':'
asbag68
(g89
g70
NtRp1684
(dp1685
g73
(dp1686
sg82
g1671
sg75
(lp1687
g68
(g69
g70
NtRp1688
(dp1689
g73
(dp1690
g81
I4
ssg82
g1684
sg75
(lp1691
S"<open file '<stderr>', mode 'w' at 0x7f2b12e1a270>"
p1692
asbasbasbag68
(g84
g70
NtRp1693
(dp1694
g73
(dp1695
sg82
g858
sg75
(lp1696
g68
(g89
g70
NtRp1697
(dp1698
g73
(dp1699
g93
g94
ssg82
g1693
sg75
(lp1700
S'wsgi_file_wrapper'
p1701
asbag68
(g89
g70
NtRp1702
(dp1703
g73
(dp1704
g100
g101
ssg82
g1693
sg75
(lp1705
S':'
asbag68
(g89
g70
NtRp1706
(dp1707
g73
(dp1708
sg82
g1693
sg75
(lp1709
g68
(g69
g70
NtRp1710
(dp1711
g73
(dp1712
g81
I4
ssg82
g1706
sg75
(lp1713
S'<class wsgiref.util.FileWrapper at 0x2bf2ef0>'
p1714
asbasbasbag68
(g84
g70
NtRp1715
(dp1716
g73
(dp1717
sg82
g858
sg75
(lp1718
g68
(g89
g70
NtRp1719
(dp1720
g73
(dp1721
g93
g94
ssg82
g1715
sg75
(lp1722
S'wsgi_input'
p1723
asbag68
(g89
g70
NtRp1724
(dp1725
g73
(dp1726
g100
g101
ssg82
g1715
sg75
(lp1727
S':'
asbag68
(g89
g70
NtRp1728
(dp1729
g73
(dp1730
sg82
g1715
sg75
(lp1731
g68
(g69
g70
NtRp1732
(dp1733
g73
(dp1734
g81
I4
ssg82
g1728
sg75
(lp1735
S'<socket._fileobject object at 0x409d450>'
p1736
asbasbasbag68
(g84
g70
NtRp1737
(dp1738
g73
(dp1739
sg82
g858
sg75
(lp1740
g68
(g89
g70
NtRp1741
(dp1742
g73
(dp1743
g93
g94
ssg82
g1737
sg75
(lp1744
S'wsgi_multiprocess'
p1745
asbag68
(g89
g70
NtRp1746
(dp1747
g73
(dp1748
g100
g101
ssg82
g1737
sg75
(lp1749
S':'
asbag68
(g89
g70
NtRp1750
(dp1751
g73
(dp1752
sg82
g1737
sg75
(lp1753
g68
(g69
g70
NtRp1754
(dp1755
g73
(dp1756
g81
I4
ssg82
g1750
sg75
(lp1757
g111
asbasbasbag68
(g84
g70
NtRp1758
(dp1759
g73
(dp1760
sg82
g858
sg75
(lp1761
g68
(g89
g70
NtRp1762
(dp1763
g73
(dp1764
g93
g94
ssg82
g1758
sg75
(lp1765
S'wsgi_multithread'
p1766
asbag68
(g89
g70
NtRp1767
(dp1768
g73
(dp1769
g100
g101
ssg82
g1758
sg75
(lp1770
S':'
asbag68
(g89
g70
NtRp1771
(dp1772
g73
(dp1773
sg82
g1758
sg75
(lp1774
g68
(g69
g70
NtRp1775
(dp1776
g73
(dp1777
g81
I4
ssg82
g1771
sg75
(lp1778
S'True'
p1779
asbasbasbag68
(g84
g70
NtRp1780
(dp1781
g73
(dp1782
sg82
g858
sg75
(lp1783
g68
(g89
g70
NtRp1784
(dp1785
g73
(dp1786
g93
g94
ssg82
g1780
sg75
(lp1787
S'wsgi_run_once'
p1788
asbag68
(g89
g70
NtRp1789
(dp1790
g73
(dp1791
g100
g101
ssg82
g1780
sg75
(lp1792
S':'
asbag68
(g89
g70
NtRp1793
(dp1794
g73
(dp1795
sg82
g1780
sg75
(lp1796
g68
(g69
g70
NtRp1797
(dp1798
g73
(dp1799
g81
I4
ssg82
g1793
sg75
(lp1800
g111
asbasbasbag68
(g84
g70
NtRp1801
(dp1802
g73
(dp1803
sg82
g858
sg75
(lp1804
g68
(g89
g70
NtRp1805
(dp1806
g73
(dp1807
g93
g94
ssg82
g1801
sg75
(lp1808
S'wsgi_url_scheme'
p1809
asbag68
(g89
g70
NtRp1810
(dp1811
g73
(dp1812
g100
g101
ssg82
g1801
sg75
(lp1813
S':'
asbag68
(g89
g70
NtRp1814
(dp1815
g73
(dp1816
sg82
g1801
sg75
(lp1817
g68
(g69
g70
NtRp1818
(dp1819
g73
(dp1820
g81
I4
ssg82
g1814
sg75
(lp1821
S'http'
p1822
asbasbasbag68
(g84
g70
NtRp1823
(dp1824
g73
(dp1825
sg82
g858
sg75
(lp1826
g68
(g89
g70
NtRp1827
(dp1828
g73
(dp1829
g93
g94
ssg82
g1823
sg75
(lp1830
S'wsgi_version'
p1831
asbag68
(g89
g70
NtRp1832
(dp1833
g73
(dp1834
g100
g101
ssg82
g1823
sg75
(lp1835
S':'
asbag68
(g89
g70
NtRp1836
(dp1837
g73
(dp1838
sg82
g1823
sg75
(lp1839
g68
(g69
g70
NtRp1840
(dp1841
g73
(dp1842
g81
I4
ssg82
g1836
sg75
(lp1843
g68
(g77
g70
NtRp1844
(dp1845
g73
(dp1846
g81
I3
ssg82
Nsg75
(lp1847
g68
(g84
g70
NtRp1848
(dp1849
g73
(dp1850
sg82
g1844
sg75
(lp1851
g68
(g89
g70
NtRp1852
(dp1853
g73
(dp1854
sg82
g1848
sg75
(lp1855
g68
(g69
g70
NtRp1856
(dp1857
g73
(dp1858
g81
I3
ssg82
g1852
sg75
(lp1859
S'1'
asbasbasbag68
(g84
g70
NtRp1860
(dp1861
g73
(dp1862
sg82
g1844
sg75
(lp1863
g68
(g89
g70
NtRp1864
(dp1865
g73
(dp1866
sg82
g1860
sg75
(lp1867
g68
(g69
g70
NtRp1868
(dp1869
g73
(dp1870
g81
I3
ssg82
g1864
sg75
(lp1871
S'0'
asbasbasbasbasbasbasbasbasbasbasbag68
(g84
g70
NtRp1872
(dp1873
g73
(dp1874
sg82
g78
sg75
(lp1875
g68
(g89
g70
NtRp1876
(dp1877
g73
(dp1878
g93
g94
ssg82
g1872
sg75
(lp1879
S'extension'
p1880
asbag68
(g89
g70
NtRp1881
(dp1882
g73
(dp1883
g100
g101
ssg82
g1872
sg75
(lp1884
S':'
asbag68
(g89
g70
NtRp1885
(dp1886
g73
(dp1887
sg82
g1872
sg75
(lp1888
g68
(g69
g70
NtRp1889
(dp1890
g73
(dp1891
g81
I5
ssg82
g1885
sg75
(lp1892
S'html'
p1893
asbasbasbag68
(g84
g70
NtRp1894
(dp1895
g73
(dp1896
sg82
g78
sg75
(lp1897
g68
(g89
g70
NtRp1898
(dp1899
g73
(dp1900
g93
g94
ssg82
g1894
sg75
(lp1901
S'folder'
p1902
asbag68
(g89
g70
NtRp1903
(dp1904
g73
(dp1905
g100
g101
ssg82
g1894
sg75
(lp1906
S':'
asbag68
(g89
g70
NtRp1907
(dp1908
g73
(dp1909
sg82
g1894
sg75
(lp1910
g68
(g69
g70
NtRp1911
(dp1912
g73
(dp1913
g81
I5
ssg82
g1907
sg75
(lp1914
S'/home/kaique/Projects/web2py/applications/synopsis/'
p1915
asbasbasbag68
(g84
g70
NtRp1916
(dp1917
g73
(dp1918
sg82
g78
sg75
(lp1919
g68
(g89
g70
NtRp1920
(dp1921
g73
(dp1922
g93
g94
ssg82
g1916
sg75
(lp1923
S'function'
p1924
asbag68
(g89
g70
NtRp1925
(dp1926
g73
(dp1927
g100
g101
ssg82
g1916
sg75
(lp1928
S':'
asbag68
(g89
g70
NtRp1929
(dp1930
g73
(dp1931
sg82
g1916
sg75
(lp1932
g68
(g69
g70
NtRp1933
(dp1934
g73
(dp1935
g81
I5
ssg82
g1929
sg75
(lp1936
S'new'
p1937
asbasbasbag68
(g84
g70
NtRp1938
(dp1939
g73
(dp1940
sg82
g78
sg75
(lp1941
g68
(g89
g70
NtRp1942
(dp1943
g73
(dp1944
g93
g94
ssg82
g1938
sg75
(lp1945
S'get_vars'
p1946
asbag68
(g89
g70
NtRp1947
(dp1948
g73
(dp1949
g100
g101
ssg82
g1938
sg75
(lp1950
S':'
asbag68
(g89
g70
NtRp1951
(dp1952
g73
(dp1953
sg82
g1938
sg75
(lp1954
g68
(g69
g70
NtRp1955
(dp1956
g73
(dp1957
g81
I5
ssg82
g1951
sg75
(lp1958
g68
(g77
g70
NtRp1959
(dp1960
g73
(dp1961
g81
I4
ssg82
Nsg75
(lp1962
sbasbasbasbag68
(g84
g70
NtRp1963
(dp1964
g73
(dp1965
sg82
g78
sg75
(lp1966
g68
(g89
g70
NtRp1967
(dp1968
g73
(dp1969
g93
g94
ssg82
g1963
sg75
(lp1970
S'global_settings'
p1971
asbag68
(g89
g70
NtRp1972
(dp1973
g73
(dp1974
g100
g101
ssg82
g1963
sg75
(lp1975
S':'
asbag68
(g89
g70
NtRp1976
(dp1977
g73
(dp1978
sg82
g1963
sg75
(lp1979
g68
(g69
g70
NtRp1980
(dp1981
g73
(dp1982
g81
I5
ssg82
g1976
sg75
(lp1983
g68
(g77
g70
NtRp1984
(dp1985
g73
(dp1986
g81
I4
ssg82
Nsg75
(lp1987
g68
(g84
g70
NtRp1988
(dp1989
g73
(dp1990
sg82
g1984
sg75
(lp1991
g68
(g89
g70
NtRp1992
(dp1993
g73
(dp1994
g93
g94
ssg82
g1988
sg75
(lp1995
g870
asbag68
(g89
g70
NtRp1996
(dp1997
g73
(dp1998
g100
g101
ssg82
g1988
sg75
(lp1999
S':'
asbag68
(g89
g70
NtRp2000
(dp2001
g73
(dp2002
sg82
g1988
sg75
(lp2003
g68
(g69
g70
NtRp2004
(dp2005
g73
(dp2006
g81
I4
ssg82
g2000
sg75
(lp2007
S"set(['/home/kaique/Projects/web2py/applications/synopsis/', '/home/kaique/Projects/web2py/applications/admin/'])"
p2008
asbasbasbag68
(g84
g70
NtRp2009
(dp2010
g73
(dp2011
sg82
g1984
sg75
(lp2012
g68
(g89
g70
NtRp2013
(dp2014
g73
(dp2015
g93
g94
ssg82
g2009
sg75
(lp2016
g892
asbag68
(g89
g70
NtRp2017
(dp2018
g73
(dp2019
g100
g101
ssg82
g2009
sg75
(lp2020
S':'
asbag68
(g89
g70
NtRp2021
(dp2022
g73
(dp2023
sg82
g2009
sg75
(lp2024
g68
(g69
g70
NtRp2025
(dp2026
g73
(dp2027
g81
I4
ssg82
g2021
sg75
(lp2028
g905
asbasbasbag68
(g84
g70
NtRp2029
(dp2030
g73
(dp2031
sg82
g1984
sg75
(lp2032
g68
(g89
g70
NtRp2033
(dp2034
g73
(dp2035
g93
g94
ssg82
g2029
sg75
(lp2036
g914
asbag68
(g89
g70
NtRp2037
(dp2038
g73
(dp2039
g100
g101
ssg82
g2029
sg75
(lp2040
S':'
asbag68
(g89
g70
NtRp2041
(dp2042
g73
(dp2043
sg82
g2029
sg75
(lp2044
g68
(g69
g70
NtRp2045
(dp2046
g73
(dp2047
g81
I4
ssg82
g2041
sg75
(lp2048
g68
(g77
g70
NtRp2049
(dp2050
g73
(dp2051
g81
I3
ssg82
Nsg75
(lp2052
sbasbasbasbag68
(g84
g70
NtRp2053
(dp2054
g73
(dp2055
sg82
g1984
sg75
(lp2056
g68
(g89
g70
NtRp2057
(dp2058
g73
(dp2059
g93
g94
ssg82
g2053
sg75
(lp2060
g939
asbag68
(g89
g70
NtRp2061
(dp2062
g73
(dp2063
g100
g101
ssg82
g2053
sg75
(lp2064
S':'
asbag68
(g89
g70
NtRp2065
(dp2066
g73
(dp2067
sg82
g2053
sg75
(lp2068
g68
(g69
g70
NtRp2069
(dp2070
g73
(dp2071
g81
I4
ssg82
g2065
sg75
(lp2072
S"<Values at 0x2d3b950: {'verbose': False, 'ip': '127.0.0.1', 'shutdown_timeout': 5, 'taskbar': False, 'nocron': False, 'pid_filename': 'httpserver.pid', 'maxthreads': None, 'softcron': False, 'server_name': 'kaique-Pine-Trail-M', 'bpython': False, 'nogui': False, 'port': 8000, 'extcron': False, 'debuglevel': 30, 'test': None, 'folder': '/home/kaique/Projects/web2py', 'config': '', 'import_models': False, 'winservice': '', 'shell': None, 'run': '', 'log_filename': 'httpserver.log', 'args': [''], 'ssl_ca_certificate': None, 'scheduler': None, 'profiler_filename': None, 'ssl_private_key': '', 'password': 'dev', 'request_queue_size': 5, 'ssl_certificate': '', 'cronjob': False, 'plain': False, 'quiet': False, 'interfaces': None, 'minthreads': None, 'timeout': 10, 'numthreads': None, 'nobanner': False}>"
p2073
asbasbasbag68
(g84
g70
NtRp2074
(dp2075
g73
(dp2076
sg82
g1984
sg75
(lp2077
g68
(g89
g70
NtRp2078
(dp2079
g73
(dp2080
g93
g94
ssg82
g2074
sg75
(lp2081
g1005
asbag68
(g89
g70
NtRp2082
(dp2083
g73
(dp2084
g100
g101
ssg82
g2074
sg75
(lp2085
S':'
asbag68
(g89
g70
NtRp2086
(dp2087
g73
(dp2088
sg82
g2074
sg75
(lp2089
g68
(g69
g70
NtRp2090
(dp2091
g73
(dp2092
g81
I4
ssg82
g2086
sg75
(lp2093
S'set([])'
p2094
asbasbasbag68
(g84
g70
NtRp2095
(dp2096
g73
(dp2097
sg82
g1984
sg75
(lp2098
g68
(g89
g70
NtRp2099
(dp2100
g73
(dp2101
g93
g94
ssg82
g2095
sg75
(lp2102
g1027
asbag68
(g89
g70
NtRp2103
(dp2104
g73
(dp2105
g100
g101
ssg82
g2095
sg75
(lp2106
S':'
asbag68
(g89
g70
NtRp2107
(dp2108
g73
(dp2109
sg82
g2095
sg75
(lp2110
g68
(g69
g70
NtRp2111
(dp2112
g73
(dp2113
g81
I4
ssg82
g2107
sg75
(lp2114
g111
asbasbasbag68
(g84
g70
NtRp2115
(dp2116
g73
(dp2117
sg82
g1984
sg75
(lp2118
g68
(g89
g70
NtRp2119
(dp2120
g73
(dp2121
g93
g94
ssg82
g2115
sg75
(lp2122
g1048
asbag68
(g89
g70
NtRp2123
(dp2124
g73
(dp2125
g100
g101
ssg82
g2115
sg75
(lp2126
S':'
asbag68
(g89
g70
NtRp2127
(dp2128
g73
(dp2129
sg82
g2115
sg75
(lp2130
g68
(g69
g70
NtRp2131
(dp2132
g73
(dp2133
g81
I4
ssg82
g2127
sg75
(lp2134
g1061
asbasbasbag68
(g84
g70
NtRp2135
(dp2136
g73
(dp2137
sg82
g1984
sg75
(lp2138
g68
(g89
g70
NtRp2139
(dp2140
g73
(dp2141
g93
g94
ssg82
g2135
sg75
(lp2142
g1310
asbag68
(g89
g70
NtRp2143
(dp2144
g73
(dp2145
g100
g101
ssg82
g2135
sg75
(lp2146
S':'
asbag68
(g89
g70
NtRp2147
(dp2148
g73
(dp2149
sg82
g2135
sg75
(lp2150
g68
(g69
g70
NtRp2151
(dp2152
g73
(dp2153
g81
I4
ssg82
g2147
sg75
(lp2154
g111
asbasbasbag68
(g84
g70
NtRp2155
(dp2156
g73
(dp2157
sg82
g1984
sg75
(lp2158
g68
(g89
g70
NtRp2159
(dp2160
g73
(dp2161
g93
g94
ssg82
g2155
sg75
(lp2162
g1548
asbag68
(g89
g70
NtRp2163
(dp2164
g73
(dp2165
g100
g101
ssg82
g2155
sg75
(lp2166
S':'
asbag68
(g89
g70
NtRp2167
(dp2168
g73
(dp2169
sg82
g2155
sg75
(lp2170
g68
(g69
g70
NtRp2171
(dp2172
g73
(dp2173
g81
I4
ssg82
g2167
sg75
(lp2174
g1561
asbasbasbag68
(g84
g70
NtRp2175
(dp2176
g73
(dp2177
sg82
g1984
sg75
(lp2178
g68
(g89
g70
NtRp2179
(dp2180
g73
(dp2181
g93
g94
ssg82
g2175
sg75
(lp2182
g1591
asbag68
(g89
g70
NtRp2183
(dp2184
g73
(dp2185
g100
g101
ssg82
g2175
sg75
(lp2186
S':'
asbag68
(g89
g70
NtRp2187
(dp2188
g73
(dp2189
sg82
g2175
sg75
(lp2190
g68
(g69
g70
NtRp2191
(dp2192
g73
(dp2193
g81
I4
ssg82
g2187
sg75
(lp2194
g68
(g77
g70
NtRp2195
(dp2196
g73
(dp2197
g81
I3
ssg82
Nsg75
(lp2198
g68
(g84
g70
NtRp2199
(dp2200
g73
(dp2201
sg82
g2195
sg75
(lp2202
g68
(g89
g70
NtRp2203
(dp2204
g73
(dp2205
sg82
g2199
sg75
(lp2206
g68
(g69
g70
NtRp2207
(dp2208
g73
(dp2209
g81
I3
ssg82
g2203
sg75
(lp2210
S'1'
asbasbasbag68
(g84
g70
NtRp2211
(dp2212
g73
(dp2213
sg82
g2195
sg75
(lp2214
g68
(g89
g70
NtRp2215
(dp2216
g73
(dp2217
sg82
g2211
sg75
(lp2218
g68
(g69
g70
NtRp2219
(dp2220
g73
(dp2221
g81
I3
ssg82
g2215
sg75
(lp2222
S'99'
p2223
asbasbasbag68
(g84
g70
NtRp2224
(dp2225
g73
(dp2226
sg82
g2195
sg75
(lp2227
g68
(g89
g70
NtRp2228
(dp2229
g73
(dp2230
sg82
g2224
sg75
(lp2231
g68
(g69
g70
NtRp2232
(dp2233
g73
(dp2234
g81
I3
ssg82
g2228
sg75
(lp2235
S'2'
asbasbasbag68
(g84
g70
NtRp2236
(dp2237
g73
(dp2238
sg82
g2195
sg75
(lp2239
g68
(g89
g70
NtRp2240
(dp2241
g73
(dp2242
sg82
g2236
sg75
(lp2243
g68
(g69
g70
NtRp2244
(dp2245
g73
(dp2246
g81
I3
ssg82
g2240
sg75
(lp2247
S'datetime.datetime(2011, 9, 26, 6, 55, 33)'
p2248
asbasbasbag68
(g84
g70
NtRp2249
(dp2250
g73
(dp2251
sg82
g2195
sg75
(lp2252
g68
(g89
g70
NtRp2253
(dp2254
g73
(dp2255
sg82
g2249
sg75
(lp2256
g68
(g69
g70
NtRp2257
(dp2258
g73
(dp2259
g81
I3
ssg82
g2253
sg75
(lp2260
g1670
asbasbasbasbasbasbasbasbasbasbasbag68
(g84
g70
NtRp2261
(dp2262
g73
(dp2263
sg82
g78
sg75
(lp2264
g68
(g89
g70
NtRp2265
(dp2266
g73
(dp2267
g93
g94
ssg82
g2261
sg75
(lp2268
S'is_https'
p2269
asbag68
(g89
g70
NtRp2270
(dp2271
g73
(dp2272
g100
g101
ssg82
g2261
sg75
(lp2273
S':'
asbag68
(g89
g70
NtRp2274
(dp2275
g73
(dp2276
sg82
g2261
sg75
(lp2277
g68
(g69
g70
NtRp2278
(dp2279
g73
(dp2280
g81
I5
ssg82
g2274
sg75
(lp2281
g111
asbasbasbag68
(g84
g70
NtRp2282
(dp2283
g73
(dp2284
sg82
g78
sg75
(lp2285
g68
(g89
g70
NtRp2286
(dp2287
g73
(dp2288
g93
g94
ssg82
g2282
sg75
(lp2289
S'is_local'
p2290
asbag68
(g89
g70
NtRp2291
(dp2292
g73
(dp2293
g100
g101
ssg82
g2282
sg75
(lp2294
S':'
asbag68
(g89
g70
NtRp2295
(dp2296
g73
(dp2297
sg82
g2282
sg75
(lp2298
g68
(g69
g70
NtRp2299
(dp2300
g73
(dp2301
g81
I5
ssg82
g2295
sg75
(lp2302
g1779
asbasbasbag68
(g84
g70
NtRp2303
(dp2304
g73
(dp2305
sg82
g78
sg75
(lp2306
g68
(g89
g70
NtRp2307
(dp2308
g73
(dp2309
g93
g94
ssg82
g2303
sg75
(lp2310
S'is_restful'
p2311
asbag68
(g89
g70
NtRp2312
(dp2313
g73
(dp2314
g100
g101
ssg82
g2303
sg75
(lp2315
S':'
asbag68
(g89
g70
NtRp2316
(dp2317
g73
(dp2318
sg82
g2303
sg75
(lp2319
g68
(g69
g70
NtRp2320
(dp2321
g73
(dp2322
g81
I5
ssg82
g2316
sg75
(lp2323
g111
asbasbasbag68
(g84
g70
NtRp2324
(dp2325
g73
(dp2326
sg82
g78
sg75
(lp2327
g68
(g89
g70
NtRp2328
(dp2329
g73
(dp2330
g93
g94
ssg82
g2324
sg75
(lp2331
S'now'
p2332
asbag68
(g89
g70
NtRp2333
(dp2334
g73
(dp2335
g100
g101
ssg82
g2324
sg75
(lp2336
S':'
asbag68
(g89
g70
NtRp2337
(dp2338
g73
(dp2339
sg82
g2324
sg75
(lp2340
g68
(g69
g70
NtRp2341
(dp2342
g73
(dp2343
g81
I5
ssg82
g2337
sg75
(lp2344
S'datetime.datetime(2012, 1, 12, 13, 12, 26, 488804)'
p2345
asbasbasbag68
(g84
g70
NtRp2346
(dp2347
g73
(dp2348
sg82
g78
sg75
(lp2349
g68
(g89
g70
NtRp2350
(dp2351
g73
(dp2352
g93
g94
ssg82
g2346
sg75
(lp2353
S'post_vars'
p2354
asbag68
(g89
g70
NtRp2355
(dp2356
g73
(dp2357
g100
g101
ssg82
g2346
sg75
(lp2358
S':'
asbag68
(g89
g70
NtRp2359
(dp2360
g73
(dp2361
sg82
g2346
sg75
(lp2362
g68
(g69
g70
NtRp2363
(dp2364
g73
(dp2365
g81
I5
ssg82
g2359
sg75
(lp2366
g68
(g77
g70
NtRp2367
(dp2368
g73
(dp2369
g81
I4
ssg82
Nsg75
(lp2370
g68
(g84
g70
NtRp2371
(dp2372
g73
(dp2373
sg82
g2367
sg75
(lp2374
g68
(g89
g70
NtRp2375
(dp2376
g73
(dp2377
g93
g94
ssg82
g2371
sg75
(lp2378
S'sub_title'
p2379
asbag68
(g89
g70
NtRp2380
(dp2381
g73
(dp2382
g100
g101
ssg82
g2371
sg75
(lp2383
S':'
asbag68
(g89
g70
NtRp2384
(dp2385
g73
(dp2386
sg82
g2371
sg75
(lp2387
g68
(g69
g70
NtRp2388
(dp2389
g73
(dp2390
g81
I4
ssg82
g2384
sg75
(lp2391
S''
asbasbasbag68
(g84
g70
NtRp2392
(dp2393
g73
(dp2394
sg82
g2367
sg75
(lp2395
g68
(g89
g70
NtRp2396
(dp2397
g73
(dp2398
g93
g94
ssg82
g2392
sg75
(lp2399
S'title'
p2400
asbag68
(g89
g70
NtRp2401
(dp2402
g73
(dp2403
g100
g101
ssg82
g2392
sg75
(lp2404
S':'
asbag68
(g89
g70
NtRp2405
(dp2406
g73
(dp2407
sg82
g2392
sg75
(lp2408
g68
(g69
g70
NtRp2409
(dp2410
g73
(dp2411
g81
I4
ssg82
g2405
sg75
(lp2412
S'Title 2'
p2413
asbasbasbasbasbasbasbag68
(g84
g70
NtRp2414
(dp2415
g73
(dp2416
sg82
g78
sg75
(lp2417
g68
(g89
g70
NtRp2418
(dp2419
g73
(dp2420
g93
g94
ssg82
g2414
sg75
(lp2421
S'raw_args'
p2422
asbag68
(g89
g70
NtRp2423
(dp2424
g73
(dp2425
g100
g101
ssg82
g2414
sg75
(lp2426
S':'
asbag68
(g89
g70
NtRp2427
(dp2428
g73
(dp2429
sg82
g2414
sg75
(lp2430
g68
(g69
g70
NtRp2431
(dp2432
g73
(dp2433
g81
I5
ssg82
g2427
sg75
(lp2434
S'publication/2'
p2435
asbasbasbag68
(g84
g70
NtRp2436
(dp2437
g73
(dp2438
sg82
g78
sg75
(lp2439
g68
(g89
g70
NtRp2440
(dp2441
g73
(dp2442
g93
g94
ssg82
g2436
sg75
(lp2443
S'url'
p2444
asbag68
(g89
g70
NtRp2445
(dp2446
g73
(dp2447
g100
g101
ssg82
g2436
sg75
(lp2448
S':'
asbag68
(g89
g70
NtRp2449
(dp2450
g73
(dp2451
sg82
g2436
sg75
(lp2452
g68
(g69
g70
NtRp2453
(dp2454
g73
(dp2455
g81
I5
ssg82
g2449
sg75
(lp2456
S'/synopsis/information/new/publication/2'
p2457
asbasbasbag68
(g84
g70
NtRp2458
(dp2459
g73
(dp2460
sg82
g78
sg75
(lp2461
g68
(g89
g70
NtRp2462
(dp2463
g73
(dp2464
g93
g94
ssg82
g2458
sg75
(lp2465
S'utcnow'
p2466
asbag68
(g89
g70
NtRp2467
(dp2468
g73
(dp2469
g100
g101
ssg82
g2458
sg75
(lp2470
S':'
asbag68
(g89
g70
NtRp2471
(dp2472
g73
(dp2473
sg82
g2458
sg75
(lp2474
g68
(g69
g70
NtRp2475
(dp2476
g73
(dp2477
g81
I5
ssg82
g2471
sg75
(lp2478
S'datetime.datetime(2012, 1, 12, 15, 12, 26, 488961)'
p2479
asbasbasbag68
(g84
g70
NtRp2480
(dp2481
g73
(dp2482
sg82
g78
sg75
(lp2483
g68
(g89
g70
NtRp2484
(dp2485
g73
(dp2486
g93
g94
ssg82
g2480
sg75
(lp2487
S'uuid'
p2488
asbag68
(g89
g70
NtRp2489
(dp2490
g73
(dp2491
g100
g101
ssg82
g2480
sg75
(lp2492
S':'
asbag68
(g89
g70
NtRp2493
(dp2494
g73
(dp2495
sg82
g2480
sg75
(lp2496
g68
(g69
g70
NtRp2497
(dp2498
g73
(dp2499
g81
I5
ssg82
g2493
sg75
(lp2500
S'synopsis/127.0.0.1.2012-01-12.13-12-26.48e39c9b-23cd-4eaa-8e71-441e205b6826'
p2501
asbasbasbag68
(g84
g70
NtRp2502
(dp2503
g73
(dp2504
sg82
g78
sg75
(lp2505
g68
(g89
g70
NtRp2506
(dp2507
g73
(dp2508
g93
g94
ssg82
g2502
sg75
(lp2509
S'vars'
p2510
asbag68
(g89
g70
NtRp2511
(dp2512
g73
(dp2513
g100
g101
ssg82
g2502
sg75
(lp2514
S':'
asbag68
(g89
g70
NtRp2515
(dp2516
g73
(dp2517
sg82
g2502
sg75
(lp2518
g68
(g69
g70
NtRp2519
(dp2520
g73
(dp2521
g81
I5
ssg82
g2515
sg75
(lp2522
g68
(g77
g70
NtRp2523
(dp2524
g73
(dp2525
g81
I4
ssg82
Nsg75
(lp2526
g68
(g84
g70
NtRp2527
(dp2528
g73
(dp2529
sg82
g2523
sg75
(lp2530
g68
(g89
g70
NtRp2531
(dp2532
g73
(dp2533
g93
g94
ssg82
g2527
sg75
(lp2534
g2379
asbag68
(g89
g70
NtRp2535
(dp2536
g73
(dp2537
g100
g101
ssg82
g2527
sg75
(lp2538
S':'
asbag68
(g89
g70
NtRp2539
(dp2540
g73
(dp2541
sg82
g2527
sg75
(lp2542
g68
(g69
g70
NtRp2543
(dp2544
g73
(dp2545
g81
I4
ssg82
g2539
sg75
(lp2546
S''
asbasbasbag68
(g84
g70
NtRp2547
(dp2548
g73
(dp2549
sg82
g2523
sg75
(lp2550
g68
(g89
g70
NtRp2551
(dp2552
g73
(dp2553
g93
g94
ssg82
g2547
sg75
(lp2554
g2400
asbag68
(g89
g70
NtRp2555
(dp2556
g73
(dp2557
g100
g101
ssg82
g2547
sg75
(lp2558
S':'
asbag68
(g89
g70
NtRp2559
(dp2560
g73
(dp2561
sg82
g2547
sg75
(lp2562
g68
(g69
g70
NtRp2563
(dp2564
g73
(dp2565
g81
I4
ssg82
g2559
sg75
(lp2566
g2413
asbasbasbasbasbasbasbag68
(g84
g70
NtRp2567
(dp2568
g73
(dp2569
sg82
g78
sg75
(lp2570
g68
(g89
g70
NtRp2571
(dp2572
g73
(dp2573
g93
g94
ssg82
g2567
sg75
(lp2574
S'wsgi'
p2575
asbag68
(g89
g70
NtRp2576
(dp2577
g73
(dp2578
g100
g101
ssg82
g2567
sg75
(lp2579
S':'
asbag68
(g89
g70
NtRp2580
(dp2581
g73
(dp2582
sg82
g2567
sg75
(lp2583
g68
(g69
g70
NtRp2584
(dp2585
g73
(dp2586
g81
I5
ssg82
g2580
sg75
(lp2587
g68
(g77
g70
NtRp2588
(dp2589
g73
(dp2590
g81
I4
ssg82
Nsg75
(lp2591
g68
(g84
g70
NtRp2592
(dp2593
g73
(dp2594
sg82
g2588
sg75
(lp2595
g68
(g89
g70
NtRp2596
(dp2597
g73
(dp2598
g93
g94
ssg82
g2592
sg75
(lp2599
S'environ'
p2600
asbag68
(g89
g70
NtRp2601
(dp2602
g73
(dp2603
g100
g101
ssg82
g2592
sg75
(lp2604
S':'
asbag68
(g89
g70
NtRp2605
(dp2606
g73
(dp2607
sg82
g2592
sg75
(lp2608
g68
(g69
g70
NtRp2609
(dp2610
g73
(dp2611
g81
I4
ssg82
g2605
sg75
(lp2612
g68
(g77
g70
NtRp2613
(dp2614
g73
(dp2615
g81
I3
ssg82
Nsg75
(lp2616
g68
(g84
g70
NtRp2617
(dp2618
g73
(dp2619
sg82
g2613
sg75
(lp2620
g68
(g89
g70
NtRp2621
(dp2622
g73
(dp2623
g93
g94
ssg82
g2617
sg75
(lp2624
S'CONTENT_LENGTH'
p2625
asbag68
(g89
g70
NtRp2626
(dp2627
g73
(dp2628
g100
g101
ssg82
g2617
sg75
(lp2629
S':'
asbag68
(g89
g70
NtRp2630
(dp2631
g73
(dp2632
sg82
g2617
sg75
(lp2633
g68
(g69
g70
NtRp2634
(dp2635
g73
(dp2636
g81
I3
ssg82
g2630
sg75
(lp2637
g974
asbasbasbag68
(g84
g70
NtRp2638
(dp2639
g73
(dp2640
sg82
g2613
sg75
(lp2641
g68
(g89
g70
NtRp2642
(dp2643
g73
(dp2644
g93
g94
ssg82
g2638
sg75
(lp2645
S'CONTENT_TYPE'
p2646
asbag68
(g89
g70
NtRp2647
(dp2648
g73
(dp2649
g100
g101
ssg82
g2638
sg75
(lp2650
S':'
asbag68
(g89
g70
NtRp2651
(dp2652
g73
(dp2653
sg82
g2638
sg75
(lp2654
g68
(g69
g70
NtRp2655
(dp2656
g73
(dp2657
g81
I3
ssg82
g2651
sg75
(lp2658
g996
asbasbasbag68
(g84
g70
NtRp2659
(dp2660
g73
(dp2661
sg82
g2613
sg75
(lp2662
g68
(g89
g70
NtRp2663
(dp2664
g73
(dp2665
g93
g94
ssg82
g2659
sg75
(lp2666
S'HTTP_ACCEPT'
p2667
asbag68
(g89
g70
NtRp2668
(dp2669
g73
(dp2670
g100
g101
ssg82
g2659
sg75
(lp2671
S':'
asbag68
(g89
g70
NtRp2672
(dp2673
g73
(dp2674
sg82
g2659
sg75
(lp2675
g68
(g69
g70
NtRp2676
(dp2677
g73
(dp2678
g81
I3
ssg82
g2672
sg75
(lp2679
g1083
asbasbasbag68
(g84
g70
NtRp2680
(dp2681
g73
(dp2682
sg82
g2613
sg75
(lp2683
g68
(g89
g70
NtRp2684
(dp2685
g73
(dp2686
g93
g94
ssg82
g2680
sg75
(lp2687
S'HTTP_ACCEPT_CHARSET'
p2688
asbag68
(g89
g70
NtRp2689
(dp2690
g73
(dp2691
g100
g101
ssg82
g2680
sg75
(lp2692
S':'
asbag68
(g89
g70
NtRp2693
(dp2694
g73
(dp2695
sg82
g2680
sg75
(lp2696
g68
(g69
g70
NtRp2697
(dp2698
g73
(dp2699
g81
I3
ssg82
g2693
sg75
(lp2700
g1105
asbasbasbag68
(g84
g70
NtRp2701
(dp2702
g73
(dp2703
sg82
g2613
sg75
(lp2704
g68
(g89
g70
NtRp2705
(dp2706
g73
(dp2707
g93
g94
ssg82
g2701
sg75
(lp2708
S'HTTP_ACCEPT_ENCODING'
p2709
asbag68
(g89
g70
NtRp2710
(dp2711
g73
(dp2712
g100
g101
ssg82
g2701
sg75
(lp2713
S':'
asbag68
(g89
g70
NtRp2714
(dp2715
g73
(dp2716
sg82
g2701
sg75
(lp2717
g68
(g69
g70
NtRp2718
(dp2719
g73
(dp2720
g81
I3
ssg82
g2714
sg75
(lp2721
g1127
asbasbasbag68
(g84
g70
NtRp2722
(dp2723
g73
(dp2724
sg82
g2613
sg75
(lp2725
g68
(g89
g70
NtRp2726
(dp2727
g73
(dp2728
g93
g94
ssg82
g2722
sg75
(lp2729
S'HTTP_ACCEPT_LANGUAGE'
p2730
asbag68
(g89
g70
NtRp2731
(dp2732
g73
(dp2733
g100
g101
ssg82
g2722
sg75
(lp2734
S':'
asbag68
(g89
g70
NtRp2735
(dp2736
g73
(dp2737
sg82
g2722
sg75
(lp2738
g68
(g69
g70
NtRp2739
(dp2740
g73
(dp2741
g81
I3
ssg82
g2735
sg75
(lp2742
g1149
asbasbasbag68
(g84
g70
NtRp2743
(dp2744
g73
(dp2745
sg82
g2613
sg75
(lp2746
g68
(g89
g70
NtRp2747
(dp2748
g73
(dp2749
g93
g94
ssg82
g2743
sg75
(lp2750
S'HTTP_CONNECTION'
p2751
asbag68
(g89
g70
NtRp2752
(dp2753
g73
(dp2754
g100
g101
ssg82
g2743
sg75
(lp2755
S':'
asbag68
(g89
g70
NtRp2756
(dp2757
g73
(dp2758
sg82
g2743
sg75
(lp2759
g68
(g69
g70
NtRp2760
(dp2761
g73
(dp2762
g81
I3
ssg82
g2756
sg75
(lp2763
g1171
asbasbasbag68
(g84
g70
NtRp2764
(dp2765
g73
(dp2766
sg82
g2613
sg75
(lp2767
g68
(g89
g70
NtRp2768
(dp2769
g73
(dp2770
g93
g94
ssg82
g2764
sg75
(lp2771
S'HTTP_CONTENT_LENGTH'
p2772
asbag68
(g89
g70
NtRp2773
(dp2774
g73
(dp2775
g100
g101
ssg82
g2764
sg75
(lp2776
S':'
asbag68
(g89
g70
NtRp2777
(dp2778
g73
(dp2779
sg82
g2764
sg75
(lp2780
g68
(g69
g70
NtRp2781
(dp2782
g73
(dp2783
g81
I3
ssg82
g2777
sg75
(lp2784
g974
asbasbasbag68
(g84
g70
NtRp2785
(dp2786
g73
(dp2787
sg82
g2613
sg75
(lp2788
g68
(g89
g70
NtRp2789
(dp2790
g73
(dp2791
g93
g94
ssg82
g2785
sg75
(lp2792
S'HTTP_CONTENT_TYPE'
p2793
asbag68
(g89
g70
NtRp2794
(dp2795
g73
(dp2796
g100
g101
ssg82
g2785
sg75
(lp2797
S':'
asbag68
(g89
g70
NtRp2798
(dp2799
g73
(dp2800
sg82
g2785
sg75
(lp2801
g68
(g69
g70
NtRp2802
(dp2803
g73
(dp2804
g81
I3
ssg82
g2798
sg75
(lp2805
g996
asbasbasbag68
(g84
g70
NtRp2806
(dp2807
g73
(dp2808
sg82
g2613
sg75
(lp2809
g68
(g89
g70
NtRp2810
(dp2811
g73
(dp2812
g93
g94
ssg82
g2806
sg75
(lp2813
S'HTTP_COOKIE'
p2814
asbag68
(g89
g70
NtRp2815
(dp2816
g73
(dp2817
g100
g101
ssg82
g2806
sg75
(lp2818
S':'
asbag68
(g89
g70
NtRp2819
(dp2820
g73
(dp2821
sg82
g2806
sg75
(lp2822
g68
(g69
g70
NtRp2823
(dp2824
g73
(dp2825
g81
I3
ssg82
g2819
sg75
(lp2826
g1235
asbasbasbag68
(g84
g70
NtRp2827
(dp2828
g73
(dp2829
sg82
g2613
sg75
(lp2830
g68
(g89
g70
NtRp2831
(dp2832
g73
(dp2833
g93
g94
ssg82
g2827
sg75
(lp2834
S'HTTP_HOST'
p2835
asbag68
(g89
g70
NtRp2836
(dp2837
g73
(dp2838
g100
g101
ssg82
g2827
sg75
(lp2839
S':'
asbag68
(g89
g70
NtRp2840
(dp2841
g73
(dp2842
sg82
g2827
sg75
(lp2843
g68
(g69
g70
NtRp2844
(dp2845
g73
(dp2846
g81
I3
ssg82
g2840
sg75
(lp2847
g1257
asbasbasbag68
(g84
g70
NtRp2848
(dp2849
g73
(dp2850
sg82
g2613
sg75
(lp2851
g68
(g89
g70
NtRp2852
(dp2853
g73
(dp2854
g93
g94
ssg82
g2848
sg75
(lp2855
S'HTTP_REFERER'
p2856
asbag68
(g89
g70
NtRp2857
(dp2858
g73
(dp2859
g100
g101
ssg82
g2848
sg75
(lp2860
S':'
asbag68
(g89
g70
NtRp2861
(dp2862
g73
(dp2863
sg82
g2848
sg75
(lp2864
g68
(g69
g70
NtRp2865
(dp2866
g73
(dp2867
g81
I3
ssg82
g2861
sg75
(lp2868
g1279
asbasbasbag68
(g84
g70
NtRp2869
(dp2870
g73
(dp2871
sg82
g2613
sg75
(lp2872
g68
(g89
g70
NtRp2873
(dp2874
g73
(dp2875
g93
g94
ssg82
g2869
sg75
(lp2876
S'HTTP_USER_AGENT'
p2877
asbag68
(g89
g70
NtRp2878
(dp2879
g73
(dp2880
g100
g101
ssg82
g2869
sg75
(lp2881
S':'
asbag68
(g89
g70
NtRp2882
(dp2883
g73
(dp2884
sg82
g2869
sg75
(lp2885
g68
(g69
g70
NtRp2886
(dp2887
g73
(dp2888
g81
I3
ssg82
g2882
sg75
(lp2889
g1301
asbasbasbag68
(g84
g70
NtRp2890
(dp2891
g73
(dp2892
sg82
g2613
sg75
(lp2893
g68
(g89
g70
NtRp2894
(dp2895
g73
(dp2896
g93
g94
ssg82
g2890
sg75
(lp2897
S'PATH_INFO'
p2898
asbag68
(g89
g70
NtRp2899
(dp2900
g73
(dp2901
g100
g101
ssg82
g2890
sg75
(lp2902
S':'
asbag68
(g89
g70
NtRp2903
(dp2904
g73
(dp2905
sg82
g2890
sg75
(lp2906
g68
(g69
g70
NtRp2907
(dp2908
g73
(dp2909
g81
I3
ssg82
g2903
sg75
(lp2910
g1344
asbasbasbag68
(g84
g70
NtRp2911
(dp2912
g73
(dp2913
sg82
g2613
sg75
(lp2914
g68
(g89
g70
NtRp2915
(dp2916
g73
(dp2917
g93
g94
ssg82
g2911
sg75
(lp2918
S'QUERY_STRING'
p2919
asbag68
(g89
g70
NtRp2920
(dp2921
g73
(dp2922
g100
g101
ssg82
g2911
sg75
(lp2923
S':'
asbag68
(g89
g70
NtRp2924
(dp2925
g73
(dp2926
sg82
g2911
sg75
(lp2927
g68
(g69
g70
NtRp2928
(dp2929
g73
(dp2930
g81
I3
ssg82
g2924
sg75
(lp2931
S''
asbasbasbag68
(g84
g70
NtRp2932
(dp2933
g73
(dp2934
sg82
g2613
sg75
(lp2935
g68
(g89
g70
NtRp2936
(dp2937
g73
(dp2938
g93
g94
ssg82
g2932
sg75
(lp2939
S'REMOTE_ADDR'
p2940
asbag68
(g89
g70
NtRp2941
(dp2942
g73
(dp2943
g100
g101
ssg82
g2932
sg75
(lp2944
S':'
asbag68
(g89
g70
NtRp2945
(dp2946
g73
(dp2947
sg82
g2932
sg75
(lp2948
g68
(g69
g70
NtRp2949
(dp2950
g73
(dp2951
g81
I3
ssg82
g2945
sg75
(lp2952
g226
asbasbasbag68
(g84
g70
NtRp2953
(dp2954
g73
(dp2955
sg82
g2613
sg75
(lp2956
g68
(g89
g70
NtRp2957
(dp2958
g73
(dp2959
g93
g94
ssg82
g2953
sg75
(lp2960
S'REMOTE_PORT'
p2961
asbag68
(g89
g70
NtRp2962
(dp2963
g73
(dp2964
g100
g101
ssg82
g2953
sg75
(lp2965
S':'
asbag68
(g89
g70
NtRp2966
(dp2967
g73
(dp2968
sg82
g2953
sg75
(lp2969
g68
(g69
g70
NtRp2970
(dp2971
g73
(dp2972
g81
I3
ssg82
g2966
sg75
(lp2973
g1408
asbasbasbag68
(g84
g70
NtRp2974
(dp2975
g73
(dp2976
sg82
g2613
sg75
(lp2977
g68
(g89
g70
NtRp2978
(dp2979
g73
(dp2980
g93
g94
ssg82
g2974
sg75
(lp2981
S'REQUEST_METHOD'
p2982
asbag68
(g89
g70
NtRp2983
(dp2984
g73
(dp2985
g100
g101
ssg82
g2974
sg75
(lp2986
S':'
asbag68
(g89
g70
NtRp2987
(dp2988
g73
(dp2989
sg82
g2974
sg75
(lp2990
g68
(g69
g70
NtRp2991
(dp2992
g73
(dp2993
g81
I3
ssg82
g2987
sg75
(lp2994
g1430
asbasbasbag68
(g84
g70
NtRp2995
(dp2996
g73
(dp2997
sg82
g2613
sg75
(lp2998
g68
(g89
g70
NtRp2999
(dp3000
g73
(dp3001
g93
g94
ssg82
g2995
sg75
(lp3002
S'SCRIPT_NAME'
p3003
asbag68
(g89
g70
NtRp3004
(dp3005
g73
(dp3006
g100
g101
ssg82
g2995
sg75
(lp3007
S':'
asbag68
(g89
g70
NtRp3008
(dp3009
g73
(dp3010
sg82
g2995
sg75
(lp3011
g68
(g69
g70
NtRp3012
(dp3013
g73
(dp3014
g81
I3
ssg82
g3008
sg75
(lp3015
S''
asbasbasbag68
(g84
g70
NtRp3016
(dp3017
g73
(dp3018
sg82
g2613
sg75
(lp3019
g68
(g89
g70
NtRp3020
(dp3021
g73
(dp3022
g93
g94
ssg82
g3016
sg75
(lp3023
S'SERVER_NAME'
p3024
asbag68
(g89
g70
NtRp3025
(dp3026
g73
(dp3027
g100
g101
ssg82
g3016
sg75
(lp3028
S':'
asbag68
(g89
g70
NtRp3029
(dp3030
g73
(dp3031
sg82
g3016
sg75
(lp3032
g68
(g69
g70
NtRp3033
(dp3034
g73
(dp3035
g81
I3
ssg82
g3029
sg75
(lp3036
g1473
asbasbasbag68
(g84
g70
NtRp3037
(dp3038
g73
(dp3039
sg82
g2613
sg75
(lp3040
g68
(g89
g70
NtRp3041
(dp3042
g73
(dp3043
g93
g94
ssg82
g3037
sg75
(lp3044
S'SERVER_PORT'
p3045
asbag68
(g89
g70
NtRp3046
(dp3047
g73
(dp3048
g100
g101
ssg82
g3037
sg75
(lp3049
S':'
asbag68
(g89
g70
NtRp3050
(dp3051
g73
(dp3052
sg82
g3037
sg75
(lp3053
g68
(g69
g70
NtRp3054
(dp3055
g73
(dp3056
g81
I3
ssg82
g3050
sg75
(lp3057
g1495
asbasbasbag68
(g84
g70
NtRp3058
(dp3059
g73
(dp3060
sg82
g2613
sg75
(lp3061
g68
(g89
g70
NtRp3062
(dp3063
g73
(dp3064
g93
g94
ssg82
g3058
sg75
(lp3065
S'SERVER_PROTOCOL'
p3066
asbag68
(g89
g70
NtRp3067
(dp3068
g73
(dp3069
g100
g101
ssg82
g3058
sg75
(lp3070
S':'
asbag68
(g89
g70
NtRp3071
(dp3072
g73
(dp3073
sg82
g3058
sg75
(lp3074
g68
(g69
g70
NtRp3075
(dp3076
g73
(dp3077
g81
I3
ssg82
g3071
sg75
(lp3078
g1517
asbasbasbag68
(g84
g70
NtRp3079
(dp3080
g73
(dp3081
sg82
g2613
sg75
(lp3082
g68
(g89
g70
NtRp3083
(dp3084
g73
(dp3085
g93
g94
ssg82
g3079
sg75
(lp3086
S'SERVER_SOFTWARE'
p3087
asbag68
(g89
g70
NtRp3088
(dp3089
g73
(dp3090
g100
g101
ssg82
g3079
sg75
(lp3091
S':'
asbag68
(g89
g70
NtRp3092
(dp3093
g73
(dp3094
sg82
g3079
sg75
(lp3095
g68
(g69
g70
NtRp3096
(dp3097
g73
(dp3098
g81
I3
ssg82
g3092
sg75
(lp3099
g1539
asbasbasbag68
(g84
g70
NtRp3100
(dp3101
g73
(dp3102
sg82
g2613
sg75
(lp3103
g68
(g89
g70
NtRp3104
(dp3105
g73
(dp3106
g93
g94
ssg82
g3100
sg75
(lp3107
S'wsgi.errors'
p3108
asbag68
(g89
g70
NtRp3109
(dp3110
g73
(dp3111
g100
g101
ssg82
g3100
sg75
(lp3112
S':'
asbag68
(g89
g70
NtRp3113
(dp3114
g73
(dp3115
sg82
g3100
sg75
(lp3116
g68
(g69
g70
NtRp3117
(dp3118
g73
(dp3119
g81
I3
ssg82
g3113
sg75
(lp3120
S"<open file '<stderr>', mode 'w' at 0x7f2b12e1a270>"
p3121
asbasbasbag68
(g84
g70
NtRp3122
(dp3123
g73
(dp3124
sg82
g2613
sg75
(lp3125
g68
(g89
g70
NtRp3126
(dp3127
g73
(dp3128
g93
g94
ssg82
g3122
sg75
(lp3129
S'wsgi.file_wrapper'
p3130
asbag68
(g89
g70
NtRp3131
(dp3132
g73
(dp3133
g100
g101
ssg82
g3122
sg75
(lp3134
S':'
asbag68
(g89
g70
NtRp3135
(dp3136
g73
(dp3137
sg82
g3122
sg75
(lp3138
g68
(g69
g70
NtRp3139
(dp3140
g73
(dp3141
g81
I3
ssg82
g3135
sg75
(lp3142
S'<class wsgiref.util.FileWrapper at 0x2bf2ef0>'
p3143
asbasbasbag68
(g84
g70
NtRp3144
(dp3145
g73
(dp3146
sg82
g2613
sg75
(lp3147
g68
(g89
g70
NtRp3148
(dp3149
g73
(dp3150
g93
g94
ssg82
g3144
sg75
(lp3151
S'wsgi.input'
p3152
asbag68
(g89
g70
NtRp3153
(dp3154
g73
(dp3155
g100
g101
ssg82
g3144
sg75
(lp3156
S':'
asbag68
(g89
g70
NtRp3157
(dp3158
g73
(dp3159
sg82
g3144
sg75
(lp3160
g68
(g69
g70
NtRp3161
(dp3162
g73
(dp3163
g81
I3
ssg82
g3157
sg75
(lp3164
S"<open file '<fdopen>', mode 'w+b' at 0x41d2540>"
p3165
asbasbasbag68
(g84
g70
NtRp3166
(dp3167
g73
(dp3168
sg82
g2613
sg75
(lp3169
g68
(g89
g70
NtRp3170
(dp3171
g73
(dp3172
g93
g94
ssg82
g3166
sg75
(lp3173
S'wsgi.multiprocess'
p3174
asbag68
(g89
g70
NtRp3175
(dp3176
g73
(dp3177
g100
g101
ssg82
g3166
sg75
(lp3178
S':'
asbag68
(g89
g70
NtRp3179
(dp3180
g73
(dp3181
sg82
g3166
sg75
(lp3182
g68
(g69
g70
NtRp3183
(dp3184
g73
(dp3185
g81
I3
ssg82
g3179
sg75
(lp3186
g111
asbasbasbag68
(g84
g70
NtRp3187
(dp3188
g73
(dp3189
sg82
g2613
sg75
(lp3190
g68
(g89
g70
NtRp3191
(dp3192
g73
(dp3193
g93
g94
ssg82
g3187
sg75
(lp3194
S'wsgi.multithread'
p3195
asbag68
(g89
g70
NtRp3196
(dp3197
g73
(dp3198
g100
g101
ssg82
g3187
sg75
(lp3199
S':'
asbag68
(g89
g70
NtRp3200
(dp3201
g73
(dp3202
sg82
g3187
sg75
(lp3203
g68
(g69
g70
NtRp3204
(dp3205
g73
(dp3206
g81
I3
ssg82
g3200
sg75
(lp3207
g1779
asbasbasbag68
(g84
g70
NtRp3208
(dp3209
g73
(dp3210
sg82
g2613
sg75
(lp3211
g68
(g89
g70
NtRp3212
(dp3213
g73
(dp3214
g93
g94
ssg82
g3208
sg75
(lp3215
S'wsgi.run_once'
p3216
asbag68
(g89
g70
NtRp3217
(dp3218
g73
(dp3219
g100
g101
ssg82
g3208
sg75
(lp3220
S':'
asbag68
(g89
g70
NtRp3221
(dp3222
g73
(dp3223
sg82
g3208
sg75
(lp3224
g68
(g69
g70
NtRp3225
(dp3226
g73
(dp3227
g81
I3
ssg82
g3221
sg75
(lp3228
g111
asbasbasbag68
(g84
g70
NtRp3229
(dp3230
g73
(dp3231
sg82
g2613
sg75
(lp3232
g68
(g89
g70
NtRp3233
(dp3234
g73
(dp3235
g93
g94
ssg82
g3229
sg75
(lp3236
S'wsgi.url_scheme'
p3237
asbag68
(g89
g70
NtRp3238
(dp3239
g73
(dp3240
g100
g101
ssg82
g3229
sg75
(lp3241
S':'
asbag68
(g89
g70
NtRp3242
(dp3243
g73
(dp3244
sg82
g3229
sg75
(lp3245
g68
(g69
g70
NtRp3246
(dp3247
g73
(dp3248
g81
I3
ssg82
g3242
sg75
(lp3249
g1822
asbasbasbag68
(g84
g70
NtRp3250
(dp3251
g73
(dp3252
sg82
g2613
sg75
(lp3253
g68
(g89
g70
NtRp3254
(dp3255
g73
(dp3256
g93
g94
ssg82
g3250
sg75
(lp3257
S'wsgi.version'
p3258
asbag68
(g89
g70
NtRp3259
(dp3260
g73
(dp3261
g100
g101
ssg82
g3250
sg75
(lp3262
S':'
asbag68
(g89
g70
NtRp3263
(dp3264
g73
(dp3265
sg82
g3250
sg75
(lp3266
g68
(g69
g70
NtRp3267
(dp3268
g73
(dp3269
g81
I3
ssg82
g3263
sg75
(lp3270
S'1'
asbasbasbasbasbasbasbasbasbasbasbasbasbsS'frames'
p3271
(lp3272
(dp3273
S'file'
p3274
S'/home/kaique/Projects/web2py/gluon/restricted.py'
p3275
sS'dump'
p3276
(dp3277
S'environment'
p3278
S"{'A': <class 'gluon.html.A'>, 'Auth': <class 'gluon.tools.Auth'>, 'B': <class 'gluon.html.B'>, 'BEAUTIFY': <class 'gluon.html.BEAUTIFY'>, 'BODY': <class 'gluon.html.BODY'>, 'BR': <class 'gluon.html.BR'>, 'BUTTON': <class 'gluon.html.BUTTON'>, 'CAT': <class 'gluon.html.CAT'>, 'CENTER': <class 'gluon.html.CENTER'>, 'CLEANUP': <class 'gluon.validators.CLEANUP'>, ...}"
p3279
sS'ccode'
p3280
S'<code object <module> at 0x30bf0b0, file "/home/...ons/synopsis/controllers/information.py", line 2>'
p3281
ssS'lnum'
p3282
I194
sS'lines'
p3283
(dp3284
I192
S'        else:'
p3285
sI193
S'            ccode = compile2(code,layer)'
p3286
sI194
S'        exec ccode in environment'
p3287
sI195
S'    except HTTP:'
p3288
sI196
S'        raise'
p3289
sI197
S'    except Exception, error:'
p3290
sI198
S'        # XXX Show exception in Wing IDE if running in debugger'
p3291
sI189
S'    try:'
p3292
sI190
S'        if type(code) == types.CodeType:'
p3293
sI191
S'            ccode = code'
p3294
ssS'call'
p3295
S"(code='# -*- coding: utf-8 -*-\\nimport functions as f # ...\\treturn {}\\n\\nresponse._vars=response._caller(new)\\n', environment={'A': <class 'gluon.html.A'>, 'Auth': <class 'gluon.tools.Auth'>, 'B': <class 'gluon.html.B'>, 'BEAUTIFY': <class 'gluon.html.BEAUTIFY'>, 'BODY': <class 'gluon.html.BODY'>, 'BR': <class 'gluon.html.BR'>, 'BUTTON': <class 'gluon.html.BUTTON'>, 'CAT': <class 'gluon.html.CAT'>, 'CENTER': <class 'gluon.html.CENTER'>, 'CLEANUP': <class 'gluon.validators.CLEANUP'>, ...}, layer='/home/kaique/Projects/web2py/applications/synopsis/controllers/information.py')"
p3296
sS'func'
p3297
S'restricted'
p3298
sa(dp3299
g3274
S'/home/kaique/Projects/web2py/applications/synopsis/controllers/information.py'
p3300
sg3276
(dp3301
sg3282
I63
sg3283
(dp3302
I52
S"\t\t\tresponse.flash = T('Sorry, try again!')"
p3303
sI53
S'\t\telse:'
p3304
sI54
S"\t\t\tresponse.flah = T('Please, fill the field...')"
p3305
sI55
S''
sI56
S"\t\treturn { 'form': publication,"
p3306
sI57
S"\t\t\t\t 'title': title }"
p3307
sI58
S''
sI59
S"@auth.requires_membership('admin')"
p3308
sI60
S'def edit(): # Edit the subject'
p3309
sI61
S'\treturn {}'
p3310
ssg3295
S'()'
p3311
sg3297
S'<module>'
p3312
sa(dp3313
g3274
S'/home/kaique/Projects/web2py/gluon/globals.py'
p3314
sg3276
(dp3315
S'self'
p3316
S'undefined'
p3317
sS'f'
S'<function new>'
p3318
ssg3282
I149
sg3283
(dp3319
I144
S'        self.meta = Storage()      # used by web2py_ajax.html'
p3320
sI145
S'        self.menu = []             # used by the default view layout'
p3321
sI146
S'        self.files = []            # used by web2py_ajax.html'
p3322
sI147
S'        self.generic_patterns = [] # patterns to allow generic views'
p3323
sI148
S'        self._vars = None'
p3324
sI149
S'        self._caller = lambda f: f()'
p3325
sI150
S'        self._view_environment = None'
p3326
sI151
S'        self._custom_commit = None'
p3327
sI152
S'        self._custom_rollback = None'
p3328
sI153
S''
ssg3295
S'(f=<function new>)'
p3329
sg3297
S'<lambda>'
p3330
sa(dp3331
g3274
S'/home/kaique/Projects/web2py/gluon/tools.py'
p3332
sg3276
(dp3333
S'action'
p3334
S'<function new>'
p3335
sS'a'
S'()'
p3336
sS'b'
g20
ssg3282
I2456
sg3283
(dp3337
I2451
S"                            '?_next='+urllib.quote(next))"
p3338
sI2452
S'                if not condition:'
p3339
sI2453
S'                    current.session.flash = self.messages.access_denied'
p3340
sI2454
S'                    return call_or_redirect('
p3341
sI2455
S'                        self.settings.on_failed_authorization)'
p3342
sI2456
S'                return action(*a, **b)'
p3343
sI2457
S'            f.__doc__ = action.__doc__'
p3344
sI2458
S'            f.__name__ = action.__name__'
p3345
sI2459
S'            f.__dict__.update(action.__dict__)'
p3346
sI2460
S'            return f'
p3347
ssg3295
S'(*a=(), **b={})'
p3348
sg3297
S'f'
sa(dp3349
g3274
S'/home/kaique/Projects/web2py/applications/synopsis/controllers/information.py'
p3350
sg3276
(dp3351
S'global db'
p3352
S"<DAL {'auth_event': <Table {'origin': <gluon.dal..., 'id': <gluon.dal.Field object at 0x36cb510>}>}>"
p3353
sS'db.publication.insert'
p3354
S"<bound method Table.insert of <Table {'ALL': <gl...>, 'id': <gluon.dal.Field object at 0x3389b50>}>>"
p3355
sS'args'
p3356
S"['publication', '2']"
p3357
sS'db.publication'
p3358
S"<Table {'ALL': <gluon.dal.SQLALL object at 0x338...0>, 'id': <gluon.dal.Field object at 0x3389b50>}>"
p3359
sS'builtinid'
p3360
S'<built-in function id>'
p3361
ssg3282
I49
sg3283
(dp3362
I44
S"\tif args[0] == 'publication':"
p3363
sI45
S"\t\ttitle = 'Publication'"
p3364
sI46
S"\t\tpublication = SQLFORM(db.publication, fields=['title', 'sub_title'])"
p3365
sI47
S''
sI48
S'\t\tif publication.process().accepted:'
p3366
sI49
S'\t\t\tdb.publication.insert( id = args[1] )'
p3367
sI50
S"\t\t\tresponse.flash = T(T('{0} {1} {2}'.format('New', title.lower(), 'inserted!')))"
p3368
sI51
S'\t\telif publication.errors:'
p3369
sI52
S"\t\t\tresponse.flash = T('Sorry, try again!')"
p3370
sI53
S'\t\telse:'
p3371
ssg3295
S'()'
p3372
sg3297
S'new'
p3373
sa(dp3374
g3274
S'/home/kaique/Projects/web2py/gluon/dal.py'
p3375
sg3276
(dp3376
S'self._listify'
p3377
S"<bound method Table._listify of <Table {'ALL': <...>, 'id': <gluon.dal.Field object at 0x3389b50>}>>"
p3378
sS'fields'
p3379
S"{'id': '2'}"
p3380
sS'self'
p3381
S"<Table {'ALL': <gluon.dal.SQLALL object at 0x338...0>, 'id': <gluon.dal.Field object at 0x3389b50>}>"
p3382
sS'self._db._adapter'
p3383
S'<gluon.dal.SQLiteAdapter object>'
p3384
sS'self._db._adapter.insert'
p3385
S'<bound method SQLiteAdapter.insert of <gluon.dal.SQLiteAdapter object>>'
p3386
sS'self._db'
p3387
S"<DAL {'auth_event': <Table {'origin': <gluon.dal..., 'id': <gluon.dal.Field object at 0x36cb510>}>}>"
p3388
ssg3282
I4976
sg3283
(dp3389
I4971
S''
sI4972
S'    def _insert(self, **fields):'
p3390
sI4973
S'        return self._db._adapter._insert(self,self._listify(fields))'
p3391
sI4974
S''
sI4975
S'    def insert(self, **fields):'
p3392
sI4976
S'        return self._db._adapter.insert(self,self._listify(fields))'
p3393
sI4977
S''
sI4978
S'    def validate_and_insert(self,**fields):'
p3394
sI4979
S'        response = Row()'
p3395
sI4980
S'        response.errors = self._validate(**fields)'
p3396
ssg3295
S"(self=<Table {'ALL': <gluon.dal.SQLALL object at 0x338...0>, 'id': <gluon.dal.Field object at 0x3389b50>}>, **fields={'id': '2'})"
p3397
sg3297
S'insert'
p3398
sa(dp3399
g3274
S'/home/kaique/Projects/web2py/gluon/dal.py'
p3400
sg3276
(dp3401
S'ofield.name'
p3402
S"'title'"
p3403
sS'ofield'
p3404
S'<gluon.dal.Field object>'
p3405
sS'builtinSyntaxError'
p3406
S"<type 'exceptions.SyntaxError'>"
p3407
ssg3282
I4969
sg3283
(dp3408
I4964
S'                try:'
p3409
sI4965
S'                    new_fields.append((ofield,ofield.compute(Row(fields))))'
p3410
sI4966
S'                except KeyError:'
p3411
sI4967
S'                    pass'
p3412
sI4968
S'            if not update and ofield.required and not ofield.name in new_fields_names:'
p3413
sI4969
S"                raise SyntaxError,'Table: missing required field: %s' % ofield.name"
p3414
sI4970
S'        return new_fields'
p3415
sI4971
S''
sI4972
S'    def _insert(self, **fields):'
p3416
sI4973
S'        return self._db._adapter._insert(self,self._listify(fields))'
p3417
ssg3295
S"(self=<Table {'ALL': <gluon.dal.SQLALL object at 0x338...0>, 'id': <gluon.dal.Field object at 0x3389b50>}>, fields={'id': '2'}, update=False)"
p3418
sg3297
S'_listify'
p3419
sasS'pyver'
p3420
S'Python 2.7.2+: /usr/bin/python'
p3421
sS'session'
p3422
g68
(g69
g70
NtRp3423
(dp3424
g73
(dp3425
sg75
(lp3426
g68
(g77
g70
NtRp3427
(dp3428
g73
(dp3429
g81
I5
ssg82
Nsg75
(lp3430
g68
(g84
g70
NtRp3431
(dp3432
g73
(dp3433
sg82
g3427
sg75
(lp3434
g68
(g89
g70
NtRp3435
(dp3436
g73
(dp3437
g93
g94
ssg82
g3431
sg75
(lp3438
S'auth'
p3439
asbag68
(g89
g70
NtRp3440
(dp3441
g73
(dp3442
g100
g101
ssg82
g3431
sg75
(lp3443
S':'
asbag68
(g89
g70
NtRp3444
(dp3445
g73
(dp3446
sg82
g3431
sg75
(lp3447
g68
(g69
g70
NtRp3448
(dp3449
g73
(dp3450
g81
I5
ssg82
g3444
sg75
(lp3451
g68
(g77
g70
NtRp3452
(dp3453
g73
(dp3454
g81
I4
ssg82
Nsg75
(lp3455
g68
(g84
g70
NtRp3456
(dp3457
g73
(dp3458
sg82
g3452
sg75
(lp3459
g68
(g89
g70
NtRp3460
(dp3461
g73
(dp3462
g93
g94
ssg82
g3456
sg75
(lp3463
S'expiration'
p3464
asbag68
(g89
g70
NtRp3465
(dp3466
g73
(dp3467
g100
g101
ssg82
g3456
sg75
(lp3468
S':'
asbag68
(g89
g70
NtRp3469
(dp3470
g73
(dp3471
sg82
g3456
sg75
(lp3472
g68
(g69
g70
NtRp3473
(dp3474
g73
(dp3475
g81
I4
ssg82
g3469
sg75
(lp3476
S'2592000'
p3477
asbasbasbag68
(g84
g70
NtRp3478
(dp3479
g73
(dp3480
sg82
g3452
sg75
(lp3481
g68
(g89
g70
NtRp3482
(dp3483
g73
(dp3484
g93
g94
ssg82
g3478
sg75
(lp3485
S'hmac_key'
p3486
asbag68
(g89
g70
NtRp3487
(dp3488
g73
(dp3489
g100
g101
ssg82
g3478
sg75
(lp3490
S':'
asbag68
(g89
g70
NtRp3491
(dp3492
g73
(dp3493
sg82
g3478
sg75
(lp3494
g68
(g69
g70
NtRp3495
(dp3496
g73
(dp3497
g81
I4
ssg82
g3491
sg75
(lp3498
S'4c32a183-7118-47f6-ab0b-21a33c2fc6ab'
p3499
asbasbasbag68
(g84
g70
NtRp3500
(dp3501
g73
(dp3502
sg82
g3452
sg75
(lp3503
g68
(g89
g70
NtRp3504
(dp3505
g73
(dp3506
g93
g94
ssg82
g3500
sg75
(lp3507
S'last_visit'
p3508
asbag68
(g89
g70
NtRp3509
(dp3510
g73
(dp3511
g100
g101
ssg82
g3500
sg75
(lp3512
S':'
asbag68
(g89
g70
NtRp3513
(dp3514
g73
(dp3515
sg82
g3500
sg75
(lp3516
g68
(g69
g70
NtRp3517
(dp3518
g73
(dp3519
g81
I4
ssg82
g3513
sg75
(lp3520
S'datetime.datetime(2012, 1, 11, 22, 1, 29, 654193)'
p3521
asbasbasbag68
(g84
g70
NtRp3522
(dp3523
g73
(dp3524
sg82
g3452
sg75
(lp3525
g68
(g89
g70
NtRp3526
(dp3527
g73
(dp3528
g93
g94
ssg82
g3522
sg75
(lp3529
S'remember'
p3530
asbag68
(g89
g70
NtRp3531
(dp3532
g73
(dp3533
g100
g101
ssg82
g3522
sg75
(lp3534
S':'
asbag68
(g89
g70
NtRp3535
(dp3536
g73
(dp3537
sg82
g3522
sg75
(lp3538
g68
(g69
g70
NtRp3539
(dp3540
g73
(dp3541
g81
I4
ssg82
g3535
sg75
(lp3542
g111
asbasbasbag68
(g84
g70
NtRp3543
(dp3544
g73
(dp3545
sg82
g3452
sg75
(lp3546
g68
(g89
g70
NtRp3547
(dp3548
g73
(dp3549
g93
g94
ssg82
g3543
sg75
(lp3550
S'user'
p3551
asbag68
(g89
g70
NtRp3552
(dp3553
g73
(dp3554
g100
g101
ssg82
g3543
sg75
(lp3555
S':'
asbag68
(g89
g70
NtRp3556
(dp3557
g73
(dp3558
sg82
g3543
sg75
(lp3559
g68
(g69
g70
NtRp3560
(dp3561
g73
(dp3562
g81
I4
ssg82
g3556
sg75
(lp3563
g68
(g77
g70
NtRp3564
(dp3565
g73
(dp3566
g81
I3
ssg82
Nsg75
(lp3567
g68
(g84
g70
NtRp3568
(dp3569
g73
(dp3570
sg82
g3564
sg75
(lp3571
g68
(g89
g70
NtRp3572
(dp3573
g73
(dp3574
g93
g94
ssg82
g3568
sg75
(lp3575
S'email'
p3576
asbag68
(g89
g70
NtRp3577
(dp3578
g73
(dp3579
g100
g101
ssg82
g3568
sg75
(lp3580
S':'
asbag68
(g89
g70
NtRp3581
(dp3582
g73
(dp3583
sg82
g3568
sg75
(lp3584
g68
(g69
g70
NtRp3585
(dp3586
g73
(dp3587
g81
I3
ssg82
g3581
sg75
(lp3588
S'kaique.developer@gmail.com'
p3589
asbasbasbag68
(g84
g70
NtRp3590
(dp3591
g73
(dp3592
sg82
g3564
sg75
(lp3593
g68
(g89
g70
NtRp3594
(dp3595
g73
(dp3596
g93
g94
ssg82
g3590
sg75
(lp3597
S'first_name'
p3598
asbag68
(g89
g70
NtRp3599
(dp3600
g73
(dp3601
g100
g101
ssg82
g3590
sg75
(lp3602
S':'
asbag68
(g89
g70
NtRp3603
(dp3604
g73
(dp3605
sg82
g3590
sg75
(lp3606
g68
(g69
g70
NtRp3607
(dp3608
g73
(dp3609
g81
I3
ssg82
g3603
sg75
(lp3610
S'kaique'
p3611
asbasbasbag68
(g84
g70
NtRp3612
(dp3613
g73
(dp3614
sg82
g3564
sg75
(lp3615
g68
(g89
g70
NtRp3616
(dp3617
g73
(dp3618
g93
g94
ssg82
g3612
sg75
(lp3619
S'id'
p3620
asbag68
(g89
g70
NtRp3621
(dp3622
g73
(dp3623
g100
g101
ssg82
g3612
sg75
(lp3624
S':'
asbag68
(g89
g70
NtRp3625
(dp3626
g73
(dp3627
sg82
g3612
sg75
(lp3628
g68
(g69
g70
NtRp3629
(dp3630
g73
(dp3631
g81
I3
ssg82
g3625
sg75
(lp3632
S'1'
asbasbasbag68
(g84
g70
NtRp3633
(dp3634
g73
(dp3635
sg82
g3564
sg75
(lp3636
g68
(g89
g70
NtRp3637
(dp3638
g73
(dp3639
g93
g94
ssg82
g3633
sg75
(lp3640
S'last_name'
p3641
asbag68
(g89
g70
NtRp3642
(dp3643
g73
(dp3644
g100
g101
ssg82
g3633
sg75
(lp3645
S':'
asbag68
(g89
g70
NtRp3646
(dp3647
g73
(dp3648
sg82
g3633
sg75
(lp3649
g68
(g69
g70
NtRp3650
(dp3651
g73
(dp3652
g81
I3
ssg82
g3646
sg75
(lp3653
S'silva'
p3654
asbasbasbag68
(g84
g70
NtRp3655
(dp3656
g73
(dp3657
sg82
g3564
sg75
(lp3658
g68
(g89
g70
NtRp3659
(dp3660
g73
(dp3661
g93
g94
ssg82
g3655
sg75
(lp3662
S'password'
p3663
asbag68
(g89
g70
NtRp3664
(dp3665
g73
(dp3666
g100
g101
ssg82
g3655
sg75
(lp3667
S':'
asbag68
(g89
g70
NtRp3668
(dp3669
g73
(dp3670
sg82
g3655
sg75
(lp3671
g68
(g69
g70
NtRp3672
(dp3673
g73
(dp3674
g81
I3
ssg82
g3668
sg75
(lp3675
S'72c6a018d62d3fb47d95389e4a062cd2'
p3676
asbasbasbag68
(g84
g70
NtRp3677
(dp3678
g73
(dp3679
sg82
g3564
sg75
(lp3680
g68
(g89
g70
NtRp3681
(dp3682
g73
(dp3683
g93
g94
ssg82
g3677
sg75
(lp3684
S'registration_key'
p3685
asbag68
(g89
g70
NtRp3686
(dp3687
g73
(dp3688
g100
g101
ssg82
g3677
sg75
(lp3689
S':'
asbag68
(g89
g70
NtRp3690
(dp3691
g73
(dp3692
sg82
g3677
sg75
(lp3693
g68
(g69
g70
NtRp3694
(dp3695
g73
(dp3696
g81
I3
ssg82
g3690
sg75
(lp3697
S''
asbasbasbag68
(g84
g70
NtRp3698
(dp3699
g73
(dp3700
sg82
g3564
sg75
(lp3701
g68
(g89
g70
NtRp3702
(dp3703
g73
(dp3704
g93
g94
ssg82
g3698
sg75
(lp3705
S'reset_password_key'
p3706
asbag68
(g89
g70
NtRp3707
(dp3708
g73
(dp3709
g100
g101
ssg82
g3698
sg75
(lp3710
S':'
asbag68
(g89
g70
NtRp3711
(dp3712
g73
(dp3713
sg82
g3698
sg75
(lp3714
g68
(g69
g70
NtRp3715
(dp3716
g73
(dp3717
g81
I3
ssg82
g3711
sg75
(lp3718
S''
asbasbasbasbasbasbasbasbasbasbasbag68
(g84
g70
NtRp3719
(dp3720
g73
(dp3721
sg82
g3427
sg75
(lp3722
g68
(g89
g70
NtRp3723
(dp3724
g73
(dp3725
g93
g94
ssg82
g3719
sg75
(lp3726
S'index'
p3727
asbag68
(g89
g70
NtRp3728
(dp3729
g73
(dp3730
g100
g101
ssg82
g3719
sg75
(lp3731
S':'
asbag68
(g89
g70
NtRp3732
(dp3733
g73
(dp3734
sg82
g3719
sg75
(lp3735
g68
(g69
g70
NtRp3736
(dp3737
g73
(dp3738
g81
I5
ssg82
g3732
sg75
(lp3739
S'2'
asbasbasbag68
(g84
g70
NtRp3740
(dp3741
g73
(dp3742
sg82
g3427
sg75
(lp3743
g68
(g89
g70
NtRp3744
(dp3745
g73
(dp3746
g93
g94
ssg82
g3740
sg75
(lp3747
S'last_query'
p3748
asbag68
(g89
g70
NtRp3749
(dp3750
g73
(dp3751
g100
g101
ssg82
g3740
sg75
(lp3752
S':'
asbag68
(g89
g70
NtRp3753
(dp3754
g73
(dp3755
sg82
g3740
sg75
(lp3756
g68
(g69
g70
NtRp3757
(dp3758
g73
(dp3759
g81
I5
ssg82
g3753
sg75
(lp3760
S'db.quote.publications_id==1'
p3761
asbasbasbasbasbsS'etype'
p3762
S"<type 'exceptions.SyntaxError'>"
p3763
sS'date'
p3764
S'Thu Jan 12 13:12:26 2012'
p3765
sS'response'
p3766
g68
(g69
g70
NtRp3767
(dp3768
g73
(dp3769
sg75
(lp3770
g68
(g77
g70
NtRp3771
(dp3772
g73
(dp3773
g81
I5
ssg82
Nsg75
(lp3774
g68
(g84
g70
NtRp3775
(dp3776
g73
(dp3777
sg82
g3771
sg75
(lp3778
g68
(g89
g70
NtRp3779
(dp3780
g73
(dp3781
g93
g94
ssg82
g3775
sg75
(lp3782
g191
asbag68
(g89
g70
NtRp3783
(dp3784
g73
(dp3785
g100
g101
ssg82
g3775
sg75
(lp3786
S':'
asbag68
(g89
g70
NtRp3787
(dp3788
g73
(dp3789
sg82
g3775
sg75
(lp3790
g68
(g69
g70
NtRp3791
(dp3792
g73
(dp3793
g81
I5
ssg82
g3787
sg75
(lp3794
S'<cStringIO.StringO object at 0x44193e8>'
p3795
asbasbasbag68
(g84
g70
NtRp3796
(dp3797
g73
(dp3798
sg82
g3771
sg75
(lp3799
g68
(g89
g70
NtRp3800
(dp3801
g73
(dp3802
g93
g94
ssg82
g3796
sg75
(lp3803
g257
asbag68
(g89
g70
NtRp3804
(dp3805
g73
(dp3806
g100
g101
ssg82
g3796
sg75
(lp3807
S':'
asbag68
(g89
g70
NtRp3808
(dp3809
g73
(dp3810
sg82
g3796
sg75
(lp3811
g68
(g69
g70
NtRp3812
(dp3813
g73
(dp3814
g81
I5
ssg82
g3808
sg75
(lp3815
g68
(g77
g70
NtRp3816
(dp3817
g73
(dp3818
g81
I4
ssg82
Nsg75
(lp3819
g68
(g84
g70
NtRp3820
(dp3821
g73
(dp3822
sg82
g3816
sg75
(lp3823
g68
(g89
g70
NtRp3824
(dp3825
g73
(dp3826
g93
g94
ssg82
g3820
sg75
(lp3827
S'session_id_synopsis'
p3828
asbag68
(g89
g70
NtRp3829
(dp3830
g73
(dp3831
g100
g101
ssg82
g3820
sg75
(lp3832
S':'
asbag68
(g89
g70
NtRp3833
(dp3834
g73
(dp3835
sg82
g3820
sg75
(lp3836
g68
(g69
g70
NtRp3837
(dp3838
g73
(dp3839
g81
I4
ssg82
g3833
sg75
(lp3840
g68
(g77
g70
NtRp3841
(dp3842
g73
(dp3843
g81
I3
ssg82
Nsg75
(lp3844
g68
(g84
g70
NtRp3845
(dp3846
g73
(dp3847
sg82
g3841
sg75
(lp3848
g68
(g89
g70
NtRp3849
(dp3850
g73
(dp3851
g93
g94
ssg82
g3845
sg75
(lp3852
g307
asbag68
(g89
g70
NtRp3853
(dp3854
g73
(dp3855
g100
g101
ssg82
g3845
sg75
(lp3856
S':'
asbag68
(g89
g70
NtRp3857
(dp3858
g73
(dp3859
sg82
g3845
sg75
(lp3860
g68
(g69
g70
NtRp3861
(dp3862
g73
(dp3863
g81
I3
ssg82
g3857
sg75
(lp3864
S''
asbasbasbag68
(g84
g70
NtRp3865
(dp3866
g73
(dp3867
sg82
g3841
sg75
(lp3868
g68
(g89
g70
NtRp3869
(dp3870
g73
(dp3871
g93
g94
ssg82
g3865
sg75
(lp3872
g328
asbag68
(g89
g70
NtRp3873
(dp3874
g73
(dp3875
g100
g101
ssg82
g3865
sg75
(lp3876
S':'
asbag68
(g89
g70
NtRp3877
(dp3878
g73
(dp3879
sg82
g3865
sg75
(lp3880
g68
(g69
g70
NtRp3881
(dp3882
g73
(dp3883
g81
I3
ssg82
g3877
sg75
(lp3884
S''
asbasbasbag68
(g84
g70
NtRp3885
(dp3886
g73
(dp3887
sg82
g3841
sg75
(lp3888
g68
(g89
g70
NtRp3889
(dp3890
g73
(dp3891
g93
g94
ssg82
g3885
sg75
(lp3892
g349
asbag68
(g89
g70
NtRp3893
(dp3894
g73
(dp3895
g100
g101
ssg82
g3885
sg75
(lp3896
S':'
asbag68
(g89
g70
NtRp3897
(dp3898
g73
(dp3899
sg82
g3885
sg75
(lp3900
g68
(g69
g70
NtRp3901
(dp3902
g73
(dp3903
g81
I3
ssg82
g3897
sg75
(lp3904
S''
asbasbasbag68
(g84
g70
NtRp3905
(dp3906
g73
(dp3907
sg82
g3841
sg75
(lp3908
g68
(g89
g70
NtRp3909
(dp3910
g73
(dp3911
g93
g94
ssg82
g3905
sg75
(lp3912
g370
asbag68
(g89
g70
NtRp3913
(dp3914
g73
(dp3915
g100
g101
ssg82
g3905
sg75
(lp3916
S':'
asbag68
(g89
g70
NtRp3917
(dp3918
g73
(dp3919
sg82
g3905
sg75
(lp3920
g68
(g69
g70
NtRp3921
(dp3922
g73
(dp3923
g81
I3
ssg82
g3917
sg75
(lp3924
S''
asbasbasbag68
(g84
g70
NtRp3925
(dp3926
g73
(dp3927
sg82
g3841
sg75
(lp3928
g68
(g89
g70
NtRp3929
(dp3930
g73
(dp3931
g93
g94
ssg82
g3925
sg75
(lp3932
g391
asbag68
(g89
g70
NtRp3933
(dp3934
g73
(dp3935
g100
g101
ssg82
g3925
sg75
(lp3936
S':'
asbag68
(g89
g70
NtRp3937
(dp3938
g73
(dp3939
sg82
g3925
sg75
(lp3940
g68
(g69
g70
NtRp3941
(dp3942
g73
(dp3943
g81
I3
ssg82
g3937
sg75
(lp3944
S''
asbasbasbag68
(g84
g70
NtRp3945
(dp3946
g73
(dp3947
sg82
g3841
sg75
(lp3948
g68
(g89
g70
NtRp3949
(dp3950
g73
(dp3951
g93
g94
ssg82
g3945
sg75
(lp3952
g412
asbag68
(g89
g70
NtRp3953
(dp3954
g73
(dp3955
g100
g101
ssg82
g3945
sg75
(lp3956
S':'
asbag68
(g89
g70
NtRp3957
(dp3958
g73
(dp3959
sg82
g3945
sg75
(lp3960
g68
(g69
g70
NtRp3961
(dp3962
g73
(dp3963
g81
I3
ssg82
g3957
sg75
(lp3964
S'/'
asbasbasbag68
(g84
g70
NtRp3965
(dp3966
g73
(dp3967
sg82
g3841
sg75
(lp3968
g68
(g89
g70
NtRp3969
(dp3970
g73
(dp3971
g93
g94
ssg82
g3965
sg75
(lp3972
g433
asbag68
(g89
g70
NtRp3973
(dp3974
g73
(dp3975
g100
g101
ssg82
g3965
sg75
(lp3976
S':'
asbag68
(g89
g70
NtRp3977
(dp3978
g73
(dp3979
sg82
g3965
sg75
(lp3980
g68
(g69
g70
NtRp3981
(dp3982
g73
(dp3983
g81
I3
ssg82
g3977
sg75
(lp3984
S''
asbasbasbag68
(g84
g70
NtRp3985
(dp3986
g73
(dp3987
sg82
g3841
sg75
(lp3988
g68
(g89
g70
NtRp3989
(dp3990
g73
(dp3991
g93
g94
ssg82
g3985
sg75
(lp3992
g454
asbag68
(g89
g70
NtRp3993
(dp3994
g73
(dp3995
g100
g101
ssg82
g3985
sg75
(lp3996
S':'
asbag68
(g89
g70
NtRp3997
(dp3998
g73
(dp3999
sg82
g3985
sg75
(lp4000
g68
(g69
g70
NtRp4001
(dp4002
g73
(dp4003
g81
I3
ssg82
g3997
sg75
(lp4004
S''
asbasbasbasbasbasbasbasbasbasbasbag68
(g84
g70
NtRp4005
(dp4006
g73
(dp4007
sg82
g3771
sg75
(lp4008
g68
(g89
g70
NtRp4009
(dp4010
g73
(dp4011
g93
g94
ssg82
g4005
sg75
(lp4012
S'files'
p4013
asbag68
(g89
g70
NtRp4014
(dp4015
g73
(dp4016
g100
g101
ssg82
g4005
sg75
(lp4017
S':'
asbag68
(g89
g70
NtRp4018
(dp4019
g73
(dp4020
sg82
g4005
sg75
(lp4021
g68
(g69
g70
NtRp4022
(dp4023
g73
(dp4024
g81
I5
ssg82
g4018
sg75
(lp4025
g68
(g77
g70
NtRp4026
(dp4027
g73
(dp4028
g81
I4
ssg82
Nsg75
(lp4029
sbasbasbasbag68
(g84
g70
NtRp4030
(dp4031
g73
(dp4032
sg82
g3771
sg75
(lp4033
g68
(g89
g70
NtRp4034
(dp4035
g73
(dp4036
g93
g94
ssg82
g4030
sg75
(lp4037
S'flash'
p4038
asbag68
(g89
g70
NtRp4039
(dp4040
g73
(dp4041
g100
g101
ssg82
g4030
sg75
(lp4042
S':'
asbag68
(g89
g70
NtRp4043
(dp4044
g73
(dp4045
sg82
g4030
sg75
(lp4046
g68
(g69
g70
NtRp4047
(dp4048
g73
(dp4049
g81
I5
ssg82
g4043
sg75
(lp4050
cgluon.languages
lazyT_unpickle
p4051
(S's\x08\x00\x00\x00Success!'
tRp4052
asbasbasbag68
(g84
g70
NtRp4053
(dp4054
g73
(dp4055
sg82
g3771
sg75
(lp4056
g68
(g89
g70
NtRp4057
(dp4058
g73
(dp4059
g93
g94
ssg82
g4053
sg75
(lp4060
S'generic_patterns'
p4061
asbag68
(g89
g70
NtRp4062
(dp4063
g73
(dp4064
g100
g101
ssg82
g4053
sg75
(lp4065
S':'
asbag68
(g89
g70
NtRp4066
(dp4067
g73
(dp4068
sg82
g4053
sg75
(lp4069
g68
(g69
g70
NtRp4070
(dp4071
g73
(dp4072
g81
I5
ssg82
g4066
sg75
(lp4073
g68
(g77
g70
NtRp4074
(dp4075
g73
(dp4076
g81
I4
ssg82
Nsg75
(lp4077
g68
(g84
g70
NtRp4078
(dp4079
g73
(dp4080
sg82
g4074
sg75
(lp4081
g68
(g89
g70
NtRp4082
(dp4083
g73
(dp4084
sg82
g4078
sg75
(lp4085
g68
(g69
g70
NtRp4086
(dp4087
g73
(dp4088
g81
I4
ssg82
g4082
sg75
(lp4089
S'*'
asbasbasbasbasbasbasbag68
(g84
g70
NtRp4090
(dp4091
g73
(dp4092
sg82
g3771
sg75
(lp4093
g68
(g89
g70
NtRp4094
(dp4095
g73
(dp4096
g93
g94
ssg82
g4090
sg75
(lp4097
S'headers'
p4098
asbag68
(g89
g70
NtRp4099
(dp4100
g73
(dp4101
g100
g101
ssg82
g4090
sg75
(lp4102
S':'
asbag68
(g89
g70
NtRp4103
(dp4104
g73
(dp4105
sg82
g4090
sg75
(lp4106
g68
(g69
g70
NtRp4107
(dp4108
g73
(dp4109
g81
I5
ssg82
g4103
sg75
(lp4110
g68
(g77
g70
NtRp4111
(dp4112
g73
(dp4113
g81
I4
ssg82
Nsg75
(lp4114
g68
(g84
g70
NtRp4115
(dp4116
g73
(dp4117
sg82
g4111
sg75
(lp4118
g68
(g89
g70
NtRp4119
(dp4120
g73
(dp4121
g93
g94
ssg82
g4115
sg75
(lp4122
S'Cache-Control'
p4123
asbag68
(g89
g70
NtRp4124
(dp4125
g73
(dp4126
g100
g101
ssg82
g4115
sg75
(lp4127
S':'
asbag68
(g89
g70
NtRp4128
(dp4129
g73
(dp4130
sg82
g4115
sg75
(lp4131
g68
(g69
g70
NtRp4132
(dp4133
g73
(dp4134
g81
I4
ssg82
g4128
sg75
(lp4135
S'no-store, no-cache, must-revalidate, post-check=0, pre-check=0'
p4136
asbasbasbag68
(g84
g70
NtRp4137
(dp4138
g73
(dp4139
sg82
g4111
sg75
(lp4140
g68
(g89
g70
NtRp4141
(dp4142
g73
(dp4143
g93
g94
ssg82
g4137
sg75
(lp4144
S'Content-Type'
p4145
asbag68
(g89
g70
NtRp4146
(dp4147
g73
(dp4148
g100
g101
ssg82
g4137
sg75
(lp4149
S':'
asbag68
(g89
g70
NtRp4150
(dp4151
g73
(dp4152
sg82
g4137
sg75
(lp4153
g68
(g69
g70
NtRp4154
(dp4155
g73
(dp4156
g81
I4
ssg82
g4150
sg75
(lp4157
S'text/html; charset=utf-8'
p4158
asbasbasbag68
(g84
g70
NtRp4159
(dp4160
g73
(dp4161
sg82
g4111
sg75
(lp4162
g68
(g89
g70
NtRp4163
(dp4164
g73
(dp4165
g93
g94
ssg82
g4159
sg75
(lp4166
S'Expires'
p4167
asbag68
(g89
g70
NtRp4168
(dp4169
g73
(dp4170
g100
g101
ssg82
g4159
sg75
(lp4171
S':'
asbag68
(g89
g70
NtRp4172
(dp4173
g73
(dp4174
sg82
g4159
sg75
(lp4175
g68
(g69
g70
NtRp4176
(dp4177
g73
(dp4178
g81
I4
ssg82
g4172
sg75
(lp4179
S'Thu, 12 Jan 2012 15:12:26 GMT'
p4180
asbasbasbag68
(g84
g70
NtRp4181
(dp4182
g73
(dp4183
sg82
g4111
sg75
(lp4184
g68
(g89
g70
NtRp4185
(dp4186
g73
(dp4187
g93
g94
ssg82
g4181
sg75
(lp4188
S'Pragma'
p4189
asbag68
(g89
g70
NtRp4190
(dp4191
g73
(dp4192
g100
g101
ssg82
g4181
sg75
(lp4193
S':'
asbag68
(g89
g70
NtRp4194
(dp4195
g73
(dp4196
sg82
g4181
sg75
(lp4197
g68
(g69
g70
NtRp4198
(dp4199
g73
(dp4200
g81
I4
ssg82
g4194
sg75
(lp4201
S'no-cache'
p4202
asbasbasbag68
(g84
g70
NtRp4203
(dp4204
g73
(dp4205
sg82
g4111
sg75
(lp4206
g68
(g89
g70
NtRp4207
(dp4208
g73
(dp4209
g93
g94
ssg82
g4203
sg75
(lp4210
S'X-Powered-By'
p4211
asbag68
(g89
g70
NtRp4212
(dp4213
g73
(dp4214
g100
g101
ssg82
g4203
sg75
(lp4215
S':'
asbag68
(g89
g70
NtRp4216
(dp4217
g73
(dp4218
sg82
g4203
sg75
(lp4219
g68
(g69
g70
NtRp4220
(dp4221
g73
(dp4222
g81
I4
ssg82
g4216
sg75
(lp4223
S'web2py'
p4224
asbasbasbasbasbasbasbag68
(g84
g70
NtRp4225
(dp4226
g73
(dp4227
sg82
g3771
sg75
(lp4228
g68
(g89
g70
NtRp4229
(dp4230
g73
(dp4231
g93
g94
ssg82
g4225
sg75
(lp4232
S'menu'
p4233
asbag68
(g89
g70
NtRp4234
(dp4235
g73
(dp4236
g100
g101
ssg82
g4225
sg75
(lp4237
S':'
asbag68
(g89
g70
NtRp4238
(dp4239
g73
(dp4240
sg82
g4225
sg75
(lp4241
g68
(g69
g70
NtRp4242
(dp4243
g73
(dp4244
g81
I5
ssg82
g4238
sg75
(lp4245
g68
(g77
g70
NtRp4246
(dp4247
g73
(dp4248
g81
I4
ssg82
Nsg75
(lp4249
g68
(g84
g70
NtRp4250
(dp4251
g73
(dp4252
sg82
g4246
sg75
(lp4253
g68
(g89
g70
NtRp4254
(dp4255
g73
(dp4256
sg82
g4250
sg75
(lp4257
g68
(g69
g70
NtRp4258
(dp4259
g73
(dp4260
g81
I4
ssg82
g4254
sg75
(lp4261
g68
(g77
g70
NtRp4262
(dp4263
g73
(dp4264
g81
I3
ssg82
Nsg75
(lp4265
g68
(g84
g70
NtRp4266
(dp4267
g73
(dp4268
sg82
g4262
sg75
(lp4269
g68
(g89
g70
NtRp4270
(dp4271
g73
(dp4272
sg82
g4266
sg75
(lp4273
g68
(g69
g70
NtRp4274
(dp4275
g73
(dp4276
g81
I3
ssg82
g4270
sg75
(lp4277
g4051
(S't\x04\x00\x00\x00Home'
tRp4278
asbasbasbag68
(g84
g70
NtRp4279
(dp4280
g73
(dp4281
sg82
g4262
sg75
(lp4282
g68
(g89
g70
NtRp4283
(dp4284
g73
(dp4285
sg82
g4279
sg75
(lp4286
g68
(g69
g70
NtRp4287
(dp4288
g73
(dp4289
g81
I3
ssg82
g4283
sg75
(lp4290
g111
asbasbasbag68
(g84
g70
NtRp4291
(dp4292
g73
(dp4293
sg82
g4262
sg75
(lp4294
g68
(g89
g70
NtRp4295
(dp4296
g73
(dp4297
sg82
g4291
sg75
(lp4298
g68
(g69
g70
NtRp4299
(dp4300
g73
(dp4301
g81
I3
ssg82
g4295
sg75
(lp4302
S'/synopsis/default/index'
p4303
asbasbasbag68
(g84
g70
NtRp4304
(dp4305
g73
(dp4306
sg82
g4262
sg75
(lp4307
g68
(g89
g70
NtRp4308
(dp4309
g73
(dp4310
sg82
g4304
sg75
(lp4311
g68
(g69
g70
NtRp4312
(dp4313
g73
(dp4314
g81
I3
ssg82
g4308
sg75
(lp4315
g68
(g77
g70
NtRp4316
(dp4317
g73
(dp4318
g81
I2
ssg82
Nsg75
(lp4319
sbasbasbasbasbasbasbasbag68
(g84
g70
NtRp4320
(dp4321
g73
(dp4322
sg82
g4246
sg75
(lp4323
g68
(g89
g70
NtRp4324
(dp4325
g73
(dp4326
sg82
g4320
sg75
(lp4327
g68
(g69
g70
NtRp4328
(dp4329
g73
(dp4330
g81
I4
ssg82
g4324
sg75
(lp4331
g68
(g77
g70
NtRp4332
(dp4333
g73
(dp4334
g81
I3
ssg82
Nsg75
(lp4335
g68
(g84
g70
NtRp4336
(dp4337
g73
(dp4338
sg82
g4332
sg75
(lp4339
g68
(g89
g70
NtRp4340
(dp4341
g73
(dp4342
sg82
g4336
sg75
(lp4343
g68
(g69
g70
NtRp4344
(dp4345
g73
(dp4346
g81
I3
ssg82
g4340
sg75
(lp4347
g4051
(S't\x0b\x00\x00\x00Information'
tRp4348
asbasbasbag68
(g84
g70
NtRp4349
(dp4350
g73
(dp4351
sg82
g4332
sg75
(lp4352
g68
(g89
g70
NtRp4353
(dp4354
g73
(dp4355
sg82
g4349
sg75
(lp4356
g68
(g69
g70
NtRp4357
(dp4358
g73
(dp4359
g81
I3
ssg82
g4353
sg75
(lp4360
g111
asbasbasbag68
(g84
g70
NtRp4361
(dp4362
g73
(dp4363
sg82
g4332
sg75
(lp4364
g68
(g89
g70
NtRp4365
(dp4366
g73
(dp4367
sg82
g4361
sg75
(lp4368
g68
(g69
g70
NtRp4369
(dp4370
g73
(dp4371
g81
I3
ssg82
g4365
sg75
(lp4372
S'/synopsis/information/index'
p4373
asbasbasbag68
(g84
g70
NtRp4374
(dp4375
g73
(dp4376
sg82
g4332
sg75
(lp4377
g68
(g89
g70
NtRp4378
(dp4379
g73
(dp4380
sg82
g4374
sg75
(lp4381
g68
(g69
g70
NtRp4382
(dp4383
g73
(dp4384
g81
I3
ssg82
g4378
sg75
(lp4385
g68
(g77
g70
NtRp4386
(dp4387
g73
(dp4388
g81
I2
ssg82
Nsg75
(lp4389
sbasbasbasbasbasbasbasbag68
(g84
g70
NtRp4390
(dp4391
g73
(dp4392
sg82
g4246
sg75
(lp4393
g68
(g89
g70
NtRp4394
(dp4395
g73
(dp4396
sg82
g4390
sg75
(lp4397
g68
(g69
g70
NtRp4398
(dp4399
g73
(dp4400
g81
I4
ssg82
g4394
sg75
(lp4401
g68
(g77
g70
NtRp4402
(dp4403
g73
(dp4404
g81
I3
ssg82
Nsg75
(lp4405
g68
(g84
g70
NtRp4406
(dp4407
g73
(dp4408
sg82
g4402
sg75
(lp4409
g68
(g89
g70
NtRp4410
(dp4411
g73
(dp4412
sg82
g4406
sg75
(lp4413
g68
(g69
g70
NtRp4414
(dp4415
g73
(dp4416
g81
I3
ssg82
g4410
sg75
(lp4417
g4051
(S't\x05\x00\x00\x00About'
tRp4418
asbasbasbag68
(g84
g70
NtRp4419
(dp4420
g73
(dp4421
sg82
g4402
sg75
(lp4422
g68
(g89
g70
NtRp4423
(dp4424
g73
(dp4425
sg82
g4419
sg75
(lp4426
g68
(g69
g70
NtRp4427
(dp4428
g73
(dp4429
g81
I3
ssg82
g4423
sg75
(lp4430
g111
asbasbasbag68
(g84
g70
NtRp4431
(dp4432
g73
(dp4433
sg82
g4402
sg75
(lp4434
g68
(g89
g70
NtRp4435
(dp4436
g73
(dp4437
sg82
g4431
sg75
(lp4438
g68
(g69
g70
NtRp4439
(dp4440
g73
(dp4441
g81
I3
ssg82
g4435
sg75
(lp4442
S'/synopsis/about/index'
p4443
asbasbasbag68
(g84
g70
NtRp4444
(dp4445
g73
(dp4446
sg82
g4402
sg75
(lp4447
g68
(g89
g70
NtRp4448
(dp4449
g73
(dp4450
sg82
g4444
sg75
(lp4451
g68
(g69
g70
NtRp4452
(dp4453
g73
(dp4454
g81
I3
ssg82
g4448
sg75
(lp4455
g68
(g77
g70
NtRp4456
(dp4457
g73
(dp4458
g81
I2
ssg82
Nsg75
(lp4459
sbasbasbasbasbasbasbasbasbasbasbasbag68
(g84
g70
NtRp4460
(dp4461
g73
(dp4462
sg82
g3771
sg75
(lp4463
g68
(g89
g70
NtRp4464
(dp4465
g73
(dp4466
g93
g94
ssg82
g4460
sg75
(lp4467
S'meta'
p4468
asbag68
(g89
g70
NtRp4469
(dp4470
g73
(dp4471
g100
g101
ssg82
g4460
sg75
(lp4472
S':'
asbag68
(g89
g70
NtRp4473
(dp4474
g73
(dp4475
sg82
g4460
sg75
(lp4476
g68
(g69
g70
NtRp4477
(dp4478
g73
(dp4479
g81
I5
ssg82
g4473
sg75
(lp4480
g68
(g77
g70
NtRp4481
(dp4482
g73
(dp4483
g81
I4
ssg82
Nsg75
(lp4484
g68
(g84
g70
NtRp4485
(dp4486
g73
(dp4487
sg82
g4481
sg75
(lp4488
g68
(g89
g70
NtRp4489
(dp4490
g73
(dp4491
g93
g94
ssg82
g4485
sg75
(lp4492
S'author'
p4493
asbag68
(g89
g70
NtRp4494
(dp4495
g73
(dp4496
g100
g101
ssg82
g4485
sg75
(lp4497
S':'
asbag68
(g89
g70
NtRp4498
(dp4499
g73
(dp4500
sg82
g4485
sg75
(lp4501
g68
(g69
g70
NtRp4502
(dp4503
g73
(dp4504
g81
I4
ssg82
g4498
sg75
(lp4505
S'Your Name <you@example.com>'
p4506
asbasbasbag68
(g84
g70
NtRp4507
(dp4508
g73
(dp4509
sg82
g4481
sg75
(lp4510
g68
(g89
g70
NtRp4511
(dp4512
g73
(dp4513
g93
g94
ssg82
g4507
sg75
(lp4514
S'copyright'
p4515
asbag68
(g89
g70
NtRp4516
(dp4517
g73
(dp4518
g100
g101
ssg82
g4507
sg75
(lp4519
S':'
asbag68
(g89
g70
NtRp4520
(dp4521
g73
(dp4522
sg82
g4507
sg75
(lp4523
g68
(g69
g70
NtRp4524
(dp4525
g73
(dp4526
g81
I4
ssg82
g4520
sg75
(lp4527
S'Copyright 2011'
p4528
asbasbasbag68
(g84
g70
NtRp4529
(dp4530
g73
(dp4531
sg82
g4481
sg75
(lp4532
g68
(g89
g70
NtRp4533
(dp4534
g73
(dp4535
g93
g94
ssg82
g4529
sg75
(lp4536
S'description'
p4537
asbag68
(g89
g70
NtRp4538
(dp4539
g73
(dp4540
g100
g101
ssg82
g4529
sg75
(lp4541
S':'
asbag68
(g89
g70
NtRp4542
(dp4543
g73
(dp4544
sg82
g4529
sg75
(lp4545
g68
(g69
g70
NtRp4546
(dp4547
g73
(dp4548
g81
I4
ssg82
g4542
sg75
(lp4549
S'a cool new app'
p4550
asbasbasbag68
(g84
g70
NtRp4551
(dp4552
g73
(dp4553
sg82
g4481
sg75
(lp4554
g68
(g89
g70
NtRp4555
(dp4556
g73
(dp4557
g93
g94
ssg82
g4551
sg75
(lp4558
S'generator'
p4559
asbag68
(g89
g70
NtRp4560
(dp4561
g73
(dp4562
g100
g101
ssg82
g4551
sg75
(lp4563
S':'
asbag68
(g89
g70
NtRp4564
(dp4565
g73
(dp4566
sg82
g4551
sg75
(lp4567
g68
(g69
g70
NtRp4568
(dp4569
g73
(dp4570
g81
I4
ssg82
g4564
sg75
(lp4571
S'Web2py Web Framework'
p4572
asbasbasbag68
(g84
g70
NtRp4573
(dp4574
g73
(dp4575
sg82
g4481
sg75
(lp4576
g68
(g89
g70
NtRp4577
(dp4578
g73
(dp4579
g93
g94
ssg82
g4573
sg75
(lp4580
S'keywords'
p4581
asbag68
(g89
g70
NtRp4582
(dp4583
g73
(dp4584
g100
g101
ssg82
g4573
sg75
(lp4585
S':'
asbag68
(g89
g70
NtRp4586
(dp4587
g73
(dp4588
sg82
g4573
sg75
(lp4589
g68
(g69
g70
NtRp4590
(dp4591
g73
(dp4592
g81
I4
ssg82
g4586
sg75
(lp4593
S'web2py, python, framework'
p4594
asbasbasbasbasbasbasbag68
(g84
g70
NtRp4595
(dp4596
g73
(dp4597
sg82
g3771
sg75
(lp4598
g68
(g89
g70
NtRp4599
(dp4600
g73
(dp4601
g93
g94
ssg82
g4595
sg75
(lp4602
S'postprocessing'
p4603
asbag68
(g89
g70
NtRp4604
(dp4605
g73
(dp4606
g100
g101
ssg82
g4595
sg75
(lp4607
S':'
asbag68
(g89
g70
NtRp4608
(dp4609
g73
(dp4610
sg82
g4595
sg75
(lp4611
g68
(g69
g70
NtRp4612
(dp4613
g73
(dp4614
g81
I5
ssg82
g4608
sg75
(lp4615
g68
(g77
g70
NtRp4616
(dp4617
g73
(dp4618
g81
I4
ssg82
Nsg75
(lp4619
sbasbasbasbag68
(g84
g70
NtRp4620
(dp4621
g73
(dp4622
sg82
g3771
sg75
(lp4623
g68
(g89
g70
NtRp4624
(dp4625
g73
(dp4626
g93
g94
ssg82
g4620
sg75
(lp4627
S'session_file'
p4628
asbag68
(g89
g70
NtRp4629
(dp4630
g73
(dp4631
g100
g101
ssg82
g4620
sg75
(lp4632
S':'
asbag68
(g89
g70
NtRp4633
(dp4634
g73
(dp4635
sg82
g4620
sg75
(lp4636
g68
(g69
g70
NtRp4637
(dp4638
g73
(dp4639
g81
I5
ssg82
g4633
sg75
(lp4640
S"<open file '/home/kaique/Projects/web2py/applications/synopsis/sessions/127.0.0.1-351efa91-66d9-4ca2-9c53-1a2177b18dc7', mode 'rb+' at 0x41d2d20>"
p4641
asbasbasbag68
(g84
g70
NtRp4642
(dp4643
g73
(dp4644
sg82
g3771
sg75
(lp4645
g68
(g89
g70
NtRp4646
(dp4647
g73
(dp4648
g93
g94
ssg82
g4642
sg75
(lp4649
S'session_filename'
p4650
asbag68
(g89
g70
NtRp4651
(dp4652
g73
(dp4653
g100
g101
ssg82
g4642
sg75
(lp4654
S':'
asbag68
(g89
g70
NtRp4655
(dp4656
g73
(dp4657
sg82
g4642
sg75
(lp4658
g68
(g69
g70
NtRp4659
(dp4660
g73
(dp4661
g81
I5
ssg82
g4655
sg75
(lp4662
S'/home/kaique/Projects/web2py/applications/synopsis/sessions/127.0.0.1-351efa91-66d9-4ca2-9c53-1a2177b18dc7'
p4663
asbasbasbag68
(g84
g70
NtRp4664
(dp4665
g73
(dp4666
sg82
g3771
sg75
(lp4667
g68
(g89
g70
NtRp4668
(dp4669
g73
(dp4670
g93
g94
ssg82
g4664
sg75
(lp4671
S'session_id'
p4672
asbag68
(g89
g70
NtRp4673
(dp4674
g73
(dp4675
g100
g101
ssg82
g4664
sg75
(lp4676
S':'
asbag68
(g89
g70
NtRp4677
(dp4678
g73
(dp4679
sg82
g4664
sg75
(lp4680
g68
(g69
g70
NtRp4681
(dp4682
g73
(dp4683
g81
I5
ssg82
g4677
sg75
(lp4684
S'127.0.0.1-351efa91-66d9-4ca2-9c53-1a2177b18dc7'
p4685
asbasbasbag68
(g84
g70
NtRp4686
(dp4687
g73
(dp4688
sg82
g3771
sg75
(lp4689
g68
(g89
g70
NtRp4690
(dp4691
g73
(dp4692
g93
g94
ssg82
g4686
sg75
(lp4693
S'session_id_name'
p4694
asbag68
(g89
g70
NtRp4695
(dp4696
g73
(dp4697
g100
g101
ssg82
g4686
sg75
(lp4698
S':'
asbag68
(g89
g70
NtRp4699
(dp4700
g73
(dp4701
sg82
g4686
sg75
(lp4702
g68
(g69
g70
NtRp4703
(dp4704
g73
(dp4705
g81
I5
ssg82
g4699
sg75
(lp4706
g3828
asbasbasbag68
(g84
g70
NtRp4707
(dp4708
g73
(dp4709
sg82
g3771
sg75
(lp4710
g68
(g89
g70
NtRp4711
(dp4712
g73
(dp4713
g93
g94
ssg82
g4707
sg75
(lp4714
S'session_locked'
p4715
asbag68
(g89
g70
NtRp4716
(dp4717
g73
(dp4718
g100
g101
ssg82
g4707
sg75
(lp4719
S':'
asbag68
(g89
g70
NtRp4720
(dp4721
g73
(dp4722
sg82
g4707
sg75
(lp4723
g68
(g69
g70
NtRp4724
(dp4725
g73
(dp4726
g81
I5
ssg82
g4720
sg75
(lp4727
g1779
asbasbasbag68
(g84
g70
NtRp4728
(dp4729
g73
(dp4730
sg82
g3771
sg75
(lp4731
g68
(g89
g70
NtRp4732
(dp4733
g73
(dp4734
g93
g94
ssg82
g4728
sg75
(lp4735
S'session_new'
p4736
asbag68
(g89
g70
NtRp4737
(dp4738
g73
(dp4739
g100
g101
ssg82
g4728
sg75
(lp4740
S':'
asbag68
(g89
g70
NtRp4741
(dp4742
g73
(dp4743
sg82
g4728
sg75
(lp4744
g68
(g69
g70
NtRp4745
(dp4746
g73
(dp4747
g81
I5
ssg82
g4741
sg75
(lp4748
g111
asbasbasbag68
(g84
g70
NtRp4749
(dp4750
g73
(dp4751
sg82
g3771
sg75
(lp4752
g68
(g89
g70
NtRp4753
(dp4754
g73
(dp4755
g93
g94
ssg82
g4749
sg75
(lp4756
S'status'
p4757
asbag68
(g89
g70
NtRp4758
(dp4759
g73
(dp4760
g100
g101
ssg82
g4749
sg75
(lp4761
S':'
asbag68
(g89
g70
NtRp4762
(dp4763
g73
(dp4764
sg82
g4749
sg75
(lp4765
g68
(g69
g70
NtRp4766
(dp4767
g73
(dp4768
g81
I5
ssg82
g4762
sg75
(lp4769
S'200'
p4770
asbasbasbag68
(g84
g70
NtRp4771
(dp4772
g73
(dp4773
sg82
g3771
sg75
(lp4774
g68
(g89
g70
NtRp4775
(dp4776
g73
(dp4777
g93
g94
ssg82
g4771
sg75
(lp4778
S'subtitle'
p4779
asbag68
(g89
g70
NtRp4780
(dp4781
g73
(dp4782
g100
g101
ssg82
g4771
sg75
(lp4783
S':'
asbag68
(g89
g70
NtRp4784
(dp4785
g73
(dp4786
sg82
g4771
sg75
(lp4787
g68
(g69
g70
NtRp4788
(dp4789
g73
(dp4790
g81
I5
ssg82
g4784
sg75
(lp4791
g4051
(S's\x0f\x00\x00\x00Personalize-me!'
tRp4792
asbasbasbag68
(g84
g70
NtRp4793
(dp4794
g73
(dp4795
sg82
g3771
sg75
(lp4796
g68
(g89
g70
NtRp4797
(dp4798
g73
(dp4799
g93
g94
ssg82
g4793
sg75
(lp4800
S'title'
p4801
asbag68
(g89
g70
NtRp4802
(dp4803
g73
(dp4804
g100
g101
ssg82
g4793
sg75
(lp4805
S':'
asbag68
(g89
g70
NtRp4806
(dp4807
g73
(dp4808
sg82
g4793
sg75
(lp4809
g68
(g69
g70
NtRp4810
(dp4811
g73
(dp4812
g81
I5
ssg82
g4806
sg75
(lp4813
g133
asbasbasbag68
(g84
g70
NtRp4814
(dp4815
g73
(dp4816
sg82
g3771
sg75
(lp4817
g68
(g89
g70
NtRp4818
(dp4819
g73
(dp4820
g93
g94
ssg82
g4814
sg75
(lp4821
g2488
asbag68
(g89
g70
NtRp4822
(dp4823
g73
(dp4824
g100
g101
ssg82
g4814
sg75
(lp4825
S':'
asbag68
(g89
g70
NtRp4826
(dp4827
g73
(dp4828
sg82
g4814
sg75
(lp4829
g68
(g69
g70
NtRp4830
(dp4831
g73
(dp4832
g81
I5
ssg82
g4826
sg75
(lp4833
g2501
asbasbasbag68
(g84
g70
NtRp4834
(dp4835
g73
(dp4836
sg82
g3771
sg75
(lp4837
g68
(g89
g70
NtRp4838
(dp4839
g73
(dp4840
g93
g94
ssg82
g4834
sg75
(lp4841
S'view'
p4842
asbag68
(g89
g70
NtRp4843
(dp4844
g73
(dp4845
g100
g101
ssg82
g4834
sg75
(lp4846
S':'
asbag68
(g89
g70
NtRp4847
(dp4848
g73
(dp4849
sg82
g4834
sg75
(lp4850
g68
(g69
g70
NtRp4851
(dp4852
g73
(dp4853
g81
I5
ssg82
g4847
sg75
(lp4854
S'information/new.html'
p4855
asbasbasbasbasbsS'locals'
p4856
(dp4857
S'name'
p4858
S"'id'"
p4859
sS'fields'
p4860
S"{'id': '2'}"
p4861
sS'self'
p4862
S"<Table {'ALL': <gluon.dal.SQLALL object at 0x338...0>, 'id': <gluon.dal.Field object at 0x3389b50>}>"
p4863
sS'update'
p4864
g111
sS'new_fields_names'
p4865
S"['id']"
p4866
sS'ofield'
p4867
S'<gluon.dal.Field object>'
p4868
sS'new_fields'
p4869
S"[(<gluon.dal.Field object>, '2'), (<gluon.dal.Field object>, datetime.datetime(2012, 1, 12, 13, 12, 26, 488804)), (<gluon.dal.Field object>, 1), (<gluon.dal.Field object>, datetime.datetime(2012, 1, 12, 13, 12, 26, 488804)), (<gluon.dal.Field object>, 1)]"
p4870
sssS'traceback'
p4871
S'Traceback (most recent call last):\n  File "/home/kaique/Projects/web2py/gluon/restricted.py", line 194, in restricted\n    exec ccode in environment\n  File "/home/kaique/Projects/web2py/applications/synopsis/controllers/information.py", line 63, in <module>\n  File "/home/kaique/Projects/web2py/gluon/globals.py", line 149, in <lambda>\n    self._caller = lambda f: f()\n  File "/home/kaique/Projects/web2py/gluon/tools.py", line 2456, in f\n    return action(*a, **b)\n  File "/home/kaique/Projects/web2py/applications/synopsis/controllers/information.py", line 49, in new\n    db.publication.insert( id = args[1] )\n  File "/home/kaique/Projects/web2py/gluon/dal.py", line 4976, in insert\n    return self._db._adapter.insert(self,self._listify(fields))\n  File "/home/kaique/Projects/web2py/gluon/dal.py", line 4969, in _listify\n    raise SyntaxError,\'Table: missing required field: %s\' % ofield.name\nSyntaxError: Table: missing required field: title\n'
p4872
s.