(dp1
S'output'
p2
S''
sS'layer'
p3
S'/home/kaique/Projects/web2py/applications/synopsis/controllers/information.py'
p4
sS'code'
p5
S"# -*- coding: utf-8 -*-\nimport functions as f # shorthand function\n\n@auth.requires_login()\ndef index(): # Show the all content for redirect to profile\n\tsubject = f.get_table(db, 'subject', order='created_on')\n\treturn { 'subject': subject }\n\n@auth.requires_login()\ndef profile(): # Show the profile of subject\n\targs = request.args # query url's\n\tif args: \n\t\tprofile = f.get_table(db, 'subject', id=args[0]) \n\t\tsession.index = args[0] \n\tif not args or not profile: return redirect( URL('index') )\n\treturn { 'profile': profile }\n\n@auth.requires_login()\ndef publication(): # Show the publication profile\n\targs = request.args # query url's\n\tcount_equals = f.count_equals\n\tif args: \n\t\tpublication = f.get_table(db, 'publication', id=args[0])\n\t\tsession.back = args[0] \n\tif not args or not publication: return redirect( URL('profile') )\n\treturn { 'publication': publication, \n\t\t\t 'count_equals': count_equals }\n\n@auth.requires_login()\ndef new(): # Create a new subject\n\targs = request.args\n\t\n\tif not args:\n\t\ttitle = 'Subject'\n\t\tsubject = SQLFORM(db.subject, fields=['name'])\n\t\tsubject.elements(_type='submit')[0]['_value'] = 'Create'\n\t\t\n\t\tif subject.process().accepted:\n\t\t\tresponse.flash = T('{0} {1} {2}'.format('New', title.lower(), 'inserted!'))\n\t\telif subject.errors:\n\t\t\tresponse.flash = T('Sorry, try again!')\n\t\telse:\n\t\t\tresponse.flah = T('Please, fill the field...')\n\t\t\t\n\t\treturn { 'form': subject, \n\t\t\t \t 'title': title }\n\t\n\telif args[0] == 'publication':\n\t\ttitle = 'Publication'\n\t\tpublication = SQLFORM(db.publication, fields=['title', 'sub_title'])\n\t\tpublication.vars.subject_id = args[1]\n\t\tif publication.process().accepted:\n\t\t\tresponse.flash = T(T('{0} {1} {2}'.format('New', title.lower(), 'inserted!')))\n\t\telif publication.errors:\n\t\t\tresponse.flash = T('Sorry, try again!')\n\t\telse:\n\t\t\tresponse.flahs = T('Please, fill the field...')\n\t\n\t\treturn { 'form': publication,\n\t\t\t\t 'title': title }\n\t\t\t\t \n\telif args[0] == 'quote':\n\t\ttitle = 'Quote'\n\t\tquote = SQLFORM(db.quote, fields=['content'])\n\t\tquote.vars.publication_id = args[1]\n\t\tif quote.process().accepted:\n\t\t\tresponse.flash = T(T('{0} {1} {2}'.format('New', title.lower(), 'inserted!')))\n\t\telif quote.errors:\n\t\t\tresponse.flash = T('Sorry, try again!')\n\t\telse:\n\t\t\tresponse.flahs = T('Please, fill the field...')\n\t\n\t\treturn { 'form': quote,\n\t\t\t\t 'title': title }\n\t\t\t\t \n\telif args[0] == 'column':\n\t\ttitle = 'Topic'\n\t\tcolumn = SQLFORM(db.column, fields=['title'])\n\t\tcolumn.vars.publication_id = args[1]\n\t\tif column.process().accepted:\n\t\t\tresponse.flash = T(T('{0} {1} {2}'.format('New', title.lower(), 'inserted!')))\n\t\telif column.errors:\n\t\t\tresponse.flash = T('Sorry, try again!')\n\t\telse:\n\t\t\tresponse.flahs = T('Please, fill the field...')\n\t\n\t\treturn { 'form': column,\n\t\t\t\t 'title': title }\n\t\n\telif args[0] == 'line':\n\t\ttitle = 'Line'\n\t\tline = {}\n\t\t\n\t\t\n\t\t\n\t\treturn { 'form': lines,\n\t\t\t\t 'title': title }\n\t\t\t\t \n\telif args[0] == 'row':\n\t\ttitle = 'Row for {0}'.format(db.column(args[1])['title'])\n\t\trow = SQLFORM(db.row, fields=['content'])\n\t\trow.vars.column_id = args[1]\n\t\tif row.process().accepted:\n\t\t\tresponse.flash = T(T('{0} {1} {2}'.format('New', title.lower(), 'inserted!')))\n\t\telif row.errors:\n\t\t\tresponse.flash = T('Sorry, try again!')\n\t\telse:\n\t\t\tresponse.flahs = T('Please, fill the field...')\n\t\n\t\treturn { 'form': row,\n\t\t\t\t 'title': title }\n\t\t\t \t \n@auth.requires_login()\ndef edit(): # Edit the subject\n\treturn {}\n\nresponse._vars=response._caller(new)\n"
p6
sS'snapshot'
p7
(dp8
S'exception'
p9
(dp10
S'__hash__'
p11
S"<method-wrapper '__hash__' of exceptions.NameError object>"
p12
sS'__setattr__'
p13
S"<method-wrapper '__setattr__' of exceptions.NameError object>"
p14
sS'__reduce_ex__'
p15
S'<built-in method __reduce_ex__ of exceptions.NameError object>'
p16
sS'__getslice__'
p17
S"<method-wrapper '__getslice__' of exceptions.NameError object>"
p18
sS'__getitem__'
p19
S"<method-wrapper '__getitem__' of exceptions.NameError object>"
p20
sS'__setstate__'
p21
S'<built-in method __setstate__ of exceptions.NameError object>'
p22
sS'args'
p23
S'("global name \'lines\' is not defined",)'
p24
sS'__reduce__'
p25
S'<built-in method __reduce__ of exceptions.NameError object>'
p26
sS'__str__'
p27
S"<method-wrapper '__str__' of exceptions.NameError object>"
p28
sS'__format__'
p29
S'<built-in method __format__ of exceptions.NameError object>'
p30
sS'__getattribute__'
p31
S"<method-wrapper '__getattribute__' of exceptions.NameError object>"
p32
sS'__class__'
p33
S"<type 'exceptions.NameError'>"
p34
sS'__unicode__'
p35
S'<built-in method __unicode__ of exceptions.NameError object>'
p36
sS'__delattr__'
p37
S"<method-wrapper '__delattr__' of exceptions.NameError object>"
p38
sS'__subclasshook__'
p39
S'<built-in method __subclasshook__ of type object>'
p40
sS'__repr__'
p41
S"<method-wrapper '__repr__' of exceptions.NameError object>"
p42
sS'__dict__'
p43
S'{}'
p44
sS'__sizeof__'
p45
S'<built-in method __sizeof__ of exceptions.NameError object>'
p46
sS'__doc__'
p47
S"'Name not found globally.'"
p48
sS'__init__'
p49
S"<method-wrapper '__init__' of exceptions.NameError object>"
p50
sS'__new__'
p51
S'<built-in method __new__ of type object>'
p52
ssS'evalue'
p53
S"global name 'lines' is not defined"
p54
sS'request'
p55
ccopy_reg
_reconstructor
p56
(cgluon.html
BEAUTIFY
p57
c__builtin__
object
p58
NtRp59
(dp60
S'attributes'
p61
(dp62
sS'components'
p63
(lp64
g56
(cgluon.html
TABLE
p65
g58
NtRp66
(dp67
g61
(dp68
S'level'
p69
I5
ssS'parent'
p70
Nsg63
(lp71
g56
(cgluon.html
TR
p72
g58
NtRp73
(dp74
g61
(dp75
sg70
g66
sg63
(lp76
g56
(cgluon.html
TD
p77
g58
NtRp78
(dp79
g61
(dp80
S'_style'
p81
S'font-weight:bold;'
p82
ssg70
g73
sg63
(lp83
S'ajax'
p84
asbag56
(g77
g58
NtRp85
(dp86
g61
(dp87
S'_valign'
p88
S'top'
p89
ssg70
g73
sg63
(lp90
S':'
asbag56
(g77
g58
NtRp91
(dp92
g61
(dp93
sg70
g73
sg63
(lp94
g56
(g57
g58
NtRp95
(dp96
g61
(dp97
g69
I5
ssg70
g91
sg63
(lp98
S'False'
p99
asbasbasbag56
(g72
g58
NtRp100
(dp101
g61
(dp102
sg70
g66
sg63
(lp103
g56
(g77
g58
NtRp104
(dp105
g61
(dp106
g81
g82
ssg70
g100
sg63
(lp107
S'application'
p108
asbag56
(g77
g58
NtRp109
(dp110
g61
(dp111
g88
g89
ssg70
g100
sg63
(lp112
S':'
asbag56
(g77
g58
NtRp113
(dp114
g61
(dp115
sg70
g100
sg63
(lp116
g56
(g57
g58
NtRp117
(dp118
g61
(dp119
g69
I5
ssg70
g113
sg63
(lp120
S'synopsis'
p121
asbasbasbag56
(g72
g58
NtRp122
(dp123
g61
(dp124
sg70
g66
sg63
(lp125
g56
(g77
g58
NtRp126
(dp127
g61
(dp128
g81
g82
ssg70
g122
sg63
(lp129
g23
asbag56
(g77
g58
NtRp130
(dp131
g61
(dp132
g88
g89
ssg70
g122
sg63
(lp133
S':'
asbag56
(g77
g58
NtRp134
(dp135
g61
(dp136
sg70
g122
sg63
(lp137
g56
(g57
g58
NtRp138
(dp139
g61
(dp140
g69
I5
ssg70
g134
sg63
(lp141
g56
(g65
g58
NtRp142
(dp143
g61
(dp144
g69
I4
ssg70
Nsg63
(lp145
g56
(g72
g58
NtRp146
(dp147
g61
(dp148
sg70
g142
sg63
(lp149
g56
(g77
g58
NtRp150
(dp151
g61
(dp152
sg70
g146
sg63
(lp153
g56
(g57
g58
NtRp154
(dp155
g61
(dp156
g69
I4
ssg70
g150
sg63
(lp157
S'line'
p158
asbasbasbag56
(g72
g58
NtRp159
(dp160
g61
(dp161
sg70
g142
sg63
(lp162
g56
(g77
g58
NtRp163
(dp164
g61
(dp165
sg70
g159
sg63
(lp166
g56
(g57
g58
NtRp167
(dp168
g61
(dp169
g69
I4
ssg70
g163
sg63
(lp170
S'9'
asbasbasbasbasbasbasbag56
(g72
g58
NtRp171
(dp172
g61
(dp173
sg70
g66
sg63
(lp174
g56
(g77
g58
NtRp175
(dp176
g61
(dp177
g81
g82
ssg70
g171
sg63
(lp178
S'body'
p179
asbag56
(g77
g58
NtRp180
(dp181
g61
(dp182
g88
g89
ssg70
g171
sg63
(lp183
S':'
asbag56
(g77
g58
NtRp184
(dp185
g61
(dp186
sg70
g171
sg63
(lp187
g56
(g57
g58
NtRp188
(dp189
g61
(dp190
g69
I5
ssg70
g184
sg63
(lp191
S'<cStringIO.StringO object at 0x1765ab0>'
p192
asbasbasbag56
(g72
g58
NtRp193
(dp194
g61
(dp195
sg70
g66
sg63
(lp196
g56
(g77
g58
NtRp197
(dp198
g61
(dp199
g81
g82
ssg70
g193
sg63
(lp200
S'client'
p201
asbag56
(g77
g58
NtRp202
(dp203
g61
(dp204
g88
g89
ssg70
g193
sg63
(lp205
S':'
asbag56
(g77
g58
NtRp206
(dp207
g61
(dp208
sg70
g193
sg63
(lp209
g56
(g57
g58
NtRp210
(dp211
g61
(dp212
g69
I5
ssg70
g206
sg63
(lp213
S'127.0.0.1'
p214
asbasbasbag56
(g72
g58
NtRp215
(dp216
g61
(dp217
sg70
g66
sg63
(lp218
g56
(g77
g58
NtRp219
(dp220
g61
(dp221
g81
g82
ssg70
g215
sg63
(lp222
S'controller'
p223
asbag56
(g77
g58
NtRp224
(dp225
g61
(dp226
g88
g89
ssg70
g215
sg63
(lp227
S':'
asbag56
(g77
g58
NtRp228
(dp229
g61
(dp230
sg70
g215
sg63
(lp231
g56
(g57
g58
NtRp232
(dp233
g61
(dp234
g69
I5
ssg70
g228
sg63
(lp235
S'information'
p236
asbasbasbag56
(g72
g58
NtRp237
(dp238
g61
(dp239
sg70
g66
sg63
(lp240
g56
(g77
g58
NtRp241
(dp242
g61
(dp243
g81
g82
ssg70
g237
sg63
(lp244
S'cookies'
p245
asbag56
(g77
g58
NtRp246
(dp247
g61
(dp248
g88
g89
ssg70
g237
sg63
(lp249
S':'
asbag56
(g77
g58
NtRp250
(dp251
g61
(dp252
sg70
g237
sg63
(lp253
g56
(g57
g58
NtRp254
(dp255
g61
(dp256
g69
I5
ssg70
g250
sg63
(lp257
g56
(g65
g58
NtRp258
(dp259
g61
(dp260
g69
I4
ssg70
Nsg63
(lp261
g56
(g72
g58
NtRp262
(dp263
g61
(dp264
sg70
g258
sg63
(lp265
g56
(g77
g58
NtRp266
(dp267
g61
(dp268
g81
g82
ssg70
g262
sg63
(lp269
S'currency'
p270
asbag56
(g77
g58
NtRp271
(dp272
g61
(dp273
g88
g89
ssg70
g262
sg63
(lp274
S':'
asbag56
(g77
g58
NtRp275
(dp276
g61
(dp277
sg70
g262
sg63
(lp278
g56
(g57
g58
NtRp279
(dp280
g61
(dp281
g69
I4
ssg70
g275
sg63
(lp282
g56
(g65
g58
NtRp283
(dp284
g61
(dp285
g69
I3
ssg70
Nsg63
(lp286
g56
(g72
g58
NtRp287
(dp288
g61
(dp289
sg70
g283
sg63
(lp290
g56
(g77
g58
NtRp291
(dp292
g61
(dp293
g81
g82
ssg70
g287
sg63
(lp294
S'comment'
p295
asbag56
(g77
g58
NtRp296
(dp297
g61
(dp298
g88
g89
ssg70
g287
sg63
(lp299
S':'
asbag56
(g77
g58
NtRp300
(dp301
g61
(dp302
sg70
g287
sg63
(lp303
g56
(g57
g58
NtRp304
(dp305
g61
(dp306
g69
I3
ssg70
g300
sg63
(lp307
S''
asbasbasbag56
(g72
g58
NtRp308
(dp309
g61
(dp310
sg70
g283
sg63
(lp311
g56
(g77
g58
NtRp312
(dp313
g61
(dp314
g81
g82
ssg70
g308
sg63
(lp315
S'domain'
p316
asbag56
(g77
g58
NtRp317
(dp318
g61
(dp319
g88
g89
ssg70
g308
sg63
(lp320
S':'
asbag56
(g77
g58
NtRp321
(dp322
g61
(dp323
sg70
g308
sg63
(lp324
g56
(g57
g58
NtRp325
(dp326
g61
(dp327
g69
I3
ssg70
g321
sg63
(lp328
S''
asbasbasbag56
(g72
g58
NtRp329
(dp330
g61
(dp331
sg70
g283
sg63
(lp332
g56
(g77
g58
NtRp333
(dp334
g61
(dp335
g81
g82
ssg70
g329
sg63
(lp336
S'expires'
p337
asbag56
(g77
g58
NtRp338
(dp339
g61
(dp340
g88
g89
ssg70
g329
sg63
(lp341
S':'
asbag56
(g77
g58
NtRp342
(dp343
g61
(dp344
sg70
g329
sg63
(lp345
g56
(g57
g58
NtRp346
(dp347
g61
(dp348
g69
I3
ssg70
g342
sg63
(lp349
S''
asbasbasbag56
(g72
g58
NtRp350
(dp351
g61
(dp352
sg70
g283
sg63
(lp353
g56
(g77
g58
NtRp354
(dp355
g61
(dp356
g81
g82
ssg70
g350
sg63
(lp357
S'httponly'
p358
asbag56
(g77
g58
NtRp359
(dp360
g61
(dp361
g88
g89
ssg70
g350
sg63
(lp362
S':'
asbag56
(g77
g58
NtRp363
(dp364
g61
(dp365
sg70
g350
sg63
(lp366
g56
(g57
g58
NtRp367
(dp368
g61
(dp369
g69
I3
ssg70
g363
sg63
(lp370
S''
asbasbasbag56
(g72
g58
NtRp371
(dp372
g61
(dp373
sg70
g283
sg63
(lp374
g56
(g77
g58
NtRp375
(dp376
g61
(dp377
g81
g82
ssg70
g371
sg63
(lp378
S'max-age'
p379
asbag56
(g77
g58
NtRp380
(dp381
g61
(dp382
g88
g89
ssg70
g371
sg63
(lp383
S':'
asbag56
(g77
g58
NtRp384
(dp385
g61
(dp386
sg70
g371
sg63
(lp387
g56
(g57
g58
NtRp388
(dp389
g61
(dp390
g69
I3
ssg70
g384
sg63
(lp391
S''
asbasbasbag56
(g72
g58
NtRp392
(dp393
g61
(dp394
sg70
g283
sg63
(lp395
g56
(g77
g58
NtRp396
(dp397
g61
(dp398
g81
g82
ssg70
g392
sg63
(lp399
S'path'
p400
asbag56
(g77
g58
NtRp401
(dp402
g61
(dp403
g88
g89
ssg70
g392
sg63
(lp404
S':'
asbag56
(g77
g58
NtRp405
(dp406
g61
(dp407
sg70
g392
sg63
(lp408
g56
(g57
g58
NtRp409
(dp410
g61
(dp411
g69
I3
ssg70
g405
sg63
(lp412
S''
asbasbasbag56
(g72
g58
NtRp413
(dp414
g61
(dp415
sg70
g283
sg63
(lp416
g56
(g77
g58
NtRp417
(dp418
g61
(dp419
g81
g82
ssg70
g413
sg63
(lp420
S'secure'
p421
asbag56
(g77
g58
NtRp422
(dp423
g61
(dp424
g88
g89
ssg70
g413
sg63
(lp425
S':'
asbag56
(g77
g58
NtRp426
(dp427
g61
(dp428
sg70
g413
sg63
(lp429
g56
(g57
g58
NtRp430
(dp431
g61
(dp432
g69
I3
ssg70
g426
sg63
(lp433
S''
asbasbasbag56
(g72
g58
NtRp434
(dp435
g61
(dp436
sg70
g283
sg63
(lp437
g56
(g77
g58
NtRp438
(dp439
g61
(dp440
g81
g82
ssg70
g434
sg63
(lp441
S'version'
p442
asbag56
(g77
g58
NtRp443
(dp444
g61
(dp445
g88
g89
ssg70
g434
sg63
(lp446
S':'
asbag56
(g77
g58
NtRp447
(dp448
g61
(dp449
sg70
g434
sg63
(lp450
g56
(g57
g58
NtRp451
(dp452
g61
(dp453
g69
I3
ssg70
g447
sg63
(lp454
S''
asbasbasbasbasbasbasbag56
(g72
g58
NtRp455
(dp456
g61
(dp457
sg70
g258
sg63
(lp458
g56
(g77
g58
NtRp459
(dp460
g61
(dp461
g81
g82
ssg70
g455
sg63
(lp462
S'session_id_admin'
p463
asbag56
(g77
g58
NtRp464
(dp465
g61
(dp466
g88
g89
ssg70
g455
sg63
(lp467
S':'
asbag56
(g77
g58
NtRp468
(dp469
g61
(dp470
sg70
g455
sg63
(lp471
g56
(g57
g58
NtRp472
(dp473
g61
(dp474
g69
I4
ssg70
g468
sg63
(lp475
g56
(g65
g58
NtRp476
(dp477
g61
(dp478
g69
I3
ssg70
Nsg63
(lp479
g56
(g72
g58
NtRp480
(dp481
g61
(dp482
sg70
g476
sg63
(lp483
g56
(g77
g58
NtRp484
(dp485
g61
(dp486
g81
g82
ssg70
g480
sg63
(lp487
g295
asbag56
(g77
g58
NtRp488
(dp489
g61
(dp490
g88
g89
ssg70
g480
sg63
(lp491
S':'
asbag56
(g77
g58
NtRp492
(dp493
g61
(dp494
sg70
g480
sg63
(lp495
g56
(g57
g58
NtRp496
(dp497
g61
(dp498
g69
I3
ssg70
g492
sg63
(lp499
S''
asbasbasbag56
(g72
g58
NtRp500
(dp501
g61
(dp502
sg70
g476
sg63
(lp503
g56
(g77
g58
NtRp504
(dp505
g61
(dp506
g81
g82
ssg70
g500
sg63
(lp507
g316
asbag56
(g77
g58
NtRp508
(dp509
g61
(dp510
g88
g89
ssg70
g500
sg63
(lp511
S':'
asbag56
(g77
g58
NtRp512
(dp513
g61
(dp514
sg70
g500
sg63
(lp515
g56
(g57
g58
NtRp516
(dp517
g61
(dp518
g69
I3
ssg70
g512
sg63
(lp519
S''
asbasbasbag56
(g72
g58
NtRp520
(dp521
g61
(dp522
sg70
g476
sg63
(lp523
g56
(g77
g58
NtRp524
(dp525
g61
(dp526
g81
g82
ssg70
g520
sg63
(lp527
g337
asbag56
(g77
g58
NtRp528
(dp529
g61
(dp530
g88
g89
ssg70
g520
sg63
(lp531
S':'
asbag56
(g77
g58
NtRp532
(dp533
g61
(dp534
sg70
g520
sg63
(lp535
g56
(g57
g58
NtRp536
(dp537
g61
(dp538
g69
I3
ssg70
g532
sg63
(lp539
S''
asbasbasbag56
(g72
g58
NtRp540
(dp541
g61
(dp542
sg70
g476
sg63
(lp543
g56
(g77
g58
NtRp544
(dp545
g61
(dp546
g81
g82
ssg70
g540
sg63
(lp547
g358
asbag56
(g77
g58
NtRp548
(dp549
g61
(dp550
g88
g89
ssg70
g540
sg63
(lp551
S':'
asbag56
(g77
g58
NtRp552
(dp553
g61
(dp554
sg70
g540
sg63
(lp555
g56
(g57
g58
NtRp556
(dp557
g61
(dp558
g69
I3
ssg70
g552
sg63
(lp559
S''
asbasbasbag56
(g72
g58
NtRp560
(dp561
g61
(dp562
sg70
g476
sg63
(lp563
g56
(g77
g58
NtRp564
(dp565
g61
(dp566
g81
g82
ssg70
g560
sg63
(lp567
g379
asbag56
(g77
g58
NtRp568
(dp569
g61
(dp570
g88
g89
ssg70
g560
sg63
(lp571
S':'
asbag56
(g77
g58
NtRp572
(dp573
g61
(dp574
sg70
g560
sg63
(lp575
g56
(g57
g58
NtRp576
(dp577
g61
(dp578
g69
I3
ssg70
g572
sg63
(lp579
S''
asbasbasbag56
(g72
g58
NtRp580
(dp581
g61
(dp582
sg70
g476
sg63
(lp583
g56
(g77
g58
NtRp584
(dp585
g61
(dp586
g81
g82
ssg70
g580
sg63
(lp587
g400
asbag56
(g77
g58
NtRp588
(dp589
g61
(dp590
g88
g89
ssg70
g580
sg63
(lp591
S':'
asbag56
(g77
g58
NtRp592
(dp593
g61
(dp594
sg70
g580
sg63
(lp595
g56
(g57
g58
NtRp596
(dp597
g61
(dp598
g69
I3
ssg70
g592
sg63
(lp599
S''
asbasbasbag56
(g72
g58
NtRp600
(dp601
g61
(dp602
sg70
g476
sg63
(lp603
g56
(g77
g58
NtRp604
(dp605
g61
(dp606
g81
g82
ssg70
g600
sg63
(lp607
g421
asbag56
(g77
g58
NtRp608
(dp609
g61
(dp610
g88
g89
ssg70
g600
sg63
(lp611
S':'
asbag56
(g77
g58
NtRp612
(dp613
g61
(dp614
sg70
g600
sg63
(lp615
g56
(g57
g58
NtRp616
(dp617
g61
(dp618
g69
I3
ssg70
g612
sg63
(lp619
S''
asbasbasbag56
(g72
g58
NtRp620
(dp621
g61
(dp622
sg70
g476
sg63
(lp623
g56
(g77
g58
NtRp624
(dp625
g61
(dp626
g81
g82
ssg70
g620
sg63
(lp627
g442
asbag56
(g77
g58
NtRp628
(dp629
g61
(dp630
g88
g89
ssg70
g620
sg63
(lp631
S':'
asbag56
(g77
g58
NtRp632
(dp633
g61
(dp634
sg70
g620
sg63
(lp635
g56
(g57
g58
NtRp636
(dp637
g61
(dp638
g69
I3
ssg70
g632
sg63
(lp639
S''
asbasbasbasbasbasbasbag56
(g72
g58
NtRp640
(dp641
g61
(dp642
sg70
g258
sg63
(lp643
g56
(g77
g58
NtRp644
(dp645
g61
(dp646
g81
g82
ssg70
g640
sg63
(lp647
S'session_id_synopsis'
p648
asbag56
(g77
g58
NtRp649
(dp650
g61
(dp651
g88
g89
ssg70
g640
sg63
(lp652
S':'
asbag56
(g77
g58
NtRp653
(dp654
g61
(dp655
sg70
g640
sg63
(lp656
g56
(g57
g58
NtRp657
(dp658
g61
(dp659
g69
I4
ssg70
g653
sg63
(lp660
g56
(g65
g58
NtRp661
(dp662
g61
(dp663
g69
I3
ssg70
Nsg63
(lp664
g56
(g72
g58
NtRp665
(dp666
g61
(dp667
sg70
g661
sg63
(lp668
g56
(g77
g58
NtRp669
(dp670
g61
(dp671
g81
g82
ssg70
g665
sg63
(lp672
g295
asbag56
(g77
g58
NtRp673
(dp674
g61
(dp675
g88
g89
ssg70
g665
sg63
(lp676
S':'
asbag56
(g77
g58
NtRp677
(dp678
g61
(dp679
sg70
g665
sg63
(lp680
g56
(g57
g58
NtRp681
(dp682
g61
(dp683
g69
I3
ssg70
g677
sg63
(lp684
S''
asbasbasbag56
(g72
g58
NtRp685
(dp686
g61
(dp687
sg70
g661
sg63
(lp688
g56
(g77
g58
NtRp689
(dp690
g61
(dp691
g81
g82
ssg70
g685
sg63
(lp692
g316
asbag56
(g77
g58
NtRp693
(dp694
g61
(dp695
g88
g89
ssg70
g685
sg63
(lp696
S':'
asbag56
(g77
g58
NtRp697
(dp698
g61
(dp699
sg70
g685
sg63
(lp700
g56
(g57
g58
NtRp701
(dp702
g61
(dp703
g69
I3
ssg70
g697
sg63
(lp704
S''
asbasbasbag56
(g72
g58
NtRp705
(dp706
g61
(dp707
sg70
g661
sg63
(lp708
g56
(g77
g58
NtRp709
(dp710
g61
(dp711
g81
g82
ssg70
g705
sg63
(lp712
g337
asbag56
(g77
g58
NtRp713
(dp714
g61
(dp715
g88
g89
ssg70
g705
sg63
(lp716
S':'
asbag56
(g77
g58
NtRp717
(dp718
g61
(dp719
sg70
g705
sg63
(lp720
g56
(g57
g58
NtRp721
(dp722
g61
(dp723
g69
I3
ssg70
g717
sg63
(lp724
S''
asbasbasbag56
(g72
g58
NtRp725
(dp726
g61
(dp727
sg70
g661
sg63
(lp728
g56
(g77
g58
NtRp729
(dp730
g61
(dp731
g81
g82
ssg70
g725
sg63
(lp732
g358
asbag56
(g77
g58
NtRp733
(dp734
g61
(dp735
g88
g89
ssg70
g725
sg63
(lp736
S':'
asbag56
(g77
g58
NtRp737
(dp738
g61
(dp739
sg70
g725
sg63
(lp740
g56
(g57
g58
NtRp741
(dp742
g61
(dp743
g69
I3
ssg70
g737
sg63
(lp744
S''
asbasbasbag56
(g72
g58
NtRp745
(dp746
g61
(dp747
sg70
g661
sg63
(lp748
g56
(g77
g58
NtRp749
(dp750
g61
(dp751
g81
g82
ssg70
g745
sg63
(lp752
g379
asbag56
(g77
g58
NtRp753
(dp754
g61
(dp755
g88
g89
ssg70
g745
sg63
(lp756
S':'
asbag56
(g77
g58
NtRp757
(dp758
g61
(dp759
sg70
g745
sg63
(lp760
g56
(g57
g58
NtRp761
(dp762
g61
(dp763
g69
I3
ssg70
g757
sg63
(lp764
S''
asbasbasbag56
(g72
g58
NtRp765
(dp766
g61
(dp767
sg70
g661
sg63
(lp768
g56
(g77
g58
NtRp769
(dp770
g61
(dp771
g81
g82
ssg70
g765
sg63
(lp772
g400
asbag56
(g77
g58
NtRp773
(dp774
g61
(dp775
g88
g89
ssg70
g765
sg63
(lp776
S':'
asbag56
(g77
g58
NtRp777
(dp778
g61
(dp779
sg70
g765
sg63
(lp780
g56
(g57
g58
NtRp781
(dp782
g61
(dp783
g69
I3
ssg70
g777
sg63
(lp784
S''
asbasbasbag56
(g72
g58
NtRp785
(dp786
g61
(dp787
sg70
g661
sg63
(lp788
g56
(g77
g58
NtRp789
(dp790
g61
(dp791
g81
g82
ssg70
g785
sg63
(lp792
g421
asbag56
(g77
g58
NtRp793
(dp794
g61
(dp795
g88
g89
ssg70
g785
sg63
(lp796
S':'
asbag56
(g77
g58
NtRp797
(dp798
g61
(dp799
sg70
g785
sg63
(lp800
g56
(g57
g58
NtRp801
(dp802
g61
(dp803
g69
I3
ssg70
g797
sg63
(lp804
S''
asbasbasbag56
(g72
g58
NtRp805
(dp806
g61
(dp807
sg70
g661
sg63
(lp808
g56
(g77
g58
NtRp809
(dp810
g61
(dp811
g81
g82
ssg70
g805
sg63
(lp812
g442
asbag56
(g77
g58
NtRp813
(dp814
g61
(dp815
g88
g89
ssg70
g805
sg63
(lp816
S':'
asbag56
(g77
g58
NtRp817
(dp818
g61
(dp819
sg70
g805
sg63
(lp820
g56
(g57
g58
NtRp821
(dp822
g61
(dp823
g69
I3
ssg70
g817
sg63
(lp824
S''
asbasbasbasbasbasbasbasbasbasbasbag56
(g72
g58
NtRp825
(dp826
g61
(dp827
sg70
g66
sg63
(lp828
g56
(g77
g58
NtRp829
(dp830
g61
(dp831
g81
g82
ssg70
g825
sg63
(lp832
S'env'
p833
asbag56
(g77
g58
NtRp834
(dp835
g61
(dp836
g88
g89
ssg70
g825
sg63
(lp837
S':'
asbag56
(g77
g58
NtRp838
(dp839
g61
(dp840
sg70
g825
sg63
(lp841
g56
(g57
g58
NtRp842
(dp843
g61
(dp844
g69
I5
ssg70
g838
sg63
(lp845
g56
(g65
g58
NtRp846
(dp847
g61
(dp848
g69
I4
ssg70
Nsg63
(lp849
g56
(g72
g58
NtRp850
(dp851
g61
(dp852
sg70
g846
sg63
(lp853
g56
(g77
g58
NtRp854
(dp855
g61
(dp856
g81
g82
ssg70
g850
sg63
(lp857
S'app_folders'
p858
asbag56
(g77
g58
NtRp859
(dp860
g61
(dp861
g88
g89
ssg70
g850
sg63
(lp862
S':'
asbag56
(g77
g58
NtRp863
(dp864
g61
(dp865
sg70
g850
sg63
(lp866
g56
(g57
g58
NtRp867
(dp868
g61
(dp869
g69
I4
ssg70
g863
sg63
(lp870
S"set(['/home/kaique/Projects/web2py/applications/synopsis/'])"
p871
asbasbasbag56
(g72
g58
NtRp872
(dp873
g61
(dp874
sg70
g846
sg63
(lp875
g56
(g77
g58
NtRp876
(dp877
g61
(dp878
g81
g82
ssg70
g872
sg63
(lp879
S'applications_parent'
p880
asbag56
(g77
g58
NtRp881
(dp882
g61
(dp883
g88
g89
ssg70
g872
sg63
(lp884
S':'
asbag56
(g77
g58
NtRp885
(dp886
g61
(dp887
sg70
g872
sg63
(lp888
g56
(g57
g58
NtRp889
(dp890
g61
(dp891
g69
I4
ssg70
g885
sg63
(lp892
S'/home/kaique/Projects/web2py'
p893
asbasbasbag56
(g72
g58
NtRp894
(dp895
g61
(dp896
sg70
g846
sg63
(lp897
g56
(g77
g58
NtRp898
(dp899
g61
(dp900
g81
g82
ssg70
g894
sg63
(lp901
S'cmd_args'
p902
asbag56
(g77
g58
NtRp903
(dp904
g61
(dp905
g88
g89
ssg70
g894
sg63
(lp906
S':'
asbag56
(g77
g58
NtRp907
(dp908
g61
(dp909
sg70
g894
sg63
(lp910
g56
(g57
g58
NtRp911
(dp912
g61
(dp913
g69
I4
ssg70
g907
sg63
(lp914
g56
(g65
g58
NtRp915
(dp916
g61
(dp917
g69
I3
ssg70
Nsg63
(lp918
sbasbasbasbag56
(g72
g58
NtRp919
(dp920
g61
(dp921
sg70
g846
sg63
(lp922
g56
(g77
g58
NtRp923
(dp924
g61
(dp925
g81
g82
ssg70
g919
sg63
(lp926
S'cmd_options'
p927
asbag56
(g77
g58
NtRp928
(dp929
g61
(dp930
g88
g89
ssg70
g919
sg63
(lp931
S':'
asbag56
(g77
g58
NtRp932
(dp933
g61
(dp934
sg70
g919
sg63
(lp935
g56
(g57
g58
NtRp936
(dp937
g61
(dp938
g69
I4
ssg70
g932
sg63
(lp939
S"<Values at 0x177d950: {'verbose': False, 'ip': '127.0.0.1', 'shutdown_timeout': 5, 'taskbar': False, 'nocron': False, 'pid_filename': 'httpserver.pid', 'maxthreads': None, 'softcron': False, 'server_name': 'kaique-Pine-Trail-M', 'bpython': False, 'nogui': False, 'port': 8000, 'extcron': False, 'debuglevel': 30, 'test': None, 'folder': '/home/kaique/Projects/web2py', 'config': '', 'import_models': False, 'winservice': '', 'shell': None, 'run': '', 'log_filename': 'httpserver.log', 'args': [''], 'ssl_ca_certificate': None, 'scheduler': None, 'profiler_filename': None, 'ssl_private_key': '', 'password': 'dev', 'request_queue_size': 5, 'ssl_certificate': '', 'cronjob': False, 'plain': False, 'quiet': False, 'interfaces': None, 'minthreads': None, 'timeout': 10, 'numthreads': None, 'nobanner': False}>"
p940
asbasbasbag56
(g72
g58
NtRp941
(dp942
g61
(dp943
sg70
g846
sg63
(lp944
g56
(g77
g58
NtRp945
(dp946
g61
(dp947
g81
g82
ssg70
g941
sg63
(lp948
S'db_sessions'
p949
asbag56
(g77
g58
NtRp950
(dp951
g61
(dp952
g88
g89
ssg70
g941
sg63
(lp953
S':'
asbag56
(g77
g58
NtRp954
(dp955
g61
(dp956
sg70
g941
sg63
(lp957
g56
(g57
g58
NtRp958
(dp959
g61
(dp960
g69
I4
ssg70
g954
sg63
(lp961
S'set([])'
p962
asbasbasbag56
(g72
g58
NtRp963
(dp964
g61
(dp965
sg70
g846
sg63
(lp966
g56
(g77
g58
NtRp967
(dp968
g61
(dp969
g81
g82
ssg70
g963
sg63
(lp970
S'debugging'
p971
asbag56
(g77
g58
NtRp972
(dp973
g61
(dp974
g88
g89
ssg70
g963
sg63
(lp975
S':'
asbag56
(g77
g58
NtRp976
(dp977
g61
(dp978
sg70
g963
sg63
(lp979
g56
(g57
g58
NtRp980
(dp981
g61
(dp982
g69
I4
ssg70
g976
sg63
(lp983
g99
asbasbasbag56
(g72
g58
NtRp984
(dp985
g61
(dp986
sg70
g846
sg63
(lp987
g56
(g77
g58
NtRp988
(dp989
g61
(dp990
g81
g82
ssg70
g984
sg63
(lp991
S'gluon_parent'
p992
asbag56
(g77
g58
NtRp993
(dp994
g61
(dp995
g88
g89
ssg70
g984
sg63
(lp996
S':'
asbag56
(g77
g58
NtRp997
(dp998
g61
(dp999
sg70
g984
sg63
(lp1000
g56
(g57
g58
NtRp1001
(dp1002
g61
(dp1003
g69
I4
ssg70
g997
sg63
(lp1004
S'/home/kaique/Projects/web2py'
p1005
asbasbasbag56
(g72
g58
NtRp1006
(dp1007
g61
(dp1008
sg70
g846
sg63
(lp1009
g56
(g77
g58
NtRp1010
(dp1011
g61
(dp1012
g81
g82
ssg70
g1006
sg63
(lp1013
S'http_accept'
p1014
asbag56
(g77
g58
NtRp1015
(dp1016
g61
(dp1017
g88
g89
ssg70
g1006
sg63
(lp1018
S':'
asbag56
(g77
g58
NtRp1019
(dp1020
g61
(dp1021
sg70
g1006
sg63
(lp1022
g56
(g57
g58
NtRp1023
(dp1024
g61
(dp1025
g69
I4
ssg70
g1019
sg63
(lp1026
S'text/html,application/xhtml+xml,application/xml;q=0.9,*/*;q=0.8'
p1027
asbasbasbag56
(g72
g58
NtRp1028
(dp1029
g61
(dp1030
sg70
g846
sg63
(lp1031
g56
(g77
g58
NtRp1032
(dp1033
g61
(dp1034
g81
g82
ssg70
g1028
sg63
(lp1035
S'http_accept_charset'
p1036
asbag56
(g77
g58
NtRp1037
(dp1038
g61
(dp1039
g88
g89
ssg70
g1028
sg63
(lp1040
S':'
asbag56
(g77
g58
NtRp1041
(dp1042
g61
(dp1043
sg70
g1028
sg63
(lp1044
g56
(g57
g58
NtRp1045
(dp1046
g61
(dp1047
g69
I4
ssg70
g1041
sg63
(lp1048
S'ISO-8859-1,utf-8;q=0.7,*;q=0.7'
p1049
asbasbasbag56
(g72
g58
NtRp1050
(dp1051
g61
(dp1052
sg70
g846
sg63
(lp1053
g56
(g77
g58
NtRp1054
(dp1055
g61
(dp1056
g81
g82
ssg70
g1050
sg63
(lp1057
S'http_accept_encoding'
p1058
asbag56
(g77
g58
NtRp1059
(dp1060
g61
(dp1061
g88
g89
ssg70
g1050
sg63
(lp1062
S':'
asbag56
(g77
g58
NtRp1063
(dp1064
g61
(dp1065
sg70
g1050
sg63
(lp1066
g56
(g57
g58
NtRp1067
(dp1068
g61
(dp1069
g69
I4
ssg70
g1063
sg63
(lp1070
S'gzip, deflate'
p1071
asbasbasbag56
(g72
g58
NtRp1072
(dp1073
g61
(dp1074
sg70
g846
sg63
(lp1075
g56
(g77
g58
NtRp1076
(dp1077
g61
(dp1078
g81
g82
ssg70
g1072
sg63
(lp1079
S'http_accept_language'
p1080
asbag56
(g77
g58
NtRp1081
(dp1082
g61
(dp1083
g88
g89
ssg70
g1072
sg63
(lp1084
S':'
asbag56
(g77
g58
NtRp1085
(dp1086
g61
(dp1087
sg70
g1072
sg63
(lp1088
g56
(g57
g58
NtRp1089
(dp1090
g61
(dp1091
g69
I4
ssg70
g1085
sg63
(lp1092
S'pt-br,pt;q=0.8,en-us;q=0.5,en;q=0.3'
p1093
asbasbasbag56
(g72
g58
NtRp1094
(dp1095
g61
(dp1096
sg70
g846
sg63
(lp1097
g56
(g77
g58
NtRp1098
(dp1099
g61
(dp1100
g81
g82
ssg70
g1094
sg63
(lp1101
S'http_connection'
p1102
asbag56
(g77
g58
NtRp1103
(dp1104
g61
(dp1105
g88
g89
ssg70
g1094
sg63
(lp1106
S':'
asbag56
(g77
g58
NtRp1107
(dp1108
g61
(dp1109
sg70
g1094
sg63
(lp1110
g56
(g57
g58
NtRp1111
(dp1112
g61
(dp1113
g69
I4
ssg70
g1107
sg63
(lp1114
S'keep-alive'
p1115
asbasbasbag56
(g72
g58
NtRp1116
(dp1117
g61
(dp1118
sg70
g846
sg63
(lp1119
g56
(g77
g58
NtRp1120
(dp1121
g61
(dp1122
g81
g82
ssg70
g1116
sg63
(lp1123
S'http_cookie'
p1124
asbag56
(g77
g58
NtRp1125
(dp1126
g61
(dp1127
g88
g89
ssg70
g1116
sg63
(lp1128
S':'
asbag56
(g77
g58
NtRp1129
(dp1130
g61
(dp1131
sg70
g1116
sg63
(lp1132
g56
(g57
g58
NtRp1133
(dp1134
g61
(dp1135
g69
I4
ssg70
g1129
sg63
(lp1136
S'currency=GBP; session_id_admin=127.0.0.1-941ecd8a-e1ee-43ab-951d-bff31fe2852d; session_id_synopsis=127.0.0.1-b4f447cc-7ffd-43f9-80d9-5b54dcde711e'
p1137
asbasbasbag56
(g72
g58
NtRp1138
(dp1139
g61
(dp1140
sg70
g846
sg63
(lp1141
g56
(g77
g58
NtRp1142
(dp1143
g61
(dp1144
g81
g82
ssg70
g1138
sg63
(lp1145
S'http_host'
p1146
asbag56
(g77
g58
NtRp1147
(dp1148
g61
(dp1149
g88
g89
ssg70
g1138
sg63
(lp1150
S':'
asbag56
(g77
g58
NtRp1151
(dp1152
g61
(dp1153
sg70
g1138
sg63
(lp1154
g56
(g57
g58
NtRp1155
(dp1156
g61
(dp1157
g69
I4
ssg70
g1151
sg63
(lp1158
S'localhost:8000'
p1159
asbasbasbag56
(g72
g58
NtRp1160
(dp1161
g61
(dp1162
sg70
g846
sg63
(lp1163
g56
(g77
g58
NtRp1164
(dp1165
g61
(dp1166
g81
g82
ssg70
g1160
sg63
(lp1167
S'http_referer'
p1168
asbag56
(g77
g58
NtRp1169
(dp1170
g61
(dp1171
g88
g89
ssg70
g1160
sg63
(lp1172
S':'
asbag56
(g77
g58
NtRp1173
(dp1174
g61
(dp1175
sg70
g1160
sg63
(lp1176
g56
(g57
g58
NtRp1177
(dp1178
g61
(dp1179
g69
I4
ssg70
g1173
sg63
(lp1180
S'http://localhost:8000/synopsis/information/publication/9'
p1181
asbasbasbag56
(g72
g58
NtRp1182
(dp1183
g61
(dp1184
sg70
g846
sg63
(lp1185
g56
(g77
g58
NtRp1186
(dp1187
g61
(dp1188
g81
g82
ssg70
g1182
sg63
(lp1189
S'http_user_agent'
p1190
asbag56
(g77
g58
NtRp1191
(dp1192
g61
(dp1193
g88
g89
ssg70
g1182
sg63
(lp1194
S':'
asbag56
(g77
g58
NtRp1195
(dp1196
g61
(dp1197
sg70
g1182
sg63
(lp1198
g56
(g57
g58
NtRp1199
(dp1200
g61
(dp1201
g69
I4
ssg70
g1195
sg63
(lp1202
S'Mozilla/5.0 (Ubuntu; X11; Linux x86_64; rv:9.0.1) Gecko/20100101 Firefox/9.0.1'
p1203
asbasbasbag56
(g72
g58
NtRp1204
(dp1205
g61
(dp1206
sg70
g846
sg63
(lp1207
g56
(g77
g58
NtRp1208
(dp1209
g61
(dp1210
g81
g82
ssg70
g1204
sg63
(lp1211
S'is_jython'
p1212
asbag56
(g77
g58
NtRp1213
(dp1214
g61
(dp1215
g88
g89
ssg70
g1204
sg63
(lp1216
S':'
asbag56
(g77
g58
NtRp1217
(dp1218
g61
(dp1219
sg70
g1204
sg63
(lp1220
g56
(g57
g58
NtRp1221
(dp1222
g61
(dp1223
g69
I4
ssg70
g1217
sg63
(lp1224
g99
asbasbasbag56
(g72
g58
NtRp1225
(dp1226
g61
(dp1227
sg70
g846
sg63
(lp1228
g56
(g77
g58
NtRp1229
(dp1230
g61
(dp1231
g81
g82
ssg70
g1225
sg63
(lp1232
S'path_info'
p1233
asbag56
(g77
g58
NtRp1234
(dp1235
g61
(dp1236
g88
g89
ssg70
g1225
sg63
(lp1237
S':'
asbag56
(g77
g58
NtRp1238
(dp1239
g61
(dp1240
sg70
g1225
sg63
(lp1241
g56
(g57
g58
NtRp1242
(dp1243
g61
(dp1244
g69
I4
ssg70
g1238
sg63
(lp1245
S'/synopsis/information/new/line/9'
p1246
asbasbasbag56
(g72
g58
NtRp1247
(dp1248
g61
(dp1249
sg70
g846
sg63
(lp1250
g56
(g77
g58
NtRp1251
(dp1252
g61
(dp1253
g81
g82
ssg70
g1247
sg63
(lp1254
S'query_string'
p1255
asbag56
(g77
g58
NtRp1256
(dp1257
g61
(dp1258
g88
g89
ssg70
g1247
sg63
(lp1259
S':'
asbag56
(g77
g58
NtRp1260
(dp1261
g61
(dp1262
sg70
g1247
sg63
(lp1263
g56
(g57
g58
NtRp1264
(dp1265
g61
(dp1266
g69
I4
ssg70
g1260
sg63
(lp1267
S''
asbasbasbag56
(g72
g58
NtRp1268
(dp1269
g61
(dp1270
sg70
g846
sg63
(lp1271
g56
(g77
g58
NtRp1272
(dp1273
g61
(dp1274
g81
g82
ssg70
g1268
sg63
(lp1275
S'remote_addr'
p1276
asbag56
(g77
g58
NtRp1277
(dp1278
g61
(dp1279
g88
g89
ssg70
g1268
sg63
(lp1280
S':'
asbag56
(g77
g58
NtRp1281
(dp1282
g61
(dp1283
sg70
g1268
sg63
(lp1284
g56
(g57
g58
NtRp1285
(dp1286
g61
(dp1287
g69
I4
ssg70
g1281
sg63
(lp1288
g214
asbasbasbag56
(g72
g58
NtRp1289
(dp1290
g61
(dp1291
sg70
g846
sg63
(lp1292
g56
(g77
g58
NtRp1293
(dp1294
g61
(dp1295
g81
g82
ssg70
g1289
sg63
(lp1296
S'remote_port'
p1297
asbag56
(g77
g58
NtRp1298
(dp1299
g61
(dp1300
g88
g89
ssg70
g1289
sg63
(lp1301
S':'
asbag56
(g77
g58
NtRp1302
(dp1303
g61
(dp1304
sg70
g1289
sg63
(lp1305
g56
(g57
g58
NtRp1306
(dp1307
g61
(dp1308
g69
I4
ssg70
g1302
sg63
(lp1309
S'60927'
p1310
asbasbasbag56
(g72
g58
NtRp1311
(dp1312
g61
(dp1313
sg70
g846
sg63
(lp1314
g56
(g77
g58
NtRp1315
(dp1316
g61
(dp1317
g81
g82
ssg70
g1311
sg63
(lp1318
S'request_method'
p1319
asbag56
(g77
g58
NtRp1320
(dp1321
g61
(dp1322
g88
g89
ssg70
g1311
sg63
(lp1323
S':'
asbag56
(g77
g58
NtRp1324
(dp1325
g61
(dp1326
sg70
g1311
sg63
(lp1327
g56
(g57
g58
NtRp1328
(dp1329
g61
(dp1330
g69
I4
ssg70
g1324
sg63
(lp1331
S'GET'
p1332
asbasbasbag56
(g72
g58
NtRp1333
(dp1334
g61
(dp1335
sg70
g846
sg63
(lp1336
g56
(g77
g58
NtRp1337
(dp1338
g61
(dp1339
g81
g82
ssg70
g1333
sg63
(lp1340
S'script_name'
p1341
asbag56
(g77
g58
NtRp1342
(dp1343
g61
(dp1344
g88
g89
ssg70
g1333
sg63
(lp1345
S':'
asbag56
(g77
g58
NtRp1346
(dp1347
g61
(dp1348
sg70
g1333
sg63
(lp1349
g56
(g57
g58
NtRp1350
(dp1351
g61
(dp1352
g69
I4
ssg70
g1346
sg63
(lp1353
S''
asbasbasbag56
(g72
g58
NtRp1354
(dp1355
g61
(dp1356
sg70
g846
sg63
(lp1357
g56
(g77
g58
NtRp1358
(dp1359
g61
(dp1360
g81
g82
ssg70
g1354
sg63
(lp1361
S'server_name'
p1362
asbag56
(g77
g58
NtRp1363
(dp1364
g61
(dp1365
g88
g89
ssg70
g1354
sg63
(lp1366
S':'
asbag56
(g77
g58
NtRp1367
(dp1368
g61
(dp1369
sg70
g1354
sg63
(lp1370
g56
(g57
g58
NtRp1371
(dp1372
g61
(dp1373
g69
I4
ssg70
g1367
sg63
(lp1374
S'kaique-Pine-Trail-M'
p1375
asbasbasbag56
(g72
g58
NtRp1376
(dp1377
g61
(dp1378
sg70
g846
sg63
(lp1379
g56
(g77
g58
NtRp1380
(dp1381
g61
(dp1382
g81
g82
ssg70
g1376
sg63
(lp1383
S'server_port'
p1384
asbag56
(g77
g58
NtRp1385
(dp1386
g61
(dp1387
g88
g89
ssg70
g1376
sg63
(lp1388
S':'
asbag56
(g77
g58
NtRp1389
(dp1390
g61
(dp1391
sg70
g1376
sg63
(lp1392
g56
(g57
g58
NtRp1393
(dp1394
g61
(dp1395
g69
I4
ssg70
g1389
sg63
(lp1396
S'8000'
p1397
asbasbasbag56
(g72
g58
NtRp1398
(dp1399
g61
(dp1400
sg70
g846
sg63
(lp1401
g56
(g77
g58
NtRp1402
(dp1403
g61
(dp1404
g81
g82
ssg70
g1398
sg63
(lp1405
S'server_protocol'
p1406
asbag56
(g77
g58
NtRp1407
(dp1408
g61
(dp1409
g88
g89
ssg70
g1398
sg63
(lp1410
S':'
asbag56
(g77
g58
NtRp1411
(dp1412
g61
(dp1413
sg70
g1398
sg63
(lp1414
g56
(g57
g58
NtRp1415
(dp1416
g61
(dp1417
g69
I4
ssg70
g1411
sg63
(lp1418
S'HTTP/1.1'
p1419
asbasbasbag56
(g72
g58
NtRp1420
(dp1421
g61
(dp1422
sg70
g846
sg63
(lp1423
g56
(g77
g58
NtRp1424
(dp1425
g61
(dp1426
g81
g82
ssg70
g1420
sg63
(lp1427
S'server_software'
p1428
asbag56
(g77
g58
NtRp1429
(dp1430
g61
(dp1431
g88
g89
ssg70
g1420
sg63
(lp1432
S':'
asbag56
(g77
g58
NtRp1433
(dp1434
g61
(dp1435
sg70
g1420
sg63
(lp1436
g56
(g57
g58
NtRp1437
(dp1438
g61
(dp1439
g69
I4
ssg70
g1433
sg63
(lp1440
S'Rocket 1.2.4'
p1441
asbasbasbag56
(g72
g58
NtRp1442
(dp1443
g61
(dp1444
sg70
g846
sg63
(lp1445
g56
(g77
g58
NtRp1446
(dp1447
g61
(dp1448
g81
g82
ssg70
g1442
sg63
(lp1449
S'web2py_crontype'
p1450
asbag56
(g77
g58
NtRp1451
(dp1452
g61
(dp1453
g88
g89
ssg70
g1442
sg63
(lp1454
S':'
asbag56
(g77
g58
NtRp1455
(dp1456
g61
(dp1457
sg70
g1442
sg63
(lp1458
g56
(g57
g58
NtRp1459
(dp1460
g61
(dp1461
g69
I4
ssg70
g1455
sg63
(lp1462
S'hard'
p1463
asbasbasbag56
(g72
g58
NtRp1464
(dp1465
g61
(dp1466
sg70
g846
sg63
(lp1467
g56
(g77
g58
NtRp1468
(dp1469
g61
(dp1470
g81
g82
ssg70
g1464
sg63
(lp1471
S'web2py_path'
p1472
asbag56
(g77
g58
NtRp1473
(dp1474
g61
(dp1475
g88
g89
ssg70
g1464
sg63
(lp1476
S':'
asbag56
(g77
g58
NtRp1477
(dp1478
g61
(dp1479
sg70
g1464
sg63
(lp1480
g56
(g57
g58
NtRp1481
(dp1482
g61
(dp1483
g69
I4
ssg70
g1477
sg63
(lp1484
g893
asbasbasbag56
(g72
g58
NtRp1485
(dp1486
g61
(dp1487
sg70
g846
sg63
(lp1488
g56
(g77
g58
NtRp1489
(dp1490
g61
(dp1491
g81
g82
ssg70
g1485
sg63
(lp1492
S'web2py_version'
p1493
asbag56
(g77
g58
NtRp1494
(dp1495
g61
(dp1496
g88
g89
ssg70
g1485
sg63
(lp1497
S':'
asbag56
(g77
g58
NtRp1498
(dp1499
g61
(dp1500
sg70
g1485
sg63
(lp1501
g56
(g57
g58
NtRp1502
(dp1503
g61
(dp1504
g69
I4
ssg70
g1498
sg63
(lp1505
g56
(g65
g58
NtRp1506
(dp1507
g61
(dp1508
g69
I3
ssg70
Nsg63
(lp1509
g56
(g72
g58
NtRp1510
(dp1511
g61
(dp1512
sg70
g1506
sg63
(lp1513
g56
(g77
g58
NtRp1514
(dp1515
g61
(dp1516
sg70
g1510
sg63
(lp1517
g56
(g57
g58
NtRp1518
(dp1519
g61
(dp1520
g69
I3
ssg70
g1514
sg63
(lp1521
S'1'
asbasbasbag56
(g72
g58
NtRp1522
(dp1523
g61
(dp1524
sg70
g1506
sg63
(lp1525
g56
(g77
g58
NtRp1526
(dp1527
g61
(dp1528
sg70
g1522
sg63
(lp1529
g56
(g57
g58
NtRp1530
(dp1531
g61
(dp1532
g69
I3
ssg70
g1526
sg63
(lp1533
S'99'
p1534
asbasbasbag56
(g72
g58
NtRp1535
(dp1536
g61
(dp1537
sg70
g1506
sg63
(lp1538
g56
(g77
g58
NtRp1539
(dp1540
g61
(dp1541
sg70
g1535
sg63
(lp1542
g56
(g57
g58
NtRp1543
(dp1544
g61
(dp1545
g69
I3
ssg70
g1539
sg63
(lp1546
S'2'
asbasbasbag56
(g72
g58
NtRp1547
(dp1548
g61
(dp1549
sg70
g1506
sg63
(lp1550
g56
(g77
g58
NtRp1551
(dp1552
g61
(dp1553
sg70
g1547
sg63
(lp1554
g56
(g57
g58
NtRp1555
(dp1556
g61
(dp1557
g69
I3
ssg70
g1551
sg63
(lp1558
S'datetime.datetime(2011, 9, 26, 6, 55, 33)'
p1559
asbasbasbag56
(g72
g58
NtRp1560
(dp1561
g61
(dp1562
sg70
g1506
sg63
(lp1563
g56
(g77
g58
NtRp1564
(dp1565
g61
(dp1566
sg70
g1560
sg63
(lp1567
g56
(g57
g58
NtRp1568
(dp1569
g61
(dp1570
g69
I3
ssg70
g1564
sg63
(lp1571
S'stable'
p1572
asbasbasbasbasbasbasbag56
(g72
g58
NtRp1573
(dp1574
g61
(dp1575
sg70
g846
sg63
(lp1576
g56
(g77
g58
NtRp1577
(dp1578
g61
(dp1579
g81
g82
ssg70
g1573
sg63
(lp1580
S'wsgi_errors'
p1581
asbag56
(g77
g58
NtRp1582
(dp1583
g61
(dp1584
g88
g89
ssg70
g1573
sg63
(lp1585
S':'
asbag56
(g77
g58
NtRp1586
(dp1587
g61
(dp1588
sg70
g1573
sg63
(lp1589
g56
(g57
g58
NtRp1590
(dp1591
g61
(dp1592
g69
I4
ssg70
g1586
sg63
(lp1593
S"<open file '<stderr>', mode 'w' at 0x7f653dd8e270>"
p1594
asbasbasbag56
(g72
g58
NtRp1595
(dp1596
g61
(dp1597
sg70
g846
sg63
(lp1598
g56
(g77
g58
NtRp1599
(dp1600
g61
(dp1601
g81
g82
ssg70
g1595
sg63
(lp1602
S'wsgi_file_wrapper'
p1603
asbag56
(g77
g58
NtRp1604
(dp1605
g61
(dp1606
g88
g89
ssg70
g1595
sg63
(lp1607
S':'
asbag56
(g77
g58
NtRp1608
(dp1609
g61
(dp1610
sg70
g1595
sg63
(lp1611
g56
(g57
g58
NtRp1612
(dp1613
g61
(dp1614
g69
I4
ssg70
g1608
sg63
(lp1615
S'<class wsgiref.util.FileWrapper at 0x1633ef0>'
p1616
asbasbasbag56
(g72
g58
NtRp1617
(dp1618
g61
(dp1619
sg70
g846
sg63
(lp1620
g56
(g77
g58
NtRp1621
(dp1622
g61
(dp1623
g81
g82
ssg70
g1617
sg63
(lp1624
S'wsgi_input'
p1625
asbag56
(g77
g58
NtRp1626
(dp1627
g61
(dp1628
g88
g89
ssg70
g1617
sg63
(lp1629
S':'
asbag56
(g77
g58
NtRp1630
(dp1631
g61
(dp1632
sg70
g1617
sg63
(lp1633
g56
(g57
g58
NtRp1634
(dp1635
g61
(dp1636
g69
I4
ssg70
g1630
sg63
(lp1637
S'<socket._fileobject object at 0x14f11d0>'
p1638
asbasbasbag56
(g72
g58
NtRp1639
(dp1640
g61
(dp1641
sg70
g846
sg63
(lp1642
g56
(g77
g58
NtRp1643
(dp1644
g61
(dp1645
g81
g82
ssg70
g1639
sg63
(lp1646
S'wsgi_multiprocess'
p1647
asbag56
(g77
g58
NtRp1648
(dp1649
g61
(dp1650
g88
g89
ssg70
g1639
sg63
(lp1651
S':'
asbag56
(g77
g58
NtRp1652
(dp1653
g61
(dp1654
sg70
g1639
sg63
(lp1655
g56
(g57
g58
NtRp1656
(dp1657
g61
(dp1658
g69
I4
ssg70
g1652
sg63
(lp1659
g99
asbasbasbag56
(g72
g58
NtRp1660
(dp1661
g61
(dp1662
sg70
g846
sg63
(lp1663
g56
(g77
g58
NtRp1664
(dp1665
g61
(dp1666
g81
g82
ssg70
g1660
sg63
(lp1667
S'wsgi_multithread'
p1668
asbag56
(g77
g58
NtRp1669
(dp1670
g61
(dp1671
g88
g89
ssg70
g1660
sg63
(lp1672
S':'
asbag56
(g77
g58
NtRp1673
(dp1674
g61
(dp1675
sg70
g1660
sg63
(lp1676
g56
(g57
g58
NtRp1677
(dp1678
g61
(dp1679
g69
I4
ssg70
g1673
sg63
(lp1680
S'True'
p1681
asbasbasbag56
(g72
g58
NtRp1682
(dp1683
g61
(dp1684
sg70
g846
sg63
(lp1685
g56
(g77
g58
NtRp1686
(dp1687
g61
(dp1688
g81
g82
ssg70
g1682
sg63
(lp1689
S'wsgi_run_once'
p1690
asbag56
(g77
g58
NtRp1691
(dp1692
g61
(dp1693
g88
g89
ssg70
g1682
sg63
(lp1694
S':'
asbag56
(g77
g58
NtRp1695
(dp1696
g61
(dp1697
sg70
g1682
sg63
(lp1698
g56
(g57
g58
NtRp1699
(dp1700
g61
(dp1701
g69
I4
ssg70
g1695
sg63
(lp1702
g99
asbasbasbag56
(g72
g58
NtRp1703
(dp1704
g61
(dp1705
sg70
g846
sg63
(lp1706
g56
(g77
g58
NtRp1707
(dp1708
g61
(dp1709
g81
g82
ssg70
g1703
sg63
(lp1710
S'wsgi_url_scheme'
p1711
asbag56
(g77
g58
NtRp1712
(dp1713
g61
(dp1714
g88
g89
ssg70
g1703
sg63
(lp1715
S':'
asbag56
(g77
g58
NtRp1716
(dp1717
g61
(dp1718
sg70
g1703
sg63
(lp1719
g56
(g57
g58
NtRp1720
(dp1721
g61
(dp1722
g69
I4
ssg70
g1716
sg63
(lp1723
S'http'
p1724
asbasbasbag56
(g72
g58
NtRp1725
(dp1726
g61
(dp1727
sg70
g846
sg63
(lp1728
g56
(g77
g58
NtRp1729
(dp1730
g61
(dp1731
g81
g82
ssg70
g1725
sg63
(lp1732
S'wsgi_version'
p1733
asbag56
(g77
g58
NtRp1734
(dp1735
g61
(dp1736
g88
g89
ssg70
g1725
sg63
(lp1737
S':'
asbag56
(g77
g58
NtRp1738
(dp1739
g61
(dp1740
sg70
g1725
sg63
(lp1741
g56
(g57
g58
NtRp1742
(dp1743
g61
(dp1744
g69
I4
ssg70
g1738
sg63
(lp1745
g56
(g65
g58
NtRp1746
(dp1747
g61
(dp1748
g69
I3
ssg70
Nsg63
(lp1749
g56
(g72
g58
NtRp1750
(dp1751
g61
(dp1752
sg70
g1746
sg63
(lp1753
g56
(g77
g58
NtRp1754
(dp1755
g61
(dp1756
sg70
g1750
sg63
(lp1757
g56
(g57
g58
NtRp1758
(dp1759
g61
(dp1760
g69
I3
ssg70
g1754
sg63
(lp1761
S'1'
asbasbasbag56
(g72
g58
NtRp1762
(dp1763
g61
(dp1764
sg70
g1746
sg63
(lp1765
g56
(g77
g58
NtRp1766
(dp1767
g61
(dp1768
sg70
g1762
sg63
(lp1769
g56
(g57
g58
NtRp1770
(dp1771
g61
(dp1772
g69
I3
ssg70
g1766
sg63
(lp1773
S'0'
asbasbasbasbasbasbasbasbasbasbasbag56
(g72
g58
NtRp1774
(dp1775
g61
(dp1776
sg70
g66
sg63
(lp1777
g56
(g77
g58
NtRp1778
(dp1779
g61
(dp1780
g81
g82
ssg70
g1774
sg63
(lp1781
S'extension'
p1782
asbag56
(g77
g58
NtRp1783
(dp1784
g61
(dp1785
g88
g89
ssg70
g1774
sg63
(lp1786
S':'
asbag56
(g77
g58
NtRp1787
(dp1788
g61
(dp1789
sg70
g1774
sg63
(lp1790
g56
(g57
g58
NtRp1791
(dp1792
g61
(dp1793
g69
I5
ssg70
g1787
sg63
(lp1794
S'html'
p1795
asbasbasbag56
(g72
g58
NtRp1796
(dp1797
g61
(dp1798
sg70
g66
sg63
(lp1799
g56
(g77
g58
NtRp1800
(dp1801
g61
(dp1802
g81
g82
ssg70
g1796
sg63
(lp1803
S'folder'
p1804
asbag56
(g77
g58
NtRp1805
(dp1806
g61
(dp1807
g88
g89
ssg70
g1796
sg63
(lp1808
S':'
asbag56
(g77
g58
NtRp1809
(dp1810
g61
(dp1811
sg70
g1796
sg63
(lp1812
g56
(g57
g58
NtRp1813
(dp1814
g61
(dp1815
g69
I5
ssg70
g1809
sg63
(lp1816
S'/home/kaique/Projects/web2py/applications/synopsis/'
p1817
asbasbasbag56
(g72
g58
NtRp1818
(dp1819
g61
(dp1820
sg70
g66
sg63
(lp1821
g56
(g77
g58
NtRp1822
(dp1823
g61
(dp1824
g81
g82
ssg70
g1818
sg63
(lp1825
S'function'
p1826
asbag56
(g77
g58
NtRp1827
(dp1828
g61
(dp1829
g88
g89
ssg70
g1818
sg63
(lp1830
S':'
asbag56
(g77
g58
NtRp1831
(dp1832
g61
(dp1833
sg70
g1818
sg63
(lp1834
g56
(g57
g58
NtRp1835
(dp1836
g61
(dp1837
g69
I5
ssg70
g1831
sg63
(lp1838
S'new'
p1839
asbasbasbag56
(g72
g58
NtRp1840
(dp1841
g61
(dp1842
sg70
g66
sg63
(lp1843
g56
(g77
g58
NtRp1844
(dp1845
g61
(dp1846
g81
g82
ssg70
g1840
sg63
(lp1847
S'get_vars'
p1848
asbag56
(g77
g58
NtRp1849
(dp1850
g61
(dp1851
g88
g89
ssg70
g1840
sg63
(lp1852
S':'
asbag56
(g77
g58
NtRp1853
(dp1854
g61
(dp1855
sg70
g1840
sg63
(lp1856
g56
(g57
g58
NtRp1857
(dp1858
g61
(dp1859
g69
I5
ssg70
g1853
sg63
(lp1860
g56
(g65
g58
NtRp1861
(dp1862
g61
(dp1863
g69
I4
ssg70
Nsg63
(lp1864
sbasbasbasbag56
(g72
g58
NtRp1865
(dp1866
g61
(dp1867
sg70
g66
sg63
(lp1868
g56
(g77
g58
NtRp1869
(dp1870
g61
(dp1871
g81
g82
ssg70
g1865
sg63
(lp1872
S'global_settings'
p1873
asbag56
(g77
g58
NtRp1874
(dp1875
g61
(dp1876
g88
g89
ssg70
g1865
sg63
(lp1877
S':'
asbag56
(g77
g58
NtRp1878
(dp1879
g61
(dp1880
sg70
g1865
sg63
(lp1881
g56
(g57
g58
NtRp1882
(dp1883
g61
(dp1884
g69
I5
ssg70
g1878
sg63
(lp1885
g56
(g65
g58
NtRp1886
(dp1887
g61
(dp1888
g69
I4
ssg70
Nsg63
(lp1889
g56
(g72
g58
NtRp1890
(dp1891
g61
(dp1892
sg70
g1886
sg63
(lp1893
g56
(g77
g58
NtRp1894
(dp1895
g61
(dp1896
g81
g82
ssg70
g1890
sg63
(lp1897
g858
asbag56
(g77
g58
NtRp1898
(dp1899
g61
(dp1900
g88
g89
ssg70
g1890
sg63
(lp1901
S':'
asbag56
(g77
g58
NtRp1902
(dp1903
g61
(dp1904
sg70
g1890
sg63
(lp1905
g56
(g57
g58
NtRp1906
(dp1907
g61
(dp1908
g69
I4
ssg70
g1902
sg63
(lp1909
S"set(['/home/kaique/Projects/web2py/applications/synopsis/'])"
p1910
asbasbasbag56
(g72
g58
NtRp1911
(dp1912
g61
(dp1913
sg70
g1886
sg63
(lp1914
g56
(g77
g58
NtRp1915
(dp1916
g61
(dp1917
g81
g82
ssg70
g1911
sg63
(lp1918
g880
asbag56
(g77
g58
NtRp1919
(dp1920
g61
(dp1921
g88
g89
ssg70
g1911
sg63
(lp1922
S':'
asbag56
(g77
g58
NtRp1923
(dp1924
g61
(dp1925
sg70
g1911
sg63
(lp1926
g56
(g57
g58
NtRp1927
(dp1928
g61
(dp1929
g69
I4
ssg70
g1923
sg63
(lp1930
g893
asbasbasbag56
(g72
g58
NtRp1931
(dp1932
g61
(dp1933
sg70
g1886
sg63
(lp1934
g56
(g77
g58
NtRp1935
(dp1936
g61
(dp1937
g81
g82
ssg70
g1931
sg63
(lp1938
g902
asbag56
(g77
g58
NtRp1939
(dp1940
g61
(dp1941
g88
g89
ssg70
g1931
sg63
(lp1942
S':'
asbag56
(g77
g58
NtRp1943
(dp1944
g61
(dp1945
sg70
g1931
sg63
(lp1946
g56
(g57
g58
NtRp1947
(dp1948
g61
(dp1949
g69
I4
ssg70
g1943
sg63
(lp1950
g56
(g65
g58
NtRp1951
(dp1952
g61
(dp1953
g69
I3
ssg70
Nsg63
(lp1954
sbasbasbasbag56
(g72
g58
NtRp1955
(dp1956
g61
(dp1957
sg70
g1886
sg63
(lp1958
g56
(g77
g58
NtRp1959
(dp1960
g61
(dp1961
g81
g82
ssg70
g1955
sg63
(lp1962
g927
asbag56
(g77
g58
NtRp1963
(dp1964
g61
(dp1965
g88
g89
ssg70
g1955
sg63
(lp1966
S':'
asbag56
(g77
g58
NtRp1967
(dp1968
g61
(dp1969
sg70
g1955
sg63
(lp1970
g56
(g57
g58
NtRp1971
(dp1972
g61
(dp1973
g69
I4
ssg70
g1967
sg63
(lp1974
S"<Values at 0x177d950: {'verbose': False, 'ip': '127.0.0.1', 'shutdown_timeout': 5, 'taskbar': False, 'nocron': False, 'pid_filename': 'httpserver.pid', 'maxthreads': None, 'softcron': False, 'server_name': 'kaique-Pine-Trail-M', 'bpython': False, 'nogui': False, 'port': 8000, 'extcron': False, 'debuglevel': 30, 'test': None, 'folder': '/home/kaique/Projects/web2py', 'config': '', 'import_models': False, 'winservice': '', 'shell': None, 'run': '', 'log_filename': 'httpserver.log', 'args': [''], 'ssl_ca_certificate': None, 'scheduler': None, 'profiler_filename': None, 'ssl_private_key': '', 'password': 'dev', 'request_queue_size': 5, 'ssl_certificate': '', 'cronjob': False, 'plain': False, 'quiet': False, 'interfaces': None, 'minthreads': None, 'timeout': 10, 'numthreads': None, 'nobanner': False}>"
p1975
asbasbasbag56
(g72
g58
NtRp1976
(dp1977
g61
(dp1978
sg70
g1886
sg63
(lp1979
g56
(g77
g58
NtRp1980
(dp1981
g61
(dp1982
g81
g82
ssg70
g1976
sg63
(lp1983
g949
asbag56
(g77
g58
NtRp1984
(dp1985
g61
(dp1986
g88
g89
ssg70
g1976
sg63
(lp1987
S':'
asbag56
(g77
g58
NtRp1988
(dp1989
g61
(dp1990
sg70
g1976
sg63
(lp1991
g56
(g57
g58
NtRp1992
(dp1993
g61
(dp1994
g69
I4
ssg70
g1988
sg63
(lp1995
S'set([])'
p1996
asbasbasbag56
(g72
g58
NtRp1997
(dp1998
g61
(dp1999
sg70
g1886
sg63
(lp2000
g56
(g77
g58
NtRp2001
(dp2002
g61
(dp2003
g81
g82
ssg70
g1997
sg63
(lp2004
g971
asbag56
(g77
g58
NtRp2005
(dp2006
g61
(dp2007
g88
g89
ssg70
g1997
sg63
(lp2008
S':'
asbag56
(g77
g58
NtRp2009
(dp2010
g61
(dp2011
sg70
g1997
sg63
(lp2012
g56
(g57
g58
NtRp2013
(dp2014
g61
(dp2015
g69
I4
ssg70
g2009
sg63
(lp2016
g99
asbasbasbag56
(g72
g58
NtRp2017
(dp2018
g61
(dp2019
sg70
g1886
sg63
(lp2020
g56
(g77
g58
NtRp2021
(dp2022
g61
(dp2023
g81
g82
ssg70
g2017
sg63
(lp2024
g992
asbag56
(g77
g58
NtRp2025
(dp2026
g61
(dp2027
g88
g89
ssg70
g2017
sg63
(lp2028
S':'
asbag56
(g77
g58
NtRp2029
(dp2030
g61
(dp2031
sg70
g2017
sg63
(lp2032
g56
(g57
g58
NtRp2033
(dp2034
g61
(dp2035
g69
I4
ssg70
g2029
sg63
(lp2036
g1005
asbasbasbag56
(g72
g58
NtRp2037
(dp2038
g61
(dp2039
sg70
g1886
sg63
(lp2040
g56
(g77
g58
NtRp2041
(dp2042
g61
(dp2043
g81
g82
ssg70
g2037
sg63
(lp2044
g1212
asbag56
(g77
g58
NtRp2045
(dp2046
g61
(dp2047
g88
g89
ssg70
g2037
sg63
(lp2048
S':'
asbag56
(g77
g58
NtRp2049
(dp2050
g61
(dp2051
sg70
g2037
sg63
(lp2052
g56
(g57
g58
NtRp2053
(dp2054
g61
(dp2055
g69
I4
ssg70
g2049
sg63
(lp2056
g99
asbasbasbag56
(g72
g58
NtRp2057
(dp2058
g61
(dp2059
sg70
g1886
sg63
(lp2060
g56
(g77
g58
NtRp2061
(dp2062
g61
(dp2063
g81
g82
ssg70
g2057
sg63
(lp2064
g1450
asbag56
(g77
g58
NtRp2065
(dp2066
g61
(dp2067
g88
g89
ssg70
g2057
sg63
(lp2068
S':'
asbag56
(g77
g58
NtRp2069
(dp2070
g61
(dp2071
sg70
g2057
sg63
(lp2072
g56
(g57
g58
NtRp2073
(dp2074
g61
(dp2075
g69
I4
ssg70
g2069
sg63
(lp2076
g1463
asbasbasbag56
(g72
g58
NtRp2077
(dp2078
g61
(dp2079
sg70
g1886
sg63
(lp2080
g56
(g77
g58
NtRp2081
(dp2082
g61
(dp2083
g81
g82
ssg70
g2077
sg63
(lp2084
g1493
asbag56
(g77
g58
NtRp2085
(dp2086
g61
(dp2087
g88
g89
ssg70
g2077
sg63
(lp2088
S':'
asbag56
(g77
g58
NtRp2089
(dp2090
g61
(dp2091
sg70
g2077
sg63
(lp2092
g56
(g57
g58
NtRp2093
(dp2094
g61
(dp2095
g69
I4
ssg70
g2089
sg63
(lp2096
g56
(g65
g58
NtRp2097
(dp2098
g61
(dp2099
g69
I3
ssg70
Nsg63
(lp2100
g56
(g72
g58
NtRp2101
(dp2102
g61
(dp2103
sg70
g2097
sg63
(lp2104
g56
(g77
g58
NtRp2105
(dp2106
g61
(dp2107
sg70
g2101
sg63
(lp2108
g56
(g57
g58
NtRp2109
(dp2110
g61
(dp2111
g69
I3
ssg70
g2105
sg63
(lp2112
S'1'
asbasbasbag56
(g72
g58
NtRp2113
(dp2114
g61
(dp2115
sg70
g2097
sg63
(lp2116
g56
(g77
g58
NtRp2117
(dp2118
g61
(dp2119
sg70
g2113
sg63
(lp2120
g56
(g57
g58
NtRp2121
(dp2122
g61
(dp2123
g69
I3
ssg70
g2117
sg63
(lp2124
S'99'
p2125
asbasbasbag56
(g72
g58
NtRp2126
(dp2127
g61
(dp2128
sg70
g2097
sg63
(lp2129
g56
(g77
g58
NtRp2130
(dp2131
g61
(dp2132
sg70
g2126
sg63
(lp2133
g56
(g57
g58
NtRp2134
(dp2135
g61
(dp2136
g69
I3
ssg70
g2130
sg63
(lp2137
S'2'
asbasbasbag56
(g72
g58
NtRp2138
(dp2139
g61
(dp2140
sg70
g2097
sg63
(lp2141
g56
(g77
g58
NtRp2142
(dp2143
g61
(dp2144
sg70
g2138
sg63
(lp2145
g56
(g57
g58
NtRp2146
(dp2147
g61
(dp2148
g69
I3
ssg70
g2142
sg63
(lp2149
S'datetime.datetime(2011, 9, 26, 6, 55, 33)'
p2150
asbasbasbag56
(g72
g58
NtRp2151
(dp2152
g61
(dp2153
sg70
g2097
sg63
(lp2154
g56
(g77
g58
NtRp2155
(dp2156
g61
(dp2157
sg70
g2151
sg63
(lp2158
g56
(g57
g58
NtRp2159
(dp2160
g61
(dp2161
g69
I3
ssg70
g2155
sg63
(lp2162
g1572
asbasbasbasbasbasbasbasbasbasbasbag56
(g72
g58
NtRp2163
(dp2164
g61
(dp2165
sg70
g66
sg63
(lp2166
g56
(g77
g58
NtRp2167
(dp2168
g61
(dp2169
g81
g82
ssg70
g2163
sg63
(lp2170
S'is_https'
p2171
asbag56
(g77
g58
NtRp2172
(dp2173
g61
(dp2174
g88
g89
ssg70
g2163
sg63
(lp2175
S':'
asbag56
(g77
g58
NtRp2176
(dp2177
g61
(dp2178
sg70
g2163
sg63
(lp2179
g56
(g57
g58
NtRp2180
(dp2181
g61
(dp2182
g69
I5
ssg70
g2176
sg63
(lp2183
g99
asbasbasbag56
(g72
g58
NtRp2184
(dp2185
g61
(dp2186
sg70
g66
sg63
(lp2187
g56
(g77
g58
NtRp2188
(dp2189
g61
(dp2190
g81
g82
ssg70
g2184
sg63
(lp2191
S'is_local'
p2192
asbag56
(g77
g58
NtRp2193
(dp2194
g61
(dp2195
g88
g89
ssg70
g2184
sg63
(lp2196
S':'
asbag56
(g77
g58
NtRp2197
(dp2198
g61
(dp2199
sg70
g2184
sg63
(lp2200
g56
(g57
g58
NtRp2201
(dp2202
g61
(dp2203
g69
I5
ssg70
g2197
sg63
(lp2204
g1681
asbasbasbag56
(g72
g58
NtRp2205
(dp2206
g61
(dp2207
sg70
g66
sg63
(lp2208
g56
(g77
g58
NtRp2209
(dp2210
g61
(dp2211
g81
g82
ssg70
g2205
sg63
(lp2212
S'is_restful'
p2213
asbag56
(g77
g58
NtRp2214
(dp2215
g61
(dp2216
g88
g89
ssg70
g2205
sg63
(lp2217
S':'
asbag56
(g77
g58
NtRp2218
(dp2219
g61
(dp2220
sg70
g2205
sg63
(lp2221
g56
(g57
g58
NtRp2222
(dp2223
g61
(dp2224
g69
I5
ssg70
g2218
sg63
(lp2225
g99
asbasbasbag56
(g72
g58
NtRp2226
(dp2227
g61
(dp2228
sg70
g66
sg63
(lp2229
g56
(g77
g58
NtRp2230
(dp2231
g61
(dp2232
g81
g82
ssg70
g2226
sg63
(lp2233
S'now'
p2234
asbag56
(g77
g58
NtRp2235
(dp2236
g61
(dp2237
g88
g89
ssg70
g2226
sg63
(lp2238
S':'
asbag56
(g77
g58
NtRp2239
(dp2240
g61
(dp2241
sg70
g2226
sg63
(lp2242
g56
(g57
g58
NtRp2243
(dp2244
g61
(dp2245
g69
I5
ssg70
g2239
sg63
(lp2246
S'datetime.datetime(2012, 1, 16, 16, 37, 31, 814285)'
p2247
asbasbasbag56
(g72
g58
NtRp2248
(dp2249
g61
(dp2250
sg70
g66
sg63
(lp2251
g56
(g77
g58
NtRp2252
(dp2253
g61
(dp2254
g81
g82
ssg70
g2248
sg63
(lp2255
S'post_vars'
p2256
asbag56
(g77
g58
NtRp2257
(dp2258
g61
(dp2259
g88
g89
ssg70
g2248
sg63
(lp2260
S':'
asbag56
(g77
g58
NtRp2261
(dp2262
g61
(dp2263
sg70
g2248
sg63
(lp2264
g56
(g57
g58
NtRp2265
(dp2266
g61
(dp2267
g69
I5
ssg70
g2261
sg63
(lp2268
g56
(g65
g58
NtRp2269
(dp2270
g61
(dp2271
g69
I4
ssg70
Nsg63
(lp2272
sbasbasbasbag56
(g72
g58
NtRp2273
(dp2274
g61
(dp2275
sg70
g66
sg63
(lp2276
g56
(g77
g58
NtRp2277
(dp2278
g61
(dp2279
g81
g82
ssg70
g2273
sg63
(lp2280
S'raw_args'
p2281
asbag56
(g77
g58
NtRp2282
(dp2283
g61
(dp2284
g88
g89
ssg70
g2273
sg63
(lp2285
S':'
asbag56
(g77
g58
NtRp2286
(dp2287
g61
(dp2288
sg70
g2273
sg63
(lp2289
g56
(g57
g58
NtRp2290
(dp2291
g61
(dp2292
g69
I5
ssg70
g2286
sg63
(lp2293
S'line/9'
p2294
asbasbasbag56
(g72
g58
NtRp2295
(dp2296
g61
(dp2297
sg70
g66
sg63
(lp2298
g56
(g77
g58
NtRp2299
(dp2300
g61
(dp2301
g81
g82
ssg70
g2295
sg63
(lp2302
S'url'
p2303
asbag56
(g77
g58
NtRp2304
(dp2305
g61
(dp2306
g88
g89
ssg70
g2295
sg63
(lp2307
S':'
asbag56
(g77
g58
NtRp2308
(dp2309
g61
(dp2310
sg70
g2295
sg63
(lp2311
g56
(g57
g58
NtRp2312
(dp2313
g61
(dp2314
g69
I5
ssg70
g2308
sg63
(lp2315
S'/synopsis/information/new/line/9'
p2316
asbasbasbag56
(g72
g58
NtRp2317
(dp2318
g61
(dp2319
sg70
g66
sg63
(lp2320
g56
(g77
g58
NtRp2321
(dp2322
g61
(dp2323
g81
g82
ssg70
g2317
sg63
(lp2324
S'utcnow'
p2325
asbag56
(g77
g58
NtRp2326
(dp2327
g61
(dp2328
g88
g89
ssg70
g2317
sg63
(lp2329
S':'
asbag56
(g77
g58
NtRp2330
(dp2331
g61
(dp2332
sg70
g2317
sg63
(lp2333
g56
(g57
g58
NtRp2334
(dp2335
g61
(dp2336
g69
I5
ssg70
g2330
sg63
(lp2337
S'datetime.datetime(2012, 1, 16, 18, 37, 31, 814351)'
p2338
asbasbasbag56
(g72
g58
NtRp2339
(dp2340
g61
(dp2341
sg70
g66
sg63
(lp2342
g56
(g77
g58
NtRp2343
(dp2344
g61
(dp2345
g81
g82
ssg70
g2339
sg63
(lp2346
S'uuid'
p2347
asbag56
(g77
g58
NtRp2348
(dp2349
g61
(dp2350
g88
g89
ssg70
g2339
sg63
(lp2351
S':'
asbag56
(g77
g58
NtRp2352
(dp2353
g61
(dp2354
sg70
g2339
sg63
(lp2355
g56
(g57
g58
NtRp2356
(dp2357
g61
(dp2358
g69
I5
ssg70
g2352
sg63
(lp2359
S'synopsis/127.0.0.1.2012-01-16.16-37-31.08452858-c84a-4cdc-ae9f-3248b63e294b'
p2360
asbasbasbag56
(g72
g58
NtRp2361
(dp2362
g61
(dp2363
sg70
g66
sg63
(lp2364
g56
(g77
g58
NtRp2365
(dp2366
g61
(dp2367
g81
g82
ssg70
g2361
sg63
(lp2368
S'vars'
p2369
asbag56
(g77
g58
NtRp2370
(dp2371
g61
(dp2372
g88
g89
ssg70
g2361
sg63
(lp2373
S':'
asbag56
(g77
g58
NtRp2374
(dp2375
g61
(dp2376
sg70
g2361
sg63
(lp2377
g56
(g57
g58
NtRp2378
(dp2379
g61
(dp2380
g69
I5
ssg70
g2374
sg63
(lp2381
g56
(g65
g58
NtRp2382
(dp2383
g61
(dp2384
g69
I4
ssg70
Nsg63
(lp2385
sbasbasbasbag56
(g72
g58
NtRp2386
(dp2387
g61
(dp2388
sg70
g66
sg63
(lp2389
g56
(g77
g58
NtRp2390
(dp2391
g61
(dp2392
g81
g82
ssg70
g2386
sg63
(lp2393
S'wsgi'
p2394
asbag56
(g77
g58
NtRp2395
(dp2396
g61
(dp2397
g88
g89
ssg70
g2386
sg63
(lp2398
S':'
asbag56
(g77
g58
NtRp2399
(dp2400
g61
(dp2401
sg70
g2386
sg63
(lp2402
g56
(g57
g58
NtRp2403
(dp2404
g61
(dp2405
g69
I5
ssg70
g2399
sg63
(lp2406
g56
(g65
g58
NtRp2407
(dp2408
g61
(dp2409
g69
I4
ssg70
Nsg63
(lp2410
g56
(g72
g58
NtRp2411
(dp2412
g61
(dp2413
sg70
g2407
sg63
(lp2414
g56
(g77
g58
NtRp2415
(dp2416
g61
(dp2417
g81
g82
ssg70
g2411
sg63
(lp2418
S'environ'
p2419
asbag56
(g77
g58
NtRp2420
(dp2421
g61
(dp2422
g88
g89
ssg70
g2411
sg63
(lp2423
S':'
asbag56
(g77
g58
NtRp2424
(dp2425
g61
(dp2426
sg70
g2411
sg63
(lp2427
g56
(g57
g58
NtRp2428
(dp2429
g61
(dp2430
g69
I4
ssg70
g2424
sg63
(lp2431
g56
(g65
g58
NtRp2432
(dp2433
g61
(dp2434
g69
I3
ssg70
Nsg63
(lp2435
g56
(g72
g58
NtRp2436
(dp2437
g61
(dp2438
sg70
g2432
sg63
(lp2439
g56
(g77
g58
NtRp2440
(dp2441
g61
(dp2442
g81
g82
ssg70
g2436
sg63
(lp2443
S'HTTP_ACCEPT'
p2444
asbag56
(g77
g58
NtRp2445
(dp2446
g61
(dp2447
g88
g89
ssg70
g2436
sg63
(lp2448
S':'
asbag56
(g77
g58
NtRp2449
(dp2450
g61
(dp2451
sg70
g2436
sg63
(lp2452
g56
(g57
g58
NtRp2453
(dp2454
g61
(dp2455
g69
I3
ssg70
g2449
sg63
(lp2456
g1027
asbasbasbag56
(g72
g58
NtRp2457
(dp2458
g61
(dp2459
sg70
g2432
sg63
(lp2460
g56
(g77
g58
NtRp2461
(dp2462
g61
(dp2463
g81
g82
ssg70
g2457
sg63
(lp2464
S'HTTP_ACCEPT_CHARSET'
p2465
asbag56
(g77
g58
NtRp2466
(dp2467
g61
(dp2468
g88
g89
ssg70
g2457
sg63
(lp2469
S':'
asbag56
(g77
g58
NtRp2470
(dp2471
g61
(dp2472
sg70
g2457
sg63
(lp2473
g56
(g57
g58
NtRp2474
(dp2475
g61
(dp2476
g69
I3
ssg70
g2470
sg63
(lp2477
g1049
asbasbasbag56
(g72
g58
NtRp2478
(dp2479
g61
(dp2480
sg70
g2432
sg63
(lp2481
g56
(g77
g58
NtRp2482
(dp2483
g61
(dp2484
g81
g82
ssg70
g2478
sg63
(lp2485
S'HTTP_ACCEPT_ENCODING'
p2486
asbag56
(g77
g58
NtRp2487
(dp2488
g61
(dp2489
g88
g89
ssg70
g2478
sg63
(lp2490
S':'
asbag56
(g77
g58
NtRp2491
(dp2492
g61
(dp2493
sg70
g2478
sg63
(lp2494
g56
(g57
g58
NtRp2495
(dp2496
g61
(dp2497
g69
I3
ssg70
g2491
sg63
(lp2498
g1071
asbasbasbag56
(g72
g58
NtRp2499
(dp2500
g61
(dp2501
sg70
g2432
sg63
(lp2502
g56
(g77
g58
NtRp2503
(dp2504
g61
(dp2505
g81
g82
ssg70
g2499
sg63
(lp2506
S'HTTP_ACCEPT_LANGUAGE'
p2507
asbag56
(g77
g58
NtRp2508
(dp2509
g61
(dp2510
g88
g89
ssg70
g2499
sg63
(lp2511
S':'
asbag56
(g77
g58
NtRp2512
(dp2513
g61
(dp2514
sg70
g2499
sg63
(lp2515
g56
(g57
g58
NtRp2516
(dp2517
g61
(dp2518
g69
I3
ssg70
g2512
sg63
(lp2519
g1093
asbasbasbag56
(g72
g58
NtRp2520
(dp2521
g61
(dp2522
sg70
g2432
sg63
(lp2523
g56
(g77
g58
NtRp2524
(dp2525
g61
(dp2526
g81
g82
ssg70
g2520
sg63
(lp2527
S'HTTP_CONNECTION'
p2528
asbag56
(g77
g58
NtRp2529
(dp2530
g61
(dp2531
g88
g89
ssg70
g2520
sg63
(lp2532
S':'
asbag56
(g77
g58
NtRp2533
(dp2534
g61
(dp2535
sg70
g2520
sg63
(lp2536
g56
(g57
g58
NtRp2537
(dp2538
g61
(dp2539
g69
I3
ssg70
g2533
sg63
(lp2540
g1115
asbasbasbag56
(g72
g58
NtRp2541
(dp2542
g61
(dp2543
sg70
g2432
sg63
(lp2544
g56
(g77
g58
NtRp2545
(dp2546
g61
(dp2547
g81
g82
ssg70
g2541
sg63
(lp2548
S'HTTP_COOKIE'
p2549
asbag56
(g77
g58
NtRp2550
(dp2551
g61
(dp2552
g88
g89
ssg70
g2541
sg63
(lp2553
S':'
asbag56
(g77
g58
NtRp2554
(dp2555
g61
(dp2556
sg70
g2541
sg63
(lp2557
g56
(g57
g58
NtRp2558
(dp2559
g61
(dp2560
g69
I3
ssg70
g2554
sg63
(lp2561
g1137
asbasbasbag56
(g72
g58
NtRp2562
(dp2563
g61
(dp2564
sg70
g2432
sg63
(lp2565
g56
(g77
g58
NtRp2566
(dp2567
g61
(dp2568
g81
g82
ssg70
g2562
sg63
(lp2569
S'HTTP_HOST'
p2570
asbag56
(g77
g58
NtRp2571
(dp2572
g61
(dp2573
g88
g89
ssg70
g2562
sg63
(lp2574
S':'
asbag56
(g77
g58
NtRp2575
(dp2576
g61
(dp2577
sg70
g2562
sg63
(lp2578
g56
(g57
g58
NtRp2579
(dp2580
g61
(dp2581
g69
I3
ssg70
g2575
sg63
(lp2582
g1159
asbasbasbag56
(g72
g58
NtRp2583
(dp2584
g61
(dp2585
sg70
g2432
sg63
(lp2586
g56
(g77
g58
NtRp2587
(dp2588
g61
(dp2589
g81
g82
ssg70
g2583
sg63
(lp2590
S'HTTP_REFERER'
p2591
asbag56
(g77
g58
NtRp2592
(dp2593
g61
(dp2594
g88
g89
ssg70
g2583
sg63
(lp2595
S':'
asbag56
(g77
g58
NtRp2596
(dp2597
g61
(dp2598
sg70
g2583
sg63
(lp2599
g56
(g57
g58
NtRp2600
(dp2601
g61
(dp2602
g69
I3
ssg70
g2596
sg63
(lp2603
g1181
asbasbasbag56
(g72
g58
NtRp2604
(dp2605
g61
(dp2606
sg70
g2432
sg63
(lp2607
g56
(g77
g58
NtRp2608
(dp2609
g61
(dp2610
g81
g82
ssg70
g2604
sg63
(lp2611
S'HTTP_USER_AGENT'
p2612
asbag56
(g77
g58
NtRp2613
(dp2614
g61
(dp2615
g88
g89
ssg70
g2604
sg63
(lp2616
S':'
asbag56
(g77
g58
NtRp2617
(dp2618
g61
(dp2619
sg70
g2604
sg63
(lp2620
g56
(g57
g58
NtRp2621
(dp2622
g61
(dp2623
g69
I3
ssg70
g2617
sg63
(lp2624
g1203
asbasbasbag56
(g72
g58
NtRp2625
(dp2626
g61
(dp2627
sg70
g2432
sg63
(lp2628
g56
(g77
g58
NtRp2629
(dp2630
g61
(dp2631
g81
g82
ssg70
g2625
sg63
(lp2632
S'PATH_INFO'
p2633
asbag56
(g77
g58
NtRp2634
(dp2635
g61
(dp2636
g88
g89
ssg70
g2625
sg63
(lp2637
S':'
asbag56
(g77
g58
NtRp2638
(dp2639
g61
(dp2640
sg70
g2625
sg63
(lp2641
g56
(g57
g58
NtRp2642
(dp2643
g61
(dp2644
g69
I3
ssg70
g2638
sg63
(lp2645
g1246
asbasbasbag56
(g72
g58
NtRp2646
(dp2647
g61
(dp2648
sg70
g2432
sg63
(lp2649
g56
(g77
g58
NtRp2650
(dp2651
g61
(dp2652
g81
g82
ssg70
g2646
sg63
(lp2653
S'QUERY_STRING'
p2654
asbag56
(g77
g58
NtRp2655
(dp2656
g61
(dp2657
g88
g89
ssg70
g2646
sg63
(lp2658
S':'
asbag56
(g77
g58
NtRp2659
(dp2660
g61
(dp2661
sg70
g2646
sg63
(lp2662
g56
(g57
g58
NtRp2663
(dp2664
g61
(dp2665
g69
I3
ssg70
g2659
sg63
(lp2666
S''
asbasbasbag56
(g72
g58
NtRp2667
(dp2668
g61
(dp2669
sg70
g2432
sg63
(lp2670
g56
(g77
g58
NtRp2671
(dp2672
g61
(dp2673
g81
g82
ssg70
g2667
sg63
(lp2674
S'REMOTE_ADDR'
p2675
asbag56
(g77
g58
NtRp2676
(dp2677
g61
(dp2678
g88
g89
ssg70
g2667
sg63
(lp2679
S':'
asbag56
(g77
g58
NtRp2680
(dp2681
g61
(dp2682
sg70
g2667
sg63
(lp2683
g56
(g57
g58
NtRp2684
(dp2685
g61
(dp2686
g69
I3
ssg70
g2680
sg63
(lp2687
g214
asbasbasbag56
(g72
g58
NtRp2688
(dp2689
g61
(dp2690
sg70
g2432
sg63
(lp2691
g56
(g77
g58
NtRp2692
(dp2693
g61
(dp2694
g81
g82
ssg70
g2688
sg63
(lp2695
S'REMOTE_PORT'
p2696
asbag56
(g77
g58
NtRp2697
(dp2698
g61
(dp2699
g88
g89
ssg70
g2688
sg63
(lp2700
S':'
asbag56
(g77
g58
NtRp2701
(dp2702
g61
(dp2703
sg70
g2688
sg63
(lp2704
g56
(g57
g58
NtRp2705
(dp2706
g61
(dp2707
g69
I3
ssg70
g2701
sg63
(lp2708
g1310
asbasbasbag56
(g72
g58
NtRp2709
(dp2710
g61
(dp2711
sg70
g2432
sg63
(lp2712
g56
(g77
g58
NtRp2713
(dp2714
g61
(dp2715
g81
g82
ssg70
g2709
sg63
(lp2716
S'REQUEST_METHOD'
p2717
asbag56
(g77
g58
NtRp2718
(dp2719
g61
(dp2720
g88
g89
ssg70
g2709
sg63
(lp2721
S':'
asbag56
(g77
g58
NtRp2722
(dp2723
g61
(dp2724
sg70
g2709
sg63
(lp2725
g56
(g57
g58
NtRp2726
(dp2727
g61
(dp2728
g69
I3
ssg70
g2722
sg63
(lp2729
g1332
asbasbasbag56
(g72
g58
NtRp2730
(dp2731
g61
(dp2732
sg70
g2432
sg63
(lp2733
g56
(g77
g58
NtRp2734
(dp2735
g61
(dp2736
g81
g82
ssg70
g2730
sg63
(lp2737
S'SCRIPT_NAME'
p2738
asbag56
(g77
g58
NtRp2739
(dp2740
g61
(dp2741
g88
g89
ssg70
g2730
sg63
(lp2742
S':'
asbag56
(g77
g58
NtRp2743
(dp2744
g61
(dp2745
sg70
g2730
sg63
(lp2746
g56
(g57
g58
NtRp2747
(dp2748
g61
(dp2749
g69
I3
ssg70
g2743
sg63
(lp2750
S''
asbasbasbag56
(g72
g58
NtRp2751
(dp2752
g61
(dp2753
sg70
g2432
sg63
(lp2754
g56
(g77
g58
NtRp2755
(dp2756
g61
(dp2757
g81
g82
ssg70
g2751
sg63
(lp2758
S'SERVER_NAME'
p2759
asbag56
(g77
g58
NtRp2760
(dp2761
g61
(dp2762
g88
g89
ssg70
g2751
sg63
(lp2763
S':'
asbag56
(g77
g58
NtRp2764
(dp2765
g61
(dp2766
sg70
g2751
sg63
(lp2767
g56
(g57
g58
NtRp2768
(dp2769
g61
(dp2770
g69
I3
ssg70
g2764
sg63
(lp2771
g1375
asbasbasbag56
(g72
g58
NtRp2772
(dp2773
g61
(dp2774
sg70
g2432
sg63
(lp2775
g56
(g77
g58
NtRp2776
(dp2777
g61
(dp2778
g81
g82
ssg70
g2772
sg63
(lp2779
S'SERVER_PORT'
p2780
asbag56
(g77
g58
NtRp2781
(dp2782
g61
(dp2783
g88
g89
ssg70
g2772
sg63
(lp2784
S':'
asbag56
(g77
g58
NtRp2785
(dp2786
g61
(dp2787
sg70
g2772
sg63
(lp2788
g56
(g57
g58
NtRp2789
(dp2790
g61
(dp2791
g69
I3
ssg70
g2785
sg63
(lp2792
g1397
asbasbasbag56
(g72
g58
NtRp2793
(dp2794
g61
(dp2795
sg70
g2432
sg63
(lp2796
g56
(g77
g58
NtRp2797
(dp2798
g61
(dp2799
g81
g82
ssg70
g2793
sg63
(lp2800
S'SERVER_PROTOCOL'
p2801
asbag56
(g77
g58
NtRp2802
(dp2803
g61
(dp2804
g88
g89
ssg70
g2793
sg63
(lp2805
S':'
asbag56
(g77
g58
NtRp2806
(dp2807
g61
(dp2808
sg70
g2793
sg63
(lp2809
g56
(g57
g58
NtRp2810
(dp2811
g61
(dp2812
g69
I3
ssg70
g2806
sg63
(lp2813
g1419
asbasbasbag56
(g72
g58
NtRp2814
(dp2815
g61
(dp2816
sg70
g2432
sg63
(lp2817
g56
(g77
g58
NtRp2818
(dp2819
g61
(dp2820
g81
g82
ssg70
g2814
sg63
(lp2821
S'SERVER_SOFTWARE'
p2822
asbag56
(g77
g58
NtRp2823
(dp2824
g61
(dp2825
g88
g89
ssg70
g2814
sg63
(lp2826
S':'
asbag56
(g77
g58
NtRp2827
(dp2828
g61
(dp2829
sg70
g2814
sg63
(lp2830
g56
(g57
g58
NtRp2831
(dp2832
g61
(dp2833
g69
I3
ssg70
g2827
sg63
(lp2834
g1441
asbasbasbag56
(g72
g58
NtRp2835
(dp2836
g61
(dp2837
sg70
g2432
sg63
(lp2838
g56
(g77
g58
NtRp2839
(dp2840
g61
(dp2841
g81
g82
ssg70
g2835
sg63
(lp2842
S'wsgi.errors'
p2843
asbag56
(g77
g58
NtRp2844
(dp2845
g61
(dp2846
g88
g89
ssg70
g2835
sg63
(lp2847
S':'
asbag56
(g77
g58
NtRp2848
(dp2849
g61
(dp2850
sg70
g2835
sg63
(lp2851
g56
(g57
g58
NtRp2852
(dp2853
g61
(dp2854
g69
I3
ssg70
g2848
sg63
(lp2855
S"<open file '<stderr>', mode 'w' at 0x7f653dd8e270>"
p2856
asbasbasbag56
(g72
g58
NtRp2857
(dp2858
g61
(dp2859
sg70
g2432
sg63
(lp2860
g56
(g77
g58
NtRp2861
(dp2862
g61
(dp2863
g81
g82
ssg70
g2857
sg63
(lp2864
S'wsgi.file_wrapper'
p2865
asbag56
(g77
g58
NtRp2866
(dp2867
g61
(dp2868
g88
g89
ssg70
g2857
sg63
(lp2869
S':'
asbag56
(g77
g58
NtRp2870
(dp2871
g61
(dp2872
sg70
g2857
sg63
(lp2873
g56
(g57
g58
NtRp2874
(dp2875
g61
(dp2876
g69
I3
ssg70
g2870
sg63
(lp2877
S'<class wsgiref.util.FileWrapper at 0x1633ef0>'
p2878
asbasbasbag56
(g72
g58
NtRp2879
(dp2880
g61
(dp2881
sg70
g2432
sg63
(lp2882
g56
(g77
g58
NtRp2883
(dp2884
g61
(dp2885
g81
g82
ssg70
g2879
sg63
(lp2886
S'wsgi.input'
p2887
asbag56
(g77
g58
NtRp2888
(dp2889
g61
(dp2890
g88
g89
ssg70
g2879
sg63
(lp2891
S':'
asbag56
(g77
g58
NtRp2892
(dp2893
g61
(dp2894
sg70
g2879
sg63
(lp2895
g56
(g57
g58
NtRp2896
(dp2897
g61
(dp2898
g69
I3
ssg70
g2892
sg63
(lp2899
S'<cStringIO.StringO object at 0x1765ab0>'
p2900
asbasbasbag56
(g72
g58
NtRp2901
(dp2902
g61
(dp2903
sg70
g2432
sg63
(lp2904
g56
(g77
g58
NtRp2905
(dp2906
g61
(dp2907
g81
g82
ssg70
g2901
sg63
(lp2908
S'wsgi.multiprocess'
p2909
asbag56
(g77
g58
NtRp2910
(dp2911
g61
(dp2912
g88
g89
ssg70
g2901
sg63
(lp2913
S':'
asbag56
(g77
g58
NtRp2914
(dp2915
g61
(dp2916
sg70
g2901
sg63
(lp2917
g56
(g57
g58
NtRp2918
(dp2919
g61
(dp2920
g69
I3
ssg70
g2914
sg63
(lp2921
g99
asbasbasbag56
(g72
g58
NtRp2922
(dp2923
g61
(dp2924
sg70
g2432
sg63
(lp2925
g56
(g77
g58
NtRp2926
(dp2927
g61
(dp2928
g81
g82
ssg70
g2922
sg63
(lp2929
S'wsgi.multithread'
p2930
asbag56
(g77
g58
NtRp2931
(dp2932
g61
(dp2933
g88
g89
ssg70
g2922
sg63
(lp2934
S':'
asbag56
(g77
g58
NtRp2935
(dp2936
g61
(dp2937
sg70
g2922
sg63
(lp2938
g56
(g57
g58
NtRp2939
(dp2940
g61
(dp2941
g69
I3
ssg70
g2935
sg63
(lp2942
g1681
asbasbasbag56
(g72
g58
NtRp2943
(dp2944
g61
(dp2945
sg70
g2432
sg63
(lp2946
g56
(g77
g58
NtRp2947
(dp2948
g61
(dp2949
g81
g82
ssg70
g2943
sg63
(lp2950
S'wsgi.run_once'
p2951
asbag56
(g77
g58
NtRp2952
(dp2953
g61
(dp2954
g88
g89
ssg70
g2943
sg63
(lp2955
S':'
asbag56
(g77
g58
NtRp2956
(dp2957
g61
(dp2958
sg70
g2943
sg63
(lp2959
g56
(g57
g58
NtRp2960
(dp2961
g61
(dp2962
g69
I3
ssg70
g2956
sg63
(lp2963
g99
asbasbasbag56
(g72
g58
NtRp2964
(dp2965
g61
(dp2966
sg70
g2432
sg63
(lp2967
g56
(g77
g58
NtRp2968
(dp2969
g61
(dp2970
g81
g82
ssg70
g2964
sg63
(lp2971
S'wsgi.url_scheme'
p2972
asbag56
(g77
g58
NtRp2973
(dp2974
g61
(dp2975
g88
g89
ssg70
g2964
sg63
(lp2976
S':'
asbag56
(g77
g58
NtRp2977
(dp2978
g61
(dp2979
sg70
g2964
sg63
(lp2980
g56
(g57
g58
NtRp2981
(dp2982
g61
(dp2983
g69
I3
ssg70
g2977
sg63
(lp2984
g1724
asbasbasbag56
(g72
g58
NtRp2985
(dp2986
g61
(dp2987
sg70
g2432
sg63
(lp2988
g56
(g77
g58
NtRp2989
(dp2990
g61
(dp2991
g81
g82
ssg70
g2985
sg63
(lp2992
S'wsgi.version'
p2993
asbag56
(g77
g58
NtRp2994
(dp2995
g61
(dp2996
g88
g89
ssg70
g2985
sg63
(lp2997
S':'
asbag56
(g77
g58
NtRp2998
(dp2999
g61
(dp3000
sg70
g2985
sg63
(lp3001
g56
(g57
g58
NtRp3002
(dp3003
g61
(dp3004
g69
I3
ssg70
g2998
sg63
(lp3005
S'1'
asbasbasbasbasbasbasbasbasbasbasbasbasbsS'frames'
p3006
(lp3007
(dp3008
S'file'
p3009
S'/home/kaique/Projects/web2py/gluon/restricted.py'
p3010
sS'dump'
p3011
(dp3012
S'environment'
p3013
S"{'A': <class 'gluon.html.A'>, 'Auth': <class 'gluon.tools.Auth'>, 'B': <class 'gluon.html.B'>, 'BEAUTIFY': <class 'gluon.html.BEAUTIFY'>, 'BODY': <class 'gluon.html.BODY'>, 'BR': <class 'gluon.html.BR'>, 'BUTTON': <class 'gluon.html.BUTTON'>, 'CAT': <class 'gluon.html.CAT'>, 'CENTER': <class 'gluon.html.CENTER'>, 'CLEANUP': <class 'gluon.validators.CLEANUP'>, ...}"
p3014
sS'ccode'
p3015
S'<code object <module> at 0x1925830, file "/home/...ons/synopsis/controllers/information.py", line 2>'
p3016
ssS'lnum'
p3017
I194
sS'lines'
p3018
(dp3019
I192
S'        else:'
p3020
sI193
S'            ccode = compile2(code,layer)'
p3021
sI194
S'        exec ccode in environment'
p3022
sI195
S'    except HTTP:'
p3023
sI196
S'        raise'
p3024
sI197
S'    except Exception, error:'
p3025
sI198
S'        # XXX Show exception in Wing IDE if running in debugger'
p3026
sI189
S'    try:'
p3027
sI190
S'        if type(code) == types.CodeType:'
p3028
sI191
S'            ccode = code'
p3029
ssS'call'
p3030
S"(code='# -*- coding: utf-8 -*-\\nimport functions as f # ...\\treturn {}\\n\\nresponse._vars=response._caller(new)\\n', environment={'A': <class 'gluon.html.A'>, 'Auth': <class 'gluon.tools.Auth'>, 'B': <class 'gluon.html.B'>, 'BEAUTIFY': <class 'gluon.html.BEAUTIFY'>, 'BODY': <class 'gluon.html.BODY'>, 'BR': <class 'gluon.html.BR'>, 'BUTTON': <class 'gluon.html.BUTTON'>, 'CAT': <class 'gluon.html.CAT'>, 'CENTER': <class 'gluon.html.CENTER'>, 'CLEANUP': <class 'gluon.validators.CLEANUP'>, ...}, layer='/home/kaique/Projects/web2py/applications/synopsis/controllers/information.py')"
p3031
sS'func'
p3032
S'restricted'
p3033
sa(dp3034
g3009
S'/home/kaique/Projects/web2py/applications/synopsis/controllers/information.py'
p3035
sg3011
(dp3036
sg3017
I117
sg3018
(dp3037
I106
S"\t\t\tresponse.flash = T('Sorry, try again!')"
p3038
sI107
S'\t\telse:'
p3039
sI108
S"\t\t\tresponse.flahs = T('Please, fill the field...')"
p3040
sI109
S''
sI110
S"\t\treturn { 'form': row,"
p3041
sI111
S"\t\t\t\t 'title': title }"
p3042
sI112
S''
sI113
S'@auth.requires_login()'
p3043
sI114
S'def edit(): # Edit the subject'
p3044
sI115
S'\treturn {}'
p3045
ssg3030
S'()'
p3046
sg3032
S'<module>'
p3047
sa(dp3048
g3009
S'/home/kaique/Projects/web2py/gluon/globals.py'
p3049
sg3011
(dp3050
S'self'
p3051
S'undefined'
p3052
sS'f'
S'<function new>'
p3053
ssg3017
I149
sg3018
(dp3054
I144
S'        self.meta = Storage()      # used by web2py_ajax.html'
p3055
sI145
S'        self.menu = []             # used by the default view layout'
p3056
sI146
S'        self.files = []            # used by web2py_ajax.html'
p3057
sI147
S'        self.generic_patterns = [] # patterns to allow generic views'
p3058
sI148
S'        self._vars = None'
p3059
sI149
S'        self._caller = lambda f: f()'
p3060
sI150
S'        self._view_environment = None'
p3061
sI151
S'        self._custom_commit = None'
p3062
sI152
S'        self._custom_rollback = None'
p3063
sI153
S''
ssg3030
S'(f=<function new>)'
p3064
sg3032
S'<lambda>'
p3065
sa(dp3066
g3009
S'/home/kaique/Projects/web2py/gluon/tools.py'
p3067
sg3011
(dp3068
S'action'
p3069
S'<function new>'
p3070
sS'a'
S'()'
p3071
sS'b'
g44
ssg3017
I2456
sg3018
(dp3072
I2451
S"                            '?_next='+urllib.quote(next))"
p3073
sI2452
S'                if not condition:'
p3074
sI2453
S'                    current.session.flash = self.messages.access_denied'
p3075
sI2454
S'                    return call_or_redirect('
p3076
sI2455
S'                        self.settings.on_failed_authorization)'
p3077
sI2456
S'                return action(*a, **b)'
p3078
sI2457
S'            f.__doc__ = action.__doc__'
p3079
sI2458
S'            f.__name__ = action.__name__'
p3080
sI2459
S'            f.__dict__.update(action.__dict__)'
p3081
sI2460
S'            return f'
p3082
ssg3030
S'(*a=(), **b={})'
p3083
sg3032
S'f'
sa(dp3084
g3009
S'/home/kaique/Projects/web2py/applications/synopsis/controllers/information.py'
p3085
sg3011
(dp3086
S'lines'
p3087
g3052
sS'title'
p3088
S"'Line'"
p3089
ssg3017
I96
sg3018
(dp3090
I96
S"\t\treturn { 'form': lines,"
p3091
sI97
S"\t\t\t\t 'title': title }"
p3092
sI98
S''
sI99
S"\telif args[0] == 'row':"
p3093
sI100
S"\t\ttitle = 'Row for {0}'.format(db.column(args[1])['title'])"
p3094
sI91
S"\t\ttitle = 'Line'"
p3095
sI92
S'\t\tline = {}'
p3096
sI93
S''
sI94
S''
sI95
S''
ssg3030
S'()'
p3097
sg3032
S'new'
p3098
sasS'pyver'
p3099
S'Python 2.7.2+: /usr/bin/python'
p3100
sS'session'
p3101
g56
(g57
g58
NtRp3102
(dp3103
g61
(dp3104
sg63
(lp3105
g56
(g65
g58
NtRp3106
(dp3107
g61
(dp3108
g69
I5
ssg70
Nsg63
(lp3109
g56
(g72
g58
NtRp3110
(dp3111
g61
(dp3112
sg70
g3106
sg63
(lp3113
g56
(g77
g58
NtRp3114
(dp3115
g61
(dp3116
g81
g82
ssg70
g3110
sg63
(lp3117
S'auth'
p3118
asbag56
(g77
g58
NtRp3119
(dp3120
g61
(dp3121
g88
g89
ssg70
g3110
sg63
(lp3122
S':'
asbag56
(g77
g58
NtRp3123
(dp3124
g61
(dp3125
sg70
g3110
sg63
(lp3126
g56
(g57
g58
NtRp3127
(dp3128
g61
(dp3129
g69
I5
ssg70
g3123
sg63
(lp3130
g56
(g65
g58
NtRp3131
(dp3132
g61
(dp3133
g69
I4
ssg70
Nsg63
(lp3134
g56
(g72
g58
NtRp3135
(dp3136
g61
(dp3137
sg70
g3131
sg63
(lp3138
g56
(g77
g58
NtRp3139
(dp3140
g61
(dp3141
g81
g82
ssg70
g3135
sg63
(lp3142
S'expiration'
p3143
asbag56
(g77
g58
NtRp3144
(dp3145
g61
(dp3146
g88
g89
ssg70
g3135
sg63
(lp3147
S':'
asbag56
(g77
g58
NtRp3148
(dp3149
g61
(dp3150
sg70
g3135
sg63
(lp3151
g56
(g57
g58
NtRp3152
(dp3153
g61
(dp3154
g69
I4
ssg70
g3148
sg63
(lp3155
S'2592000'
p3156
asbasbasbag56
(g72
g58
NtRp3157
(dp3158
g61
(dp3159
sg70
g3131
sg63
(lp3160
g56
(g77
g58
NtRp3161
(dp3162
g61
(dp3163
g81
g82
ssg70
g3157
sg63
(lp3164
S'hmac_key'
p3165
asbag56
(g77
g58
NtRp3166
(dp3167
g61
(dp3168
g88
g89
ssg70
g3157
sg63
(lp3169
S':'
asbag56
(g77
g58
NtRp3170
(dp3171
g61
(dp3172
sg70
g3157
sg63
(lp3173
g56
(g57
g58
NtRp3174
(dp3175
g61
(dp3176
g69
I4
ssg70
g3170
sg63
(lp3177
S'3168090d-3c7b-44b5-8451-f19ea84932c1'
p3178
asbasbasbag56
(g72
g58
NtRp3179
(dp3180
g61
(dp3181
sg70
g3131
sg63
(lp3182
g56
(g77
g58
NtRp3183
(dp3184
g61
(dp3185
g81
g82
ssg70
g3179
sg63
(lp3186
S'last_visit'
p3187
asbag56
(g77
g58
NtRp3188
(dp3189
g61
(dp3190
g88
g89
ssg70
g3179
sg63
(lp3191
S':'
asbag56
(g77
g58
NtRp3192
(dp3193
g61
(dp3194
sg70
g3179
sg63
(lp3195
g56
(g57
g58
NtRp3196
(dp3197
g61
(dp3198
g69
I4
ssg70
g3192
sg63
(lp3199
S'datetime.datetime(2012, 1, 16, 15, 22, 16, 612921)'
p3200
asbasbasbag56
(g72
g58
NtRp3201
(dp3202
g61
(dp3203
sg70
g3131
sg63
(lp3204
g56
(g77
g58
NtRp3205
(dp3206
g61
(dp3207
g81
g82
ssg70
g3201
sg63
(lp3208
S'remember'
p3209
asbag56
(g77
g58
NtRp3210
(dp3211
g61
(dp3212
g88
g89
ssg70
g3201
sg63
(lp3213
S':'
asbag56
(g77
g58
NtRp3214
(dp3215
g61
(dp3216
sg70
g3201
sg63
(lp3217
g56
(g57
g58
NtRp3218
(dp3219
g61
(dp3220
g69
I4
ssg70
g3214
sg63
(lp3221
g99
asbasbasbag56
(g72
g58
NtRp3222
(dp3223
g61
(dp3224
sg70
g3131
sg63
(lp3225
g56
(g77
g58
NtRp3226
(dp3227
g61
(dp3228
g81
g82
ssg70
g3222
sg63
(lp3229
S'user'
p3230
asbag56
(g77
g58
NtRp3231
(dp3232
g61
(dp3233
g88
g89
ssg70
g3222
sg63
(lp3234
S':'
asbag56
(g77
g58
NtRp3235
(dp3236
g61
(dp3237
sg70
g3222
sg63
(lp3238
g56
(g57
g58
NtRp3239
(dp3240
g61
(dp3241
g69
I4
ssg70
g3235
sg63
(lp3242
g56
(g65
g58
NtRp3243
(dp3244
g61
(dp3245
g69
I3
ssg70
Nsg63
(lp3246
g56
(g72
g58
NtRp3247
(dp3248
g61
(dp3249
sg70
g3243
sg63
(lp3250
g56
(g77
g58
NtRp3251
(dp3252
g61
(dp3253
g81
g82
ssg70
g3247
sg63
(lp3254
S'email'
p3255
asbag56
(g77
g58
NtRp3256
(dp3257
g61
(dp3258
g88
g89
ssg70
g3247
sg63
(lp3259
S':'
asbag56
(g77
g58
NtRp3260
(dp3261
g61
(dp3262
sg70
g3247
sg63
(lp3263
g56
(g57
g58
NtRp3264
(dp3265
g61
(dp3266
g69
I3
ssg70
g3260
sg63
(lp3267
S'kaique.developer@gmail.com'
p3268
asbasbasbag56
(g72
g58
NtRp3269
(dp3270
g61
(dp3271
sg70
g3243
sg63
(lp3272
g56
(g77
g58
NtRp3273
(dp3274
g61
(dp3275
g81
g82
ssg70
g3269
sg63
(lp3276
S'first_name'
p3277
asbag56
(g77
g58
NtRp3278
(dp3279
g61
(dp3280
g88
g89
ssg70
g3269
sg63
(lp3281
S':'
asbag56
(g77
g58
NtRp3282
(dp3283
g61
(dp3284
sg70
g3269
sg63
(lp3285
g56
(g57
g58
NtRp3286
(dp3287
g61
(dp3288
g69
I3
ssg70
g3282
sg63
(lp3289
S'kaique'
p3290
asbasbasbag56
(g72
g58
NtRp3291
(dp3292
g61
(dp3293
sg70
g3243
sg63
(lp3294
g56
(g77
g58
NtRp3295
(dp3296
g61
(dp3297
g81
g82
ssg70
g3291
sg63
(lp3298
S'id'
p3299
asbag56
(g77
g58
NtRp3300
(dp3301
g61
(dp3302
g88
g89
ssg70
g3291
sg63
(lp3303
S':'
asbag56
(g77
g58
NtRp3304
(dp3305
g61
(dp3306
sg70
g3291
sg63
(lp3307
g56
(g57
g58
NtRp3308
(dp3309
g61
(dp3310
g69
I3
ssg70
g3304
sg63
(lp3311
S'1'
asbasbasbag56
(g72
g58
NtRp3312
(dp3313
g61
(dp3314
sg70
g3243
sg63
(lp3315
g56
(g77
g58
NtRp3316
(dp3317
g61
(dp3318
g81
g82
ssg70
g3312
sg63
(lp3319
S'last_name'
p3320
asbag56
(g77
g58
NtRp3321
(dp3322
g61
(dp3323
g88
g89
ssg70
g3312
sg63
(lp3324
S':'
asbag56
(g77
g58
NtRp3325
(dp3326
g61
(dp3327
sg70
g3312
sg63
(lp3328
g56
(g57
g58
NtRp3329
(dp3330
g61
(dp3331
g69
I3
ssg70
g3325
sg63
(lp3332
S'silva'
p3333
asbasbasbag56
(g72
g58
NtRp3334
(dp3335
g61
(dp3336
sg70
g3243
sg63
(lp3337
g56
(g77
g58
NtRp3338
(dp3339
g61
(dp3340
g81
g82
ssg70
g3334
sg63
(lp3341
S'password'
p3342
asbag56
(g77
g58
NtRp3343
(dp3344
g61
(dp3345
g88
g89
ssg70
g3334
sg63
(lp3346
S':'
asbag56
(g77
g58
NtRp3347
(dp3348
g61
(dp3349
sg70
g3334
sg63
(lp3350
g56
(g57
g58
NtRp3351
(dp3352
g61
(dp3353
g69
I3
ssg70
g3347
sg63
(lp3354
S'72c6a018d62d3fb47d95389e4a062cd2'
p3355
asbasbasbag56
(g72
g58
NtRp3356
(dp3357
g61
(dp3358
sg70
g3243
sg63
(lp3359
g56
(g77
g58
NtRp3360
(dp3361
g61
(dp3362
g81
g82
ssg70
g3356
sg63
(lp3363
S'registration_key'
p3364
asbag56
(g77
g58
NtRp3365
(dp3366
g61
(dp3367
g88
g89
ssg70
g3356
sg63
(lp3368
S':'
asbag56
(g77
g58
NtRp3369
(dp3370
g61
(dp3371
sg70
g3356
sg63
(lp3372
g56
(g57
g58
NtRp3373
(dp3374
g61
(dp3375
g69
I3
ssg70
g3369
sg63
(lp3376
S''
asbasbasbag56
(g72
g58
NtRp3377
(dp3378
g61
(dp3379
sg70
g3243
sg63
(lp3380
g56
(g77
g58
NtRp3381
(dp3382
g61
(dp3383
g81
g82
ssg70
g3377
sg63
(lp3384
S'reset_password_key'
p3385
asbag56
(g77
g58
NtRp3386
(dp3387
g61
(dp3388
g88
g89
ssg70
g3377
sg63
(lp3389
S':'
asbag56
(g77
g58
NtRp3390
(dp3391
g61
(dp3392
sg70
g3377
sg63
(lp3393
g56
(g57
g58
NtRp3394
(dp3395
g61
(dp3396
g69
I3
ssg70
g3390
sg63
(lp3397
S''
asbasbasbasbasbasbasbasbasbasbasbag56
(g72
g58
NtRp3398
(dp3399
g61
(dp3400
sg70
g3106
sg63
(lp3401
g56
(g77
g58
NtRp3402
(dp3403
g61
(dp3404
g81
g82
ssg70
g3398
sg63
(lp3405
S'back'
p3406
asbag56
(g77
g58
NtRp3407
(dp3408
g61
(dp3409
g88
g89
ssg70
g3398
sg63
(lp3410
S':'
asbag56
(g77
g58
NtRp3411
(dp3412
g61
(dp3413
sg70
g3398
sg63
(lp3414
g56
(g57
g58
NtRp3415
(dp3416
g61
(dp3417
g69
I5
ssg70
g3411
sg63
(lp3418
S'9'
asbasbasbag56
(g72
g58
NtRp3419
(dp3420
g61
(dp3421
sg70
g3106
sg63
(lp3422
g56
(g77
g58
NtRp3423
(dp3424
g61
(dp3425
g81
g82
ssg70
g3419
sg63
(lp3426
S'index'
p3427
asbag56
(g77
g58
NtRp3428
(dp3429
g61
(dp3430
g88
g89
ssg70
g3419
sg63
(lp3431
S':'
asbag56
(g77
g58
NtRp3432
(dp3433
g61
(dp3434
sg70
g3419
sg63
(lp3435
g56
(g57
g58
NtRp3436
(dp3437
g61
(dp3438
g69
I5
ssg70
g3432
sg63
(lp3439
S'1'
asbasbasbasbasbsS'etype'
p3440
S"<type 'exceptions.NameError'>"
p3441
sS'date'
p3442
S'Mon Jan 16 16:37:33 2012'
p3443
sS'response'
p3444
g56
(g57
g58
NtRp3445
(dp3446
g61
(dp3447
sg63
(lp3448
g56
(g65
g58
NtRp3449
(dp3450
g61
(dp3451
g69
I5
ssg70
Nsg63
(lp3452
g56
(g72
g58
NtRp3453
(dp3454
g61
(dp3455
sg70
g3449
sg63
(lp3456
g56
(g77
g58
NtRp3457
(dp3458
g61
(dp3459
g81
g82
ssg70
g3453
sg63
(lp3460
g179
asbag56
(g77
g58
NtRp3461
(dp3462
g61
(dp3463
g88
g89
ssg70
g3453
sg63
(lp3464
S':'
asbag56
(g77
g58
NtRp3465
(dp3466
g61
(dp3467
sg70
g3453
sg63
(lp3468
g56
(g57
g58
NtRp3469
(dp3470
g61
(dp3471
g69
I5
ssg70
g3465
sg63
(lp3472
S'<cStringIO.StringO object at 0x17656c0>'
p3473
asbasbasbag56
(g72
g58
NtRp3474
(dp3475
g61
(dp3476
sg70
g3449
sg63
(lp3477
g56
(g77
g58
NtRp3478
(dp3479
g61
(dp3480
g81
g82
ssg70
g3474
sg63
(lp3481
g245
asbag56
(g77
g58
NtRp3482
(dp3483
g61
(dp3484
g88
g89
ssg70
g3474
sg63
(lp3485
S':'
asbag56
(g77
g58
NtRp3486
(dp3487
g61
(dp3488
sg70
g3474
sg63
(lp3489
g56
(g57
g58
NtRp3490
(dp3491
g61
(dp3492
g69
I5
ssg70
g3486
sg63
(lp3493
g56
(g65
g58
NtRp3494
(dp3495
g61
(dp3496
g69
I4
ssg70
Nsg63
(lp3497
g56
(g72
g58
NtRp3498
(dp3499
g61
(dp3500
sg70
g3494
sg63
(lp3501
g56
(g77
g58
NtRp3502
(dp3503
g61
(dp3504
g81
g82
ssg70
g3498
sg63
(lp3505
S'session_id_synopsis'
p3506
asbag56
(g77
g58
NtRp3507
(dp3508
g61
(dp3509
g88
g89
ssg70
g3498
sg63
(lp3510
S':'
asbag56
(g77
g58
NtRp3511
(dp3512
g61
(dp3513
sg70
g3498
sg63
(lp3514
g56
(g57
g58
NtRp3515
(dp3516
g61
(dp3517
g69
I4
ssg70
g3511
sg63
(lp3518
g56
(g65
g58
NtRp3519
(dp3520
g61
(dp3521
g69
I3
ssg70
Nsg63
(lp3522
g56
(g72
g58
NtRp3523
(dp3524
g61
(dp3525
sg70
g3519
sg63
(lp3526
g56
(g77
g58
NtRp3527
(dp3528
g61
(dp3529
g81
g82
ssg70
g3523
sg63
(lp3530
g295
asbag56
(g77
g58
NtRp3531
(dp3532
g61
(dp3533
g88
g89
ssg70
g3523
sg63
(lp3534
S':'
asbag56
(g77
g58
NtRp3535
(dp3536
g61
(dp3537
sg70
g3523
sg63
(lp3538
g56
(g57
g58
NtRp3539
(dp3540
g61
(dp3541
g69
I3
ssg70
g3535
sg63
(lp3542
S''
asbasbasbag56
(g72
g58
NtRp3543
(dp3544
g61
(dp3545
sg70
g3519
sg63
(lp3546
g56
(g77
g58
NtRp3547
(dp3548
g61
(dp3549
g81
g82
ssg70
g3543
sg63
(lp3550
g316
asbag56
(g77
g58
NtRp3551
(dp3552
g61
(dp3553
g88
g89
ssg70
g3543
sg63
(lp3554
S':'
asbag56
(g77
g58
NtRp3555
(dp3556
g61
(dp3557
sg70
g3543
sg63
(lp3558
g56
(g57
g58
NtRp3559
(dp3560
g61
(dp3561
g69
I3
ssg70
g3555
sg63
(lp3562
S''
asbasbasbag56
(g72
g58
NtRp3563
(dp3564
g61
(dp3565
sg70
g3519
sg63
(lp3566
g56
(g77
g58
NtRp3567
(dp3568
g61
(dp3569
g81
g82
ssg70
g3563
sg63
(lp3570
g337
asbag56
(g77
g58
NtRp3571
(dp3572
g61
(dp3573
g88
g89
ssg70
g3563
sg63
(lp3574
S':'
asbag56
(g77
g58
NtRp3575
(dp3576
g61
(dp3577
sg70
g3563
sg63
(lp3578
g56
(g57
g58
NtRp3579
(dp3580
g61
(dp3581
g69
I3
ssg70
g3575
sg63
(lp3582
S''
asbasbasbag56
(g72
g58
NtRp3583
(dp3584
g61
(dp3585
sg70
g3519
sg63
(lp3586
g56
(g77
g58
NtRp3587
(dp3588
g61
(dp3589
g81
g82
ssg70
g3583
sg63
(lp3590
g358
asbag56
(g77
g58
NtRp3591
(dp3592
g61
(dp3593
g88
g89
ssg70
g3583
sg63
(lp3594
S':'
asbag56
(g77
g58
NtRp3595
(dp3596
g61
(dp3597
sg70
g3583
sg63
(lp3598
g56
(g57
g58
NtRp3599
(dp3600
g61
(dp3601
g69
I3
ssg70
g3595
sg63
(lp3602
S''
asbasbasbag56
(g72
g58
NtRp3603
(dp3604
g61
(dp3605
sg70
g3519
sg63
(lp3606
g56
(g77
g58
NtRp3607
(dp3608
g61
(dp3609
g81
g82
ssg70
g3603
sg63
(lp3610
g379
asbag56
(g77
g58
NtRp3611
(dp3612
g61
(dp3613
g88
g89
ssg70
g3603
sg63
(lp3614
S':'
asbag56
(g77
g58
NtRp3615
(dp3616
g61
(dp3617
sg70
g3603
sg63
(lp3618
g56
(g57
g58
NtRp3619
(dp3620
g61
(dp3621
g69
I3
ssg70
g3615
sg63
(lp3622
S''
asbasbasbag56
(g72
g58
NtRp3623
(dp3624
g61
(dp3625
sg70
g3519
sg63
(lp3626
g56
(g77
g58
NtRp3627
(dp3628
g61
(dp3629
g81
g82
ssg70
g3623
sg63
(lp3630
g400
asbag56
(g77
g58
NtRp3631
(dp3632
g61
(dp3633
g88
g89
ssg70
g3623
sg63
(lp3634
S':'
asbag56
(g77
g58
NtRp3635
(dp3636
g61
(dp3637
sg70
g3623
sg63
(lp3638
g56
(g57
g58
NtRp3639
(dp3640
g61
(dp3641
g69
I3
ssg70
g3635
sg63
(lp3642
S'/'
asbasbasbag56
(g72
g58
NtRp3643
(dp3644
g61
(dp3645
sg70
g3519
sg63
(lp3646
g56
(g77
g58
NtRp3647
(dp3648
g61
(dp3649
g81
g82
ssg70
g3643
sg63
(lp3650
g421
asbag56
(g77
g58
NtRp3651
(dp3652
g61
(dp3653
g88
g89
ssg70
g3643
sg63
(lp3654
S':'
asbag56
(g77
g58
NtRp3655
(dp3656
g61
(dp3657
sg70
g3643
sg63
(lp3658
g56
(g57
g58
NtRp3659
(dp3660
g61
(dp3661
g69
I3
ssg70
g3655
sg63
(lp3662
S''
asbasbasbag56
(g72
g58
NtRp3663
(dp3664
g61
(dp3665
sg70
g3519
sg63
(lp3666
g56
(g77
g58
NtRp3667
(dp3668
g61
(dp3669
g81
g82
ssg70
g3663
sg63
(lp3670
g442
asbag56
(g77
g58
NtRp3671
(dp3672
g61
(dp3673
g88
g89
ssg70
g3663
sg63
(lp3674
S':'
asbag56
(g77
g58
NtRp3675
(dp3676
g61
(dp3677
sg70
g3663
sg63
(lp3678
g56
(g57
g58
NtRp3679
(dp3680
g61
(dp3681
g69
I3
ssg70
g3675
sg63
(lp3682
S''
asbasbasbasbasbasbasbasbasbasbasbag56
(g72
g58
NtRp3683
(dp3684
g61
(dp3685
sg70
g3449
sg63
(lp3686
g56
(g77
g58
NtRp3687
(dp3688
g61
(dp3689
g81
g82
ssg70
g3683
sg63
(lp3690
S'files'
p3691
asbag56
(g77
g58
NtRp3692
(dp3693
g61
(dp3694
g88
g89
ssg70
g3683
sg63
(lp3695
S':'
asbag56
(g77
g58
NtRp3696
(dp3697
g61
(dp3698
sg70
g3683
sg63
(lp3699
g56
(g57
g58
NtRp3700
(dp3701
g61
(dp3702
g69
I5
ssg70
g3696
sg63
(lp3703
g56
(g65
g58
NtRp3704
(dp3705
g61
(dp3706
g69
I4
ssg70
Nsg63
(lp3707
sbasbasbasbag56
(g72
g58
NtRp3708
(dp3709
g61
(dp3710
sg70
g3449
sg63
(lp3711
g56
(g77
g58
NtRp3712
(dp3713
g61
(dp3714
g81
g82
ssg70
g3708
sg63
(lp3715
S'flash'
p3716
asbag56
(g77
g58
NtRp3717
(dp3718
g61
(dp3719
g88
g89
ssg70
g3708
sg63
(lp3720
S':'
asbag56
(g77
g58
NtRp3721
(dp3722
g61
(dp3723
sg70
g3708
sg63
(lp3724
g56
(g57
g58
NtRp3725
(dp3726
g61
(dp3727
g69
I5
ssg70
g3721
sg63
(lp3728
S''
asbasbasbag56
(g72
g58
NtRp3729
(dp3730
g61
(dp3731
sg70
g3449
sg63
(lp3732
g56
(g77
g58
NtRp3733
(dp3734
g61
(dp3735
g81
g82
ssg70
g3729
sg63
(lp3736
S'generic_patterns'
p3737
asbag56
(g77
g58
NtRp3738
(dp3739
g61
(dp3740
g88
g89
ssg70
g3729
sg63
(lp3741
S':'
asbag56
(g77
g58
NtRp3742
(dp3743
g61
(dp3744
sg70
g3729
sg63
(lp3745
g56
(g57
g58
NtRp3746
(dp3747
g61
(dp3748
g69
I5
ssg70
g3742
sg63
(lp3749
g56
(g65
g58
NtRp3750
(dp3751
g61
(dp3752
g69
I4
ssg70
Nsg63
(lp3753
g56
(g72
g58
NtRp3754
(dp3755
g61
(dp3756
sg70
g3750
sg63
(lp3757
g56
(g77
g58
NtRp3758
(dp3759
g61
(dp3760
sg70
g3754
sg63
(lp3761
g56
(g57
g58
NtRp3762
(dp3763
g61
(dp3764
g69
I4
ssg70
g3758
sg63
(lp3765
S'*'
asbasbasbasbasbasbasbag56
(g72
g58
NtRp3766
(dp3767
g61
(dp3768
sg70
g3449
sg63
(lp3769
g56
(g77
g58
NtRp3770
(dp3771
g61
(dp3772
g81
g82
ssg70
g3766
sg63
(lp3773
S'headers'
p3774
asbag56
(g77
g58
NtRp3775
(dp3776
g61
(dp3777
g88
g89
ssg70
g3766
sg63
(lp3778
S':'
asbag56
(g77
g58
NtRp3779
(dp3780
g61
(dp3781
sg70
g3766
sg63
(lp3782
g56
(g57
g58
NtRp3783
(dp3784
g61
(dp3785
g69
I5
ssg70
g3779
sg63
(lp3786
g56
(g65
g58
NtRp3787
(dp3788
g61
(dp3789
g69
I4
ssg70
Nsg63
(lp3790
g56
(g72
g58
NtRp3791
(dp3792
g61
(dp3793
sg70
g3787
sg63
(lp3794
g56
(g77
g58
NtRp3795
(dp3796
g61
(dp3797
g81
g82
ssg70
g3791
sg63
(lp3798
S'Cache-Control'
p3799
asbag56
(g77
g58
NtRp3800
(dp3801
g61
(dp3802
g88
g89
ssg70
g3791
sg63
(lp3803
S':'
asbag56
(g77
g58
NtRp3804
(dp3805
g61
(dp3806
sg70
g3791
sg63
(lp3807
g56
(g57
g58
NtRp3808
(dp3809
g61
(dp3810
g69
I4
ssg70
g3804
sg63
(lp3811
S'no-store, no-cache, must-revalidate, post-check=0, pre-check=0'
p3812
asbasbasbag56
(g72
g58
NtRp3813
(dp3814
g61
(dp3815
sg70
g3787
sg63
(lp3816
g56
(g77
g58
NtRp3817
(dp3818
g61
(dp3819
g81
g82
ssg70
g3813
sg63
(lp3820
S'Content-Type'
p3821
asbag56
(g77
g58
NtRp3822
(dp3823
g61
(dp3824
g88
g89
ssg70
g3813
sg63
(lp3825
S':'
asbag56
(g77
g58
NtRp3826
(dp3827
g61
(dp3828
sg70
g3813
sg63
(lp3829
g56
(g57
g58
NtRp3830
(dp3831
g61
(dp3832
g69
I4
ssg70
g3826
sg63
(lp3833
S'text/html; charset=utf-8'
p3834
asbasbasbag56
(g72
g58
NtRp3835
(dp3836
g61
(dp3837
sg70
g3787
sg63
(lp3838
g56
(g77
g58
NtRp3839
(dp3840
g61
(dp3841
g81
g82
ssg70
g3835
sg63
(lp3842
S'Expires'
p3843
asbag56
(g77
g58
NtRp3844
(dp3845
g61
(dp3846
g88
g89
ssg70
g3835
sg63
(lp3847
S':'
asbag56
(g77
g58
NtRp3848
(dp3849
g61
(dp3850
sg70
g3835
sg63
(lp3851
g56
(g57
g58
NtRp3852
(dp3853
g61
(dp3854
g69
I4
ssg70
g3848
sg63
(lp3855
S'Mon, 16 Jan 2012 18:37:31 GMT'
p3856
asbasbasbag56
(g72
g58
NtRp3857
(dp3858
g61
(dp3859
sg70
g3787
sg63
(lp3860
g56
(g77
g58
NtRp3861
(dp3862
g61
(dp3863
g81
g82
ssg70
g3857
sg63
(lp3864
S'Pragma'
p3865
asbag56
(g77
g58
NtRp3866
(dp3867
g61
(dp3868
g88
g89
ssg70
g3857
sg63
(lp3869
S':'
asbag56
(g77
g58
NtRp3870
(dp3871
g61
(dp3872
sg70
g3857
sg63
(lp3873
g56
(g57
g58
NtRp3874
(dp3875
g61
(dp3876
g69
I4
ssg70
g3870
sg63
(lp3877
S'no-cache'
p3878
asbasbasbag56
(g72
g58
NtRp3879
(dp3880
g61
(dp3881
sg70
g3787
sg63
(lp3882
g56
(g77
g58
NtRp3883
(dp3884
g61
(dp3885
g81
g82
ssg70
g3879
sg63
(lp3886
S'X-Powered-By'
p3887
asbag56
(g77
g58
NtRp3888
(dp3889
g61
(dp3890
g88
g89
ssg70
g3879
sg63
(lp3891
S':'
asbag56
(g77
g58
NtRp3892
(dp3893
g61
(dp3894
sg70
g3879
sg63
(lp3895
g56
(g57
g58
NtRp3896
(dp3897
g61
(dp3898
g69
I4
ssg70
g3892
sg63
(lp3899
S'web2py'
p3900
asbasbasbasbasbasbasbag56
(g72
g58
NtRp3901
(dp3902
g61
(dp3903
sg70
g3449
sg63
(lp3904
g56
(g77
g58
NtRp3905
(dp3906
g61
(dp3907
g81
g82
ssg70
g3901
sg63
(lp3908
S'menu'
p3909
asbag56
(g77
g58
NtRp3910
(dp3911
g61
(dp3912
g88
g89
ssg70
g3901
sg63
(lp3913
S':'
asbag56
(g77
g58
NtRp3914
(dp3915
g61
(dp3916
sg70
g3901
sg63
(lp3917
g56
(g57
g58
NtRp3918
(dp3919
g61
(dp3920
g69
I5
ssg70
g3914
sg63
(lp3921
g56
(g65
g58
NtRp3922
(dp3923
g61
(dp3924
g69
I4
ssg70
Nsg63
(lp3925
g56
(g72
g58
NtRp3926
(dp3927
g61
(dp3928
sg70
g3922
sg63
(lp3929
g56
(g77
g58
NtRp3930
(dp3931
g61
(dp3932
sg70
g3926
sg63
(lp3933
g56
(g57
g58
NtRp3934
(dp3935
g61
(dp3936
g69
I4
ssg70
g3930
sg63
(lp3937
g56
(g65
g58
NtRp3938
(dp3939
g61
(dp3940
g69
I3
ssg70
Nsg63
(lp3941
g56
(g72
g58
NtRp3942
(dp3943
g61
(dp3944
sg70
g3938
sg63
(lp3945
g56
(g77
g58
NtRp3946
(dp3947
g61
(dp3948
sg70
g3942
sg63
(lp3949
g56
(g57
g58
NtRp3950
(dp3951
g61
(dp3952
g69
I3
ssg70
g3946
sg63
(lp3953
cgluon.languages
lazyT_unpickle
p3954
(S't\x06\x00\x00\x00Inicio'
tRp3955
asbasbasbag56
(g72
g58
NtRp3956
(dp3957
g61
(dp3958
sg70
g3938
sg63
(lp3959
g56
(g77
g58
NtRp3960
(dp3961
g61
(dp3962
sg70
g3956
sg63
(lp3963
g56
(g57
g58
NtRp3964
(dp3965
g61
(dp3966
g69
I3
ssg70
g3960
sg63
(lp3967
g99
asbasbasbag56
(g72
g58
NtRp3968
(dp3969
g61
(dp3970
sg70
g3938
sg63
(lp3971
g56
(g77
g58
NtRp3972
(dp3973
g61
(dp3974
sg70
g3968
sg63
(lp3975
g56
(g57
g58
NtRp3976
(dp3977
g61
(dp3978
g69
I3
ssg70
g3972
sg63
(lp3979
S'/synopsis/default/index'
p3980
asbasbasbag56
(g72
g58
NtRp3981
(dp3982
g61
(dp3983
sg70
g3938
sg63
(lp3984
g56
(g77
g58
NtRp3985
(dp3986
g61
(dp3987
sg70
g3981
sg63
(lp3988
g56
(g57
g58
NtRp3989
(dp3990
g61
(dp3991
g69
I3
ssg70
g3985
sg63
(lp3992
g56
(g65
g58
NtRp3993
(dp3994
g61
(dp3995
g69
I2
ssg70
Nsg63
(lp3996
sbasbasbasbasbasbasbasbag56
(g72
g58
NtRp3997
(dp3998
g61
(dp3999
sg70
g3922
sg63
(lp4000
g56
(g77
g58
NtRp4001
(dp4002
g61
(dp4003
sg70
g3997
sg63
(lp4004
g56
(g57
g58
NtRp4005
(dp4006
g61
(dp4007
g69
I4
ssg70
g4001
sg63
(lp4008
g56
(g65
g58
NtRp4009
(dp4010
g61
(dp4011
g69
I3
ssg70
Nsg63
(lp4012
g56
(g72
g58
NtRp4013
(dp4014
g61
(dp4015
sg70
g4009
sg63
(lp4016
g56
(g77
g58
NtRp4017
(dp4018
g61
(dp4019
sg70
g4013
sg63
(lp4020
g56
(g57
g58
NtRp4021
(dp4022
g61
(dp4023
g69
I3
ssg70
g4017
sg63
(lp4024
g3954
(S's\r\x00\x00\x00Informa\xc3\xa7\xc3\xb5es'
tRp4025
asbasbasbag56
(g72
g58
NtRp4026
(dp4027
g61
(dp4028
sg70
g4009
sg63
(lp4029
g56
(g77
g58
NtRp4030
(dp4031
g61
(dp4032
sg70
g4026
sg63
(lp4033
g56
(g57
g58
NtRp4034
(dp4035
g61
(dp4036
g69
I3
ssg70
g4030
sg63
(lp4037
g99
asbasbasbag56
(g72
g58
NtRp4038
(dp4039
g61
(dp4040
sg70
g4009
sg63
(lp4041
g56
(g77
g58
NtRp4042
(dp4043
g61
(dp4044
sg70
g4038
sg63
(lp4045
g56
(g57
g58
NtRp4046
(dp4047
g61
(dp4048
g69
I3
ssg70
g4042
sg63
(lp4049
S'/synopsis/information/index'
p4050
asbasbasbag56
(g72
g58
NtRp4051
(dp4052
g61
(dp4053
sg70
g4009
sg63
(lp4054
g56
(g77
g58
NtRp4055
(dp4056
g61
(dp4057
sg70
g4051
sg63
(lp4058
g56
(g57
g58
NtRp4059
(dp4060
g61
(dp4061
g69
I3
ssg70
g4055
sg63
(lp4062
g56
(g65
g58
NtRp4063
(dp4064
g61
(dp4065
g69
I2
ssg70
Nsg63
(lp4066
sbasbasbasbasbasbasbasbag56
(g72
g58
NtRp4067
(dp4068
g61
(dp4069
sg70
g3922
sg63
(lp4070
g56
(g77
g58
NtRp4071
(dp4072
g61
(dp4073
sg70
g4067
sg63
(lp4074
g56
(g57
g58
NtRp4075
(dp4076
g61
(dp4077
g69
I4
ssg70
g4071
sg63
(lp4078
g56
(g65
g58
NtRp4079
(dp4080
g61
(dp4081
g69
I3
ssg70
Nsg63
(lp4082
g56
(g72
g58
NtRp4083
(dp4084
g61
(dp4085
sg70
g4079
sg63
(lp4086
g56
(g77
g58
NtRp4087
(dp4088
g61
(dp4089
sg70
g4083
sg63
(lp4090
g56
(g57
g58
NtRp4091
(dp4092
g61
(dp4093
g69
I3
ssg70
g4087
sg63
(lp4094
g3954
(S't\x05\x00\x00\x00Sobre'
tRp4095
asbasbasbag56
(g72
g58
NtRp4096
(dp4097
g61
(dp4098
sg70
g4079
sg63
(lp4099
g56
(g77
g58
NtRp4100
(dp4101
g61
(dp4102
sg70
g4096
sg63
(lp4103
g56
(g57
g58
NtRp4104
(dp4105
g61
(dp4106
g69
I3
ssg70
g4100
sg63
(lp4107
g99
asbasbasbag56
(g72
g58
NtRp4108
(dp4109
g61
(dp4110
sg70
g4079
sg63
(lp4111
g56
(g77
g58
NtRp4112
(dp4113
g61
(dp4114
sg70
g4108
sg63
(lp4115
g56
(g57
g58
NtRp4116
(dp4117
g61
(dp4118
g69
I3
ssg70
g4112
sg63
(lp4119
S'/synopsis/default/about'
p4120
asbasbasbag56
(g72
g58
NtRp4121
(dp4122
g61
(dp4123
sg70
g4079
sg63
(lp4124
g56
(g77
g58
NtRp4125
(dp4126
g61
(dp4127
sg70
g4121
sg63
(lp4128
g56
(g57
g58
NtRp4129
(dp4130
g61
(dp4131
g69
I3
ssg70
g4125
sg63
(lp4132
g56
(g65
g58
NtRp4133
(dp4134
g61
(dp4135
g69
I2
ssg70
Nsg63
(lp4136
sbasbasbasbasbasbasbasbasbasbasbasbag56
(g72
g58
NtRp4137
(dp4138
g61
(dp4139
sg70
g3449
sg63
(lp4140
g56
(g77
g58
NtRp4141
(dp4142
g61
(dp4143
g81
g82
ssg70
g4137
sg63
(lp4144
S'meta'
p4145
asbag56
(g77
g58
NtRp4146
(dp4147
g61
(dp4148
g88
g89
ssg70
g4137
sg63
(lp4149
S':'
asbag56
(g77
g58
NtRp4150
(dp4151
g61
(dp4152
sg70
g4137
sg63
(lp4153
g56
(g57
g58
NtRp4154
(dp4155
g61
(dp4156
g69
I5
ssg70
g4150
sg63
(lp4157
g56
(g65
g58
NtRp4158
(dp4159
g61
(dp4160
g69
I4
ssg70
Nsg63
(lp4161
g56
(g72
g58
NtRp4162
(dp4163
g61
(dp4164
sg70
g4158
sg63
(lp4165
g56
(g77
g58
NtRp4166
(dp4167
g61
(dp4168
g81
g82
ssg70
g4162
sg63
(lp4169
S'author'
p4170
asbag56
(g77
g58
NtRp4171
(dp4172
g61
(dp4173
g88
g89
ssg70
g4162
sg63
(lp4174
S':'
asbag56
(g77
g58
NtRp4175
(dp4176
g61
(dp4177
sg70
g4162
sg63
(lp4178
g56
(g57
g58
NtRp4179
(dp4180
g61
(dp4181
g69
I4
ssg70
g4175
sg63
(lp4182
S'Your Name <you@example.com>'
p4183
asbasbasbag56
(g72
g58
NtRp4184
(dp4185
g61
(dp4186
sg70
g4158
sg63
(lp4187
g56
(g77
g58
NtRp4188
(dp4189
g61
(dp4190
g81
g82
ssg70
g4184
sg63
(lp4191
S'copyright'
p4192
asbag56
(g77
g58
NtRp4193
(dp4194
g61
(dp4195
g88
g89
ssg70
g4184
sg63
(lp4196
S':'
asbag56
(g77
g58
NtRp4197
(dp4198
g61
(dp4199
sg70
g4184
sg63
(lp4200
g56
(g57
g58
NtRp4201
(dp4202
g61
(dp4203
g69
I4
ssg70
g4197
sg63
(lp4204
S'Copyright 2011'
p4205
asbasbasbag56
(g72
g58
NtRp4206
(dp4207
g61
(dp4208
sg70
g4158
sg63
(lp4209
g56
(g77
g58
NtRp4210
(dp4211
g61
(dp4212
g81
g82
ssg70
g4206
sg63
(lp4213
S'description'
p4214
asbag56
(g77
g58
NtRp4215
(dp4216
g61
(dp4217
g88
g89
ssg70
g4206
sg63
(lp4218
S':'
asbag56
(g77
g58
NtRp4219
(dp4220
g61
(dp4221
sg70
g4206
sg63
(lp4222
g56
(g57
g58
NtRp4223
(dp4224
g61
(dp4225
g69
I4
ssg70
g4219
sg63
(lp4226
S'a cool new app'
p4227
asbasbasbag56
(g72
g58
NtRp4228
(dp4229
g61
(dp4230
sg70
g4158
sg63
(lp4231
g56
(g77
g58
NtRp4232
(dp4233
g61
(dp4234
g81
g82
ssg70
g4228
sg63
(lp4235
S'generator'
p4236
asbag56
(g77
g58
NtRp4237
(dp4238
g61
(dp4239
g88
g89
ssg70
g4228
sg63
(lp4240
S':'
asbag56
(g77
g58
NtRp4241
(dp4242
g61
(dp4243
sg70
g4228
sg63
(lp4244
g56
(g57
g58
NtRp4245
(dp4246
g61
(dp4247
g69
I4
ssg70
g4241
sg63
(lp4248
S'Web2py Web Framework'
p4249
asbasbasbag56
(g72
g58
NtRp4250
(dp4251
g61
(dp4252
sg70
g4158
sg63
(lp4253
g56
(g77
g58
NtRp4254
(dp4255
g61
(dp4256
g81
g82
ssg70
g4250
sg63
(lp4257
S'keywords'
p4258
asbag56
(g77
g58
NtRp4259
(dp4260
g61
(dp4261
g88
g89
ssg70
g4250
sg63
(lp4262
S':'
asbag56
(g77
g58
NtRp4263
(dp4264
g61
(dp4265
sg70
g4250
sg63
(lp4266
g56
(g57
g58
NtRp4267
(dp4268
g61
(dp4269
g69
I4
ssg70
g4263
sg63
(lp4270
S'web2py, python, framework'
p4271
asbasbasbasbasbasbasbag56
(g72
g58
NtRp4272
(dp4273
g61
(dp4274
sg70
g3449
sg63
(lp4275
g56
(g77
g58
NtRp4276
(dp4277
g61
(dp4278
g81
g82
ssg70
g4272
sg63
(lp4279
S'postprocessing'
p4280
asbag56
(g77
g58
NtRp4281
(dp4282
g61
(dp4283
g88
g89
ssg70
g4272
sg63
(lp4284
S':'
asbag56
(g77
g58
NtRp4285
(dp4286
g61
(dp4287
sg70
g4272
sg63
(lp4288
g56
(g57
g58
NtRp4289
(dp4290
g61
(dp4291
g69
I5
ssg70
g4285
sg63
(lp4292
g56
(g65
g58
NtRp4293
(dp4294
g61
(dp4295
g69
I4
ssg70
Nsg63
(lp4296
sbasbasbasbag56
(g72
g58
NtRp4297
(dp4298
g61
(dp4299
sg70
g3449
sg63
(lp4300
g56
(g77
g58
NtRp4301
(dp4302
g61
(dp4303
g81
g82
ssg70
g4297
sg63
(lp4304
S'session_file'
p4305
asbag56
(g77
g58
NtRp4306
(dp4307
g61
(dp4308
g88
g89
ssg70
g4297
sg63
(lp4309
S':'
asbag56
(g77
g58
NtRp4310
(dp4311
g61
(dp4312
sg70
g4297
sg63
(lp4313
g56
(g57
g58
NtRp4314
(dp4315
g61
(dp4316
g69
I5
ssg70
g4310
sg63
(lp4317
S"<open file '/home/kaique/Projects/web2py/applications/synopsis/sessions/127.0.0.1-b4f447cc-7ffd-43f9-80d9-5b54dcde711e', mode 'rb+' at 0x17219c0>"
p4318
asbasbasbag56
(g72
g58
NtRp4319
(dp4320
g61
(dp4321
sg70
g3449
sg63
(lp4322
g56
(g77
g58
NtRp4323
(dp4324
g61
(dp4325
g81
g82
ssg70
g4319
sg63
(lp4326
S'session_filename'
p4327
asbag56
(g77
g58
NtRp4328
(dp4329
g61
(dp4330
g88
g89
ssg70
g4319
sg63
(lp4331
S':'
asbag56
(g77
g58
NtRp4332
(dp4333
g61
(dp4334
sg70
g4319
sg63
(lp4335
g56
(g57
g58
NtRp4336
(dp4337
g61
(dp4338
g69
I5
ssg70
g4332
sg63
(lp4339
S'/home/kaique/Projects/web2py/applications/synopsis/sessions/127.0.0.1-b4f447cc-7ffd-43f9-80d9-5b54dcde711e'
p4340
asbasbasbag56
(g72
g58
NtRp4341
(dp4342
g61
(dp4343
sg70
g3449
sg63
(lp4344
g56
(g77
g58
NtRp4345
(dp4346
g61
(dp4347
g81
g82
ssg70
g4341
sg63
(lp4348
S'session_id'
p4349
asbag56
(g77
g58
NtRp4350
(dp4351
g61
(dp4352
g88
g89
ssg70
g4341
sg63
(lp4353
S':'
asbag56
(g77
g58
NtRp4354
(dp4355
g61
(dp4356
sg70
g4341
sg63
(lp4357
g56
(g57
g58
NtRp4358
(dp4359
g61
(dp4360
g69
I5
ssg70
g4354
sg63
(lp4361
S'127.0.0.1-b4f447cc-7ffd-43f9-80d9-5b54dcde711e'
p4362
asbasbasbag56
(g72
g58
NtRp4363
(dp4364
g61
(dp4365
sg70
g3449
sg63
(lp4366
g56
(g77
g58
NtRp4367
(dp4368
g61
(dp4369
g81
g82
ssg70
g4363
sg63
(lp4370
S'session_id_name'
p4371
asbag56
(g77
g58
NtRp4372
(dp4373
g61
(dp4374
g88
g89
ssg70
g4363
sg63
(lp4375
S':'
asbag56
(g77
g58
NtRp4376
(dp4377
g61
(dp4378
sg70
g4363
sg63
(lp4379
g56
(g57
g58
NtRp4380
(dp4381
g61
(dp4382
g69
I5
ssg70
g4376
sg63
(lp4383
g3506
asbasbasbag56
(g72
g58
NtRp4384
(dp4385
g61
(dp4386
sg70
g3449
sg63
(lp4387
g56
(g77
g58
NtRp4388
(dp4389
g61
(dp4390
g81
g82
ssg70
g4384
sg63
(lp4391
S'session_locked'
p4392
asbag56
(g77
g58
NtRp4393
(dp4394
g61
(dp4395
g88
g89
ssg70
g4384
sg63
(lp4396
S':'
asbag56
(g77
g58
NtRp4397
(dp4398
g61
(dp4399
sg70
g4384
sg63
(lp4400
g56
(g57
g58
NtRp4401
(dp4402
g61
(dp4403
g69
I5
ssg70
g4397
sg63
(lp4404
g1681
asbasbasbag56
(g72
g58
NtRp4405
(dp4406
g61
(dp4407
sg70
g3449
sg63
(lp4408
g56
(g77
g58
NtRp4409
(dp4410
g61
(dp4411
g81
g82
ssg70
g4405
sg63
(lp4412
S'session_new'
p4413
asbag56
(g77
g58
NtRp4414
(dp4415
g61
(dp4416
g88
g89
ssg70
g4405
sg63
(lp4417
S':'
asbag56
(g77
g58
NtRp4418
(dp4419
g61
(dp4420
sg70
g4405
sg63
(lp4421
g56
(g57
g58
NtRp4422
(dp4423
g61
(dp4424
g69
I5
ssg70
g4418
sg63
(lp4425
g99
asbasbasbag56
(g72
g58
NtRp4426
(dp4427
g61
(dp4428
sg70
g3449
sg63
(lp4429
g56
(g77
g58
NtRp4430
(dp4431
g61
(dp4432
g81
g82
ssg70
g4426
sg63
(lp4433
S'status'
p4434
asbag56
(g77
g58
NtRp4435
(dp4436
g61
(dp4437
g88
g89
ssg70
g4426
sg63
(lp4438
S':'
asbag56
(g77
g58
NtRp4439
(dp4440
g61
(dp4441
sg70
g4426
sg63
(lp4442
g56
(g57
g58
NtRp4443
(dp4444
g61
(dp4445
g69
I5
ssg70
g4439
sg63
(lp4446
S'200'
p4447
asbasbasbag56
(g72
g58
NtRp4448
(dp4449
g61
(dp4450
sg70
g3449
sg63
(lp4451
g56
(g77
g58
NtRp4452
(dp4453
g61
(dp4454
g81
g82
ssg70
g4448
sg63
(lp4455
S'subtitle'
p4456
asbag56
(g77
g58
NtRp4457
(dp4458
g61
(dp4459
g88
g89
ssg70
g4448
sg63
(lp4460
S':'
asbag56
(g77
g58
NtRp4461
(dp4462
g61
(dp4463
sg70
g4448
sg63
(lp4464
g56
(g57
g58
NtRp4465
(dp4466
g61
(dp4467
g69
I5
ssg70
g4461
sg63
(lp4468
g3954
(S's\x0f\x00\x00\x00Personalize-me!'
tRp4469
asbasbasbag56
(g72
g58
NtRp4470
(dp4471
g61
(dp4472
sg70
g3449
sg63
(lp4473
g56
(g77
g58
NtRp4474
(dp4475
g61
(dp4476
g81
g82
ssg70
g4470
sg63
(lp4477
S'title'
p4478
asbag56
(g77
g58
NtRp4479
(dp4480
g61
(dp4481
g88
g89
ssg70
g4470
sg63
(lp4482
S':'
asbag56
(g77
g58
NtRp4483
(dp4484
g61
(dp4485
sg70
g4470
sg63
(lp4486
g56
(g57
g58
NtRp4487
(dp4488
g61
(dp4489
g69
I5
ssg70
g4483
sg63
(lp4490
g121
asbasbasbag56
(g72
g58
NtRp4491
(dp4492
g61
(dp4493
sg70
g3449
sg63
(lp4494
g56
(g77
g58
NtRp4495
(dp4496
g61
(dp4497
g81
g82
ssg70
g4491
sg63
(lp4498
g2347
asbag56
(g77
g58
NtRp4499
(dp4500
g61
(dp4501
g88
g89
ssg70
g4491
sg63
(lp4502
S':'
asbag56
(g77
g58
NtRp4503
(dp4504
g61
(dp4505
sg70
g4491
sg63
(lp4506
g56
(g57
g58
NtRp4507
(dp4508
g61
(dp4509
g69
I5
ssg70
g4503
sg63
(lp4510
g2360
asbasbasbag56
(g72
g58
NtRp4511
(dp4512
g61
(dp4513
sg70
g3449
sg63
(lp4514
g56
(g77
g58
NtRp4515
(dp4516
g61
(dp4517
g81
g82
ssg70
g4511
sg63
(lp4518
S'view'
p4519
asbag56
(g77
g58
NtRp4520
(dp4521
g61
(dp4522
g88
g89
ssg70
g4511
sg63
(lp4523
S':'
asbag56
(g77
g58
NtRp4524
(dp4525
g61
(dp4526
sg70
g4511
sg63
(lp4527
g56
(g57
g58
NtRp4528
(dp4529
g61
(dp4530
g69
I5
ssg70
g4524
sg63
(lp4531
S'information/new.html'
p4532
asbasbasbasbasbsS'locals'
p4533
(dp4534
S'line'
p4535
g44
sg23
S"['line', '9']"
p4536
sg4478
S"'Line'"
p4537
sssS'traceback'
p4538
S'Traceback (most recent call last):\n  File "/home/kaique/Projects/web2py/gluon/restricted.py", line 194, in restricted\n    exec ccode in environment\n  File "/home/kaique/Projects/web2py/applications/synopsis/controllers/information.py", line 117, in <module>\n  File "/home/kaique/Projects/web2py/gluon/globals.py", line 149, in <lambda>\n    self._caller = lambda f: f()\n  File "/home/kaique/Projects/web2py/gluon/tools.py", line 2456, in f\n    return action(*a, **b)\n  File "/home/kaique/Projects/web2py/applications/synopsis/controllers/information.py", line 96, in new\n    return { \'form\': lines,\nNameError: global name \'lines\' is not defined\n'
p4539
s.