(dp1
S'output'
p2
S''
sS'layer'
p3
S'/home/kaique/Projects/web2py/applications/synopsis/models/db.py'
p4
sS'code'
p5
S"# -*- coding: utf-8 -*-\n\n#########################################################################\n## This scaffolding model makes your app work on Google App Engine too\n## File is released under public domain and you can use without limitations\n#########################################################################\n\nif not request.env.web2py_runtime_gae:     \n    ## if NOT running on Google App Engine use SQLite or other DB\n    db = DAL('sqlite://storage.sqlite') \nelse:\n    ## connect to Google BigTable (optional 'google:datastore://namespace')\n    db = DAL('google:datastore') \n    ## store sessions and tickets there\n    session.connect(request, response, db = db) \n    ## or store session in Memcache, Redis, etc.\n    ## from gluon.contrib.memdb import MEMDB\n    ## from google.appengine.api.memcache import Client\n    ## session.connect(request, response, db = MEMDB(Client()))\n\n## by default give a view/generic.extension to all actions from localhost\n## none otherwise. a pattern can be 'controller/function.extension'\nresponse.generic_patterns = ['*'] if request.is_local else []\n\n#########################################################################\n## Here is sample code if you need for\n## - email capabilities\n## - authentication (registration, login, logout, ... )\n## - authorization (role based authorization)\n## - services (xml, csv, json, xmlrpc, jsonrpc, amf, rss)\n## - old style crud actions\n## (more options discussed in gluon/tools.py)\n#########################################################################\n\nfrom gluon.tools import Auth, Crud, Service, PluginManager, prettydate\nauth = Auth(db, hmac_key=Auth.get_or_create_key()) \ncrud, service, plugins = Crud(db), Service(), PluginManager()\n\n## create all tables needed by auth if not custom tables\nauth.define_tables() \n\n## configure email\nmail=auth.settings.mailer\nmail.settings.server = 'logging' or 'smtp.gmail.com:587'\nmail.settings.sender = 'you@gmail.com'\nmail.settings.login = 'username:password'\n\n## configure auth policy\nauth.settings.registration_requires_verification = False\nauth.settings.registration_requires_approval = False\nauth.settings.reset_password_requires_verification = True\n\n## if you need to use OpenID, Facebook, MySpace, Twitter, Linkedin, etc.\n## register with janrain.com, write your domain:api_key in private/janrain.key\nfrom gluon.contrib.login_methods.rpx_account import use_janrain\nuse_janrain(auth,filename='private/janrain.key')\n\n#########################################################################\n## Define your tables below (or better in another model file) for example\n##\n## >>> db.define_table('mytable',Field('myfield','string'))\n##\n## Fields can be 'string','text','password','integer','double','boolean'\n##       'date','time','datetime','blob','upload', 'reference TABLENAME'\n## There is an implicit 'id integer autoincrement' field\n## Consult manual for more options, validators, etc.\n##\n## More API examples for controllers:\n##\n## >>> db.mytable.insert(myfield='value')\n## >>> rows=db(db.mytable.myfield=='value').select(db.mytable.ALL)\n## >>> for row in rows: print row.id, row.myfield\n#########################################################################\n\n# Signature\nsignature = db.Table( db, 'signature',\n\t\t\t\t\tField('created_on', 'datetime', default=request.now),\n\t\t\t\t\tField('created_by', db.auth_user, default=auth.user_id),\n\t\t\t\t\tField('updated_on', 'datetime', update=request.now),\n\t\t\t\t\tField('updated_by', db.auth_user, update=auth.user_id) )\n# Publications\ndb.define_table( 'publication', \n\t\t\t\tField('title', 'string', required = True),\n\t\t\t\tField('sub_title', 'string'), signature )\n# Columns\ndb.define_table( 'column', \n\t\t\t\tField('title', 'string', required = True),\n\t\t\t\tField('publication_id', 'integer', db.publication, default=publication.id), signature )\n# Rows\ndb.define_table( 'row', \n\t\t\t\tField('content', 'text', required = True),\n\t\t\t\tField('column_id', 'integer', db.column, default=db.column.id), signature )\n# Quotes\ndb.define_table( 'quote', \n\t\t\t\tField('content', 'text', required = True),\n\t\t\t\tField('publications_id', 'integer', db.publication, default=db.publication.id), signature )\n"
p6
sS'snapshot'
p7
(dp8
S'exception'
p9
(dp10
S'__hash__'
p11
S"<method-wrapper '__hash__' of exceptions.NameError object>"
p12
sS'__setattr__'
p13
S"<method-wrapper '__setattr__' of exceptions.NameError object>"
p14
sS'__reduce_ex__'
p15
S'<built-in method __reduce_ex__ of exceptions.NameError object>'
p16
sS'__getslice__'
p17
S"<method-wrapper '__getslice__' of exceptions.NameError object>"
p18
sS'__getitem__'
p19
S"<method-wrapper '__getitem__' of exceptions.NameError object>"
p20
sS'__setstate__'
p21
S'<built-in method __setstate__ of exceptions.NameError object>'
p22
sS'args'
p23
S'("name \'publication\' is not defined",)'
p24
sS'__reduce__'
p25
S'<built-in method __reduce__ of exceptions.NameError object>'
p26
sS'__str__'
p27
S"<method-wrapper '__str__' of exceptions.NameError object>"
p28
sS'__format__'
p29
S'<built-in method __format__ of exceptions.NameError object>'
p30
sS'__getattribute__'
p31
S"<method-wrapper '__getattribute__' of exceptions.NameError object>"
p32
sS'__class__'
p33
S"<type 'exceptions.NameError'>"
p34
sS'__unicode__'
p35
S'<built-in method __unicode__ of exceptions.NameError object>'
p36
sS'__delattr__'
p37
S"<method-wrapper '__delattr__' of exceptions.NameError object>"
p38
sS'__subclasshook__'
p39
S'<built-in method __subclasshook__ of type object>'
p40
sS'__repr__'
p41
S"<method-wrapper '__repr__' of exceptions.NameError object>"
p42
sS'__dict__'
p43
S'{}'
p44
sS'__sizeof__'
p45
S'<built-in method __sizeof__ of exceptions.NameError object>'
p46
sS'__doc__'
p47
S"'Name not found globally.'"
p48
sS'__init__'
p49
S"<method-wrapper '__init__' of exceptions.NameError object>"
p50
sS'__new__'
p51
S'<built-in method __new__ of type object>'
p52
ssS'evalue'
p53
S"name 'publication' is not defined"
p54
sS'request'
p55
ccopy_reg
_reconstructor
p56
(cgluon.html
BEAUTIFY
p57
c__builtin__
object
p58
NtRp59
(dp60
S'attributes'
p61
(dp62
sS'components'
p63
(lp64
g56
(cgluon.html
TABLE
p65
g58
NtRp66
(dp67
g61
(dp68
S'level'
p69
I5
ssS'parent'
p70
Nsg63
(lp71
g56
(cgluon.html
TR
p72
g58
NtRp73
(dp74
g61
(dp75
sg70
g66
sg63
(lp76
g56
(cgluon.html
TD
p77
g58
NtRp78
(dp79
g61
(dp80
S'_style'
p81
S'font-weight:bold;'
p82
ssg70
g73
sg63
(lp83
S'ajax'
p84
asbag56
(g77
g58
NtRp85
(dp86
g61
(dp87
S'_valign'
p88
S'top'
p89
ssg70
g73
sg63
(lp90
S':'
asbag56
(g77
g58
NtRp91
(dp92
g61
(dp93
sg70
g73
sg63
(lp94
g56
(g57
g58
NtRp95
(dp96
g61
(dp97
g69
I5
ssg70
g91
sg63
(lp98
S'False'
p99
asbasbasbag56
(g72
g58
NtRp100
(dp101
g61
(dp102
sg70
g66
sg63
(lp103
g56
(g77
g58
NtRp104
(dp105
g61
(dp106
g81
g82
ssg70
g100
sg63
(lp107
S'application'
p108
asbag56
(g77
g58
NtRp109
(dp110
g61
(dp111
g88
g89
ssg70
g100
sg63
(lp112
S':'
asbag56
(g77
g58
NtRp113
(dp114
g61
(dp115
sg70
g100
sg63
(lp116
g56
(g57
g58
NtRp117
(dp118
g61
(dp119
g69
I5
ssg70
g113
sg63
(lp120
S'synopsis'
p121
asbasbasbag56
(g72
g58
NtRp122
(dp123
g61
(dp124
sg70
g66
sg63
(lp125
g56
(g77
g58
NtRp126
(dp127
g61
(dp128
g81
g82
ssg70
g122
sg63
(lp129
g23
asbag56
(g77
g58
NtRp130
(dp131
g61
(dp132
g88
g89
ssg70
g122
sg63
(lp133
S':'
asbag56
(g77
g58
NtRp134
(dp135
g61
(dp136
sg70
g122
sg63
(lp137
g56
(g57
g58
NtRp138
(dp139
g61
(dp140
g69
I5
ssg70
g134
sg63
(lp141
g56
(g65
g58
NtRp142
(dp143
g61
(dp144
g69
I4
ssg70
Nsg63
(lp145
g56
(g72
g58
NtRp146
(dp147
g61
(dp148
sg70
g142
sg63
(lp149
g56
(g77
g58
NtRp150
(dp151
g61
(dp152
sg70
g146
sg63
(lp153
g56
(g57
g58
NtRp154
(dp155
g61
(dp156
g69
I4
ssg70
g150
sg63
(lp157
S'db'
p158
asbasbasbag56
(g72
g58
NtRp159
(dp160
g61
(dp161
sg70
g142
sg63
(lp162
g56
(g77
g58
NtRp163
(dp164
g61
(dp165
sg70
g159
sg63
(lp166
g56
(g57
g58
NtRp167
(dp168
g61
(dp169
g69
I4
ssg70
g163
sg63
(lp170
S'column'
p171
asbasbasbasbasbasbasbag56
(g72
g58
NtRp172
(dp173
g61
(dp174
sg70
g66
sg63
(lp175
g56
(g77
g58
NtRp176
(dp177
g61
(dp178
g81
g82
ssg70
g172
sg63
(lp179
S'body'
p180
asbag56
(g77
g58
NtRp181
(dp182
g61
(dp183
g88
g89
ssg70
g172
sg63
(lp184
S':'
asbag56
(g77
g58
NtRp185
(dp186
g61
(dp187
sg70
g172
sg63
(lp188
g56
(g57
g58
NtRp189
(dp190
g61
(dp191
g69
I5
ssg70
g185
sg63
(lp192
S'<cStringIO.StringO object at 0x2c550a0>'
p193
asbasbasbag56
(g72
g58
NtRp194
(dp195
g61
(dp196
sg70
g66
sg63
(lp197
g56
(g77
g58
NtRp198
(dp199
g61
(dp200
g81
g82
ssg70
g194
sg63
(lp201
S'client'
p202
asbag56
(g77
g58
NtRp203
(dp204
g61
(dp205
g88
g89
ssg70
g194
sg63
(lp206
S':'
asbag56
(g77
g58
NtRp207
(dp208
g61
(dp209
sg70
g194
sg63
(lp210
g56
(g57
g58
NtRp211
(dp212
g61
(dp213
g69
I5
ssg70
g207
sg63
(lp214
S'127.0.0.1'
p215
asbasbasbag56
(g72
g58
NtRp216
(dp217
g61
(dp218
sg70
g66
sg63
(lp219
g56
(g77
g58
NtRp220
(dp221
g61
(dp222
g81
g82
ssg70
g216
sg63
(lp223
S'controller'
p224
asbag56
(g77
g58
NtRp225
(dp226
g61
(dp227
g88
g89
ssg70
g216
sg63
(lp228
S':'
asbag56
(g77
g58
NtRp229
(dp230
g61
(dp231
sg70
g216
sg63
(lp232
g56
(g57
g58
NtRp233
(dp234
g61
(dp235
g69
I5
ssg70
g229
sg63
(lp236
S'appadmin'
p237
asbasbasbag56
(g72
g58
NtRp238
(dp239
g61
(dp240
sg70
g66
sg63
(lp241
g56
(g77
g58
NtRp242
(dp243
g61
(dp244
g81
g82
ssg70
g238
sg63
(lp245
S'cookies'
p246
asbag56
(g77
g58
NtRp247
(dp248
g61
(dp249
g88
g89
ssg70
g238
sg63
(lp250
S':'
asbag56
(g77
g58
NtRp251
(dp252
g61
(dp253
sg70
g238
sg63
(lp254
g56
(g57
g58
NtRp255
(dp256
g61
(dp257
g69
I5
ssg70
g251
sg63
(lp258
g56
(g65
g58
NtRp259
(dp260
g61
(dp261
g69
I4
ssg70
Nsg63
(lp262
g56
(g72
g58
NtRp263
(dp264
g61
(dp265
sg70
g259
sg63
(lp266
g56
(g77
g58
NtRp267
(dp268
g61
(dp269
g81
g82
ssg70
g263
sg63
(lp270
S'arp_scroll_position'
p271
asbag56
(g77
g58
NtRp272
(dp273
g61
(dp274
g88
g89
ssg70
g263
sg63
(lp275
S':'
asbag56
(g77
g58
NtRp276
(dp277
g61
(dp278
sg70
g263
sg63
(lp279
g56
(g57
g58
NtRp280
(dp281
g61
(dp282
g69
I4
ssg70
g276
sg63
(lp283
g56
(g65
g58
NtRp284
(dp285
g61
(dp286
g69
I3
ssg70
Nsg63
(lp287
g56
(g72
g58
NtRp288
(dp289
g61
(dp290
sg70
g284
sg63
(lp291
g56
(g77
g58
NtRp292
(dp293
g61
(dp294
g81
g82
ssg70
g288
sg63
(lp295
S'comment'
p296
asbag56
(g77
g58
NtRp297
(dp298
g61
(dp299
g88
g89
ssg70
g288
sg63
(lp300
S':'
asbag56
(g77
g58
NtRp301
(dp302
g61
(dp303
sg70
g288
sg63
(lp304
g56
(g57
g58
NtRp305
(dp306
g61
(dp307
g69
I3
ssg70
g301
sg63
(lp308
S''
asbasbasbag56
(g72
g58
NtRp309
(dp310
g61
(dp311
sg70
g284
sg63
(lp312
g56
(g77
g58
NtRp313
(dp314
g61
(dp315
g81
g82
ssg70
g309
sg63
(lp316
S'domain'
p317
asbag56
(g77
g58
NtRp318
(dp319
g61
(dp320
g88
g89
ssg70
g309
sg63
(lp321
S':'
asbag56
(g77
g58
NtRp322
(dp323
g61
(dp324
sg70
g309
sg63
(lp325
g56
(g57
g58
NtRp326
(dp327
g61
(dp328
g69
I3
ssg70
g322
sg63
(lp329
S''
asbasbasbag56
(g72
g58
NtRp330
(dp331
g61
(dp332
sg70
g284
sg63
(lp333
g56
(g77
g58
NtRp334
(dp335
g61
(dp336
g81
g82
ssg70
g330
sg63
(lp337
S'expires'
p338
asbag56
(g77
g58
NtRp339
(dp340
g61
(dp341
g88
g89
ssg70
g330
sg63
(lp342
S':'
asbag56
(g77
g58
NtRp343
(dp344
g61
(dp345
sg70
g330
sg63
(lp346
g56
(g57
g58
NtRp347
(dp348
g61
(dp349
g69
I3
ssg70
g343
sg63
(lp350
S''
asbasbasbag56
(g72
g58
NtRp351
(dp352
g61
(dp353
sg70
g284
sg63
(lp354
g56
(g77
g58
NtRp355
(dp356
g61
(dp357
g81
g82
ssg70
g351
sg63
(lp358
S'httponly'
p359
asbag56
(g77
g58
NtRp360
(dp361
g61
(dp362
g88
g89
ssg70
g351
sg63
(lp363
S':'
asbag56
(g77
g58
NtRp364
(dp365
g61
(dp366
sg70
g351
sg63
(lp367
g56
(g57
g58
NtRp368
(dp369
g61
(dp370
g69
I3
ssg70
g364
sg63
(lp371
S''
asbasbasbag56
(g72
g58
NtRp372
(dp373
g61
(dp374
sg70
g284
sg63
(lp375
g56
(g77
g58
NtRp376
(dp377
g61
(dp378
g81
g82
ssg70
g372
sg63
(lp379
S'max-age'
p380
asbag56
(g77
g58
NtRp381
(dp382
g61
(dp383
g88
g89
ssg70
g372
sg63
(lp384
S':'
asbag56
(g77
g58
NtRp385
(dp386
g61
(dp387
sg70
g372
sg63
(lp388
g56
(g57
g58
NtRp389
(dp390
g61
(dp391
g69
I3
ssg70
g385
sg63
(lp392
S''
asbasbasbag56
(g72
g58
NtRp393
(dp394
g61
(dp395
sg70
g284
sg63
(lp396
g56
(g77
g58
NtRp397
(dp398
g61
(dp399
g81
g82
ssg70
g393
sg63
(lp400
S'path'
p401
asbag56
(g77
g58
NtRp402
(dp403
g61
(dp404
g88
g89
ssg70
g393
sg63
(lp405
S':'
asbag56
(g77
g58
NtRp406
(dp407
g61
(dp408
sg70
g393
sg63
(lp409
g56
(g57
g58
NtRp410
(dp411
g61
(dp412
g69
I3
ssg70
g406
sg63
(lp413
S''
asbasbasbag56
(g72
g58
NtRp414
(dp415
g61
(dp416
sg70
g284
sg63
(lp417
g56
(g77
g58
NtRp418
(dp419
g61
(dp420
g81
g82
ssg70
g414
sg63
(lp421
S'secure'
p422
asbag56
(g77
g58
NtRp423
(dp424
g61
(dp425
g88
g89
ssg70
g414
sg63
(lp426
S':'
asbag56
(g77
g58
NtRp427
(dp428
g61
(dp429
sg70
g414
sg63
(lp430
g56
(g57
g58
NtRp431
(dp432
g61
(dp433
g69
I3
ssg70
g427
sg63
(lp434
S''
asbasbasbag56
(g72
g58
NtRp435
(dp436
g61
(dp437
sg70
g284
sg63
(lp438
g56
(g77
g58
NtRp439
(dp440
g61
(dp441
g81
g82
ssg70
g435
sg63
(lp442
S'version'
p443
asbag56
(g77
g58
NtRp444
(dp445
g61
(dp446
g88
g89
ssg70
g435
sg63
(lp447
S':'
asbag56
(g77
g58
NtRp448
(dp449
g61
(dp450
sg70
g435
sg63
(lp451
g56
(g57
g58
NtRp452
(dp453
g61
(dp454
g69
I3
ssg70
g448
sg63
(lp455
S''
asbasbasbasbasbasbasbag56
(g72
g58
NtRp456
(dp457
g61
(dp458
sg70
g259
sg63
(lp459
g56
(g77
g58
NtRp460
(dp461
g61
(dp462
g81
g82
ssg70
g456
sg63
(lp463
S'session_id_admin'
p464
asbag56
(g77
g58
NtRp465
(dp466
g61
(dp467
g88
g89
ssg70
g456
sg63
(lp468
S':'
asbag56
(g77
g58
NtRp469
(dp470
g61
(dp471
sg70
g456
sg63
(lp472
g56
(g57
g58
NtRp473
(dp474
g61
(dp475
g69
I4
ssg70
g469
sg63
(lp476
g56
(g65
g58
NtRp477
(dp478
g61
(dp479
g69
I3
ssg70
Nsg63
(lp480
g56
(g72
g58
NtRp481
(dp482
g61
(dp483
sg70
g477
sg63
(lp484
g56
(g77
g58
NtRp485
(dp486
g61
(dp487
g81
g82
ssg70
g481
sg63
(lp488
g296
asbag56
(g77
g58
NtRp489
(dp490
g61
(dp491
g88
g89
ssg70
g481
sg63
(lp492
S':'
asbag56
(g77
g58
NtRp493
(dp494
g61
(dp495
sg70
g481
sg63
(lp496
g56
(g57
g58
NtRp497
(dp498
g61
(dp499
g69
I3
ssg70
g493
sg63
(lp500
S''
asbasbasbag56
(g72
g58
NtRp501
(dp502
g61
(dp503
sg70
g477
sg63
(lp504
g56
(g77
g58
NtRp505
(dp506
g61
(dp507
g81
g82
ssg70
g501
sg63
(lp508
g317
asbag56
(g77
g58
NtRp509
(dp510
g61
(dp511
g88
g89
ssg70
g501
sg63
(lp512
S':'
asbag56
(g77
g58
NtRp513
(dp514
g61
(dp515
sg70
g501
sg63
(lp516
g56
(g57
g58
NtRp517
(dp518
g61
(dp519
g69
I3
ssg70
g513
sg63
(lp520
S''
asbasbasbag56
(g72
g58
NtRp521
(dp522
g61
(dp523
sg70
g477
sg63
(lp524
g56
(g77
g58
NtRp525
(dp526
g61
(dp527
g81
g82
ssg70
g521
sg63
(lp528
g338
asbag56
(g77
g58
NtRp529
(dp530
g61
(dp531
g88
g89
ssg70
g521
sg63
(lp532
S':'
asbag56
(g77
g58
NtRp533
(dp534
g61
(dp535
sg70
g521
sg63
(lp536
g56
(g57
g58
NtRp537
(dp538
g61
(dp539
g69
I3
ssg70
g533
sg63
(lp540
S''
asbasbasbag56
(g72
g58
NtRp541
(dp542
g61
(dp543
sg70
g477
sg63
(lp544
g56
(g77
g58
NtRp545
(dp546
g61
(dp547
g81
g82
ssg70
g541
sg63
(lp548
g359
asbag56
(g77
g58
NtRp549
(dp550
g61
(dp551
g88
g89
ssg70
g541
sg63
(lp552
S':'
asbag56
(g77
g58
NtRp553
(dp554
g61
(dp555
sg70
g541
sg63
(lp556
g56
(g57
g58
NtRp557
(dp558
g61
(dp559
g69
I3
ssg70
g553
sg63
(lp560
S''
asbasbasbag56
(g72
g58
NtRp561
(dp562
g61
(dp563
sg70
g477
sg63
(lp564
g56
(g77
g58
NtRp565
(dp566
g61
(dp567
g81
g82
ssg70
g561
sg63
(lp568
g380
asbag56
(g77
g58
NtRp569
(dp570
g61
(dp571
g88
g89
ssg70
g561
sg63
(lp572
S':'
asbag56
(g77
g58
NtRp573
(dp574
g61
(dp575
sg70
g561
sg63
(lp576
g56
(g57
g58
NtRp577
(dp578
g61
(dp579
g69
I3
ssg70
g573
sg63
(lp580
S''
asbasbasbag56
(g72
g58
NtRp581
(dp582
g61
(dp583
sg70
g477
sg63
(lp584
g56
(g77
g58
NtRp585
(dp586
g61
(dp587
g81
g82
ssg70
g581
sg63
(lp588
g401
asbag56
(g77
g58
NtRp589
(dp590
g61
(dp591
g88
g89
ssg70
g581
sg63
(lp592
S':'
asbag56
(g77
g58
NtRp593
(dp594
g61
(dp595
sg70
g581
sg63
(lp596
g56
(g57
g58
NtRp597
(dp598
g61
(dp599
g69
I3
ssg70
g593
sg63
(lp600
S''
asbasbasbag56
(g72
g58
NtRp601
(dp602
g61
(dp603
sg70
g477
sg63
(lp604
g56
(g77
g58
NtRp605
(dp606
g61
(dp607
g81
g82
ssg70
g601
sg63
(lp608
g422
asbag56
(g77
g58
NtRp609
(dp610
g61
(dp611
g88
g89
ssg70
g601
sg63
(lp612
S':'
asbag56
(g77
g58
NtRp613
(dp614
g61
(dp615
sg70
g601
sg63
(lp616
g56
(g57
g58
NtRp617
(dp618
g61
(dp619
g69
I3
ssg70
g613
sg63
(lp620
S''
asbasbasbag56
(g72
g58
NtRp621
(dp622
g61
(dp623
sg70
g477
sg63
(lp624
g56
(g77
g58
NtRp625
(dp626
g61
(dp627
g81
g82
ssg70
g621
sg63
(lp628
g443
asbag56
(g77
g58
NtRp629
(dp630
g61
(dp631
g88
g89
ssg70
g621
sg63
(lp632
S':'
asbag56
(g77
g58
NtRp633
(dp634
g61
(dp635
sg70
g621
sg63
(lp636
g56
(g57
g58
NtRp637
(dp638
g61
(dp639
g69
I3
ssg70
g633
sg63
(lp640
S''
asbasbasbasbasbasbasbag56
(g72
g58
NtRp641
(dp642
g61
(dp643
sg70
g259
sg63
(lp644
g56
(g77
g58
NtRp645
(dp646
g61
(dp647
g81
g82
ssg70
g641
sg63
(lp648
S'session_id_synopsis'
p649
asbag56
(g77
g58
NtRp650
(dp651
g61
(dp652
g88
g89
ssg70
g641
sg63
(lp653
S':'
asbag56
(g77
g58
NtRp654
(dp655
g61
(dp656
sg70
g641
sg63
(lp657
g56
(g57
g58
NtRp658
(dp659
g61
(dp660
g69
I4
ssg70
g654
sg63
(lp661
g56
(g65
g58
NtRp662
(dp663
g61
(dp664
g69
I3
ssg70
Nsg63
(lp665
g56
(g72
g58
NtRp666
(dp667
g61
(dp668
sg70
g662
sg63
(lp669
g56
(g77
g58
NtRp670
(dp671
g61
(dp672
g81
g82
ssg70
g666
sg63
(lp673
g296
asbag56
(g77
g58
NtRp674
(dp675
g61
(dp676
g88
g89
ssg70
g666
sg63
(lp677
S':'
asbag56
(g77
g58
NtRp678
(dp679
g61
(dp680
sg70
g666
sg63
(lp681
g56
(g57
g58
NtRp682
(dp683
g61
(dp684
g69
I3
ssg70
g678
sg63
(lp685
S''
asbasbasbag56
(g72
g58
NtRp686
(dp687
g61
(dp688
sg70
g662
sg63
(lp689
g56
(g77
g58
NtRp690
(dp691
g61
(dp692
g81
g82
ssg70
g686
sg63
(lp693
g317
asbag56
(g77
g58
NtRp694
(dp695
g61
(dp696
g88
g89
ssg70
g686
sg63
(lp697
S':'
asbag56
(g77
g58
NtRp698
(dp699
g61
(dp700
sg70
g686
sg63
(lp701
g56
(g57
g58
NtRp702
(dp703
g61
(dp704
g69
I3
ssg70
g698
sg63
(lp705
S''
asbasbasbag56
(g72
g58
NtRp706
(dp707
g61
(dp708
sg70
g662
sg63
(lp709
g56
(g77
g58
NtRp710
(dp711
g61
(dp712
g81
g82
ssg70
g706
sg63
(lp713
g338
asbag56
(g77
g58
NtRp714
(dp715
g61
(dp716
g88
g89
ssg70
g706
sg63
(lp717
S':'
asbag56
(g77
g58
NtRp718
(dp719
g61
(dp720
sg70
g706
sg63
(lp721
g56
(g57
g58
NtRp722
(dp723
g61
(dp724
g69
I3
ssg70
g718
sg63
(lp725
S''
asbasbasbag56
(g72
g58
NtRp726
(dp727
g61
(dp728
sg70
g662
sg63
(lp729
g56
(g77
g58
NtRp730
(dp731
g61
(dp732
g81
g82
ssg70
g726
sg63
(lp733
g359
asbag56
(g77
g58
NtRp734
(dp735
g61
(dp736
g88
g89
ssg70
g726
sg63
(lp737
S':'
asbag56
(g77
g58
NtRp738
(dp739
g61
(dp740
sg70
g726
sg63
(lp741
g56
(g57
g58
NtRp742
(dp743
g61
(dp744
g69
I3
ssg70
g738
sg63
(lp745
S''
asbasbasbag56
(g72
g58
NtRp746
(dp747
g61
(dp748
sg70
g662
sg63
(lp749
g56
(g77
g58
NtRp750
(dp751
g61
(dp752
g81
g82
ssg70
g746
sg63
(lp753
g380
asbag56
(g77
g58
NtRp754
(dp755
g61
(dp756
g88
g89
ssg70
g746
sg63
(lp757
S':'
asbag56
(g77
g58
NtRp758
(dp759
g61
(dp760
sg70
g746
sg63
(lp761
g56
(g57
g58
NtRp762
(dp763
g61
(dp764
g69
I3
ssg70
g758
sg63
(lp765
S''
asbasbasbag56
(g72
g58
NtRp766
(dp767
g61
(dp768
sg70
g662
sg63
(lp769
g56
(g77
g58
NtRp770
(dp771
g61
(dp772
g81
g82
ssg70
g766
sg63
(lp773
g401
asbag56
(g77
g58
NtRp774
(dp775
g61
(dp776
g88
g89
ssg70
g766
sg63
(lp777
S':'
asbag56
(g77
g58
NtRp778
(dp779
g61
(dp780
sg70
g766
sg63
(lp781
g56
(g57
g58
NtRp782
(dp783
g61
(dp784
g69
I3
ssg70
g778
sg63
(lp785
S''
asbasbasbag56
(g72
g58
NtRp786
(dp787
g61
(dp788
sg70
g662
sg63
(lp789
g56
(g77
g58
NtRp790
(dp791
g61
(dp792
g81
g82
ssg70
g786
sg63
(lp793
g422
asbag56
(g77
g58
NtRp794
(dp795
g61
(dp796
g88
g89
ssg70
g786
sg63
(lp797
S':'
asbag56
(g77
g58
NtRp798
(dp799
g61
(dp800
sg70
g786
sg63
(lp801
g56
(g57
g58
NtRp802
(dp803
g61
(dp804
g69
I3
ssg70
g798
sg63
(lp805
S''
asbasbasbag56
(g72
g58
NtRp806
(dp807
g61
(dp808
sg70
g662
sg63
(lp809
g56
(g77
g58
NtRp810
(dp811
g61
(dp812
g81
g82
ssg70
g806
sg63
(lp813
g443
asbag56
(g77
g58
NtRp814
(dp815
g61
(dp816
g88
g89
ssg70
g806
sg63
(lp817
S':'
asbag56
(g77
g58
NtRp818
(dp819
g61
(dp820
sg70
g806
sg63
(lp821
g56
(g57
g58
NtRp822
(dp823
g61
(dp824
g69
I3
ssg70
g818
sg63
(lp825
S''
asbasbasbasbasbasbasbag56
(g72
g58
NtRp826
(dp827
g61
(dp828
sg70
g259
sg63
(lp829
g56
(g77
g58
NtRp830
(dp831
g61
(dp832
g81
g82
ssg70
g826
sg63
(lp833
S'session_id_welcome'
p834
asbag56
(g77
g58
NtRp835
(dp836
g61
(dp837
g88
g89
ssg70
g826
sg63
(lp838
S':'
asbag56
(g77
g58
NtRp839
(dp840
g61
(dp841
sg70
g826
sg63
(lp842
g56
(g57
g58
NtRp843
(dp844
g61
(dp845
g69
I4
ssg70
g839
sg63
(lp846
g56
(g65
g58
NtRp847
(dp848
g61
(dp849
g69
I3
ssg70
Nsg63
(lp850
g56
(g72
g58
NtRp851
(dp852
g61
(dp853
sg70
g847
sg63
(lp854
g56
(g77
g58
NtRp855
(dp856
g61
(dp857
g81
g82
ssg70
g851
sg63
(lp858
g296
asbag56
(g77
g58
NtRp859
(dp860
g61
(dp861
g88
g89
ssg70
g851
sg63
(lp862
S':'
asbag56
(g77
g58
NtRp863
(dp864
g61
(dp865
sg70
g851
sg63
(lp866
g56
(g57
g58
NtRp867
(dp868
g61
(dp869
g69
I3
ssg70
g863
sg63
(lp870
S''
asbasbasbag56
(g72
g58
NtRp871
(dp872
g61
(dp873
sg70
g847
sg63
(lp874
g56
(g77
g58
NtRp875
(dp876
g61
(dp877
g81
g82
ssg70
g871
sg63
(lp878
g317
asbag56
(g77
g58
NtRp879
(dp880
g61
(dp881
g88
g89
ssg70
g871
sg63
(lp882
S':'
asbag56
(g77
g58
NtRp883
(dp884
g61
(dp885
sg70
g871
sg63
(lp886
g56
(g57
g58
NtRp887
(dp888
g61
(dp889
g69
I3
ssg70
g883
sg63
(lp890
S''
asbasbasbag56
(g72
g58
NtRp891
(dp892
g61
(dp893
sg70
g847
sg63
(lp894
g56
(g77
g58
NtRp895
(dp896
g61
(dp897
g81
g82
ssg70
g891
sg63
(lp898
g338
asbag56
(g77
g58
NtRp899
(dp900
g61
(dp901
g88
g89
ssg70
g891
sg63
(lp902
S':'
asbag56
(g77
g58
NtRp903
(dp904
g61
(dp905
sg70
g891
sg63
(lp906
g56
(g57
g58
NtRp907
(dp908
g61
(dp909
g69
I3
ssg70
g903
sg63
(lp910
S''
asbasbasbag56
(g72
g58
NtRp911
(dp912
g61
(dp913
sg70
g847
sg63
(lp914
g56
(g77
g58
NtRp915
(dp916
g61
(dp917
g81
g82
ssg70
g911
sg63
(lp918
g359
asbag56
(g77
g58
NtRp919
(dp920
g61
(dp921
g88
g89
ssg70
g911
sg63
(lp922
S':'
asbag56
(g77
g58
NtRp923
(dp924
g61
(dp925
sg70
g911
sg63
(lp926
g56
(g57
g58
NtRp927
(dp928
g61
(dp929
g69
I3
ssg70
g923
sg63
(lp930
S''
asbasbasbag56
(g72
g58
NtRp931
(dp932
g61
(dp933
sg70
g847
sg63
(lp934
g56
(g77
g58
NtRp935
(dp936
g61
(dp937
g81
g82
ssg70
g931
sg63
(lp938
g380
asbag56
(g77
g58
NtRp939
(dp940
g61
(dp941
g88
g89
ssg70
g931
sg63
(lp942
S':'
asbag56
(g77
g58
NtRp943
(dp944
g61
(dp945
sg70
g931
sg63
(lp946
g56
(g57
g58
NtRp947
(dp948
g61
(dp949
g69
I3
ssg70
g943
sg63
(lp950
S''
asbasbasbag56
(g72
g58
NtRp951
(dp952
g61
(dp953
sg70
g847
sg63
(lp954
g56
(g77
g58
NtRp955
(dp956
g61
(dp957
g81
g82
ssg70
g951
sg63
(lp958
g401
asbag56
(g77
g58
NtRp959
(dp960
g61
(dp961
g88
g89
ssg70
g951
sg63
(lp962
S':'
asbag56
(g77
g58
NtRp963
(dp964
g61
(dp965
sg70
g951
sg63
(lp966
g56
(g57
g58
NtRp967
(dp968
g61
(dp969
g69
I3
ssg70
g963
sg63
(lp970
S''
asbasbasbag56
(g72
g58
NtRp971
(dp972
g61
(dp973
sg70
g847
sg63
(lp974
g56
(g77
g58
NtRp975
(dp976
g61
(dp977
g81
g82
ssg70
g971
sg63
(lp978
g422
asbag56
(g77
g58
NtRp979
(dp980
g61
(dp981
g88
g89
ssg70
g971
sg63
(lp982
S':'
asbag56
(g77
g58
NtRp983
(dp984
g61
(dp985
sg70
g971
sg63
(lp986
g56
(g57
g58
NtRp987
(dp988
g61
(dp989
g69
I3
ssg70
g983
sg63
(lp990
S''
asbasbasbag56
(g72
g58
NtRp991
(dp992
g61
(dp993
sg70
g847
sg63
(lp994
g56
(g77
g58
NtRp995
(dp996
g61
(dp997
g81
g82
ssg70
g991
sg63
(lp998
g443
asbag56
(g77
g58
NtRp999
(dp1000
g61
(dp1001
g88
g89
ssg70
g991
sg63
(lp1002
S':'
asbag56
(g77
g58
NtRp1003
(dp1004
g61
(dp1005
sg70
g991
sg63
(lp1006
g56
(g57
g58
NtRp1007
(dp1008
g61
(dp1009
g69
I3
ssg70
g1003
sg63
(lp1010
S''
asbasbasbasbasbasbasbasbasbasbasbag56
(g72
g58
NtRp1011
(dp1012
g61
(dp1013
sg70
g66
sg63
(lp1014
g56
(g77
g58
NtRp1015
(dp1016
g61
(dp1017
g81
g82
ssg70
g1011
sg63
(lp1018
S'env'
p1019
asbag56
(g77
g58
NtRp1020
(dp1021
g61
(dp1022
g88
g89
ssg70
g1011
sg63
(lp1023
S':'
asbag56
(g77
g58
NtRp1024
(dp1025
g61
(dp1026
sg70
g1011
sg63
(lp1027
g56
(g57
g58
NtRp1028
(dp1029
g61
(dp1030
g69
I5
ssg70
g1024
sg63
(lp1031
g56
(g65
g58
NtRp1032
(dp1033
g61
(dp1034
g69
I4
ssg70
Nsg63
(lp1035
g56
(g72
g58
NtRp1036
(dp1037
g61
(dp1038
sg70
g1032
sg63
(lp1039
g56
(g77
g58
NtRp1040
(dp1041
g61
(dp1042
g81
g82
ssg70
g1036
sg63
(lp1043
S'app_folders'
p1044
asbag56
(g77
g58
NtRp1045
(dp1046
g61
(dp1047
g88
g89
ssg70
g1036
sg63
(lp1048
S':'
asbag56
(g77
g58
NtRp1049
(dp1050
g61
(dp1051
sg70
g1036
sg63
(lp1052
g56
(g57
g58
NtRp1053
(dp1054
g61
(dp1055
g69
I4
ssg70
g1049
sg63
(lp1056
S"set(['/home/kaique/Projects/web2py/applications/welcome/', '/home/kaique/Projects/web2py/applications/admin/', '/home/kaique/Projects/web2py/applications/synopsis/'])"
p1057
asbasbasbag56
(g72
g58
NtRp1058
(dp1059
g61
(dp1060
sg70
g1032
sg63
(lp1061
g56
(g77
g58
NtRp1062
(dp1063
g61
(dp1064
g81
g82
ssg70
g1058
sg63
(lp1065
S'applications_parent'
p1066
asbag56
(g77
g58
NtRp1067
(dp1068
g61
(dp1069
g88
g89
ssg70
g1058
sg63
(lp1070
S':'
asbag56
(g77
g58
NtRp1071
(dp1072
g61
(dp1073
sg70
g1058
sg63
(lp1074
g56
(g57
g58
NtRp1075
(dp1076
g61
(dp1077
g69
I4
ssg70
g1071
sg63
(lp1078
S'/home/kaique/Projects/web2py'
p1079
asbasbasbag56
(g72
g58
NtRp1080
(dp1081
g61
(dp1082
sg70
g1032
sg63
(lp1083
g56
(g77
g58
NtRp1084
(dp1085
g61
(dp1086
g81
g82
ssg70
g1080
sg63
(lp1087
S'cmd_args'
p1088
asbag56
(g77
g58
NtRp1089
(dp1090
g61
(dp1091
g88
g89
ssg70
g1080
sg63
(lp1092
S':'
asbag56
(g77
g58
NtRp1093
(dp1094
g61
(dp1095
sg70
g1080
sg63
(lp1096
g56
(g57
g58
NtRp1097
(dp1098
g61
(dp1099
g69
I4
ssg70
g1093
sg63
(lp1100
g56
(g65
g58
NtRp1101
(dp1102
g61
(dp1103
g69
I3
ssg70
Nsg63
(lp1104
sbasbasbasbag56
(g72
g58
NtRp1105
(dp1106
g61
(dp1107
sg70
g1032
sg63
(lp1108
g56
(g77
g58
NtRp1109
(dp1110
g61
(dp1111
g81
g82
ssg70
g1105
sg63
(lp1112
S'cmd_options'
p1113
asbag56
(g77
g58
NtRp1114
(dp1115
g61
(dp1116
g88
g89
ssg70
g1105
sg63
(lp1117
S':'
asbag56
(g77
g58
NtRp1118
(dp1119
g61
(dp1120
sg70
g1105
sg63
(lp1121
g56
(g57
g58
NtRp1122
(dp1123
g61
(dp1124
g69
I4
ssg70
g1118
sg63
(lp1125
S"<Values at 0x2005998: {'verbose': False, 'ip': '127.0.0.1', 'shutdown_timeout': 5, 'taskbar': False, 'nocron': False, 'pid_filename': 'httpserver.pid', 'maxthreads': None, 'softcron': False, 'server_name': 'kaique-Pine-Trail-M', 'bpython': False, 'nogui': False, 'port': 8000, 'extcron': False, 'debuglevel': 30, 'test': None, 'folder': '/home/kaique/Projects/web2py', 'config': '', 'import_models': False, 'winservice': '', 'shell': None, 'run': '', 'log_filename': 'httpserver.log', 'args': [''], 'ssl_ca_certificate': None, 'scheduler': None, 'profiler_filename': None, 'ssl_private_key': '', 'password': 'dev', 'request_queue_size': 5, 'ssl_certificate': '', 'cronjob': False, 'plain': False, 'quiet': False, 'interfaces': None, 'minthreads': None, 'timeout': 10, 'numthreads': None, 'nobanner': False}>"
p1126
asbasbasbag56
(g72
g58
NtRp1127
(dp1128
g61
(dp1129
sg70
g1032
sg63
(lp1130
g56
(g77
g58
NtRp1131
(dp1132
g61
(dp1133
g81
g82
ssg70
g1127
sg63
(lp1134
S'db_sessions'
p1135
asbag56
(g77
g58
NtRp1136
(dp1137
g61
(dp1138
g88
g89
ssg70
g1127
sg63
(lp1139
S':'
asbag56
(g77
g58
NtRp1140
(dp1141
g61
(dp1142
sg70
g1127
sg63
(lp1143
g56
(g57
g58
NtRp1144
(dp1145
g61
(dp1146
g69
I4
ssg70
g1140
sg63
(lp1147
S'set([])'
p1148
asbasbasbag56
(g72
g58
NtRp1149
(dp1150
g61
(dp1151
sg70
g1032
sg63
(lp1152
g56
(g77
g58
NtRp1153
(dp1154
g61
(dp1155
g81
g82
ssg70
g1149
sg63
(lp1156
S'debugging'
p1157
asbag56
(g77
g58
NtRp1158
(dp1159
g61
(dp1160
g88
g89
ssg70
g1149
sg63
(lp1161
S':'
asbag56
(g77
g58
NtRp1162
(dp1163
g61
(dp1164
sg70
g1149
sg63
(lp1165
g56
(g57
g58
NtRp1166
(dp1167
g61
(dp1168
g69
I4
ssg70
g1162
sg63
(lp1169
g99
asbasbasbag56
(g72
g58
NtRp1170
(dp1171
g61
(dp1172
sg70
g1032
sg63
(lp1173
g56
(g77
g58
NtRp1174
(dp1175
g61
(dp1176
g81
g82
ssg70
g1170
sg63
(lp1177
S'gluon_parent'
p1178
asbag56
(g77
g58
NtRp1179
(dp1180
g61
(dp1181
g88
g89
ssg70
g1170
sg63
(lp1182
S':'
asbag56
(g77
g58
NtRp1183
(dp1184
g61
(dp1185
sg70
g1170
sg63
(lp1186
g56
(g57
g58
NtRp1187
(dp1188
g61
(dp1189
g69
I4
ssg70
g1183
sg63
(lp1190
S'/home/kaique/Projects/web2py'
p1191
asbasbasbag56
(g72
g58
NtRp1192
(dp1193
g61
(dp1194
sg70
g1032
sg63
(lp1195
g56
(g77
g58
NtRp1196
(dp1197
g61
(dp1198
g81
g82
ssg70
g1192
sg63
(lp1199
S'http_accept'
p1200
asbag56
(g77
g58
NtRp1201
(dp1202
g61
(dp1203
g88
g89
ssg70
g1192
sg63
(lp1204
S':'
asbag56
(g77
g58
NtRp1205
(dp1206
g61
(dp1207
sg70
g1192
sg63
(lp1208
g56
(g57
g58
NtRp1209
(dp1210
g61
(dp1211
g69
I4
ssg70
g1205
sg63
(lp1212
S'text/html,application/xhtml+xml,application/xml;q=0.9,*/*;q=0.8'
p1213
asbasbasbag56
(g72
g58
NtRp1214
(dp1215
g61
(dp1216
sg70
g1032
sg63
(lp1217
g56
(g77
g58
NtRp1218
(dp1219
g61
(dp1220
g81
g82
ssg70
g1214
sg63
(lp1221
S'http_accept_charset'
p1222
asbag56
(g77
g58
NtRp1223
(dp1224
g61
(dp1225
g88
g89
ssg70
g1214
sg63
(lp1226
S':'
asbag56
(g77
g58
NtRp1227
(dp1228
g61
(dp1229
sg70
g1214
sg63
(lp1230
g56
(g57
g58
NtRp1231
(dp1232
g61
(dp1233
g69
I4
ssg70
g1227
sg63
(lp1234
S'UTF-8,*;q=0.5'
p1235
asbasbasbag56
(g72
g58
NtRp1236
(dp1237
g61
(dp1238
sg70
g1032
sg63
(lp1239
g56
(g77
g58
NtRp1240
(dp1241
g61
(dp1242
g81
g82
ssg70
g1236
sg63
(lp1243
S'http_accept_encoding'
p1244
asbag56
(g77
g58
NtRp1245
(dp1246
g61
(dp1247
g88
g89
ssg70
g1236
sg63
(lp1248
S':'
asbag56
(g77
g58
NtRp1249
(dp1250
g61
(dp1251
sg70
g1236
sg63
(lp1252
g56
(g57
g58
NtRp1253
(dp1254
g61
(dp1255
g69
I4
ssg70
g1249
sg63
(lp1256
S'gzip,deflate,sdch'
p1257
asbasbasbag56
(g72
g58
NtRp1258
(dp1259
g61
(dp1260
sg70
g1032
sg63
(lp1261
g56
(g77
g58
NtRp1262
(dp1263
g61
(dp1264
g81
g82
ssg70
g1258
sg63
(lp1265
S'http_accept_language'
p1266
asbag56
(g77
g58
NtRp1267
(dp1268
g61
(dp1269
g88
g89
ssg70
g1258
sg63
(lp1270
S':'
asbag56
(g77
g58
NtRp1271
(dp1272
g61
(dp1273
sg70
g1258
sg63
(lp1274
g56
(g57
g58
NtRp1275
(dp1276
g61
(dp1277
g69
I4
ssg70
g1271
sg63
(lp1278
S'pt-BR,pt;q=0.8,en-US;q=0.6,en;q=0.4'
p1279
asbasbasbag56
(g72
g58
NtRp1280
(dp1281
g61
(dp1282
sg70
g1032
sg63
(lp1283
g56
(g77
g58
NtRp1284
(dp1285
g61
(dp1286
g81
g82
ssg70
g1280
sg63
(lp1287
S'http_cache_control'
p1288
asbag56
(g77
g58
NtRp1289
(dp1290
g61
(dp1291
g88
g89
ssg70
g1280
sg63
(lp1292
S':'
asbag56
(g77
g58
NtRp1293
(dp1294
g61
(dp1295
sg70
g1280
sg63
(lp1296
g56
(g57
g58
NtRp1297
(dp1298
g61
(dp1299
g69
I4
ssg70
g1293
sg63
(lp1300
S'max-age=0'
p1301
asbasbasbag56
(g72
g58
NtRp1302
(dp1303
g61
(dp1304
sg70
g1032
sg63
(lp1305
g56
(g77
g58
NtRp1306
(dp1307
g61
(dp1308
g81
g82
ssg70
g1302
sg63
(lp1309
S'http_connection'
p1310
asbag56
(g77
g58
NtRp1311
(dp1312
g61
(dp1313
g88
g89
ssg70
g1302
sg63
(lp1314
S':'
asbag56
(g77
g58
NtRp1315
(dp1316
g61
(dp1317
sg70
g1302
sg63
(lp1318
g56
(g57
g58
NtRp1319
(dp1320
g61
(dp1321
g69
I4
ssg70
g1315
sg63
(lp1322
S'keep-alive'
p1323
asbasbasbag56
(g72
g58
NtRp1324
(dp1325
g61
(dp1326
sg70
g1032
sg63
(lp1327
g56
(g77
g58
NtRp1328
(dp1329
g61
(dp1330
g81
g82
ssg70
g1324
sg63
(lp1331
S'http_cookie'
p1332
asbag56
(g77
g58
NtRp1333
(dp1334
g61
(dp1335
g88
g89
ssg70
g1324
sg63
(lp1336
S':'
asbag56
(g77
g58
NtRp1337
(dp1338
g61
(dp1339
sg70
g1324
sg63
(lp1340
g56
(g57
g58
NtRp1341
(dp1342
g61
(dp1343
g69
I4
ssg70
g1337
sg63
(lp1344
S'session_id_welcome=127.0.0.1-aa6c8b16-1c1c-4a37-91a3-1632032a30a4; session_id_admin=127.0.0.1-79041277-f1a7-4d1d-997b-a25f6cc2b363; arp_scroll_position=525; session_id_synopsis=127.0.0.1-e40e1056-0c97-4101-beca-f6fff517534b'
p1345
asbasbasbag56
(g72
g58
NtRp1346
(dp1347
g61
(dp1348
sg70
g1032
sg63
(lp1349
g56
(g77
g58
NtRp1350
(dp1351
g61
(dp1352
g81
g82
ssg70
g1346
sg63
(lp1353
S'http_host'
p1354
asbag56
(g77
g58
NtRp1355
(dp1356
g61
(dp1357
g88
g89
ssg70
g1346
sg63
(lp1358
S':'
asbag56
(g77
g58
NtRp1359
(dp1360
g61
(dp1361
sg70
g1346
sg63
(lp1362
g56
(g57
g58
NtRp1363
(dp1364
g61
(dp1365
g69
I4
ssg70
g1359
sg63
(lp1366
S'127.0.0.1:8000'
p1367
asbasbasbag56
(g72
g58
NtRp1368
(dp1369
g61
(dp1370
sg70
g1032
sg63
(lp1371
g56
(g77
g58
NtRp1372
(dp1373
g61
(dp1374
g81
g82
ssg70
g1368
sg63
(lp1375
S'http_referer'
p1376
asbag56
(g77
g58
NtRp1377
(dp1378
g61
(dp1379
g88
g89
ssg70
g1368
sg63
(lp1380
S':'
asbag56
(g77
g58
NtRp1381
(dp1382
g61
(dp1383
sg70
g1368
sg63
(lp1384
g56
(g57
g58
NtRp1385
(dp1386
g61
(dp1387
g69
I4
ssg70
g1381
sg63
(lp1388
S'http://127.0.0.1:8000/synopsis/appadmin/index'
p1389
asbasbasbag56
(g72
g58
NtRp1390
(dp1391
g61
(dp1392
sg70
g1032
sg63
(lp1393
g56
(g77
g58
NtRp1394
(dp1395
g61
(dp1396
g81
g82
ssg70
g1390
sg63
(lp1397
S'http_user_agent'
p1398
asbag56
(g77
g58
NtRp1399
(dp1400
g61
(dp1401
g88
g89
ssg70
g1390
sg63
(lp1402
S':'
asbag56
(g77
g58
NtRp1403
(dp1404
g61
(dp1405
sg70
g1390
sg63
(lp1406
g56
(g57
g58
NtRp1407
(dp1408
g61
(dp1409
g69
I4
ssg70
g1403
sg63
(lp1410
S'Mozilla/5.0 (X11; Linux x86_64) AppleWebKit/535.7 (KHTML, like Gecko) Chrome/16.0.912.75 Safari/535.7'
p1411
asbasbasbag56
(g72
g58
NtRp1412
(dp1413
g61
(dp1414
sg70
g1032
sg63
(lp1415
g56
(g77
g58
NtRp1416
(dp1417
g61
(dp1418
g81
g82
ssg70
g1412
sg63
(lp1419
S'is_jython'
p1420
asbag56
(g77
g58
NtRp1421
(dp1422
g61
(dp1423
g88
g89
ssg70
g1412
sg63
(lp1424
S':'
asbag56
(g77
g58
NtRp1425
(dp1426
g61
(dp1427
sg70
g1412
sg63
(lp1428
g56
(g57
g58
NtRp1429
(dp1430
g61
(dp1431
g69
I4
ssg70
g1425
sg63
(lp1432
g99
asbasbasbag56
(g72
g58
NtRp1433
(dp1434
g61
(dp1435
sg70
g1032
sg63
(lp1436
g56
(g77
g58
NtRp1437
(dp1438
g61
(dp1439
g81
g82
ssg70
g1433
sg63
(lp1440
S'path_info'
p1441
asbag56
(g77
g58
NtRp1442
(dp1443
g61
(dp1444
g88
g89
ssg70
g1433
sg63
(lp1445
S':'
asbag56
(g77
g58
NtRp1446
(dp1447
g61
(dp1448
sg70
g1433
sg63
(lp1449
g56
(g57
g58
NtRp1450
(dp1451
g61
(dp1452
g69
I4
ssg70
g1446
sg63
(lp1453
S'/synopsis/appadmin/insert/db/column'
p1454
asbasbasbag56
(g72
g58
NtRp1455
(dp1456
g61
(dp1457
sg70
g1032
sg63
(lp1458
g56
(g77
g58
NtRp1459
(dp1460
g61
(dp1461
g81
g82
ssg70
g1455
sg63
(lp1462
S'query_string'
p1463
asbag56
(g77
g58
NtRp1464
(dp1465
g61
(dp1466
g88
g89
ssg70
g1455
sg63
(lp1467
S':'
asbag56
(g77
g58
NtRp1468
(dp1469
g61
(dp1470
sg70
g1455
sg63
(lp1471
g56
(g57
g58
NtRp1472
(dp1473
g61
(dp1474
g69
I4
ssg70
g1468
sg63
(lp1475
S''
asbasbasbag56
(g72
g58
NtRp1476
(dp1477
g61
(dp1478
sg70
g1032
sg63
(lp1479
g56
(g77
g58
NtRp1480
(dp1481
g61
(dp1482
g81
g82
ssg70
g1476
sg63
(lp1483
S'remote_addr'
p1484
asbag56
(g77
g58
NtRp1485
(dp1486
g61
(dp1487
g88
g89
ssg70
g1476
sg63
(lp1488
S':'
asbag56
(g77
g58
NtRp1489
(dp1490
g61
(dp1491
sg70
g1476
sg63
(lp1492
g56
(g57
g58
NtRp1493
(dp1494
g61
(dp1495
g69
I4
ssg70
g1489
sg63
(lp1496
g215
asbasbasbag56
(g72
g58
NtRp1497
(dp1498
g61
(dp1499
sg70
g1032
sg63
(lp1500
g56
(g77
g58
NtRp1501
(dp1502
g61
(dp1503
g81
g82
ssg70
g1497
sg63
(lp1504
S'remote_port'
p1505
asbag56
(g77
g58
NtRp1506
(dp1507
g61
(dp1508
g88
g89
ssg70
g1497
sg63
(lp1509
S':'
asbag56
(g77
g58
NtRp1510
(dp1511
g61
(dp1512
sg70
g1497
sg63
(lp1513
g56
(g57
g58
NtRp1514
(dp1515
g61
(dp1516
g69
I4
ssg70
g1510
sg63
(lp1517
S'49250'
p1518
asbasbasbag56
(g72
g58
NtRp1519
(dp1520
g61
(dp1521
sg70
g1032
sg63
(lp1522
g56
(g77
g58
NtRp1523
(dp1524
g61
(dp1525
g81
g82
ssg70
g1519
sg63
(lp1526
S'request_method'
p1527
asbag56
(g77
g58
NtRp1528
(dp1529
g61
(dp1530
g88
g89
ssg70
g1519
sg63
(lp1531
S':'
asbag56
(g77
g58
NtRp1532
(dp1533
g61
(dp1534
sg70
g1519
sg63
(lp1535
g56
(g57
g58
NtRp1536
(dp1537
g61
(dp1538
g69
I4
ssg70
g1532
sg63
(lp1539
S'GET'
p1540
asbasbasbag56
(g72
g58
NtRp1541
(dp1542
g61
(dp1543
sg70
g1032
sg63
(lp1544
g56
(g77
g58
NtRp1545
(dp1546
g61
(dp1547
g81
g82
ssg70
g1541
sg63
(lp1548
S'script_name'
p1549
asbag56
(g77
g58
NtRp1550
(dp1551
g61
(dp1552
g88
g89
ssg70
g1541
sg63
(lp1553
S':'
asbag56
(g77
g58
NtRp1554
(dp1555
g61
(dp1556
sg70
g1541
sg63
(lp1557
g56
(g57
g58
NtRp1558
(dp1559
g61
(dp1560
g69
I4
ssg70
g1554
sg63
(lp1561
S''
asbasbasbag56
(g72
g58
NtRp1562
(dp1563
g61
(dp1564
sg70
g1032
sg63
(lp1565
g56
(g77
g58
NtRp1566
(dp1567
g61
(dp1568
g81
g82
ssg70
g1562
sg63
(lp1569
S'server_name'
p1570
asbag56
(g77
g58
NtRp1571
(dp1572
g61
(dp1573
g88
g89
ssg70
g1562
sg63
(lp1574
S':'
asbag56
(g77
g58
NtRp1575
(dp1576
g61
(dp1577
sg70
g1562
sg63
(lp1578
g56
(g57
g58
NtRp1579
(dp1580
g61
(dp1581
g69
I4
ssg70
g1575
sg63
(lp1582
S'kaique-Pine-Trail-M'
p1583
asbasbasbag56
(g72
g58
NtRp1584
(dp1585
g61
(dp1586
sg70
g1032
sg63
(lp1587
g56
(g77
g58
NtRp1588
(dp1589
g61
(dp1590
g81
g82
ssg70
g1584
sg63
(lp1591
S'server_port'
p1592
asbag56
(g77
g58
NtRp1593
(dp1594
g61
(dp1595
g88
g89
ssg70
g1584
sg63
(lp1596
S':'
asbag56
(g77
g58
NtRp1597
(dp1598
g61
(dp1599
sg70
g1584
sg63
(lp1600
g56
(g57
g58
NtRp1601
(dp1602
g61
(dp1603
g69
I4
ssg70
g1597
sg63
(lp1604
S'8000'
p1605
asbasbasbag56
(g72
g58
NtRp1606
(dp1607
g61
(dp1608
sg70
g1032
sg63
(lp1609
g56
(g77
g58
NtRp1610
(dp1611
g61
(dp1612
g81
g82
ssg70
g1606
sg63
(lp1613
S'server_protocol'
p1614
asbag56
(g77
g58
NtRp1615
(dp1616
g61
(dp1617
g88
g89
ssg70
g1606
sg63
(lp1618
S':'
asbag56
(g77
g58
NtRp1619
(dp1620
g61
(dp1621
sg70
g1606
sg63
(lp1622
g56
(g57
g58
NtRp1623
(dp1624
g61
(dp1625
g69
I4
ssg70
g1619
sg63
(lp1626
S'HTTP/1.1'
p1627
asbasbasbag56
(g72
g58
NtRp1628
(dp1629
g61
(dp1630
sg70
g1032
sg63
(lp1631
g56
(g77
g58
NtRp1632
(dp1633
g61
(dp1634
g81
g82
ssg70
g1628
sg63
(lp1635
S'server_software'
p1636
asbag56
(g77
g58
NtRp1637
(dp1638
g61
(dp1639
g88
g89
ssg70
g1628
sg63
(lp1640
S':'
asbag56
(g77
g58
NtRp1641
(dp1642
g61
(dp1643
sg70
g1628
sg63
(lp1644
g56
(g57
g58
NtRp1645
(dp1646
g61
(dp1647
g69
I4
ssg70
g1641
sg63
(lp1648
S'Rocket 1.2.4'
p1649
asbasbasbag56
(g72
g58
NtRp1650
(dp1651
g61
(dp1652
sg70
g1032
sg63
(lp1653
g56
(g77
g58
NtRp1654
(dp1655
g61
(dp1656
g81
g82
ssg70
g1650
sg63
(lp1657
S'web2py_crontype'
p1658
asbag56
(g77
g58
NtRp1659
(dp1660
g61
(dp1661
g88
g89
ssg70
g1650
sg63
(lp1662
S':'
asbag56
(g77
g58
NtRp1663
(dp1664
g61
(dp1665
sg70
g1650
sg63
(lp1666
g56
(g57
g58
NtRp1667
(dp1668
g61
(dp1669
g69
I4
ssg70
g1663
sg63
(lp1670
S'hard'
p1671
asbasbasbag56
(g72
g58
NtRp1672
(dp1673
g61
(dp1674
sg70
g1032
sg63
(lp1675
g56
(g77
g58
NtRp1676
(dp1677
g61
(dp1678
g81
g82
ssg70
g1672
sg63
(lp1679
S'web2py_path'
p1680
asbag56
(g77
g58
NtRp1681
(dp1682
g61
(dp1683
g88
g89
ssg70
g1672
sg63
(lp1684
S':'
asbag56
(g77
g58
NtRp1685
(dp1686
g61
(dp1687
sg70
g1672
sg63
(lp1688
g56
(g57
g58
NtRp1689
(dp1690
g61
(dp1691
g69
I4
ssg70
g1685
sg63
(lp1692
g1079
asbasbasbag56
(g72
g58
NtRp1693
(dp1694
g61
(dp1695
sg70
g1032
sg63
(lp1696
g56
(g77
g58
NtRp1697
(dp1698
g61
(dp1699
g81
g82
ssg70
g1693
sg63
(lp1700
S'web2py_version'
p1701
asbag56
(g77
g58
NtRp1702
(dp1703
g61
(dp1704
g88
g89
ssg70
g1693
sg63
(lp1705
S':'
asbag56
(g77
g58
NtRp1706
(dp1707
g61
(dp1708
sg70
g1693
sg63
(lp1709
g56
(g57
g58
NtRp1710
(dp1711
g61
(dp1712
g69
I4
ssg70
g1706
sg63
(lp1713
g56
(g65
g58
NtRp1714
(dp1715
g61
(dp1716
g69
I3
ssg70
Nsg63
(lp1717
g56
(g72
g58
NtRp1718
(dp1719
g61
(dp1720
sg70
g1714
sg63
(lp1721
g56
(g77
g58
NtRp1722
(dp1723
g61
(dp1724
sg70
g1718
sg63
(lp1725
g56
(g57
g58
NtRp1726
(dp1727
g61
(dp1728
g69
I3
ssg70
g1722
sg63
(lp1729
S'1'
asbasbasbag56
(g72
g58
NtRp1730
(dp1731
g61
(dp1732
sg70
g1714
sg63
(lp1733
g56
(g77
g58
NtRp1734
(dp1735
g61
(dp1736
sg70
g1730
sg63
(lp1737
g56
(g57
g58
NtRp1738
(dp1739
g61
(dp1740
g69
I3
ssg70
g1734
sg63
(lp1741
S'99'
p1742
asbasbasbag56
(g72
g58
NtRp1743
(dp1744
g61
(dp1745
sg70
g1714
sg63
(lp1746
g56
(g77
g58
NtRp1747
(dp1748
g61
(dp1749
sg70
g1743
sg63
(lp1750
g56
(g57
g58
NtRp1751
(dp1752
g61
(dp1753
g69
I3
ssg70
g1747
sg63
(lp1754
S'2'
asbasbasbag56
(g72
g58
NtRp1755
(dp1756
g61
(dp1757
sg70
g1714
sg63
(lp1758
g56
(g77
g58
NtRp1759
(dp1760
g61
(dp1761
sg70
g1755
sg63
(lp1762
g56
(g57
g58
NtRp1763
(dp1764
g61
(dp1765
g69
I3
ssg70
g1759
sg63
(lp1766
S'datetime.datetime(2011, 9, 26, 6, 55, 33)'
p1767
asbasbasbag56
(g72
g58
NtRp1768
(dp1769
g61
(dp1770
sg70
g1714
sg63
(lp1771
g56
(g77
g58
NtRp1772
(dp1773
g61
(dp1774
sg70
g1768
sg63
(lp1775
g56
(g57
g58
NtRp1776
(dp1777
g61
(dp1778
g69
I3
ssg70
g1772
sg63
(lp1779
S'stable'
p1780
asbasbasbasbasbasbasbag56
(g72
g58
NtRp1781
(dp1782
g61
(dp1783
sg70
g1032
sg63
(lp1784
g56
(g77
g58
NtRp1785
(dp1786
g61
(dp1787
g81
g82
ssg70
g1781
sg63
(lp1788
S'wsgi_errors'
p1789
asbag56
(g77
g58
NtRp1790
(dp1791
g61
(dp1792
g88
g89
ssg70
g1781
sg63
(lp1793
S':'
asbag56
(g77
g58
NtRp1794
(dp1795
g61
(dp1796
sg70
g1781
sg63
(lp1797
g56
(g57
g58
NtRp1798
(dp1799
g61
(dp1800
g69
I4
ssg70
g1794
sg63
(lp1801
S"<open file '<stderr>', mode 'w' at 0x7f4e23883270>"
p1802
asbasbasbag56
(g72
g58
NtRp1803
(dp1804
g61
(dp1805
sg70
g1032
sg63
(lp1806
g56
(g77
g58
NtRp1807
(dp1808
g61
(dp1809
g81
g82
ssg70
g1803
sg63
(lp1810
S'wsgi_file_wrapper'
p1811
asbag56
(g77
g58
NtRp1812
(dp1813
g61
(dp1814
g88
g89
ssg70
g1803
sg63
(lp1815
S':'
asbag56
(g77
g58
NtRp1816
(dp1817
g61
(dp1818
sg70
g1803
sg63
(lp1819
g56
(g57
g58
NtRp1820
(dp1821
g61
(dp1822
g69
I4
ssg70
g1816
sg63
(lp1823
S'<class wsgiref.util.FileWrapper at 0x1ebcef0>'
p1824
asbasbasbag56
(g72
g58
NtRp1825
(dp1826
g61
(dp1827
sg70
g1032
sg63
(lp1828
g56
(g77
g58
NtRp1829
(dp1830
g61
(dp1831
g81
g82
ssg70
g1825
sg63
(lp1832
S'wsgi_input'
p1833
asbag56
(g77
g58
NtRp1834
(dp1835
g61
(dp1836
g88
g89
ssg70
g1825
sg63
(lp1837
S':'
asbag56
(g77
g58
NtRp1838
(dp1839
g61
(dp1840
sg70
g1825
sg63
(lp1841
g56
(g57
g58
NtRp1842
(dp1843
g61
(dp1844
g69
I4
ssg70
g1838
sg63
(lp1845
S'<socket._fileobject object at 0x2aa5450>'
p1846
asbasbasbag56
(g72
g58
NtRp1847
(dp1848
g61
(dp1849
sg70
g1032
sg63
(lp1850
g56
(g77
g58
NtRp1851
(dp1852
g61
(dp1853
g81
g82
ssg70
g1847
sg63
(lp1854
S'wsgi_multiprocess'
p1855
asbag56
(g77
g58
NtRp1856
(dp1857
g61
(dp1858
g88
g89
ssg70
g1847
sg63
(lp1859
S':'
asbag56
(g77
g58
NtRp1860
(dp1861
g61
(dp1862
sg70
g1847
sg63
(lp1863
g56
(g57
g58
NtRp1864
(dp1865
g61
(dp1866
g69
I4
ssg70
g1860
sg63
(lp1867
g99
asbasbasbag56
(g72
g58
NtRp1868
(dp1869
g61
(dp1870
sg70
g1032
sg63
(lp1871
g56
(g77
g58
NtRp1872
(dp1873
g61
(dp1874
g81
g82
ssg70
g1868
sg63
(lp1875
S'wsgi_multithread'
p1876
asbag56
(g77
g58
NtRp1877
(dp1878
g61
(dp1879
g88
g89
ssg70
g1868
sg63
(lp1880
S':'
asbag56
(g77
g58
NtRp1881
(dp1882
g61
(dp1883
sg70
g1868
sg63
(lp1884
g56
(g57
g58
NtRp1885
(dp1886
g61
(dp1887
g69
I4
ssg70
g1881
sg63
(lp1888
S'True'
p1889
asbasbasbag56
(g72
g58
NtRp1890
(dp1891
g61
(dp1892
sg70
g1032
sg63
(lp1893
g56
(g77
g58
NtRp1894
(dp1895
g61
(dp1896
g81
g82
ssg70
g1890
sg63
(lp1897
S'wsgi_run_once'
p1898
asbag56
(g77
g58
NtRp1899
(dp1900
g61
(dp1901
g88
g89
ssg70
g1890
sg63
(lp1902
S':'
asbag56
(g77
g58
NtRp1903
(dp1904
g61
(dp1905
sg70
g1890
sg63
(lp1906
g56
(g57
g58
NtRp1907
(dp1908
g61
(dp1909
g69
I4
ssg70
g1903
sg63
(lp1910
g99
asbasbasbag56
(g72
g58
NtRp1911
(dp1912
g61
(dp1913
sg70
g1032
sg63
(lp1914
g56
(g77
g58
NtRp1915
(dp1916
g61
(dp1917
g81
g82
ssg70
g1911
sg63
(lp1918
S'wsgi_url_scheme'
p1919
asbag56
(g77
g58
NtRp1920
(dp1921
g61
(dp1922
g88
g89
ssg70
g1911
sg63
(lp1923
S':'
asbag56
(g77
g58
NtRp1924
(dp1925
g61
(dp1926
sg70
g1911
sg63
(lp1927
g56
(g57
g58
NtRp1928
(dp1929
g61
(dp1930
g69
I4
ssg70
g1924
sg63
(lp1931
S'http'
p1932
asbasbasbag56
(g72
g58
NtRp1933
(dp1934
g61
(dp1935
sg70
g1032
sg63
(lp1936
g56
(g77
g58
NtRp1937
(dp1938
g61
(dp1939
g81
g82
ssg70
g1933
sg63
(lp1940
S'wsgi_version'
p1941
asbag56
(g77
g58
NtRp1942
(dp1943
g61
(dp1944
g88
g89
ssg70
g1933
sg63
(lp1945
S':'
asbag56
(g77
g58
NtRp1946
(dp1947
g61
(dp1948
sg70
g1933
sg63
(lp1949
g56
(g57
g58
NtRp1950
(dp1951
g61
(dp1952
g69
I4
ssg70
g1946
sg63
(lp1953
g56
(g65
g58
NtRp1954
(dp1955
g61
(dp1956
g69
I3
ssg70
Nsg63
(lp1957
g56
(g72
g58
NtRp1958
(dp1959
g61
(dp1960
sg70
g1954
sg63
(lp1961
g56
(g77
g58
NtRp1962
(dp1963
g61
(dp1964
sg70
g1958
sg63
(lp1965
g56
(g57
g58
NtRp1966
(dp1967
g61
(dp1968
g69
I3
ssg70
g1962
sg63
(lp1969
S'1'
asbasbasbag56
(g72
g58
NtRp1970
(dp1971
g61
(dp1972
sg70
g1954
sg63
(lp1973
g56
(g77
g58
NtRp1974
(dp1975
g61
(dp1976
sg70
g1970
sg63
(lp1977
g56
(g57
g58
NtRp1978
(dp1979
g61
(dp1980
g69
I3
ssg70
g1974
sg63
(lp1981
S'0'
asbasbasbasbasbasbasbasbasbasbasbag56
(g72
g58
NtRp1982
(dp1983
g61
(dp1984
sg70
g66
sg63
(lp1985
g56
(g77
g58
NtRp1986
(dp1987
g61
(dp1988
g81
g82
ssg70
g1982
sg63
(lp1989
S'extension'
p1990
asbag56
(g77
g58
NtRp1991
(dp1992
g61
(dp1993
g88
g89
ssg70
g1982
sg63
(lp1994
S':'
asbag56
(g77
g58
NtRp1995
(dp1996
g61
(dp1997
sg70
g1982
sg63
(lp1998
g56
(g57
g58
NtRp1999
(dp2000
g61
(dp2001
g69
I5
ssg70
g1995
sg63
(lp2002
S'html'
p2003
asbasbasbag56
(g72
g58
NtRp2004
(dp2005
g61
(dp2006
sg70
g66
sg63
(lp2007
g56
(g77
g58
NtRp2008
(dp2009
g61
(dp2010
g81
g82
ssg70
g2004
sg63
(lp2011
S'folder'
p2012
asbag56
(g77
g58
NtRp2013
(dp2014
g61
(dp2015
g88
g89
ssg70
g2004
sg63
(lp2016
S':'
asbag56
(g77
g58
NtRp2017
(dp2018
g61
(dp2019
sg70
g2004
sg63
(lp2020
g56
(g57
g58
NtRp2021
(dp2022
g61
(dp2023
g69
I5
ssg70
g2017
sg63
(lp2024
S'/home/kaique/Projects/web2py/applications/synopsis/'
p2025
asbasbasbag56
(g72
g58
NtRp2026
(dp2027
g61
(dp2028
sg70
g66
sg63
(lp2029
g56
(g77
g58
NtRp2030
(dp2031
g61
(dp2032
g81
g82
ssg70
g2026
sg63
(lp2033
S'function'
p2034
asbag56
(g77
g58
NtRp2035
(dp2036
g61
(dp2037
g88
g89
ssg70
g2026
sg63
(lp2038
S':'
asbag56
(g77
g58
NtRp2039
(dp2040
g61
(dp2041
sg70
g2026
sg63
(lp2042
g56
(g57
g58
NtRp2043
(dp2044
g61
(dp2045
g69
I5
ssg70
g2039
sg63
(lp2046
S'insert'
p2047
asbasbasbag56
(g72
g58
NtRp2048
(dp2049
g61
(dp2050
sg70
g66
sg63
(lp2051
g56
(g77
g58
NtRp2052
(dp2053
g61
(dp2054
g81
g82
ssg70
g2048
sg63
(lp2055
S'get_vars'
p2056
asbag56
(g77
g58
NtRp2057
(dp2058
g61
(dp2059
g88
g89
ssg70
g2048
sg63
(lp2060
S':'
asbag56
(g77
g58
NtRp2061
(dp2062
g61
(dp2063
sg70
g2048
sg63
(lp2064
g56
(g57
g58
NtRp2065
(dp2066
g61
(dp2067
g69
I5
ssg70
g2061
sg63
(lp2068
g56
(g65
g58
NtRp2069
(dp2070
g61
(dp2071
g69
I4
ssg70
Nsg63
(lp2072
sbasbasbasbag56
(g72
g58
NtRp2073
(dp2074
g61
(dp2075
sg70
g66
sg63
(lp2076
g56
(g77
g58
NtRp2077
(dp2078
g61
(dp2079
g81
g82
ssg70
g2073
sg63
(lp2080
S'global_settings'
p2081
asbag56
(g77
g58
NtRp2082
(dp2083
g61
(dp2084
g88
g89
ssg70
g2073
sg63
(lp2085
S':'
asbag56
(g77
g58
NtRp2086
(dp2087
g61
(dp2088
sg70
g2073
sg63
(lp2089
g56
(g57
g58
NtRp2090
(dp2091
g61
(dp2092
g69
I5
ssg70
g2086
sg63
(lp2093
g56
(g65
g58
NtRp2094
(dp2095
g61
(dp2096
g69
I4
ssg70
Nsg63
(lp2097
g56
(g72
g58
NtRp2098
(dp2099
g61
(dp2100
sg70
g2094
sg63
(lp2101
g56
(g77
g58
NtRp2102
(dp2103
g61
(dp2104
g81
g82
ssg70
g2098
sg63
(lp2105
g1044
asbag56
(g77
g58
NtRp2106
(dp2107
g61
(dp2108
g88
g89
ssg70
g2098
sg63
(lp2109
S':'
asbag56
(g77
g58
NtRp2110
(dp2111
g61
(dp2112
sg70
g2098
sg63
(lp2113
g56
(g57
g58
NtRp2114
(dp2115
g61
(dp2116
g69
I4
ssg70
g2110
sg63
(lp2117
S"set(['/home/kaique/Projects/web2py/applications/welcome/', '/home/kaique/Projects/web2py/applications/admin/', '/home/kaique/Projects/web2py/applications/synopsis/'])"
p2118
asbasbasbag56
(g72
g58
NtRp2119
(dp2120
g61
(dp2121
sg70
g2094
sg63
(lp2122
g56
(g77
g58
NtRp2123
(dp2124
g61
(dp2125
g81
g82
ssg70
g2119
sg63
(lp2126
g1066
asbag56
(g77
g58
NtRp2127
(dp2128
g61
(dp2129
g88
g89
ssg70
g2119
sg63
(lp2130
S':'
asbag56
(g77
g58
NtRp2131
(dp2132
g61
(dp2133
sg70
g2119
sg63
(lp2134
g56
(g57
g58
NtRp2135
(dp2136
g61
(dp2137
g69
I4
ssg70
g2131
sg63
(lp2138
g1079
asbasbasbag56
(g72
g58
NtRp2139
(dp2140
g61
(dp2141
sg70
g2094
sg63
(lp2142
g56
(g77
g58
NtRp2143
(dp2144
g61
(dp2145
g81
g82
ssg70
g2139
sg63
(lp2146
g1088
asbag56
(g77
g58
NtRp2147
(dp2148
g61
(dp2149
g88
g89
ssg70
g2139
sg63
(lp2150
S':'
asbag56
(g77
g58
NtRp2151
(dp2152
g61
(dp2153
sg70
g2139
sg63
(lp2154
g56
(g57
g58
NtRp2155
(dp2156
g61
(dp2157
g69
I4
ssg70
g2151
sg63
(lp2158
g56
(g65
g58
NtRp2159
(dp2160
g61
(dp2161
g69
I3
ssg70
Nsg63
(lp2162
sbasbasbasbag56
(g72
g58
NtRp2163
(dp2164
g61
(dp2165
sg70
g2094
sg63
(lp2166
g56
(g77
g58
NtRp2167
(dp2168
g61
(dp2169
g81
g82
ssg70
g2163
sg63
(lp2170
g1113
asbag56
(g77
g58
NtRp2171
(dp2172
g61
(dp2173
g88
g89
ssg70
g2163
sg63
(lp2174
S':'
asbag56
(g77
g58
NtRp2175
(dp2176
g61
(dp2177
sg70
g2163
sg63
(lp2178
g56
(g57
g58
NtRp2179
(dp2180
g61
(dp2181
g69
I4
ssg70
g2175
sg63
(lp2182
S"<Values at 0x2005998: {'verbose': False, 'ip': '127.0.0.1', 'shutdown_timeout': 5, 'taskbar': False, 'nocron': False, 'pid_filename': 'httpserver.pid', 'maxthreads': None, 'softcron': False, 'server_name': 'kaique-Pine-Trail-M', 'bpython': False, 'nogui': False, 'port': 8000, 'extcron': False, 'debuglevel': 30, 'test': None, 'folder': '/home/kaique/Projects/web2py', 'config': '', 'import_models': False, 'winservice': '', 'shell': None, 'run': '', 'log_filename': 'httpserver.log', 'args': [''], 'ssl_ca_certificate': None, 'scheduler': None, 'profiler_filename': None, 'ssl_private_key': '', 'password': 'dev', 'request_queue_size': 5, 'ssl_certificate': '', 'cronjob': False, 'plain': False, 'quiet': False, 'interfaces': None, 'minthreads': None, 'timeout': 10, 'numthreads': None, 'nobanner': False}>"
p2183
asbasbasbag56
(g72
g58
NtRp2184
(dp2185
g61
(dp2186
sg70
g2094
sg63
(lp2187
g56
(g77
g58
NtRp2188
(dp2189
g61
(dp2190
g81
g82
ssg70
g2184
sg63
(lp2191
g1135
asbag56
(g77
g58
NtRp2192
(dp2193
g61
(dp2194
g88
g89
ssg70
g2184
sg63
(lp2195
S':'
asbag56
(g77
g58
NtRp2196
(dp2197
g61
(dp2198
sg70
g2184
sg63
(lp2199
g56
(g57
g58
NtRp2200
(dp2201
g61
(dp2202
g69
I4
ssg70
g2196
sg63
(lp2203
S'set([])'
p2204
asbasbasbag56
(g72
g58
NtRp2205
(dp2206
g61
(dp2207
sg70
g2094
sg63
(lp2208
g56
(g77
g58
NtRp2209
(dp2210
g61
(dp2211
g81
g82
ssg70
g2205
sg63
(lp2212
g1157
asbag56
(g77
g58
NtRp2213
(dp2214
g61
(dp2215
g88
g89
ssg70
g2205
sg63
(lp2216
S':'
asbag56
(g77
g58
NtRp2217
(dp2218
g61
(dp2219
sg70
g2205
sg63
(lp2220
g56
(g57
g58
NtRp2221
(dp2222
g61
(dp2223
g69
I4
ssg70
g2217
sg63
(lp2224
g99
asbasbasbag56
(g72
g58
NtRp2225
(dp2226
g61
(dp2227
sg70
g2094
sg63
(lp2228
g56
(g77
g58
NtRp2229
(dp2230
g61
(dp2231
g81
g82
ssg70
g2225
sg63
(lp2232
g1178
asbag56
(g77
g58
NtRp2233
(dp2234
g61
(dp2235
g88
g89
ssg70
g2225
sg63
(lp2236
S':'
asbag56
(g77
g58
NtRp2237
(dp2238
g61
(dp2239
sg70
g2225
sg63
(lp2240
g56
(g57
g58
NtRp2241
(dp2242
g61
(dp2243
g69
I4
ssg70
g2237
sg63
(lp2244
g1191
asbasbasbag56
(g72
g58
NtRp2245
(dp2246
g61
(dp2247
sg70
g2094
sg63
(lp2248
g56
(g77
g58
NtRp2249
(dp2250
g61
(dp2251
g81
g82
ssg70
g2245
sg63
(lp2252
g1420
asbag56
(g77
g58
NtRp2253
(dp2254
g61
(dp2255
g88
g89
ssg70
g2245
sg63
(lp2256
S':'
asbag56
(g77
g58
NtRp2257
(dp2258
g61
(dp2259
sg70
g2245
sg63
(lp2260
g56
(g57
g58
NtRp2261
(dp2262
g61
(dp2263
g69
I4
ssg70
g2257
sg63
(lp2264
g99
asbasbasbag56
(g72
g58
NtRp2265
(dp2266
g61
(dp2267
sg70
g2094
sg63
(lp2268
g56
(g77
g58
NtRp2269
(dp2270
g61
(dp2271
g81
g82
ssg70
g2265
sg63
(lp2272
g1658
asbag56
(g77
g58
NtRp2273
(dp2274
g61
(dp2275
g88
g89
ssg70
g2265
sg63
(lp2276
S':'
asbag56
(g77
g58
NtRp2277
(dp2278
g61
(dp2279
sg70
g2265
sg63
(lp2280
g56
(g57
g58
NtRp2281
(dp2282
g61
(dp2283
g69
I4
ssg70
g2277
sg63
(lp2284
g1671
asbasbasbag56
(g72
g58
NtRp2285
(dp2286
g61
(dp2287
sg70
g2094
sg63
(lp2288
g56
(g77
g58
NtRp2289
(dp2290
g61
(dp2291
g81
g82
ssg70
g2285
sg63
(lp2292
g1701
asbag56
(g77
g58
NtRp2293
(dp2294
g61
(dp2295
g88
g89
ssg70
g2285
sg63
(lp2296
S':'
asbag56
(g77
g58
NtRp2297
(dp2298
g61
(dp2299
sg70
g2285
sg63
(lp2300
g56
(g57
g58
NtRp2301
(dp2302
g61
(dp2303
g69
I4
ssg70
g2297
sg63
(lp2304
g56
(g65
g58
NtRp2305
(dp2306
g61
(dp2307
g69
I3
ssg70
Nsg63
(lp2308
g56
(g72
g58
NtRp2309
(dp2310
g61
(dp2311
sg70
g2305
sg63
(lp2312
g56
(g77
g58
NtRp2313
(dp2314
g61
(dp2315
sg70
g2309
sg63
(lp2316
g56
(g57
g58
NtRp2317
(dp2318
g61
(dp2319
g69
I3
ssg70
g2313
sg63
(lp2320
S'1'
asbasbasbag56
(g72
g58
NtRp2321
(dp2322
g61
(dp2323
sg70
g2305
sg63
(lp2324
g56
(g77
g58
NtRp2325
(dp2326
g61
(dp2327
sg70
g2321
sg63
(lp2328
g56
(g57
g58
NtRp2329
(dp2330
g61
(dp2331
g69
I3
ssg70
g2325
sg63
(lp2332
S'99'
p2333
asbasbasbag56
(g72
g58
NtRp2334
(dp2335
g61
(dp2336
sg70
g2305
sg63
(lp2337
g56
(g77
g58
NtRp2338
(dp2339
g61
(dp2340
sg70
g2334
sg63
(lp2341
g56
(g57
g58
NtRp2342
(dp2343
g61
(dp2344
g69
I3
ssg70
g2338
sg63
(lp2345
S'2'
asbasbasbag56
(g72
g58
NtRp2346
(dp2347
g61
(dp2348
sg70
g2305
sg63
(lp2349
g56
(g77
g58
NtRp2350
(dp2351
g61
(dp2352
sg70
g2346
sg63
(lp2353
g56
(g57
g58
NtRp2354
(dp2355
g61
(dp2356
g69
I3
ssg70
g2350
sg63
(lp2357
S'datetime.datetime(2011, 9, 26, 6, 55, 33)'
p2358
asbasbasbag56
(g72
g58
NtRp2359
(dp2360
g61
(dp2361
sg70
g2305
sg63
(lp2362
g56
(g77
g58
NtRp2363
(dp2364
g61
(dp2365
sg70
g2359
sg63
(lp2366
g56
(g57
g58
NtRp2367
(dp2368
g61
(dp2369
g69
I3
ssg70
g2363
sg63
(lp2370
g1780
asbasbasbasbasbasbasbasbasbasbasbag56
(g72
g58
NtRp2371
(dp2372
g61
(dp2373
sg70
g66
sg63
(lp2374
g56
(g77
g58
NtRp2375
(dp2376
g61
(dp2377
g81
g82
ssg70
g2371
sg63
(lp2378
S'is_https'
p2379
asbag56
(g77
g58
NtRp2380
(dp2381
g61
(dp2382
g88
g89
ssg70
g2371
sg63
(lp2383
S':'
asbag56
(g77
g58
NtRp2384
(dp2385
g61
(dp2386
sg70
g2371
sg63
(lp2387
g56
(g57
g58
NtRp2388
(dp2389
g61
(dp2390
g69
I5
ssg70
g2384
sg63
(lp2391
g99
asbasbasbag56
(g72
g58
NtRp2392
(dp2393
g61
(dp2394
sg70
g66
sg63
(lp2395
g56
(g77
g58
NtRp2396
(dp2397
g61
(dp2398
g81
g82
ssg70
g2392
sg63
(lp2399
S'is_local'
p2400
asbag56
(g77
g58
NtRp2401
(dp2402
g61
(dp2403
g88
g89
ssg70
g2392
sg63
(lp2404
S':'
asbag56
(g77
g58
NtRp2405
(dp2406
g61
(dp2407
sg70
g2392
sg63
(lp2408
g56
(g57
g58
NtRp2409
(dp2410
g61
(dp2411
g69
I5
ssg70
g2405
sg63
(lp2412
g1889
asbasbasbag56
(g72
g58
NtRp2413
(dp2414
g61
(dp2415
sg70
g66
sg63
(lp2416
g56
(g77
g58
NtRp2417
(dp2418
g61
(dp2419
g81
g82
ssg70
g2413
sg63
(lp2420
S'is_restful'
p2421
asbag56
(g77
g58
NtRp2422
(dp2423
g61
(dp2424
g88
g89
ssg70
g2413
sg63
(lp2425
S':'
asbag56
(g77
g58
NtRp2426
(dp2427
g61
(dp2428
sg70
g2413
sg63
(lp2429
g56
(g57
g58
NtRp2430
(dp2431
g61
(dp2432
g69
I5
ssg70
g2426
sg63
(lp2433
g99
asbasbasbag56
(g72
g58
NtRp2434
(dp2435
g61
(dp2436
sg70
g66
sg63
(lp2437
g56
(g77
g58
NtRp2438
(dp2439
g61
(dp2440
g81
g82
ssg70
g2434
sg63
(lp2441
S'now'
p2442
asbag56
(g77
g58
NtRp2443
(dp2444
g61
(dp2445
g88
g89
ssg70
g2434
sg63
(lp2446
S':'
asbag56
(g77
g58
NtRp2447
(dp2448
g61
(dp2449
sg70
g2434
sg63
(lp2450
g56
(g57
g58
NtRp2451
(dp2452
g61
(dp2453
g69
I5
ssg70
g2447
sg63
(lp2454
S'datetime.datetime(2012, 1, 11, 17, 29, 36, 464853)'
p2455
asbasbasbag56
(g72
g58
NtRp2456
(dp2457
g61
(dp2458
sg70
g66
sg63
(lp2459
g56
(g77
g58
NtRp2460
(dp2461
g61
(dp2462
g81
g82
ssg70
g2456
sg63
(lp2463
S'post_vars'
p2464
asbag56
(g77
g58
NtRp2465
(dp2466
g61
(dp2467
g88
g89
ssg70
g2456
sg63
(lp2468
S':'
asbag56
(g77
g58
NtRp2469
(dp2470
g61
(dp2471
sg70
g2456
sg63
(lp2472
g56
(g57
g58
NtRp2473
(dp2474
g61
(dp2475
g69
I5
ssg70
g2469
sg63
(lp2476
g56
(g65
g58
NtRp2477
(dp2478
g61
(dp2479
g69
I4
ssg70
Nsg63
(lp2480
sbasbasbasbag56
(g72
g58
NtRp2481
(dp2482
g61
(dp2483
sg70
g66
sg63
(lp2484
g56
(g77
g58
NtRp2485
(dp2486
g61
(dp2487
g81
g82
ssg70
g2481
sg63
(lp2488
S'raw_args'
p2489
asbag56
(g77
g58
NtRp2490
(dp2491
g61
(dp2492
g88
g89
ssg70
g2481
sg63
(lp2493
S':'
asbag56
(g77
g58
NtRp2494
(dp2495
g61
(dp2496
sg70
g2481
sg63
(lp2497
g56
(g57
g58
NtRp2498
(dp2499
g61
(dp2500
g69
I5
ssg70
g2494
sg63
(lp2501
S'db/column'
p2502
asbasbasbag56
(g72
g58
NtRp2503
(dp2504
g61
(dp2505
sg70
g66
sg63
(lp2506
g56
(g77
g58
NtRp2507
(dp2508
g61
(dp2509
g81
g82
ssg70
g2503
sg63
(lp2510
S'url'
p2511
asbag56
(g77
g58
NtRp2512
(dp2513
g61
(dp2514
g88
g89
ssg70
g2503
sg63
(lp2515
S':'
asbag56
(g77
g58
NtRp2516
(dp2517
g61
(dp2518
sg70
g2503
sg63
(lp2519
g56
(g57
g58
NtRp2520
(dp2521
g61
(dp2522
g69
I5
ssg70
g2516
sg63
(lp2523
S'/synopsis/appadmin/insert/db/column'
p2524
asbasbasbag56
(g72
g58
NtRp2525
(dp2526
g61
(dp2527
sg70
g66
sg63
(lp2528
g56
(g77
g58
NtRp2529
(dp2530
g61
(dp2531
g81
g82
ssg70
g2525
sg63
(lp2532
S'utcnow'
p2533
asbag56
(g77
g58
NtRp2534
(dp2535
g61
(dp2536
g88
g89
ssg70
g2525
sg63
(lp2537
S':'
asbag56
(g77
g58
NtRp2538
(dp2539
g61
(dp2540
sg70
g2525
sg63
(lp2541
g56
(g57
g58
NtRp2542
(dp2543
g61
(dp2544
g69
I5
ssg70
g2538
sg63
(lp2545
S'datetime.datetime(2012, 1, 11, 19, 29, 36, 464926)'
p2546
asbasbasbag56
(g72
g58
NtRp2547
(dp2548
g61
(dp2549
sg70
g66
sg63
(lp2550
g56
(g77
g58
NtRp2551
(dp2552
g61
(dp2553
g81
g82
ssg70
g2547
sg63
(lp2554
S'uuid'
p2555
asbag56
(g77
g58
NtRp2556
(dp2557
g61
(dp2558
g88
g89
ssg70
g2547
sg63
(lp2559
S':'
asbag56
(g77
g58
NtRp2560
(dp2561
g61
(dp2562
sg70
g2547
sg63
(lp2563
g56
(g57
g58
NtRp2564
(dp2565
g61
(dp2566
g69
I5
ssg70
g2560
sg63
(lp2567
S'synopsis/127.0.0.1.2012-01-11.17-29-36.8caae379-9e58-44e1-9f78-686d9c10edbe'
p2568
asbasbasbag56
(g72
g58
NtRp2569
(dp2570
g61
(dp2571
sg70
g66
sg63
(lp2572
g56
(g77
g58
NtRp2573
(dp2574
g61
(dp2575
g81
g82
ssg70
g2569
sg63
(lp2576
S'vars'
p2577
asbag56
(g77
g58
NtRp2578
(dp2579
g61
(dp2580
g88
g89
ssg70
g2569
sg63
(lp2581
S':'
asbag56
(g77
g58
NtRp2582
(dp2583
g61
(dp2584
sg70
g2569
sg63
(lp2585
g56
(g57
g58
NtRp2586
(dp2587
g61
(dp2588
g69
I5
ssg70
g2582
sg63
(lp2589
g56
(g65
g58
NtRp2590
(dp2591
g61
(dp2592
g69
I4
ssg70
Nsg63
(lp2593
sbasbasbasbag56
(g72
g58
NtRp2594
(dp2595
g61
(dp2596
sg70
g66
sg63
(lp2597
g56
(g77
g58
NtRp2598
(dp2599
g61
(dp2600
g81
g82
ssg70
g2594
sg63
(lp2601
S'wsgi'
p2602
asbag56
(g77
g58
NtRp2603
(dp2604
g61
(dp2605
g88
g89
ssg70
g2594
sg63
(lp2606
S':'
asbag56
(g77
g58
NtRp2607
(dp2608
g61
(dp2609
sg70
g2594
sg63
(lp2610
g56
(g57
g58
NtRp2611
(dp2612
g61
(dp2613
g69
I5
ssg70
g2607
sg63
(lp2614
g56
(g65
g58
NtRp2615
(dp2616
g61
(dp2617
g69
I4
ssg70
Nsg63
(lp2618
g56
(g72
g58
NtRp2619
(dp2620
g61
(dp2621
sg70
g2615
sg63
(lp2622
g56
(g77
g58
NtRp2623
(dp2624
g61
(dp2625
g81
g82
ssg70
g2619
sg63
(lp2626
S'environ'
p2627
asbag56
(g77
g58
NtRp2628
(dp2629
g61
(dp2630
g88
g89
ssg70
g2619
sg63
(lp2631
S':'
asbag56
(g77
g58
NtRp2632
(dp2633
g61
(dp2634
sg70
g2619
sg63
(lp2635
g56
(g57
g58
NtRp2636
(dp2637
g61
(dp2638
g69
I4
ssg70
g2632
sg63
(lp2639
g56
(g65
g58
NtRp2640
(dp2641
g61
(dp2642
g69
I3
ssg70
Nsg63
(lp2643
g56
(g72
g58
NtRp2644
(dp2645
g61
(dp2646
sg70
g2640
sg63
(lp2647
g56
(g77
g58
NtRp2648
(dp2649
g61
(dp2650
g81
g82
ssg70
g2644
sg63
(lp2651
S'HTTP_ACCEPT'
p2652
asbag56
(g77
g58
NtRp2653
(dp2654
g61
(dp2655
g88
g89
ssg70
g2644
sg63
(lp2656
S':'
asbag56
(g77
g58
NtRp2657
(dp2658
g61
(dp2659
sg70
g2644
sg63
(lp2660
g56
(g57
g58
NtRp2661
(dp2662
g61
(dp2663
g69
I3
ssg70
g2657
sg63
(lp2664
g1213
asbasbasbag56
(g72
g58
NtRp2665
(dp2666
g61
(dp2667
sg70
g2640
sg63
(lp2668
g56
(g77
g58
NtRp2669
(dp2670
g61
(dp2671
g81
g82
ssg70
g2665
sg63
(lp2672
S'HTTP_ACCEPT_CHARSET'
p2673
asbag56
(g77
g58
NtRp2674
(dp2675
g61
(dp2676
g88
g89
ssg70
g2665
sg63
(lp2677
S':'
asbag56
(g77
g58
NtRp2678
(dp2679
g61
(dp2680
sg70
g2665
sg63
(lp2681
g56
(g57
g58
NtRp2682
(dp2683
g61
(dp2684
g69
I3
ssg70
g2678
sg63
(lp2685
g1235
asbasbasbag56
(g72
g58
NtRp2686
(dp2687
g61
(dp2688
sg70
g2640
sg63
(lp2689
g56
(g77
g58
NtRp2690
(dp2691
g61
(dp2692
g81
g82
ssg70
g2686
sg63
(lp2693
S'HTTP_ACCEPT_ENCODING'
p2694
asbag56
(g77
g58
NtRp2695
(dp2696
g61
(dp2697
g88
g89
ssg70
g2686
sg63
(lp2698
S':'
asbag56
(g77
g58
NtRp2699
(dp2700
g61
(dp2701
sg70
g2686
sg63
(lp2702
g56
(g57
g58
NtRp2703
(dp2704
g61
(dp2705
g69
I3
ssg70
g2699
sg63
(lp2706
g1257
asbasbasbag56
(g72
g58
NtRp2707
(dp2708
g61
(dp2709
sg70
g2640
sg63
(lp2710
g56
(g77
g58
NtRp2711
(dp2712
g61
(dp2713
g81
g82
ssg70
g2707
sg63
(lp2714
S'HTTP_ACCEPT_LANGUAGE'
p2715
asbag56
(g77
g58
NtRp2716
(dp2717
g61
(dp2718
g88
g89
ssg70
g2707
sg63
(lp2719
S':'
asbag56
(g77
g58
NtRp2720
(dp2721
g61
(dp2722
sg70
g2707
sg63
(lp2723
g56
(g57
g58
NtRp2724
(dp2725
g61
(dp2726
g69
I3
ssg70
g2720
sg63
(lp2727
g1279
asbasbasbag56
(g72
g58
NtRp2728
(dp2729
g61
(dp2730
sg70
g2640
sg63
(lp2731
g56
(g77
g58
NtRp2732
(dp2733
g61
(dp2734
g81
g82
ssg70
g2728
sg63
(lp2735
S'HTTP_CACHE_CONTROL'
p2736
asbag56
(g77
g58
NtRp2737
(dp2738
g61
(dp2739
g88
g89
ssg70
g2728
sg63
(lp2740
S':'
asbag56
(g77
g58
NtRp2741
(dp2742
g61
(dp2743
sg70
g2728
sg63
(lp2744
g56
(g57
g58
NtRp2745
(dp2746
g61
(dp2747
g69
I3
ssg70
g2741
sg63
(lp2748
g1301
asbasbasbag56
(g72
g58
NtRp2749
(dp2750
g61
(dp2751
sg70
g2640
sg63
(lp2752
g56
(g77
g58
NtRp2753
(dp2754
g61
(dp2755
g81
g82
ssg70
g2749
sg63
(lp2756
S'HTTP_CONNECTION'
p2757
asbag56
(g77
g58
NtRp2758
(dp2759
g61
(dp2760
g88
g89
ssg70
g2749
sg63
(lp2761
S':'
asbag56
(g77
g58
NtRp2762
(dp2763
g61
(dp2764
sg70
g2749
sg63
(lp2765
g56
(g57
g58
NtRp2766
(dp2767
g61
(dp2768
g69
I3
ssg70
g2762
sg63
(lp2769
g1323
asbasbasbag56
(g72
g58
NtRp2770
(dp2771
g61
(dp2772
sg70
g2640
sg63
(lp2773
g56
(g77
g58
NtRp2774
(dp2775
g61
(dp2776
g81
g82
ssg70
g2770
sg63
(lp2777
S'HTTP_COOKIE'
p2778
asbag56
(g77
g58
NtRp2779
(dp2780
g61
(dp2781
g88
g89
ssg70
g2770
sg63
(lp2782
S':'
asbag56
(g77
g58
NtRp2783
(dp2784
g61
(dp2785
sg70
g2770
sg63
(lp2786
g56
(g57
g58
NtRp2787
(dp2788
g61
(dp2789
g69
I3
ssg70
g2783
sg63
(lp2790
g1345
asbasbasbag56
(g72
g58
NtRp2791
(dp2792
g61
(dp2793
sg70
g2640
sg63
(lp2794
g56
(g77
g58
NtRp2795
(dp2796
g61
(dp2797
g81
g82
ssg70
g2791
sg63
(lp2798
S'HTTP_HOST'
p2799
asbag56
(g77
g58
NtRp2800
(dp2801
g61
(dp2802
g88
g89
ssg70
g2791
sg63
(lp2803
S':'
asbag56
(g77
g58
NtRp2804
(dp2805
g61
(dp2806
sg70
g2791
sg63
(lp2807
g56
(g57
g58
NtRp2808
(dp2809
g61
(dp2810
g69
I3
ssg70
g2804
sg63
(lp2811
g1367
asbasbasbag56
(g72
g58
NtRp2812
(dp2813
g61
(dp2814
sg70
g2640
sg63
(lp2815
g56
(g77
g58
NtRp2816
(dp2817
g61
(dp2818
g81
g82
ssg70
g2812
sg63
(lp2819
S'HTTP_REFERER'
p2820
asbag56
(g77
g58
NtRp2821
(dp2822
g61
(dp2823
g88
g89
ssg70
g2812
sg63
(lp2824
S':'
asbag56
(g77
g58
NtRp2825
(dp2826
g61
(dp2827
sg70
g2812
sg63
(lp2828
g56
(g57
g58
NtRp2829
(dp2830
g61
(dp2831
g69
I3
ssg70
g2825
sg63
(lp2832
g1389
asbasbasbag56
(g72
g58
NtRp2833
(dp2834
g61
(dp2835
sg70
g2640
sg63
(lp2836
g56
(g77
g58
NtRp2837
(dp2838
g61
(dp2839
g81
g82
ssg70
g2833
sg63
(lp2840
S'HTTP_USER_AGENT'
p2841
asbag56
(g77
g58
NtRp2842
(dp2843
g61
(dp2844
g88
g89
ssg70
g2833
sg63
(lp2845
S':'
asbag56
(g77
g58
NtRp2846
(dp2847
g61
(dp2848
sg70
g2833
sg63
(lp2849
g56
(g57
g58
NtRp2850
(dp2851
g61
(dp2852
g69
I3
ssg70
g2846
sg63
(lp2853
g1411
asbasbasbag56
(g72
g58
NtRp2854
(dp2855
g61
(dp2856
sg70
g2640
sg63
(lp2857
g56
(g77
g58
NtRp2858
(dp2859
g61
(dp2860
g81
g82
ssg70
g2854
sg63
(lp2861
S'PATH_INFO'
p2862
asbag56
(g77
g58
NtRp2863
(dp2864
g61
(dp2865
g88
g89
ssg70
g2854
sg63
(lp2866
S':'
asbag56
(g77
g58
NtRp2867
(dp2868
g61
(dp2869
sg70
g2854
sg63
(lp2870
g56
(g57
g58
NtRp2871
(dp2872
g61
(dp2873
g69
I3
ssg70
g2867
sg63
(lp2874
g1454
asbasbasbag56
(g72
g58
NtRp2875
(dp2876
g61
(dp2877
sg70
g2640
sg63
(lp2878
g56
(g77
g58
NtRp2879
(dp2880
g61
(dp2881
g81
g82
ssg70
g2875
sg63
(lp2882
S'QUERY_STRING'
p2883
asbag56
(g77
g58
NtRp2884
(dp2885
g61
(dp2886
g88
g89
ssg70
g2875
sg63
(lp2887
S':'
asbag56
(g77
g58
NtRp2888
(dp2889
g61
(dp2890
sg70
g2875
sg63
(lp2891
g56
(g57
g58
NtRp2892
(dp2893
g61
(dp2894
g69
I3
ssg70
g2888
sg63
(lp2895
S''
asbasbasbag56
(g72
g58
NtRp2896
(dp2897
g61
(dp2898
sg70
g2640
sg63
(lp2899
g56
(g77
g58
NtRp2900
(dp2901
g61
(dp2902
g81
g82
ssg70
g2896
sg63
(lp2903
S'REMOTE_ADDR'
p2904
asbag56
(g77
g58
NtRp2905
(dp2906
g61
(dp2907
g88
g89
ssg70
g2896
sg63
(lp2908
S':'
asbag56
(g77
g58
NtRp2909
(dp2910
g61
(dp2911
sg70
g2896
sg63
(lp2912
g56
(g57
g58
NtRp2913
(dp2914
g61
(dp2915
g69
I3
ssg70
g2909
sg63
(lp2916
g215
asbasbasbag56
(g72
g58
NtRp2917
(dp2918
g61
(dp2919
sg70
g2640
sg63
(lp2920
g56
(g77
g58
NtRp2921
(dp2922
g61
(dp2923
g81
g82
ssg70
g2917
sg63
(lp2924
S'REMOTE_PORT'
p2925
asbag56
(g77
g58
NtRp2926
(dp2927
g61
(dp2928
g88
g89
ssg70
g2917
sg63
(lp2929
S':'
asbag56
(g77
g58
NtRp2930
(dp2931
g61
(dp2932
sg70
g2917
sg63
(lp2933
g56
(g57
g58
NtRp2934
(dp2935
g61
(dp2936
g69
I3
ssg70
g2930
sg63
(lp2937
g1518
asbasbasbag56
(g72
g58
NtRp2938
(dp2939
g61
(dp2940
sg70
g2640
sg63
(lp2941
g56
(g77
g58
NtRp2942
(dp2943
g61
(dp2944
g81
g82
ssg70
g2938
sg63
(lp2945
S'REQUEST_METHOD'
p2946
asbag56
(g77
g58
NtRp2947
(dp2948
g61
(dp2949
g88
g89
ssg70
g2938
sg63
(lp2950
S':'
asbag56
(g77
g58
NtRp2951
(dp2952
g61
(dp2953
sg70
g2938
sg63
(lp2954
g56
(g57
g58
NtRp2955
(dp2956
g61
(dp2957
g69
I3
ssg70
g2951
sg63
(lp2958
g1540
asbasbasbag56
(g72
g58
NtRp2959
(dp2960
g61
(dp2961
sg70
g2640
sg63
(lp2962
g56
(g77
g58
NtRp2963
(dp2964
g61
(dp2965
g81
g82
ssg70
g2959
sg63
(lp2966
S'SCRIPT_NAME'
p2967
asbag56
(g77
g58
NtRp2968
(dp2969
g61
(dp2970
g88
g89
ssg70
g2959
sg63
(lp2971
S':'
asbag56
(g77
g58
NtRp2972
(dp2973
g61
(dp2974
sg70
g2959
sg63
(lp2975
g56
(g57
g58
NtRp2976
(dp2977
g61
(dp2978
g69
I3
ssg70
g2972
sg63
(lp2979
S''
asbasbasbag56
(g72
g58
NtRp2980
(dp2981
g61
(dp2982
sg70
g2640
sg63
(lp2983
g56
(g77
g58
NtRp2984
(dp2985
g61
(dp2986
g81
g82
ssg70
g2980
sg63
(lp2987
S'SERVER_NAME'
p2988
asbag56
(g77
g58
NtRp2989
(dp2990
g61
(dp2991
g88
g89
ssg70
g2980
sg63
(lp2992
S':'
asbag56
(g77
g58
NtRp2993
(dp2994
g61
(dp2995
sg70
g2980
sg63
(lp2996
g56
(g57
g58
NtRp2997
(dp2998
g61
(dp2999
g69
I3
ssg70
g2993
sg63
(lp3000
g1583
asbasbasbag56
(g72
g58
NtRp3001
(dp3002
g61
(dp3003
sg70
g2640
sg63
(lp3004
g56
(g77
g58
NtRp3005
(dp3006
g61
(dp3007
g81
g82
ssg70
g3001
sg63
(lp3008
S'SERVER_PORT'
p3009
asbag56
(g77
g58
NtRp3010
(dp3011
g61
(dp3012
g88
g89
ssg70
g3001
sg63
(lp3013
S':'
asbag56
(g77
g58
NtRp3014
(dp3015
g61
(dp3016
sg70
g3001
sg63
(lp3017
g56
(g57
g58
NtRp3018
(dp3019
g61
(dp3020
g69
I3
ssg70
g3014
sg63
(lp3021
g1605
asbasbasbag56
(g72
g58
NtRp3022
(dp3023
g61
(dp3024
sg70
g2640
sg63
(lp3025
g56
(g77
g58
NtRp3026
(dp3027
g61
(dp3028
g81
g82
ssg70
g3022
sg63
(lp3029
S'SERVER_PROTOCOL'
p3030
asbag56
(g77
g58
NtRp3031
(dp3032
g61
(dp3033
g88
g89
ssg70
g3022
sg63
(lp3034
S':'
asbag56
(g77
g58
NtRp3035
(dp3036
g61
(dp3037
sg70
g3022
sg63
(lp3038
g56
(g57
g58
NtRp3039
(dp3040
g61
(dp3041
g69
I3
ssg70
g3035
sg63
(lp3042
g1627
asbasbasbag56
(g72
g58
NtRp3043
(dp3044
g61
(dp3045
sg70
g2640
sg63
(lp3046
g56
(g77
g58
NtRp3047
(dp3048
g61
(dp3049
g81
g82
ssg70
g3043
sg63
(lp3050
S'SERVER_SOFTWARE'
p3051
asbag56
(g77
g58
NtRp3052
(dp3053
g61
(dp3054
g88
g89
ssg70
g3043
sg63
(lp3055
S':'
asbag56
(g77
g58
NtRp3056
(dp3057
g61
(dp3058
sg70
g3043
sg63
(lp3059
g56
(g57
g58
NtRp3060
(dp3061
g61
(dp3062
g69
I3
ssg70
g3056
sg63
(lp3063
g1649
asbasbasbag56
(g72
g58
NtRp3064
(dp3065
g61
(dp3066
sg70
g2640
sg63
(lp3067
g56
(g77
g58
NtRp3068
(dp3069
g61
(dp3070
g81
g82
ssg70
g3064
sg63
(lp3071
S'wsgi.errors'
p3072
asbag56
(g77
g58
NtRp3073
(dp3074
g61
(dp3075
g88
g89
ssg70
g3064
sg63
(lp3076
S':'
asbag56
(g77
g58
NtRp3077
(dp3078
g61
(dp3079
sg70
g3064
sg63
(lp3080
g56
(g57
g58
NtRp3081
(dp3082
g61
(dp3083
g69
I3
ssg70
g3077
sg63
(lp3084
S"<open file '<stderr>', mode 'w' at 0x7f4e23883270>"
p3085
asbasbasbag56
(g72
g58
NtRp3086
(dp3087
g61
(dp3088
sg70
g2640
sg63
(lp3089
g56
(g77
g58
NtRp3090
(dp3091
g61
(dp3092
g81
g82
ssg70
g3086
sg63
(lp3093
S'wsgi.file_wrapper'
p3094
asbag56
(g77
g58
NtRp3095
(dp3096
g61
(dp3097
g88
g89
ssg70
g3086
sg63
(lp3098
S':'
asbag56
(g77
g58
NtRp3099
(dp3100
g61
(dp3101
sg70
g3086
sg63
(lp3102
g56
(g57
g58
NtRp3103
(dp3104
g61
(dp3105
g69
I3
ssg70
g3099
sg63
(lp3106
S'<class wsgiref.util.FileWrapper at 0x1ebcef0>'
p3107
asbasbasbag56
(g72
g58
NtRp3108
(dp3109
g61
(dp3110
sg70
g2640
sg63
(lp3111
g56
(g77
g58
NtRp3112
(dp3113
g61
(dp3114
g81
g82
ssg70
g3108
sg63
(lp3115
S'wsgi.input'
p3116
asbag56
(g77
g58
NtRp3117
(dp3118
g61
(dp3119
g88
g89
ssg70
g3108
sg63
(lp3120
S':'
asbag56
(g77
g58
NtRp3121
(dp3122
g61
(dp3123
sg70
g3108
sg63
(lp3124
g56
(g57
g58
NtRp3125
(dp3126
g61
(dp3127
g69
I3
ssg70
g3121
sg63
(lp3128
S'<cStringIO.StringO object at 0x2c550a0>'
p3129
asbasbasbag56
(g72
g58
NtRp3130
(dp3131
g61
(dp3132
sg70
g2640
sg63
(lp3133
g56
(g77
g58
NtRp3134
(dp3135
g61
(dp3136
g81
g82
ssg70
g3130
sg63
(lp3137
S'wsgi.multiprocess'
p3138
asbag56
(g77
g58
NtRp3139
(dp3140
g61
(dp3141
g88
g89
ssg70
g3130
sg63
(lp3142
S':'
asbag56
(g77
g58
NtRp3143
(dp3144
g61
(dp3145
sg70
g3130
sg63
(lp3146
g56
(g57
g58
NtRp3147
(dp3148
g61
(dp3149
g69
I3
ssg70
g3143
sg63
(lp3150
g99
asbasbasbag56
(g72
g58
NtRp3151
(dp3152
g61
(dp3153
sg70
g2640
sg63
(lp3154
g56
(g77
g58
NtRp3155
(dp3156
g61
(dp3157
g81
g82
ssg70
g3151
sg63
(lp3158
S'wsgi.multithread'
p3159
asbag56
(g77
g58
NtRp3160
(dp3161
g61
(dp3162
g88
g89
ssg70
g3151
sg63
(lp3163
S':'
asbag56
(g77
g58
NtRp3164
(dp3165
g61
(dp3166
sg70
g3151
sg63
(lp3167
g56
(g57
g58
NtRp3168
(dp3169
g61
(dp3170
g69
I3
ssg70
g3164
sg63
(lp3171
g1889
asbasbasbag56
(g72
g58
NtRp3172
(dp3173
g61
(dp3174
sg70
g2640
sg63
(lp3175
g56
(g77
g58
NtRp3176
(dp3177
g61
(dp3178
g81
g82
ssg70
g3172
sg63
(lp3179
S'wsgi.run_once'
p3180
asbag56
(g77
g58
NtRp3181
(dp3182
g61
(dp3183
g88
g89
ssg70
g3172
sg63
(lp3184
S':'
asbag56
(g77
g58
NtRp3185
(dp3186
g61
(dp3187
sg70
g3172
sg63
(lp3188
g56
(g57
g58
NtRp3189
(dp3190
g61
(dp3191
g69
I3
ssg70
g3185
sg63
(lp3192
g99
asbasbasbag56
(g72
g58
NtRp3193
(dp3194
g61
(dp3195
sg70
g2640
sg63
(lp3196
g56
(g77
g58
NtRp3197
(dp3198
g61
(dp3199
g81
g82
ssg70
g3193
sg63
(lp3200
S'wsgi.url_scheme'
p3201
asbag56
(g77
g58
NtRp3202
(dp3203
g61
(dp3204
g88
g89
ssg70
g3193
sg63
(lp3205
S':'
asbag56
(g77
g58
NtRp3206
(dp3207
g61
(dp3208
sg70
g3193
sg63
(lp3209
g56
(g57
g58
NtRp3210
(dp3211
g61
(dp3212
g69
I3
ssg70
g3206
sg63
(lp3213
g1932
asbasbasbag56
(g72
g58
NtRp3214
(dp3215
g61
(dp3216
sg70
g2640
sg63
(lp3217
g56
(g77
g58
NtRp3218
(dp3219
g61
(dp3220
g81
g82
ssg70
g3214
sg63
(lp3221
S'wsgi.version'
p3222
asbag56
(g77
g58
NtRp3223
(dp3224
g61
(dp3225
g88
g89
ssg70
g3214
sg63
(lp3226
S':'
asbag56
(g77
g58
NtRp3227
(dp3228
g61
(dp3229
sg70
g3214
sg63
(lp3230
g56
(g57
g58
NtRp3231
(dp3232
g61
(dp3233
g69
I3
ssg70
g3227
sg63
(lp3234
S'1'
asbasbasbasbasbasbasbasbasbasbasbasbasbsS'frames'
p3235
(lp3236
(dp3237
S'file'
p3238
S'/home/kaique/Projects/web2py/gluon/restricted.py'
p3239
sS'dump'
p3240
(dp3241
S'environment'
p3242
S"{'A': <class 'gluon.html.A'>, 'Auth': <class 'gluon.tools.Auth'>, 'B': <class 'gluon.html.B'>, 'BEAUTIFY': <class 'gluon.html.BEAUTIFY'>, 'BODY': <class 'gluon.html.BODY'>, 'BR': <class 'gluon.html.BR'>, 'BUTTON': <class 'gluon.html.BUTTON'>, 'CAT': <class 'gluon.html.CAT'>, 'CENTER': <class 'gluon.html.CENTER'>, 'CLEANUP': <class 'gluon.validators.CLEANUP'>, ...}"
p3243
sS'ccode'
p3244
S'<code object <module> at 0x22eb7b0, file "/home/...b2py/applications/synopsis/models/db.py", line 8>'
p3245
ssS'lnum'
p3246
I194
sS'lines'
p3247
(dp3248
I192
S'        else:'
p3249
sI193
S'            ccode = compile2(code,layer)'
p3250
sI194
S'        exec ccode in environment'
p3251
sI195
S'    except HTTP:'
p3252
sI196
S'        raise'
p3253
sI197
S'    except Exception, error:'
p3254
sI198
S'        # XXX Show exception in Wing IDE if running in debugger'
p3255
sI189
S'    try:'
p3256
sI190
S'        if type(code) == types.CodeType:'
p3257
sI191
S'            ccode = code'
p3258
ssS'call'
p3259
S"(code='# -*- coding: utf-8 -*-\\n\\n#######################...ication, default=db.publication.id), signature )\\n', environment={'A': <class 'gluon.html.A'>, 'Auth': <class 'gluon.tools.Auth'>, 'B': <class 'gluon.html.B'>, 'BEAUTIFY': <class 'gluon.html.BEAUTIFY'>, 'BODY': <class 'gluon.html.BODY'>, 'BR': <class 'gluon.html.BR'>, 'BUTTON': <class 'gluon.html.BUTTON'>, 'CAT': <class 'gluon.html.CAT'>, 'CENTER': <class 'gluon.html.CENTER'>, 'CLEANUP': <class 'gluon.validators.CLEANUP'>, ...}, layer='/home/kaique/Projects/web2py/applications/synopsis/models/db.py')"
p3260
sS'func'
p3261
S'restricted'
p3262
sa(dp3263
g3238
S'/home/kaique/Projects/web2py/applications/synopsis/models/db.py'
p3264
sg3240
(dp3265
S'publication'
p3266
S'undefined'
p3267
sS'default'
p3268
g3267
sS'db.publication'
p3269
S"<Table {'ALL': <gluon.dal.SQLALL object at 0x2c3...0>, 'id': <gluon.dal.Field object at 0x2c38d90>}>"
p3270
sS'db'
p3271
S"<DAL {'auth_event': <Table {'origin': <gluon.dal..., 'id': <gluon.dal.Field object at 0x2c267d0>}>}>"
p3272
sS'Field'
p3273
S"<class 'gluon.dal.Field'>"
p3274
sS'signature'
p3275
S"<Table {'ALL': <gluon.dal.SQLALL object at 0x2c3...0>, 'id': <gluon.dal.Field object at 0x2c38a10>}>"
p3276
ssg3246
I88
sg3247
(dp3277
I83
S"\t\t\t\tField('title', 'string', required = True),"
p3278
sI84
S"\t\t\t\tField('sub_title', 'string'), signature )"
p3279
sI85
S'# Columns'
p3280
sI86
S"db.define_table( 'column',"
p3281
sI87
S"\t\t\t\tField('title', 'string', required = True),"
p3282
sI88
S"\t\t\t\tField('publication_id', 'integer', db.publication, default=publication.id), signature )"
p3283
sI89
S'# Rows'
p3284
sI90
S"db.define_table( 'row',"
p3285
sI91
S"\t\t\t\tField('content', 'text', required = True),"
p3286
sI92
S"\t\t\t\tField('column_id', 'integer', db.column, default=db.column.id), signature )"
p3287
ssg3259
S'()'
p3288
sg3261
S'<module>'
p3289
sasS'pyver'
p3290
S'Python 2.7.2+: /usr/bin/python'
p3291
sS'session'
p3292
g56
(g57
g58
NtRp3293
(dp3294
g61
(dp3295
sg63
(lp3296
g56
(g65
g58
NtRp3297
(dp3298
g61
(dp3299
g69
I5
ssg70
Nsg63
(lp3300
g56
(g72
g58
NtRp3301
(dp3302
g61
(dp3303
sg70
g3297
sg63
(lp3304
g56
(g77
g58
NtRp3305
(dp3306
g61
(dp3307
g81
g82
ssg70
g3301
sg63
(lp3308
S'auth'
p3309
asbag56
(g77
g58
NtRp3310
(dp3311
g61
(dp3312
g88
g89
ssg70
g3301
sg63
(lp3313
S':'
asbag56
(g77
g58
NtRp3314
(dp3315
g61
(dp3316
sg70
g3301
sg63
(lp3317
g56
(g57
g58
NtRp3318
(dp3319
g61
(dp3320
g69
I5
ssg70
g3314
sg63
(lp3321
g56
(g65
g58
NtRp3322
(dp3323
g61
(dp3324
g69
I4
ssg70
Nsg63
(lp3325
g56
(g72
g58
NtRp3326
(dp3327
g61
(dp3328
sg70
g3322
sg63
(lp3329
g56
(g77
g58
NtRp3330
(dp3331
g61
(dp3332
g81
g82
ssg70
g3326
sg63
(lp3333
S'expiration'
p3334
asbag56
(g77
g58
NtRp3335
(dp3336
g61
(dp3337
g88
g89
ssg70
g3326
sg63
(lp3338
S':'
asbag56
(g77
g58
NtRp3339
(dp3340
g61
(dp3341
sg70
g3326
sg63
(lp3342
g56
(g57
g58
NtRp3343
(dp3344
g61
(dp3345
g69
I4
ssg70
g3339
sg63
(lp3346
S'3600'
p3347
asbasbasbag56
(g72
g58
NtRp3348
(dp3349
g61
(dp3350
sg70
g3322
sg63
(lp3351
g56
(g77
g58
NtRp3352
(dp3353
g61
(dp3354
g81
g82
ssg70
g3348
sg63
(lp3355
S'hmac_key'
p3356
asbag56
(g77
g58
NtRp3357
(dp3358
g61
(dp3359
g88
g89
ssg70
g3348
sg63
(lp3360
S':'
asbag56
(g77
g58
NtRp3361
(dp3362
g61
(dp3363
sg70
g3348
sg63
(lp3364
g56
(g57
g58
NtRp3365
(dp3366
g61
(dp3367
g69
I4
ssg70
g3361
sg63
(lp3368
S'31e928d6-595b-4fe3-9fff-48a448d5f711'
p3369
asbasbasbag56
(g72
g58
NtRp3370
(dp3371
g61
(dp3372
sg70
g3322
sg63
(lp3373
g56
(g77
g58
NtRp3374
(dp3375
g61
(dp3376
g81
g82
ssg70
g3370
sg63
(lp3377
S'last_visit'
p3378
asbag56
(g77
g58
NtRp3379
(dp3380
g61
(dp3381
g88
g89
ssg70
g3370
sg63
(lp3382
S':'
asbag56
(g77
g58
NtRp3383
(dp3384
g61
(dp3385
sg70
g3370
sg63
(lp3386
g56
(g57
g58
NtRp3387
(dp3388
g61
(dp3389
g69
I4
ssg70
g3383
sg63
(lp3390
S'datetime.datetime(2012, 1, 11, 17, 26, 22, 284173)'
p3391
asbasbasbag56
(g72
g58
NtRp3392
(dp3393
g61
(dp3394
sg70
g3322
sg63
(lp3395
g56
(g77
g58
NtRp3396
(dp3397
g61
(dp3398
g81
g82
ssg70
g3392
sg63
(lp3399
S'user'
p3400
asbag56
(g77
g58
NtRp3401
(dp3402
g61
(dp3403
g88
g89
ssg70
g3392
sg63
(lp3404
S':'
asbag56
(g77
g58
NtRp3405
(dp3406
g61
(dp3407
sg70
g3392
sg63
(lp3408
g56
(g57
g58
NtRp3409
(dp3410
g61
(dp3411
g69
I4
ssg70
g3405
sg63
(lp3412
g56
(g65
g58
NtRp3413
(dp3414
g61
(dp3415
g69
I3
ssg70
Nsg63
(lp3416
g56
(g72
g58
NtRp3417
(dp3418
g61
(dp3419
sg70
g3413
sg63
(lp3420
g56
(g77
g58
NtRp3421
(dp3422
g61
(dp3423
g81
g82
ssg70
g3417
sg63
(lp3424
S'email'
p3425
asbag56
(g77
g58
NtRp3426
(dp3427
g61
(dp3428
g88
g89
ssg70
g3417
sg63
(lp3429
S':'
asbag56
(g77
g58
NtRp3430
(dp3431
g61
(dp3432
sg70
g3417
sg63
(lp3433
g56
(g57
g58
NtRp3434
(dp3435
g61
(dp3436
g69
I3
ssg70
g3430
sg63
(lp3437
S'kaique.developer@gmail.com'
p3438
asbasbasbag56
(g72
g58
NtRp3439
(dp3440
g61
(dp3441
sg70
g3413
sg63
(lp3442
g56
(g77
g58
NtRp3443
(dp3444
g61
(dp3445
g81
g82
ssg70
g3439
sg63
(lp3446
S'first_name'
p3447
asbag56
(g77
g58
NtRp3448
(dp3449
g61
(dp3450
g88
g89
ssg70
g3439
sg63
(lp3451
S':'
asbag56
(g77
g58
NtRp3452
(dp3453
g61
(dp3454
sg70
g3439
sg63
(lp3455
g56
(g57
g58
NtRp3456
(dp3457
g61
(dp3458
g69
I3
ssg70
g3452
sg63
(lp3459
S'kaique'
p3460
asbasbasbag56
(g72
g58
NtRp3461
(dp3462
g61
(dp3463
sg70
g3413
sg63
(lp3464
g56
(g77
g58
NtRp3465
(dp3466
g61
(dp3467
g81
g82
ssg70
g3461
sg63
(lp3468
S'id'
p3469
asbag56
(g77
g58
NtRp3470
(dp3471
g61
(dp3472
g88
g89
ssg70
g3461
sg63
(lp3473
S':'
asbag56
(g77
g58
NtRp3474
(dp3475
g61
(dp3476
sg70
g3461
sg63
(lp3477
g56
(g57
g58
NtRp3478
(dp3479
g61
(dp3480
g69
I3
ssg70
g3474
sg63
(lp3481
S'1'
asbasbasbag56
(g72
g58
NtRp3482
(dp3483
g61
(dp3484
sg70
g3413
sg63
(lp3485
g56
(g77
g58
NtRp3486
(dp3487
g61
(dp3488
g81
g82
ssg70
g3482
sg63
(lp3489
S'last_name'
p3490
asbag56
(g77
g58
NtRp3491
(dp3492
g61
(dp3493
g88
g89
ssg70
g3482
sg63
(lp3494
S':'
asbag56
(g77
g58
NtRp3495
(dp3496
g61
(dp3497
sg70
g3482
sg63
(lp3498
g56
(g57
g58
NtRp3499
(dp3500
g61
(dp3501
g69
I3
ssg70
g3495
sg63
(lp3502
S'silva'
p3503
asbasbasbag56
(g72
g58
NtRp3504
(dp3505
g61
(dp3506
sg70
g3413
sg63
(lp3507
g56
(g77
g58
NtRp3508
(dp3509
g61
(dp3510
g81
g82
ssg70
g3504
sg63
(lp3511
S'password'
p3512
asbag56
(g77
g58
NtRp3513
(dp3514
g61
(dp3515
g88
g89
ssg70
g3504
sg63
(lp3516
S':'
asbag56
(g77
g58
NtRp3517
(dp3518
g61
(dp3519
sg70
g3504
sg63
(lp3520
g56
(g57
g58
NtRp3521
(dp3522
g61
(dp3523
g69
I3
ssg70
g3517
sg63
(lp3524
S'72c6a018d62d3fb47d95389e4a062cd2'
p3525
asbasbasbag56
(g72
g58
NtRp3526
(dp3527
g61
(dp3528
sg70
g3413
sg63
(lp3529
g56
(g77
g58
NtRp3530
(dp3531
g61
(dp3532
g81
g82
ssg70
g3526
sg63
(lp3533
S'registration_key'
p3534
asbag56
(g77
g58
NtRp3535
(dp3536
g61
(dp3537
g88
g89
ssg70
g3526
sg63
(lp3538
S':'
asbag56
(g77
g58
NtRp3539
(dp3540
g61
(dp3541
sg70
g3526
sg63
(lp3542
g56
(g57
g58
NtRp3543
(dp3544
g61
(dp3545
g69
I3
ssg70
g3539
sg63
(lp3546
S''
asbasbasbag56
(g72
g58
NtRp3547
(dp3548
g61
(dp3549
sg70
g3413
sg63
(lp3550
g56
(g77
g58
NtRp3551
(dp3552
g61
(dp3553
g81
g82
ssg70
g3547
sg63
(lp3554
S'reset_password_key'
p3555
asbag56
(g77
g58
NtRp3556
(dp3557
g61
(dp3558
g88
g89
ssg70
g3547
sg63
(lp3559
S':'
asbag56
(g77
g58
NtRp3560
(dp3561
g61
(dp3562
sg70
g3547
sg63
(lp3563
g56
(g57
g58
NtRp3564
(dp3565
g61
(dp3566
g69
I3
ssg70
g3560
sg63
(lp3567
S''
asbasbasbasbasbasbasbasbasbasbasbag56
(g72
g58
NtRp3568
(dp3569
g61
(dp3570
sg70
g3297
sg63
(lp3571
g56
(g77
g58
NtRp3572
(dp3573
g61
(dp3574
g81
g82
ssg70
g3568
sg63
(lp3575
S'last_query'
p3576
asbag56
(g77
g58
NtRp3577
(dp3578
g61
(dp3579
g88
g89
ssg70
g3568
sg63
(lp3580
S':'
asbag56
(g77
g58
NtRp3581
(dp3582
g61
(dp3583
sg70
g3568
sg63
(lp3584
g56
(g57
g58
NtRp3585
(dp3586
g61
(dp3587
g69
I5
ssg70
g3581
sg63
(lp3588
S'db.auth_user.id>0'
p3589
asbasbasbasbasbsS'etype'
p3590
S"<type 'exceptions.NameError'>"
p3591
sS'date'
p3592
S'Wed Jan 11 17:29:36 2012'
p3593
sS'response'
p3594
g56
(g57
g58
NtRp3595
(dp3596
g61
(dp3597
sg63
(lp3598
g56
(g65
g58
NtRp3599
(dp3600
g61
(dp3601
g69
I5
ssg70
Nsg63
(lp3602
g56
(g72
g58
NtRp3603
(dp3604
g61
(dp3605
sg70
g3599
sg63
(lp3606
g56
(g77
g58
NtRp3607
(dp3608
g61
(dp3609
g81
g82
ssg70
g3603
sg63
(lp3610
g180
asbag56
(g77
g58
NtRp3611
(dp3612
g61
(dp3613
g88
g89
ssg70
g3603
sg63
(lp3614
S':'
asbag56
(g77
g58
NtRp3615
(dp3616
g61
(dp3617
sg70
g3603
sg63
(lp3618
g56
(g57
g58
NtRp3619
(dp3620
g61
(dp3621
g69
I5
ssg70
g3615
sg63
(lp3622
S'<cStringIO.StringO object at 0x27b6b90>'
p3623
asbasbasbag56
(g72
g58
NtRp3624
(dp3625
g61
(dp3626
sg70
g3599
sg63
(lp3627
g56
(g77
g58
NtRp3628
(dp3629
g61
(dp3630
g81
g82
ssg70
g3624
sg63
(lp3631
g246
asbag56
(g77
g58
NtRp3632
(dp3633
g61
(dp3634
g88
g89
ssg70
g3624
sg63
(lp3635
S':'
asbag56
(g77
g58
NtRp3636
(dp3637
g61
(dp3638
sg70
g3624
sg63
(lp3639
g56
(g57
g58
NtRp3640
(dp3641
g61
(dp3642
g69
I5
ssg70
g3636
sg63
(lp3643
g56
(g65
g58
NtRp3644
(dp3645
g61
(dp3646
g69
I4
ssg70
Nsg63
(lp3647
g56
(g72
g58
NtRp3648
(dp3649
g61
(dp3650
sg70
g3644
sg63
(lp3651
g56
(g77
g58
NtRp3652
(dp3653
g61
(dp3654
g81
g82
ssg70
g3648
sg63
(lp3655
S'session_id_synopsis'
p3656
asbag56
(g77
g58
NtRp3657
(dp3658
g61
(dp3659
g88
g89
ssg70
g3648
sg63
(lp3660
S':'
asbag56
(g77
g58
NtRp3661
(dp3662
g61
(dp3663
sg70
g3648
sg63
(lp3664
g56
(g57
g58
NtRp3665
(dp3666
g61
(dp3667
g69
I4
ssg70
g3661
sg63
(lp3668
g56
(g65
g58
NtRp3669
(dp3670
g61
(dp3671
g69
I3
ssg70
Nsg63
(lp3672
g56
(g72
g58
NtRp3673
(dp3674
g61
(dp3675
sg70
g3669
sg63
(lp3676
g56
(g77
g58
NtRp3677
(dp3678
g61
(dp3679
g81
g82
ssg70
g3673
sg63
(lp3680
g296
asbag56
(g77
g58
NtRp3681
(dp3682
g61
(dp3683
g88
g89
ssg70
g3673
sg63
(lp3684
S':'
asbag56
(g77
g58
NtRp3685
(dp3686
g61
(dp3687
sg70
g3673
sg63
(lp3688
g56
(g57
g58
NtRp3689
(dp3690
g61
(dp3691
g69
I3
ssg70
g3685
sg63
(lp3692
S''
asbasbasbag56
(g72
g58
NtRp3693
(dp3694
g61
(dp3695
sg70
g3669
sg63
(lp3696
g56
(g77
g58
NtRp3697
(dp3698
g61
(dp3699
g81
g82
ssg70
g3693
sg63
(lp3700
g317
asbag56
(g77
g58
NtRp3701
(dp3702
g61
(dp3703
g88
g89
ssg70
g3693
sg63
(lp3704
S':'
asbag56
(g77
g58
NtRp3705
(dp3706
g61
(dp3707
sg70
g3693
sg63
(lp3708
g56
(g57
g58
NtRp3709
(dp3710
g61
(dp3711
g69
I3
ssg70
g3705
sg63
(lp3712
S''
asbasbasbag56
(g72
g58
NtRp3713
(dp3714
g61
(dp3715
sg70
g3669
sg63
(lp3716
g56
(g77
g58
NtRp3717
(dp3718
g61
(dp3719
g81
g82
ssg70
g3713
sg63
(lp3720
g338
asbag56
(g77
g58
NtRp3721
(dp3722
g61
(dp3723
g88
g89
ssg70
g3713
sg63
(lp3724
S':'
asbag56
(g77
g58
NtRp3725
(dp3726
g61
(dp3727
sg70
g3713
sg63
(lp3728
g56
(g57
g58
NtRp3729
(dp3730
g61
(dp3731
g69
I3
ssg70
g3725
sg63
(lp3732
S''
asbasbasbag56
(g72
g58
NtRp3733
(dp3734
g61
(dp3735
sg70
g3669
sg63
(lp3736
g56
(g77
g58
NtRp3737
(dp3738
g61
(dp3739
g81
g82
ssg70
g3733
sg63
(lp3740
g359
asbag56
(g77
g58
NtRp3741
(dp3742
g61
(dp3743
g88
g89
ssg70
g3733
sg63
(lp3744
S':'
asbag56
(g77
g58
NtRp3745
(dp3746
g61
(dp3747
sg70
g3733
sg63
(lp3748
g56
(g57
g58
NtRp3749
(dp3750
g61
(dp3751
g69
I3
ssg70
g3745
sg63
(lp3752
S''
asbasbasbag56
(g72
g58
NtRp3753
(dp3754
g61
(dp3755
sg70
g3669
sg63
(lp3756
g56
(g77
g58
NtRp3757
(dp3758
g61
(dp3759
g81
g82
ssg70
g3753
sg63
(lp3760
g380
asbag56
(g77
g58
NtRp3761
(dp3762
g61
(dp3763
g88
g89
ssg70
g3753
sg63
(lp3764
S':'
asbag56
(g77
g58
NtRp3765
(dp3766
g61
(dp3767
sg70
g3753
sg63
(lp3768
g56
(g57
g58
NtRp3769
(dp3770
g61
(dp3771
g69
I3
ssg70
g3765
sg63
(lp3772
S''
asbasbasbag56
(g72
g58
NtRp3773
(dp3774
g61
(dp3775
sg70
g3669
sg63
(lp3776
g56
(g77
g58
NtRp3777
(dp3778
g61
(dp3779
g81
g82
ssg70
g3773
sg63
(lp3780
g401
asbag56
(g77
g58
NtRp3781
(dp3782
g61
(dp3783
g88
g89
ssg70
g3773
sg63
(lp3784
S':'
asbag56
(g77
g58
NtRp3785
(dp3786
g61
(dp3787
sg70
g3773
sg63
(lp3788
g56
(g57
g58
NtRp3789
(dp3790
g61
(dp3791
g69
I3
ssg70
g3785
sg63
(lp3792
S'/'
asbasbasbag56
(g72
g58
NtRp3793
(dp3794
g61
(dp3795
sg70
g3669
sg63
(lp3796
g56
(g77
g58
NtRp3797
(dp3798
g61
(dp3799
g81
g82
ssg70
g3793
sg63
(lp3800
g422
asbag56
(g77
g58
NtRp3801
(dp3802
g61
(dp3803
g88
g89
ssg70
g3793
sg63
(lp3804
S':'
asbag56
(g77
g58
NtRp3805
(dp3806
g61
(dp3807
sg70
g3793
sg63
(lp3808
g56
(g57
g58
NtRp3809
(dp3810
g61
(dp3811
g69
I3
ssg70
g3805
sg63
(lp3812
S''
asbasbasbag56
(g72
g58
NtRp3813
(dp3814
g61
(dp3815
sg70
g3669
sg63
(lp3816
g56
(g77
g58
NtRp3817
(dp3818
g61
(dp3819
g81
g82
ssg70
g3813
sg63
(lp3820
g443
asbag56
(g77
g58
NtRp3821
(dp3822
g61
(dp3823
g88
g89
ssg70
g3813
sg63
(lp3824
S':'
asbag56
(g77
g58
NtRp3825
(dp3826
g61
(dp3827
sg70
g3813
sg63
(lp3828
g56
(g57
g58
NtRp3829
(dp3830
g61
(dp3831
g69
I3
ssg70
g3825
sg63
(lp3832
S''
asbasbasbasbasbasbasbasbasbasbasbag56
(g72
g58
NtRp3833
(dp3834
g61
(dp3835
sg70
g3599
sg63
(lp3836
g56
(g77
g58
NtRp3837
(dp3838
g61
(dp3839
g81
g82
ssg70
g3833
sg63
(lp3840
S'files'
p3841
asbag56
(g77
g58
NtRp3842
(dp3843
g61
(dp3844
g88
g89
ssg70
g3833
sg63
(lp3845
S':'
asbag56
(g77
g58
NtRp3846
(dp3847
g61
(dp3848
sg70
g3833
sg63
(lp3849
g56
(g57
g58
NtRp3850
(dp3851
g61
(dp3852
g69
I5
ssg70
g3846
sg63
(lp3853
g56
(g65
g58
NtRp3854
(dp3855
g61
(dp3856
g69
I4
ssg70
Nsg63
(lp3857
sbasbasbasbag56
(g72
g58
NtRp3858
(dp3859
g61
(dp3860
sg70
g3599
sg63
(lp3861
g56
(g77
g58
NtRp3862
(dp3863
g61
(dp3864
g81
g82
ssg70
g3858
sg63
(lp3865
S'flash'
p3866
asbag56
(g77
g58
NtRp3867
(dp3868
g61
(dp3869
g88
g89
ssg70
g3858
sg63
(lp3870
S':'
asbag56
(g77
g58
NtRp3871
(dp3872
g61
(dp3873
sg70
g3858
sg63
(lp3874
g56
(g57
g58
NtRp3875
(dp3876
g61
(dp3877
g69
I5
ssg70
g3871
sg63
(lp3878
S''
asbasbasbag56
(g72
g58
NtRp3879
(dp3880
g61
(dp3881
sg70
g3599
sg63
(lp3882
g56
(g77
g58
NtRp3883
(dp3884
g61
(dp3885
g81
g82
ssg70
g3879
sg63
(lp3886
S'generic_patterns'
p3887
asbag56
(g77
g58
NtRp3888
(dp3889
g61
(dp3890
g88
g89
ssg70
g3879
sg63
(lp3891
S':'
asbag56
(g77
g58
NtRp3892
(dp3893
g61
(dp3894
sg70
g3879
sg63
(lp3895
g56
(g57
g58
NtRp3896
(dp3897
g61
(dp3898
g69
I5
ssg70
g3892
sg63
(lp3899
g56
(g65
g58
NtRp3900
(dp3901
g61
(dp3902
g69
I4
ssg70
Nsg63
(lp3903
g56
(g72
g58
NtRp3904
(dp3905
g61
(dp3906
sg70
g3900
sg63
(lp3907
g56
(g77
g58
NtRp3908
(dp3909
g61
(dp3910
sg70
g3904
sg63
(lp3911
g56
(g57
g58
NtRp3912
(dp3913
g61
(dp3914
g69
I4
ssg70
g3908
sg63
(lp3915
S'*'
asbasbasbasbasbasbasbag56
(g72
g58
NtRp3916
(dp3917
g61
(dp3918
sg70
g3599
sg63
(lp3919
g56
(g77
g58
NtRp3920
(dp3921
g61
(dp3922
g81
g82
ssg70
g3916
sg63
(lp3923
S'headers'
p3924
asbag56
(g77
g58
NtRp3925
(dp3926
g61
(dp3927
g88
g89
ssg70
g3916
sg63
(lp3928
S':'
asbag56
(g77
g58
NtRp3929
(dp3930
g61
(dp3931
sg70
g3916
sg63
(lp3932
g56
(g57
g58
NtRp3933
(dp3934
g61
(dp3935
g69
I5
ssg70
g3929
sg63
(lp3936
g56
(g65
g58
NtRp3937
(dp3938
g61
(dp3939
g69
I4
ssg70
Nsg63
(lp3940
g56
(g72
g58
NtRp3941
(dp3942
g61
(dp3943
sg70
g3937
sg63
(lp3944
g56
(g77
g58
NtRp3945
(dp3946
g61
(dp3947
g81
g82
ssg70
g3941
sg63
(lp3948
S'Cache-Control'
p3949
asbag56
(g77
g58
NtRp3950
(dp3951
g61
(dp3952
g88
g89
ssg70
g3941
sg63
(lp3953
S':'
asbag56
(g77
g58
NtRp3954
(dp3955
g61
(dp3956
sg70
g3941
sg63
(lp3957
g56
(g57
g58
NtRp3958
(dp3959
g61
(dp3960
g69
I4
ssg70
g3954
sg63
(lp3961
S'no-store, no-cache, must-revalidate, post-check=0, pre-check=0'
p3962
asbasbasbag56
(g72
g58
NtRp3963
(dp3964
g61
(dp3965
sg70
g3937
sg63
(lp3966
g56
(g77
g58
NtRp3967
(dp3968
g61
(dp3969
g81
g82
ssg70
g3963
sg63
(lp3970
S'Content-Type'
p3971
asbag56
(g77
g58
NtRp3972
(dp3973
g61
(dp3974
g88
g89
ssg70
g3963
sg63
(lp3975
S':'
asbag56
(g77
g58
NtRp3976
(dp3977
g61
(dp3978
sg70
g3963
sg63
(lp3979
g56
(g57
g58
NtRp3980
(dp3981
g61
(dp3982
g69
I4
ssg70
g3976
sg63
(lp3983
S'text/html; charset=utf-8'
p3984
asbasbasbag56
(g72
g58
NtRp3985
(dp3986
g61
(dp3987
sg70
g3937
sg63
(lp3988
g56
(g77
g58
NtRp3989
(dp3990
g61
(dp3991
g81
g82
ssg70
g3985
sg63
(lp3992
S'Expires'
p3993
asbag56
(g77
g58
NtRp3994
(dp3995
g61
(dp3996
g88
g89
ssg70
g3985
sg63
(lp3997
S':'
asbag56
(g77
g58
NtRp3998
(dp3999
g61
(dp4000
sg70
g3985
sg63
(lp4001
g56
(g57
g58
NtRp4002
(dp4003
g61
(dp4004
g69
I4
ssg70
g3998
sg63
(lp4005
S'Wed, 11 Jan 2012 19:29:36 GMT'
p4006
asbasbasbag56
(g72
g58
NtRp4007
(dp4008
g61
(dp4009
sg70
g3937
sg63
(lp4010
g56
(g77
g58
NtRp4011
(dp4012
g61
(dp4013
g81
g82
ssg70
g4007
sg63
(lp4014
S'Pragma'
p4015
asbag56
(g77
g58
NtRp4016
(dp4017
g61
(dp4018
g88
g89
ssg70
g4007
sg63
(lp4019
S':'
asbag56
(g77
g58
NtRp4020
(dp4021
g61
(dp4022
sg70
g4007
sg63
(lp4023
g56
(g57
g58
NtRp4024
(dp4025
g61
(dp4026
g69
I4
ssg70
g4020
sg63
(lp4027
S'no-cache'
p4028
asbasbasbag56
(g72
g58
NtRp4029
(dp4030
g61
(dp4031
sg70
g3937
sg63
(lp4032
g56
(g77
g58
NtRp4033
(dp4034
g61
(dp4035
g81
g82
ssg70
g4029
sg63
(lp4036
S'X-Powered-By'
p4037
asbag56
(g77
g58
NtRp4038
(dp4039
g61
(dp4040
g88
g89
ssg70
g4029
sg63
(lp4041
S':'
asbag56
(g77
g58
NtRp4042
(dp4043
g61
(dp4044
sg70
g4029
sg63
(lp4045
g56
(g57
g58
NtRp4046
(dp4047
g61
(dp4048
g69
I4
ssg70
g4042
sg63
(lp4049
S'web2py'
p4050
asbasbasbasbasbasbasbag56
(g72
g58
NtRp4051
(dp4052
g61
(dp4053
sg70
g3599
sg63
(lp4054
g56
(g77
g58
NtRp4055
(dp4056
g61
(dp4057
g81
g82
ssg70
g4051
sg63
(lp4058
S'menu'
p4059
asbag56
(g77
g58
NtRp4060
(dp4061
g61
(dp4062
g88
g89
ssg70
g4051
sg63
(lp4063
S':'
asbag56
(g77
g58
NtRp4064
(dp4065
g61
(dp4066
sg70
g4051
sg63
(lp4067
g56
(g57
g58
NtRp4068
(dp4069
g61
(dp4070
g69
I5
ssg70
g4064
sg63
(lp4071
g56
(g65
g58
NtRp4072
(dp4073
g61
(dp4074
g69
I4
ssg70
Nsg63
(lp4075
sbasbasbasbag56
(g72
g58
NtRp4076
(dp4077
g61
(dp4078
sg70
g3599
sg63
(lp4079
g56
(g77
g58
NtRp4080
(dp4081
g61
(dp4082
g81
g82
ssg70
g4076
sg63
(lp4083
S'meta'
p4084
asbag56
(g77
g58
NtRp4085
(dp4086
g61
(dp4087
g88
g89
ssg70
g4076
sg63
(lp4088
S':'
asbag56
(g77
g58
NtRp4089
(dp4090
g61
(dp4091
sg70
g4076
sg63
(lp4092
g56
(g57
g58
NtRp4093
(dp4094
g61
(dp4095
g69
I5
ssg70
g4089
sg63
(lp4096
g56
(g65
g58
NtRp4097
(dp4098
g61
(dp4099
g69
I4
ssg70
Nsg63
(lp4100
sbasbasbasbag56
(g72
g58
NtRp4101
(dp4102
g61
(dp4103
sg70
g3599
sg63
(lp4104
g56
(g77
g58
NtRp4105
(dp4106
g61
(dp4107
g81
g82
ssg70
g4101
sg63
(lp4108
S'postprocessing'
p4109
asbag56
(g77
g58
NtRp4110
(dp4111
g61
(dp4112
g88
g89
ssg70
g4101
sg63
(lp4113
S':'
asbag56
(g77
g58
NtRp4114
(dp4115
g61
(dp4116
sg70
g4101
sg63
(lp4117
g56
(g57
g58
NtRp4118
(dp4119
g61
(dp4120
g69
I5
ssg70
g4114
sg63
(lp4121
g56
(g65
g58
NtRp4122
(dp4123
g61
(dp4124
g69
I4
ssg70
Nsg63
(lp4125
sbasbasbasbag56
(g72
g58
NtRp4126
(dp4127
g61
(dp4128
sg70
g3599
sg63
(lp4129
g56
(g77
g58
NtRp4130
(dp4131
g61
(dp4132
g81
g82
ssg70
g4126
sg63
(lp4133
S'session_file'
p4134
asbag56
(g77
g58
NtRp4135
(dp4136
g61
(dp4137
g88
g89
ssg70
g4126
sg63
(lp4138
S':'
asbag56
(g77
g58
NtRp4139
(dp4140
g61
(dp4141
sg70
g4126
sg63
(lp4142
g56
(g57
g58
NtRp4143
(dp4144
g61
(dp4145
g69
I5
ssg70
g4139
sg63
(lp4146
S"<open file '/home/kaique/Projects/web2py/applications/synopsis/sessions/127.0.0.1-e40e1056-0c97-4101-beca-f6fff517534b', mode 'rb+' at 0x27afc90>"
p4147
asbasbasbag56
(g72
g58
NtRp4148
(dp4149
g61
(dp4150
sg70
g3599
sg63
(lp4151
g56
(g77
g58
NtRp4152
(dp4153
g61
(dp4154
g81
g82
ssg70
g4148
sg63
(lp4155
S'session_filename'
p4156
asbag56
(g77
g58
NtRp4157
(dp4158
g61
(dp4159
g88
g89
ssg70
g4148
sg63
(lp4160
S':'
asbag56
(g77
g58
NtRp4161
(dp4162
g61
(dp4163
sg70
g4148
sg63
(lp4164
g56
(g57
g58
NtRp4165
(dp4166
g61
(dp4167
g69
I5
ssg70
g4161
sg63
(lp4168
S'/home/kaique/Projects/web2py/applications/synopsis/sessions/127.0.0.1-e40e1056-0c97-4101-beca-f6fff517534b'
p4169
asbasbasbag56
(g72
g58
NtRp4170
(dp4171
g61
(dp4172
sg70
g3599
sg63
(lp4173
g56
(g77
g58
NtRp4174
(dp4175
g61
(dp4176
g81
g82
ssg70
g4170
sg63
(lp4177
S'session_id'
p4178
asbag56
(g77
g58
NtRp4179
(dp4180
g61
(dp4181
g88
g89
ssg70
g4170
sg63
(lp4182
S':'
asbag56
(g77
g58
NtRp4183
(dp4184
g61
(dp4185
sg70
g4170
sg63
(lp4186
g56
(g57
g58
NtRp4187
(dp4188
g61
(dp4189
g69
I5
ssg70
g4183
sg63
(lp4190
S'127.0.0.1-e40e1056-0c97-4101-beca-f6fff517534b'
p4191
asbasbasbag56
(g72
g58
NtRp4192
(dp4193
g61
(dp4194
sg70
g3599
sg63
(lp4195
g56
(g77
g58
NtRp4196
(dp4197
g61
(dp4198
g81
g82
ssg70
g4192
sg63
(lp4199
S'session_id_name'
p4200
asbag56
(g77
g58
NtRp4201
(dp4202
g61
(dp4203
g88
g89
ssg70
g4192
sg63
(lp4204
S':'
asbag56
(g77
g58
NtRp4205
(dp4206
g61
(dp4207
sg70
g4192
sg63
(lp4208
g56
(g57
g58
NtRp4209
(dp4210
g61
(dp4211
g69
I5
ssg70
g4205
sg63
(lp4212
g3656
asbasbasbag56
(g72
g58
NtRp4213
(dp4214
g61
(dp4215
sg70
g3599
sg63
(lp4216
g56
(g77
g58
NtRp4217
(dp4218
g61
(dp4219
g81
g82
ssg70
g4213
sg63
(lp4220
S'session_locked'
p4221
asbag56
(g77
g58
NtRp4222
(dp4223
g61
(dp4224
g88
g89
ssg70
g4213
sg63
(lp4225
S':'
asbag56
(g77
g58
NtRp4226
(dp4227
g61
(dp4228
sg70
g4213
sg63
(lp4229
g56
(g57
g58
NtRp4230
(dp4231
g61
(dp4232
g69
I5
ssg70
g4226
sg63
(lp4233
g1889
asbasbasbag56
(g72
g58
NtRp4234
(dp4235
g61
(dp4236
sg70
g3599
sg63
(lp4237
g56
(g77
g58
NtRp4238
(dp4239
g61
(dp4240
g81
g82
ssg70
g4234
sg63
(lp4241
S'session_new'
p4242
asbag56
(g77
g58
NtRp4243
(dp4244
g61
(dp4245
g88
g89
ssg70
g4234
sg63
(lp4246
S':'
asbag56
(g77
g58
NtRp4247
(dp4248
g61
(dp4249
sg70
g4234
sg63
(lp4250
g56
(g57
g58
NtRp4251
(dp4252
g61
(dp4253
g69
I5
ssg70
g4247
sg63
(lp4254
g99
asbasbasbag56
(g72
g58
NtRp4255
(dp4256
g61
(dp4257
sg70
g3599
sg63
(lp4258
g56
(g77
g58
NtRp4259
(dp4260
g61
(dp4261
g81
g82
ssg70
g4255
sg63
(lp4262
S'status'
p4263
asbag56
(g77
g58
NtRp4264
(dp4265
g61
(dp4266
g88
g89
ssg70
g4255
sg63
(lp4267
S':'
asbag56
(g77
g58
NtRp4268
(dp4269
g61
(dp4270
sg70
g4255
sg63
(lp4271
g56
(g57
g58
NtRp4272
(dp4273
g61
(dp4274
g69
I5
ssg70
g4268
sg63
(lp4275
S'200'
p4276
asbasbasbag56
(g72
g58
NtRp4277
(dp4278
g61
(dp4279
sg70
g3599
sg63
(lp4280
g56
(g77
g58
NtRp4281
(dp4282
g61
(dp4283
g81
g82
ssg70
g4277
sg63
(lp4284
g2555
asbag56
(g77
g58
NtRp4285
(dp4286
g61
(dp4287
g88
g89
ssg70
g4277
sg63
(lp4288
S':'
asbag56
(g77
g58
NtRp4289
(dp4290
g61
(dp4291
sg70
g4277
sg63
(lp4292
g56
(g57
g58
NtRp4293
(dp4294
g61
(dp4295
g69
I5
ssg70
g4289
sg63
(lp4296
g2568
asbasbasbag56
(g72
g58
NtRp4297
(dp4298
g61
(dp4299
sg70
g3599
sg63
(lp4300
g56
(g77
g58
NtRp4301
(dp4302
g61
(dp4303
g81
g82
ssg70
g4297
sg63
(lp4304
S'view'
p4305
asbag56
(g77
g58
NtRp4306
(dp4307
g61
(dp4308
g88
g89
ssg70
g4297
sg63
(lp4309
S':'
asbag56
(g77
g58
NtRp4310
(dp4311
g61
(dp4312
sg70
g4297
sg63
(lp4313
g56
(g57
g58
NtRp4314
(dp4315
g61
(dp4316
g69
I5
ssg70
g4310
sg63
(lp4317
S'appadmin/insert.html'
p4318
asbasbasbasbasbsS'locals'
p4319
(dp4320
S'Service'
p4321
S"<class 'gluon.tools.Service'>"
p4322
sS'OBJECT'
p4323
S"<class 'gluon.html.OBJECT'>"
p4324
sS'SQLDB'
p4325
S"<class 'gluon.dal.DAL'>"
p4326
sg3292
S"<Storage {'_formkey[column/create]': '9a3a0d2a-5...': 1, 'email': 'kaique.developer@gmail.com'}>}>}>"
p4327
sS'LINK'
p4328
S"<class 'gluon.html.LINK'>"
p4329
sS'BR'
p4330
S"<class 'gluon.html.BR'>"
p4331
sS'local_import'
p4332
S'<function <lambda>>'
p4333
sS'OPTGROUP'
p4334
S"<class 'gluon.html.OPTGROUP'>"
p4335
sS'PRE'
p4336
S"<class 'gluon.html.PRE'>"
p4337
sS'IS_INT_IN_RANGE'
p4338
S"<class 'gluon.validators.IS_INT_IN_RANGE'>"
p4339
sS'IS_LOWER'
p4340
S"<class 'gluon.validators.IS_LOWER'>"
p4341
sS'IS_STRONG'
p4342
S"<class 'gluon.validators.IS_STRONG'>"
p4343
sS'cache'
p4344
S'<gluon.cache.Cache object>'
p4345
sS'IS_IN_DB'
p4346
S"<class 'gluon.validators.IS_IN_DB'>"
p4347
sS'TAG'
p4348
S'<gluon.html.__TAG__ object>'
p4349
sS'SQLField'
p4350
S"<class 'gluon.dal.Field'>"
p4351
sS'mail'
p4352
S'<gluon.tools.Mail object>'
p4353
sS'BODY'
p4354
S"<class 'gluon.html.BODY'>"
p4355
sS'IS_DATE_IN_RANGE'
p4356
S"<class 'gluon.validators.IS_DATE_IN_RANGE'>"
p4357
sS'IFRAME'
p4358
S"<class 'gluon.html.IFRAME'>"
p4359
sS'URL'
p4360
S'<function URL>'
p4361
sS'__file__'
p4362
S"'/home/kaique/Projects/web2py/applications/synopsis/models/db.py'"
p4363
sS'db'
p4364
S"<DAL {'auth_event': <Table {'origin': <gluon.dal..., 'id': <gluon.dal.Field object at 0x2c267d0>}>}>"
p4365
sS'auth'
p4366
S'<gluon.tools.Auth object>'
p4367
sS'P'
S"<class 'gluon.html.P'>"
p4368
sS'TFOOT'
p4369
S"<class 'gluon.html.TFOOT'>"
p4370
sS'XHTML'
p4371
S"<class 'gluon.html.XHTML'>"
p4372
sS'ON'
p4373
g1889
sS'OL'
p4374
S"<class 'gluon.html.OL'>"
p4375
sS'TEXTAREA'
p4376
S"<class 'gluon.html.TEXTAREA'>"
p4377
sS'MENU'
p4378
S"<class 'gluon.html.MENU'>"
p4379
sS'EM'
p4380
S"<class 'gluon.html.EM'>"
p4381
sS'CODE'
p4382
S"<class 'gluon.html.CODE'>"
p4383
sS'HTTP'
p4384
S"<class 'gluon.http.HTTP'>"
p4385
sS'HR'
p4386
S"<class 'gluon.html.HR'>"
p4387
sS'IS_DATETIME'
p4388
S"<class 'gluon.validators.IS_DATETIME'>"
p4389
sS'STYLE'
p4390
S"<class 'gluon.html.STYLE'>"
p4391
sS'LABEL'
p4392
S"<class 'gluon.html.LABEL'>"
p4393
sS'META'
p4394
S"<class 'gluon.html.META'>"
p4395
sS'plugins'
p4396
S'<gluon.tools.PluginManager object>'
p4397
sS'SELECT'
p4398
S"<class 'gluon.html.SELECT'>"
p4399
sS'use_janrain'
p4400
S'<function use_janrain>'
p4401
sS'CENTER'
p4402
S"<class 'gluon.html.CENTER'>"
p4403
sS'prettydate'
p4404
S'<function prettydate>'
p4405
sS'Crud'
p4406
S"<class 'gluon.tools.Crud'>"
p4407
sS'Auth'
p4408
S"<class 'gluon.tools.Auth'>"
p4409
sS'__builtins__'
p4410
S"{'ArithmeticError': <type 'exceptions.ArithmeticError'>, 'AssertionError': <type 'exceptions.AssertionError'>, 'AttributeError': <type 'exceptions.AttributeError'>, 'BaseException': <type 'exceptions.BaseException'>, 'BufferError': <type 'exceptions.BufferError'>, 'BytesWarning': <type 'exceptions.BytesWarning'>, 'DeprecationWarning': <type 'exceptions.DeprecationWarning'>, 'EOFError': <type 'exceptions.EOFError'>, 'Ellipsis': Ellipsis, 'EnvironmentError': <type 'exceptions.EnvironmentError'>, ...}"
p4411
sS'HTML'
p4412
S"<class 'gluon.html.HTML'>"
p4413
sS'SQLFORM'
p4414
S"<class 'gluon.sqlhtml.SQLFORM'>"
p4415
sS'LOAD'
p4416
S'<gluon.compileapp.LoadFactory object>'
p4417
sS'redirect'
p4418
S'<function redirect>'
p4419
sS'FIELDSET'
p4420
S"<class 'gluon.html.FIELDSET'>"
p4421
sS'IS_EQUAL_TO'
p4422
S"<class 'gluon.validators.IS_EQUAL_TO'>"
p4423
sS'embed64'
p4424
S'<function embed64>'
p4425
sS'IS_LIST_OF'
p4426
S"<class 'gluon.validators.IS_LIST_OF'>"
p4427
sS'INPUT'
p4428
S"<class 'gluon.html.INPUT'>"
p4429
sS'EMBED'
p4430
S"<class 'gluon.html.EMBED'>"
p4431
sS'FORM'
p4432
S"<class 'gluon.html.FORM'>"
p4433
sS'H2'
p4434
S"<class 'gluon.html.H2'>"
p4435
sS'H3'
p4436
S"<class 'gluon.html.H3'>"
p4437
sS'BUTTON'
p4438
S"<class 'gluon.html.BUTTON'>"
p4439
sS'H1'
p4440
S"<class 'gluon.html.H1'>"
p4441
sS'H6'
p4442
S"<class 'gluon.html.H6'>"
p4443
sS'H4'
p4444
S"<class 'gluon.html.H4'>"
p4445
sS'H5'
p4446
S"<class 'gluon.html.H5'>"
p4447
sS'UL'
p4448
S"<class 'gluon.html.UL'>"
p4449
sS'IS_UPPER'
p4450
S"<class 'gluon.validators.IS_UPPER'>"
p4451
sS'xmlescape'
p4452
S'<function xmlescape>'
p4453
sS'IS_TIME'
p4454
S"<class 'gluon.validators.IS_TIME'>"
p4455
sS'OPTION'
p4456
S"<class 'gluon.html.OPTION'>"
p4457
sS'TITLE'
p4458
S"<class 'gluon.html.TITLE'>"
p4459
sS'CRYPT'
p4460
S"<class 'gluon.validators.CRYPT'>"
p4461
sS'IS_EMPTY_OR'
p4462
S"<class 'gluon.validators.IS_EMPTY_OR'>"
p4463
sS'MARKMIN'
p4464
S"<class 'gluon.html.MARKMIN'>"
p4465
sS'COL'
p4466
S"<class 'gluon.html.COL'>"
p4467
sS'service'
p4468
S'<gluon.tools.Service object>'
p4469
sS'SCRIPT'
p4470
S"<class 'gluon.html.SCRIPT'>"
p4471
sS'TABLE'
p4472
S"<class 'gluon.html.TABLE'>"
p4473
sS'IS_IPV4'
p4474
S"<class 'gluon.validators.IS_IPV4'>"
p4475
sS'IS_LENGTH'
p4476
S"<class 'gluon.validators.IS_LENGTH'>"
p4477
sS'XML'
p4478
S"<class 'gluon.html.XML'>"
p4479
sS'B'
S"<class 'gluon.html.B'>"
p4480
sS'IMG'
p4481
S"<class 'gluon.html.IMG'>"
p4482
sS'SQLTABLE'
p4483
S"<class 'gluon.sqlhtml.SQLTABLE'>"
p4484
sS'IS_MATCH'
p4485
S"<class 'gluon.validators.IS_MATCH'>"
p4486
sS'IS_ALPHANUMERIC'
p4487
S"<class 'gluon.validators.IS_ALPHANUMERIC'>"
p4488
sS'SPAN'
p4489
S"<class 'gluon.html.SPAN'>"
p4490
sS'IS_SLUG'
p4491
S"<class 'gluon.validators.IS_SLUG'>"
p4492
sS'CLEANUP'
p4493
S"<class 'gluon.validators.CLEANUP'>"
p4494
sS'IS_DATE'
p4495
S"<class 'gluon.validators.IS_DATE'>"
p4496
sS'IS_EMAIL'
p4497
S"<class 'gluon.validators.IS_EMAIL'>"
p4498
sS'IS_NOT_EMPTY'
p4499
S"<class 'gluon.validators.IS_NOT_EMPTY'>"
p4500
sS'IS_FLOAT_IN_RANGE'
p4501
S"<class 'gluon.validators.IS_FLOAT_IN_RANGE'>"
p4502
sS'BEAUTIFY'
p4503
S"<class 'gluon.html.BEAUTIFY'>"
p4504
sS'TBODY'
p4505
S"<class 'gluon.html.TBODY'>"
p4506
sS'CAT'
p4507
S"<class 'gluon.html.CAT'>"
p4508
sS'Field'
p4509
S"<class 'gluon.dal.Field'>"
p4510
sS'DIV'
p4511
S"<class 'gluon.html.DIV'>"
p4512
sS'LEGEND'
p4513
S"<class 'gluon.html.LEGEND'>"
p4514
sS'COLGROUP'
p4515
S"<class 'gluon.html.COLGROUP'>"
p4516
sS'DAL'
p4517
S"<class 'gluon.dal.DAL'>"
p4518
sS'TT'
p4519
S"<class 'gluon.html.TT'>"
p4520
sS'TR'
p4521
S"<class 'gluon.html.TR'>"
p4522
sS'LI'
p4523
S"<class 'gluon.html.LI'>"
p4524
sS'TH'
p4525
S"<class 'gluon.html.TH'>"
p4526
sS'TD'
p4527
S"<class 'gluon.html.TD'>"
p4528
sS'PluginManager'
p4529
S"<class 'gluon.tools.PluginManager'>"
p4530
sS'IS_URL'
p4531
S"<class 'gluon.validators.IS_URL'>"
p4532
sS'A'
S"<class 'gluon.html.A'>"
p4533
sS'HEAD'
p4534
S"<class 'gluon.html.HEAD'>"
p4535
sS'IS_DATETIME_IN_RANGE'
p4536
S"<class 'gluon.validators.IS_DATETIME_IN_RANGE'>"
p4537
sS'IS_IMAGE'
p4538
S"<class 'gluon.validators.IS_IMAGE'>"
p4539
sS'I'
S"<class 'gluon.html.I'>"
p4540
sS'crud'
p4541
S'<gluon.tools.Crud object>'
p4542
sS'signature'
p4543
S"<Table {'ALL': <gluon.dal.SQLALL object at 0x2c3...0>, 'id': <gluon.dal.Field object at 0x2c38a10>}>"
p4544
sS'IS_NOT_IN_DB'
p4545
S"<class 'gluon.validators.IS_NOT_IN_DB'>"
p4546
sg3594
S"<Storage {'status': 200, 'body': <cStringIO.Stri...8>, 'files': [], 'view': 'appadmin/insert.html'}>"
p4547
sS'THEAD'
p4548
S"<class 'gluon.html.THEAD'>"
p4549
sS'IS_NULL_OR'
p4550
S"<class 'gluon.validators.IS_EMPTY_OR'>"
p4551
sg55
S"<Storage {'body': <cStringIO.StringO object at 0..._vars': <Storage {}>, 'post_vars': <Storage {}>}>"
p4552
sS'IS_EXPR'
p4553
S"<class 'gluon.validators.IS_EXPR'>"
p4554
sS'IS_IN_SET'
p4555
S"<class 'gluon.validators.IS_IN_SET'>"
p4556
sS'IS_UPLOAD_FILENAME'
p4557
S"<class 'gluon.validators.IS_UPLOAD_FILENAME'>"
p4558
sS'IS_DECIMAL_IN_RANGE'
p4559
S"<class 'gluon.validators.IS_DECIMAL_IN_RANGE'>"
p4560
sS'T'
S'<gluon.languages.translator object>'
p4561
sssS'traceback'
p4562
S'Traceback (most recent call last):\n  File "/home/kaique/Projects/web2py/gluon/restricted.py", line 194, in restricted\n    exec ccode in environment\n  File "/home/kaique/Projects/web2py/applications/synopsis/models/db.py", line 88, in <module>\n    Field(\'publication_id\', \'integer\', db.publication, default=publication.id), signature )\nNameError: name \'publication\' is not defined\n'
p4563
s.