(dp1
S'output'
p2
S''
sS'layer'
p3
S'/home/kaique/Projects/web2py/applications/synopsis/views/information/publication.html'
p4
sS'code'
p5
S'response.write(\'<!DOCTYPE html>\\n<html lang="\', escape=False)\nresponse.write(T.accepted_language or \'en\')\nresponse.write(\'" class="no-js"><!-- no-js need it for modernzr -->\\n  <head>\\n    \\n    <meta charset="utf-8" />        \\n    <!-- www.phpied.com/conditional-comments-block-downloads/ -->\\n    <!--[if IE]>\\n      <!-- Always force latest IE rendering engine \\n       (even in intranet) & Chrome Frame \\n       Remove this if you use the .htaccess -->\\n      <meta http-equiv="X-UA-Compatible" content="IE=edge,chrome=1">\\n    <![endif]-->    \\n\\n    <title>\', escape=False)\nresponse.write(response.title or request.application)\nresponse.write(\'</title>\\n    \\n    <!-- http://dev.w3.org/html5/markup/meta.name.html -->\\n    <meta name="application-name" content="\', escape=False)\nresponse.write(request.application)\nresponse.write(\'" /> \\n    \\n    <!-- Speaking of Google, don\\\'t forget to set your site up: \\n     http://google.com/webmasters -->\\n    <meta name="google-site-verification" content="" />\\n    \\n    <!--  Mobile Viewport Fix\\n      j.mp/mobileviewport & davidbcalhoun.com/2010/viewport-metatag \\n      device-width: Occupy full width of the screen in its current orientation\\n      initial-scale = 1.0 retains dimensions instead of zooming out if page height > device height\\n      maximum-scale = 1.0 retains dimensions instead of zooming in if page width < device width\\n      -->\\n    <meta name="viewport" content="width=device-width, initial-scale=1.0, maximum-scale=1.0">\\n    \\n    <!-- Place favicon.ico and apple-touch-icon.png in the root of your domain and delete these references -->\\n    <link rel="shortcut icon" href="\', escape=False)\nresponse.write(URL(\'static\',\'favicon.ico\'))\nresponse.write(\'" type="image/x-icon">\\n    <link rel="apple-touch-icon" href="\', escape=False)\nresponse.write(URL(\'static\',\'favicon.png\'))\nresponse.write(\'">\\n\\n    <!-- For the less-enabled mobile browsers like Opera Mini -->\\n    <link rel="stylesheet" media="handheld" href="\', escape=False)\nresponse.write(URL(\'static\',\'css/handheld.css\'))\nresponse.write(\'">\\n    \\n    <!-- All JavaScript at the bottom, except for Modernizr which enables HTML5 elements & feature detects -->\\n    <script src="\', escape=False)\nresponse.write(URL(\'static\',\'js/modernizr-1.7.min.js\'))\nresponse.write(\'"></script>\\n    \\n    \', escape=False)\n#------  require CSS and JS files for this page (read info in base.css) ------\nresponse.write(\'\\n    \', escape=False)\nresponse.files.append(URL(\'static\',\'css/base.css\'))\nresponse.write(\'\\n    \', escape=False)\nresponse.files.append(URL(\'static\',\'css/superfish.css\'))\nresponse.write(\'\\n    \', escape=False)\nresponse.files.append(URL(\'static\',\'js/superfish.js\'))\nresponse.write(\'\\n    \', escape=False)\n#------ include web2py specific js code (jquery, calendar, form stuff) ------\nresponse.write(\'\\n    \', escape=False)\nresponse.files.insert(0,URL(\'static\',\'js/jquery.js\'))\nresponse.files.insert(1,URL(\'static\',\'css/anytime.css\'))\nresponse.files.insert(2,URL(\'static\',\'js/anytime.js\'))\nresponse.include_meta()\nresponse.include_files()\nresponse.write(\'\\n<script type="text/javascript"><!--\\n    // These variables are used by the web2py_ajax_init function in web2py_ajax.js (which is loaded below).\\n    var w2p_ajax_confirm_message = "\', escape=False)\nresponse.write(T(\'Are you sure you want to delete this object?\'))\nresponse.write(\'";\\n    var w2p_ajax_date_format = "\', escape=False)\nresponse.write(T(\'%Y-%m-%d\'))\nresponse.write(\'";\\n    var w2p_ajax_datetime_format = "\', escape=False)\nresponse.write(T(\'%Y-%m-%d %H:%M:%S\'))\nresponse.write(\'";\\n    //--></script>\\n    <script src="\', escape=False)\nresponse.write(URL(\'static\',\'js/web2py_ajax.js\'))\nresponse.write(\'" type="text/javascript"></script>\\n\', escape=False)\nresponse.write(\'\\n\\n    \', escape=False)\n#using sidebars need to know what sidebar you want to use\n#prior of using it, because of static width size of content, you can use\n#left_sidebar, right_sidebar, both or none (False left and right)\nleft_sidebar_enabled = globals().get(\'left_sidebar_enabled\',False)\nright_sidebar_enabled = globals().get(\'right_sidebar_enabled\',False)\nif left_sidebar_enabled and right_sidebar_enabled: width_content=\'63%\'\nelif left_sidebar_enabled != right_sidebar_enabled: width_content=\'740px\'\nelse: width_content=\'100%\'\nif left_sidebar_enabled: left_sidebar_style = \'style="display: block;"\'\nelse: left_sidebar_style = \'style="display: none;"\'\nif right_sidebar_enabled: right_sidebar_style = \'style="display: block;"\'\nelse: right_sidebar_style = \'style="display: none;"\'\nstyle_content = \'style="width: %s"\' % width_content\nresponse.write(\'\\n    \\n    <!-- uncomment here to load jquery-ui -->\\n    \\n    <link rel="stylesheet" href="http://ajax.googleapis.com/ajax/libs/jqueryui/1.8.16/themes/base/jquery-ui.css" type="text/css" media="all" />\\n    <script src="http://ajax.googleapis.com/ajax/libs/jqueryui/1.8.16/jquery-ui.min.js" type="text/javascript"></script>\\n    \\n   <!-- uncomment to load jquery-ui -->\\n    \\n    \\n  </head>\\n  \\n  <!-- paulirish.com/2008/conditional-stylesheets-vs-css-hacks-answer-neither/ -->  \\n  <!--[if lt IE 7 ]> <body class="ie6"> <![endif]-->\\n  <!--[if IE 7 ]>    <body class="ie7"> <![endif]-->\\n  <!--[if IE 8 ]>    <body class="ie8"> <![endif]-->\\n  <!--[if IE 9 ]>    <body class="ie9"> <![endif]-->\\n  <!--[if (gt IE 9)|!(IE)]><!--> <body> <!--<![endif]-->\\n    \\n    <div class="flash">\', escape=False)\nresponse.write(response.flash or \'\')\nresponse.write(\'</div> <!-- notification div -->\\n\\n        \\n\\n    <div id="container">                        \\n      \\n      <div id="wrapper">        \\n      \', escape=False)\ntry:\n    response.write(auth.navbar(action=URL(\'default\',\'user\')))\nexcept:pass\nresponse.write(\'\\n    \\n    <div id="header"> <!-- header and login nav -->\\n      \', escape=False)\nresponse.write(\' <!-- this is default header -->\\n      \\n      <h1>\\n        <span id="appname">\', escape=False)\nresponse.write(request.application.capitalize())\nresponse.write(\'</span>App\\n      </h1>\\n      <div style="clear: both;"></div><!-- Clear the divs -->\\n      \', escape=False)\nresponse.write(\'\\n    </div><!-- header  -->\\n    \\n    <div id="statusbar"><!-- statusbar is menu zone -->\\n      \', escape=False)\nresponse.write(\' <!-- this is default statusbar -->\\n      \', escape=False)\n#------ superfish menu ------\nresponse.write(\'\\n      \', escape=False)\nresponse.write(MENU(response.menu,_class=\'sf-menu\'))\nresponse.write(\'\\n      <script type="text/javascript">\\n        jQuery(document).ready(function(){\\n        jQuery(\\\'ul.sf-menu\\\').superfish();});\\n      </script>\\n\\n      <!-- AddToAny BEGIN -->\\n      <div style="padding: 7px; float:right;" class="a2a_kit a2a_default_style"><a class="a2a_dd" href="http://www.addtoany.com/share_save">Share</a></div><script type="text/javascript" src="http://static.addtoany.com/menu/page.js"></script>\\n      <!-- AddToAny END -->\\n\\n      <div style="clear: both;"></div><!-- Clear the divs -->   \\n      \', escape=False)\nresponse.write(\'               \\n    </div><!-- statusbar -->\\n    \\n    <div id="page"> <!-- Here my central body -->     \\n\\n      \', escape=False)\nif left_sidebar_enabled:\n    response.write(\'\\n          <div id="left_sidebar" \', escape=False)\n    response.write(XML(left_sidebar_style))\n    response.write(\' >\\n            <div style="padding: 4px;">\\n          \', escape=False)\n    response.write(\'Content Left Sidebar\', escape=False)\n    response.write(\'       \\n            </div>\\n          </div><!-- left_sidebar -->\\n      \', escape=False)\n    pass\nresponse.write(\'\\n\\n      <!-- content -->\\n      <div id="content" \', escape=False)\nresponse.write(XML(style_content))\nresponse.write(\' >\\n        \', escape=False)\nresponse.write(\'\\n\\n<div class="content">\\n\\t<section>\\n\\t\\t<article>\\n\\t\\t\\t\', escape=False)\nfor detail in publication:\n    response.write(\'\\n\\t\\t\\t<header>\\n\\t\\t\\t\\t\', escape=False)\n    response.write(A( T(\'Go to publications\'), _href=URL(\'profile\', args=[session.index]) ))\n    response.write(\' |\\n\\t\\t\\t\\t\', escape=False)\n    response.write(A( T(\'Insert a quote\'), _href=URL(\'new\', args=[\'quote\', request.args[0]]) ))\n    response.write(\' |\\n\\t\\t\\t\\t\', escape=False)\n    response.write(A(T(\'Insert a new column\'), _href=URL(\'new\', args=[\'column\', request.args[0]]) ))\n    response.write(\'\\n\\t\\t\\t\\t<hr />\\n\\t\\t\\t\\t<h1>\', escape=False)\n    response.write(detail.title)\n    response.write(\'</h1>\\n\\t\\t\\t\\t<h4 style="font-weight: 200;">\', escape=False)\n    if detail.sub_title:\n        response.write(\' \', escape=False)\n        response.write(detail.sub_title)\n        response.write(\' \', escape=False)\n        pass\n    response.write(\'</h4>\\n\\t\\t\\t\\t<hr />\\n\\t\\t\\t</header>\\n\\t\\t\\t<div>\\t\\n\\t\\t\\t\\t<table style="border: 1px solid #ccc; margin: 10px 0 10px;">\\n\\t\\t\\t\\t\\t<thead>\\n\\t\\t\\t\\t\\t\\t<tr>\\n\\t\\t\\t\\t\\t\\t\\t\', escape=False)\n    for column in detail.column.select():\n        response.write(\'\\n\\t\\t\\t\\t\\t\\t\\t\\t<td>\', escape=False)\n        response.write(A(column.title, _href=URL(\'new\', args=[\'row\', column.id])))\n        response.write(\'</td>\\n\\t\\t\\t\\t\\t\\t\\t\', escape=False)\n        pass\n    response.write(\'\\t\\t\\t\\t\\t\\t\\t\\n\\t\\t\\t\\t\\t\\t</tr>\\n\\t\\t\\t\\t\\t</thead>\\n\\t\\t\\t\\t\\t<tbody>\\n\\t\\t\\t\\t\\t\\t\', escape=False)\n    columns = [column for column in detail.column.select()]\n    response.write(\'\\n\\t\\t\\t\\t\\t\\t\', escape=False)\n    rows = [[row for row in column.row.select()] for column in detail.column.select()]\n    response.write(\'\\n\\t\\t\\t\\t\\t\\t\', escape=False)\n    lines = {}\n    response.write(\'\\n\\t\\t\\t\\t\\t\\t\\n\\t\\t\\t\\t\\t\\t\', escape=False)\n    for column in range(len(columns)):\n        response.write(\'\\n\\t\\t\\t\\t\\t\\t\\t\', escape=False)\n        response.write(column)\n        response.write(\'\\n\\t\\t\\t\\t\\t\\t\', escape=False)\n        pass\n    response.write(\'\\n\\t\\t\\t\\t\\t\\t\\n\\t\\t\\t\\t\\t\\t\', escape=False)\n    for row in rows:\n        response.write(\'\\n\\t\\t\\t\\t\\t\\t\\t\', escape=False)\n        for r in row:\n            response.write(\'\\n\\t\\t\\t\\t\\t\\t\\t\\t\', escape=False)\n            if lines.has_key(r.column_id):\n                response.write(\'\\n\\t\\t\\t\\t\\t\\t\\t\\t\\t\', escape=False)\n                lines[r.column_id].append( r.content )\n                response.write(\'\\n\\t\\t\\t\\t\\t\\t\\t\\t\', escape=False)\n                pass\n            response.write(\'\\n\\t\\t\\t\\t\\t\\t\\t\', escape=False)\n            pass\n        response.write(\'\\n\\t\\t\\t\\t\\t\\t\', escape=False)\n        pass\n    response.write(\'\\n\\t\\t\\t\\t\\t\\t\\n\\t\\t\\t\\t\\t\\t\', escape=False)\n    response.write(lines[9].xml())\n    response.write(\'\\n\\t\\t\\t\\t\\t\\t\\n\\t\\t\\t\\t\\t\\t\', escape=False)\n    for line in lines:\n        response.write(\'\\n\\t\\t\\t\\t\\t\\t\\t\', escape=False)\n        response.write(lines[line])\n        response.write(\'\\n\\t\\t\\t\\t\\t\\t\', escape=False)\n        pass\n    response.write(\'\\n\\t\\t\\t\\t\\t</tbody>\\n\\t\\t\\t\\t</table>\\n\\t\\t\\t\\t<div classs="quote">\\n\\t\\t\\t\\t\', escape=False)\n    quotes = [quote for quote in detail.quote.select()]\n    response.write(\'\\n\\t\\t\\t\\t\', escape=False)\n    if quotes:\n        response.write(\'\\n\\t\\t\\t\\t\\t\', escape=False)\n        quotes.reverse()\n        response.write(\'\\n\\t\\t\\t\\t\\t\', escape=False)\n        response.write(quotes[0].content)\n        response.write(\'\\n\\t\\t\\t\\t\', escape=False)\n        pass\n    response.write(\'\\n\\t\\t\\t\\t</div>\\n\\t\\t\\t</div>\\n\\t\\t\\t\', escape=False)\n    pass\nresponse.write(\'\\n\\t\\t</article>\\n\\t</section>\\n</div>\\n\', escape=False)\nresponse.write(\' \\n      </div>\\n      <!-- content -->\\n\\n      \', escape=False)\nif right_sidebar_enabled:\n    response.write(\'\\n          <div id="right_sidebar" \', escape=False)\n    response.write(XML(right_sidebar_style))\n    response.write(\' >\\n            <div style="padding: 4px;">\\n              \', escape=False)\n    response.write(\'Content Right Sidebar\', escape=False)\n    response.write(\'\\n            </div>\\n      </div><!-- right_sidebar -->\\n          \', escape=False)\n    pass\nresponse.write(\'\\n\\n\\n      <div style="clear: both;"></div><!-- Clear the divs -->\\n      \\n    </div><!-- page -->                         \\n    \\n    <div id="footer">\\n      \', escape=False)\nresponse.write(\' <!-- this is default footer -->\\n      <a href="http://www.web2py.com/" style="float: left; padding-right: 6px;">\\n        <img src="\', escape=False)\nresponse.write(URL(\'static\',\'images/poweredby.png\'))\nresponse.write(\'"/>\\n      </a>\\n      \', escape=False)\nresponse.write(T(\'Copyright\'))\nresponse.write(\' &#169; 2011               \\n      <div style="clear: both;"></div><!-- Clear the divs -->\\n      \', escape=False)\nresponse.write(\'\\n\\n    </div><!-- footer -->           \\n      </div><!-- wrapper -->\\n    </div><!-- container -->        \\n    \\n    <!--[if lt IE 7 ]>\\n    <script src="\', escape=False)\nresponse.write(URL(\'static\',\'js/dd_belatedpng.js\'))\nresponse.write(\'"></script>\\n    <script> DD_belatedPNG.fix(\\\'img, .png_bg\\\'); //fix any <img> or .png_bg background-images </script>\\n    <![endif]-->\\n    \', escape=False)\nif response.google_analytics_id:\n    response.write("<script>/* http://mathiasbynens.be/notes/async-analytics-snippet */ var _gaq=[[\'_setAccount\',\'", escape=False)\n    response.write(response.google_analyitics_id)\n    response.write("\'],[\'_trackPageview\']];(function(d,t){var g=d.createElement(t),s=d.getElementsByTagName(t)[0];g.src=\'//www.google-analytics.com/ga.js\';s.parentNode.insertBefore(g,s)}(document,\'script\')) </script>", escape=False)\n    pass\nresponse.write(\'\\n  </body>\\n</html>\\n\', escape=False)'
p6
sS'snapshot'
p7
(dp8
S'exception'
p9
(dp10
S'__hash__'
p11
S"<method-wrapper '__hash__' of exceptions.KeyError object>"
p12
sS'__setattr__'
p13
S"<method-wrapper '__setattr__' of exceptions.KeyError object>"
p14
sS'__reduce_ex__'
p15
S'<built-in method __reduce_ex__ of exceptions.KeyError object>'
p16
sS'__getslice__'
p17
S"<method-wrapper '__getslice__' of exceptions.KeyError object>"
p18
sS'__getitem__'
p19
S"<method-wrapper '__getitem__' of exceptions.KeyError object>"
p20
sS'__setstate__'
p21
S'<built-in method __setstate__ of exceptions.KeyError object>'
p22
sS'args'
p23
S'(9,)'
p24
sS'__reduce__'
p25
S'<built-in method __reduce__ of exceptions.KeyError object>'
p26
sS'__str__'
p27
S"<method-wrapper '__str__' of exceptions.KeyError object>"
p28
sS'__format__'
p29
S'<built-in method __format__ of exceptions.KeyError object>'
p30
sS'__getattribute__'
p31
S"<method-wrapper '__getattribute__' of exceptions.KeyError object>"
p32
sS'__class__'
p33
S"<type 'exceptions.KeyError'>"
p34
sS'__unicode__'
p35
S'<built-in method __unicode__ of exceptions.KeyError object>'
p36
sS'__delattr__'
p37
S"<method-wrapper '__delattr__' of exceptions.KeyError object>"
p38
sS'__subclasshook__'
p39
S'<built-in method __subclasshook__ of type object>'
p40
sS'__repr__'
p41
S"<method-wrapper '__repr__' of exceptions.KeyError object>"
p42
sS'__dict__'
p43
S'{}'
p44
sS'__sizeof__'
p45
S'<built-in method __sizeof__ of exceptions.KeyError object>'
p46
sS'__doc__'
p47
S"'Mapping key not found.'"
p48
sS'__init__'
p49
S"<method-wrapper '__init__' of exceptions.KeyError object>"
p50
sS'__new__'
p51
S'<built-in method __new__ of type object>'
p52
ssS'evalue'
p53
S'9'
sS'request'
p54
ccopy_reg
_reconstructor
p55
(cgluon.html
BEAUTIFY
p56
c__builtin__
object
p57
NtRp58
(dp59
S'attributes'
p60
(dp61
sS'components'
p62
(lp63
g55
(cgluon.html
TABLE
p64
g57
NtRp65
(dp66
g60
(dp67
S'level'
p68
I5
ssS'parent'
p69
Nsg62
(lp70
g55
(cgluon.html
TR
p71
g57
NtRp72
(dp73
g60
(dp74
sg69
g65
sg62
(lp75
g55
(cgluon.html
TD
p76
g57
NtRp77
(dp78
g60
(dp79
S'_style'
p80
S'font-weight:bold;'
p81
ssg69
g72
sg62
(lp82
S'ajax'
p83
asbag55
(g76
g57
NtRp84
(dp85
g60
(dp86
S'_valign'
p87
S'top'
p88
ssg69
g72
sg62
(lp89
S':'
asbag55
(g76
g57
NtRp90
(dp91
g60
(dp92
sg69
g72
sg62
(lp93
g55
(g56
g57
NtRp94
(dp95
g60
(dp96
g68
I5
ssg69
g90
sg62
(lp97
S'False'
p98
asbasbasbag55
(g71
g57
NtRp99
(dp100
g60
(dp101
sg69
g65
sg62
(lp102
g55
(g76
g57
NtRp103
(dp104
g60
(dp105
g80
g81
ssg69
g99
sg62
(lp106
S'application'
p107
asbag55
(g76
g57
NtRp108
(dp109
g60
(dp110
g87
g88
ssg69
g99
sg62
(lp111
S':'
asbag55
(g76
g57
NtRp112
(dp113
g60
(dp114
sg69
g99
sg62
(lp115
g55
(g56
g57
NtRp116
(dp117
g60
(dp118
g68
I5
ssg69
g112
sg62
(lp119
S'synopsis'
p120
asbasbasbag55
(g71
g57
NtRp121
(dp122
g60
(dp123
sg69
g65
sg62
(lp124
g55
(g76
g57
NtRp125
(dp126
g60
(dp127
g80
g81
ssg69
g121
sg62
(lp128
g23
asbag55
(g76
g57
NtRp129
(dp130
g60
(dp131
g87
g88
ssg69
g121
sg62
(lp132
S':'
asbag55
(g76
g57
NtRp133
(dp134
g60
(dp135
sg69
g121
sg62
(lp136
g55
(g56
g57
NtRp137
(dp138
g60
(dp139
g68
I5
ssg69
g133
sg62
(lp140
g55
(g64
g57
NtRp141
(dp142
g60
(dp143
g68
I4
ssg69
Nsg62
(lp144
g55
(g71
g57
NtRp145
(dp146
g60
(dp147
sg69
g141
sg62
(lp148
g55
(g76
g57
NtRp149
(dp150
g60
(dp151
sg69
g145
sg62
(lp152
g55
(g56
g57
NtRp153
(dp154
g60
(dp155
g68
I4
ssg69
g149
sg62
(lp156
S'9'
asbasbasbasbasbasbasbag55
(g71
g57
NtRp157
(dp158
g60
(dp159
sg69
g65
sg62
(lp160
g55
(g76
g57
NtRp161
(dp162
g60
(dp163
g80
g81
ssg69
g157
sg62
(lp164
S'body'
p165
asbag55
(g76
g57
NtRp166
(dp167
g60
(dp168
g87
g88
ssg69
g157
sg62
(lp169
S':'
asbag55
(g76
g57
NtRp170
(dp171
g60
(dp172
sg69
g157
sg62
(lp173
g55
(g56
g57
NtRp174
(dp175
g60
(dp176
g68
I5
ssg69
g170
sg62
(lp177
S'<cStringIO.StringO object at 0x3152030>'
p178
asbasbasbag55
(g71
g57
NtRp179
(dp180
g60
(dp181
sg69
g65
sg62
(lp182
g55
(g76
g57
NtRp183
(dp184
g60
(dp185
g80
g81
ssg69
g179
sg62
(lp186
S'client'
p187
asbag55
(g76
g57
NtRp188
(dp189
g60
(dp190
g87
g88
ssg69
g179
sg62
(lp191
S':'
asbag55
(g76
g57
NtRp192
(dp193
g60
(dp194
sg69
g179
sg62
(lp195
g55
(g56
g57
NtRp196
(dp197
g60
(dp198
g68
I5
ssg69
g192
sg62
(lp199
S'127.0.0.1'
p200
asbasbasbag55
(g71
g57
NtRp201
(dp202
g60
(dp203
sg69
g65
sg62
(lp204
g55
(g76
g57
NtRp205
(dp206
g60
(dp207
g80
g81
ssg69
g201
sg62
(lp208
S'controller'
p209
asbag55
(g76
g57
NtRp210
(dp211
g60
(dp212
g87
g88
ssg69
g201
sg62
(lp213
S':'
asbag55
(g76
g57
NtRp214
(dp215
g60
(dp216
sg69
g201
sg62
(lp217
g55
(g56
g57
NtRp218
(dp219
g60
(dp220
g68
I5
ssg69
g214
sg62
(lp221
S'information'
p222
asbasbasbag55
(g71
g57
NtRp223
(dp224
g60
(dp225
sg69
g65
sg62
(lp226
g55
(g76
g57
NtRp227
(dp228
g60
(dp229
g80
g81
ssg69
g223
sg62
(lp230
S'cookies'
p231
asbag55
(g76
g57
NtRp232
(dp233
g60
(dp234
g87
g88
ssg69
g223
sg62
(lp235
S':'
asbag55
(g76
g57
NtRp236
(dp237
g60
(dp238
sg69
g223
sg62
(lp239
g55
(g56
g57
NtRp240
(dp241
g60
(dp242
g68
I5
ssg69
g236
sg62
(lp243
g55
(g64
g57
NtRp244
(dp245
g60
(dp246
g68
I4
ssg69
Nsg62
(lp247
g55
(g71
g57
NtRp248
(dp249
g60
(dp250
sg69
g244
sg62
(lp251
g55
(g76
g57
NtRp252
(dp253
g60
(dp254
g80
g81
ssg69
g248
sg62
(lp255
S'session_id_admin'
p256
asbag55
(g76
g57
NtRp257
(dp258
g60
(dp259
g87
g88
ssg69
g248
sg62
(lp260
S':'
asbag55
(g76
g57
NtRp261
(dp262
g60
(dp263
sg69
g248
sg62
(lp264
g55
(g56
g57
NtRp265
(dp266
g60
(dp267
g68
I4
ssg69
g261
sg62
(lp268
g55
(g64
g57
NtRp269
(dp270
g60
(dp271
g68
I3
ssg69
Nsg62
(lp272
g55
(g71
g57
NtRp273
(dp274
g60
(dp275
sg69
g269
sg62
(lp276
g55
(g76
g57
NtRp277
(dp278
g60
(dp279
g80
g81
ssg69
g273
sg62
(lp280
S'comment'
p281
asbag55
(g76
g57
NtRp282
(dp283
g60
(dp284
g87
g88
ssg69
g273
sg62
(lp285
S':'
asbag55
(g76
g57
NtRp286
(dp287
g60
(dp288
sg69
g273
sg62
(lp289
g55
(g56
g57
NtRp290
(dp291
g60
(dp292
g68
I3
ssg69
g286
sg62
(lp293
S''
asbasbasbag55
(g71
g57
NtRp294
(dp295
g60
(dp296
sg69
g269
sg62
(lp297
g55
(g76
g57
NtRp298
(dp299
g60
(dp300
g80
g81
ssg69
g294
sg62
(lp301
S'domain'
p302
asbag55
(g76
g57
NtRp303
(dp304
g60
(dp305
g87
g88
ssg69
g294
sg62
(lp306
S':'
asbag55
(g76
g57
NtRp307
(dp308
g60
(dp309
sg69
g294
sg62
(lp310
g55
(g56
g57
NtRp311
(dp312
g60
(dp313
g68
I3
ssg69
g307
sg62
(lp314
S''
asbasbasbag55
(g71
g57
NtRp315
(dp316
g60
(dp317
sg69
g269
sg62
(lp318
g55
(g76
g57
NtRp319
(dp320
g60
(dp321
g80
g81
ssg69
g315
sg62
(lp322
S'expires'
p323
asbag55
(g76
g57
NtRp324
(dp325
g60
(dp326
g87
g88
ssg69
g315
sg62
(lp327
S':'
asbag55
(g76
g57
NtRp328
(dp329
g60
(dp330
sg69
g315
sg62
(lp331
g55
(g56
g57
NtRp332
(dp333
g60
(dp334
g68
I3
ssg69
g328
sg62
(lp335
S''
asbasbasbag55
(g71
g57
NtRp336
(dp337
g60
(dp338
sg69
g269
sg62
(lp339
g55
(g76
g57
NtRp340
(dp341
g60
(dp342
g80
g81
ssg69
g336
sg62
(lp343
S'httponly'
p344
asbag55
(g76
g57
NtRp345
(dp346
g60
(dp347
g87
g88
ssg69
g336
sg62
(lp348
S':'
asbag55
(g76
g57
NtRp349
(dp350
g60
(dp351
sg69
g336
sg62
(lp352
g55
(g56
g57
NtRp353
(dp354
g60
(dp355
g68
I3
ssg69
g349
sg62
(lp356
S''
asbasbasbag55
(g71
g57
NtRp357
(dp358
g60
(dp359
sg69
g269
sg62
(lp360
g55
(g76
g57
NtRp361
(dp362
g60
(dp363
g80
g81
ssg69
g357
sg62
(lp364
S'max-age'
p365
asbag55
(g76
g57
NtRp366
(dp367
g60
(dp368
g87
g88
ssg69
g357
sg62
(lp369
S':'
asbag55
(g76
g57
NtRp370
(dp371
g60
(dp372
sg69
g357
sg62
(lp373
g55
(g56
g57
NtRp374
(dp375
g60
(dp376
g68
I3
ssg69
g370
sg62
(lp377
S''
asbasbasbag55
(g71
g57
NtRp378
(dp379
g60
(dp380
sg69
g269
sg62
(lp381
g55
(g76
g57
NtRp382
(dp383
g60
(dp384
g80
g81
ssg69
g378
sg62
(lp385
S'path'
p386
asbag55
(g76
g57
NtRp387
(dp388
g60
(dp389
g87
g88
ssg69
g378
sg62
(lp390
S':'
asbag55
(g76
g57
NtRp391
(dp392
g60
(dp393
sg69
g378
sg62
(lp394
g55
(g56
g57
NtRp395
(dp396
g60
(dp397
g68
I3
ssg69
g391
sg62
(lp398
S''
asbasbasbag55
(g71
g57
NtRp399
(dp400
g60
(dp401
sg69
g269
sg62
(lp402
g55
(g76
g57
NtRp403
(dp404
g60
(dp405
g80
g81
ssg69
g399
sg62
(lp406
S'secure'
p407
asbag55
(g76
g57
NtRp408
(dp409
g60
(dp410
g87
g88
ssg69
g399
sg62
(lp411
S':'
asbag55
(g76
g57
NtRp412
(dp413
g60
(dp414
sg69
g399
sg62
(lp415
g55
(g56
g57
NtRp416
(dp417
g60
(dp418
g68
I3
ssg69
g412
sg62
(lp419
S''
asbasbasbag55
(g71
g57
NtRp420
(dp421
g60
(dp422
sg69
g269
sg62
(lp423
g55
(g76
g57
NtRp424
(dp425
g60
(dp426
g80
g81
ssg69
g420
sg62
(lp427
S'version'
p428
asbag55
(g76
g57
NtRp429
(dp430
g60
(dp431
g87
g88
ssg69
g420
sg62
(lp432
S':'
asbag55
(g76
g57
NtRp433
(dp434
g60
(dp435
sg69
g420
sg62
(lp436
g55
(g56
g57
NtRp437
(dp438
g60
(dp439
g68
I3
ssg69
g433
sg62
(lp440
S''
asbasbasbasbasbasbasbag55
(g71
g57
NtRp441
(dp442
g60
(dp443
sg69
g244
sg62
(lp444
g55
(g76
g57
NtRp445
(dp446
g60
(dp447
g80
g81
ssg69
g441
sg62
(lp448
S'session_id_synopsis'
p449
asbag55
(g76
g57
NtRp450
(dp451
g60
(dp452
g87
g88
ssg69
g441
sg62
(lp453
S':'
asbag55
(g76
g57
NtRp454
(dp455
g60
(dp456
sg69
g441
sg62
(lp457
g55
(g56
g57
NtRp458
(dp459
g60
(dp460
g68
I4
ssg69
g454
sg62
(lp461
g55
(g64
g57
NtRp462
(dp463
g60
(dp464
g68
I3
ssg69
Nsg62
(lp465
g55
(g71
g57
NtRp466
(dp467
g60
(dp468
sg69
g462
sg62
(lp469
g55
(g76
g57
NtRp470
(dp471
g60
(dp472
g80
g81
ssg69
g466
sg62
(lp473
g281
asbag55
(g76
g57
NtRp474
(dp475
g60
(dp476
g87
g88
ssg69
g466
sg62
(lp477
S':'
asbag55
(g76
g57
NtRp478
(dp479
g60
(dp480
sg69
g466
sg62
(lp481
g55
(g56
g57
NtRp482
(dp483
g60
(dp484
g68
I3
ssg69
g478
sg62
(lp485
S''
asbasbasbag55
(g71
g57
NtRp486
(dp487
g60
(dp488
sg69
g462
sg62
(lp489
g55
(g76
g57
NtRp490
(dp491
g60
(dp492
g80
g81
ssg69
g486
sg62
(lp493
g302
asbag55
(g76
g57
NtRp494
(dp495
g60
(dp496
g87
g88
ssg69
g486
sg62
(lp497
S':'
asbag55
(g76
g57
NtRp498
(dp499
g60
(dp500
sg69
g486
sg62
(lp501
g55
(g56
g57
NtRp502
(dp503
g60
(dp504
g68
I3
ssg69
g498
sg62
(lp505
S''
asbasbasbag55
(g71
g57
NtRp506
(dp507
g60
(dp508
sg69
g462
sg62
(lp509
g55
(g76
g57
NtRp510
(dp511
g60
(dp512
g80
g81
ssg69
g506
sg62
(lp513
g323
asbag55
(g76
g57
NtRp514
(dp515
g60
(dp516
g87
g88
ssg69
g506
sg62
(lp517
S':'
asbag55
(g76
g57
NtRp518
(dp519
g60
(dp520
sg69
g506
sg62
(lp521
g55
(g56
g57
NtRp522
(dp523
g60
(dp524
g68
I3
ssg69
g518
sg62
(lp525
S''
asbasbasbag55
(g71
g57
NtRp526
(dp527
g60
(dp528
sg69
g462
sg62
(lp529
g55
(g76
g57
NtRp530
(dp531
g60
(dp532
g80
g81
ssg69
g526
sg62
(lp533
g344
asbag55
(g76
g57
NtRp534
(dp535
g60
(dp536
g87
g88
ssg69
g526
sg62
(lp537
S':'
asbag55
(g76
g57
NtRp538
(dp539
g60
(dp540
sg69
g526
sg62
(lp541
g55
(g56
g57
NtRp542
(dp543
g60
(dp544
g68
I3
ssg69
g538
sg62
(lp545
S''
asbasbasbag55
(g71
g57
NtRp546
(dp547
g60
(dp548
sg69
g462
sg62
(lp549
g55
(g76
g57
NtRp550
(dp551
g60
(dp552
g80
g81
ssg69
g546
sg62
(lp553
g365
asbag55
(g76
g57
NtRp554
(dp555
g60
(dp556
g87
g88
ssg69
g546
sg62
(lp557
S':'
asbag55
(g76
g57
NtRp558
(dp559
g60
(dp560
sg69
g546
sg62
(lp561
g55
(g56
g57
NtRp562
(dp563
g60
(dp564
g68
I3
ssg69
g558
sg62
(lp565
S''
asbasbasbag55
(g71
g57
NtRp566
(dp567
g60
(dp568
sg69
g462
sg62
(lp569
g55
(g76
g57
NtRp570
(dp571
g60
(dp572
g80
g81
ssg69
g566
sg62
(lp573
g386
asbag55
(g76
g57
NtRp574
(dp575
g60
(dp576
g87
g88
ssg69
g566
sg62
(lp577
S':'
asbag55
(g76
g57
NtRp578
(dp579
g60
(dp580
sg69
g566
sg62
(lp581
g55
(g56
g57
NtRp582
(dp583
g60
(dp584
g68
I3
ssg69
g578
sg62
(lp585
S''
asbasbasbag55
(g71
g57
NtRp586
(dp587
g60
(dp588
sg69
g462
sg62
(lp589
g55
(g76
g57
NtRp590
(dp591
g60
(dp592
g80
g81
ssg69
g586
sg62
(lp593
g407
asbag55
(g76
g57
NtRp594
(dp595
g60
(dp596
g87
g88
ssg69
g586
sg62
(lp597
S':'
asbag55
(g76
g57
NtRp598
(dp599
g60
(dp600
sg69
g586
sg62
(lp601
g55
(g56
g57
NtRp602
(dp603
g60
(dp604
g68
I3
ssg69
g598
sg62
(lp605
S''
asbasbasbag55
(g71
g57
NtRp606
(dp607
g60
(dp608
sg69
g462
sg62
(lp609
g55
(g76
g57
NtRp610
(dp611
g60
(dp612
g80
g81
ssg69
g606
sg62
(lp613
g428
asbag55
(g76
g57
NtRp614
(dp615
g60
(dp616
g87
g88
ssg69
g606
sg62
(lp617
S':'
asbag55
(g76
g57
NtRp618
(dp619
g60
(dp620
sg69
g606
sg62
(lp621
g55
(g56
g57
NtRp622
(dp623
g60
(dp624
g68
I3
ssg69
g618
sg62
(lp625
S''
asbasbasbasbasbasbasbasbasbasbasbag55
(g71
g57
NtRp626
(dp627
g60
(dp628
sg69
g65
sg62
(lp629
g55
(g76
g57
NtRp630
(dp631
g60
(dp632
g80
g81
ssg69
g626
sg62
(lp633
S'env'
p634
asbag55
(g76
g57
NtRp635
(dp636
g60
(dp637
g87
g88
ssg69
g626
sg62
(lp638
S':'
asbag55
(g76
g57
NtRp639
(dp640
g60
(dp641
sg69
g626
sg62
(lp642
g55
(g56
g57
NtRp643
(dp644
g60
(dp645
g68
I5
ssg69
g639
sg62
(lp646
g55
(g64
g57
NtRp647
(dp648
g60
(dp649
g68
I4
ssg69
Nsg62
(lp650
g55
(g71
g57
NtRp651
(dp652
g60
(dp653
sg69
g647
sg62
(lp654
g55
(g76
g57
NtRp655
(dp656
g60
(dp657
g80
g81
ssg69
g651
sg62
(lp658
S'app_folders'
p659
asbag55
(g76
g57
NtRp660
(dp661
g60
(dp662
g87
g88
ssg69
g651
sg62
(lp663
S':'
asbag55
(g76
g57
NtRp664
(dp665
g60
(dp666
sg69
g651
sg62
(lp667
g55
(g56
g57
NtRp668
(dp669
g60
(dp670
g68
I4
ssg69
g664
sg62
(lp671
S"set(['/home/kaique/Projects/web2py/applications/synopsis/', '/home/kaique/Projects/web2py/applications/admin/'])"
p672
asbasbasbag55
(g71
g57
NtRp673
(dp674
g60
(dp675
sg69
g647
sg62
(lp676
g55
(g76
g57
NtRp677
(dp678
g60
(dp679
g80
g81
ssg69
g673
sg62
(lp680
S'applications_parent'
p681
asbag55
(g76
g57
NtRp682
(dp683
g60
(dp684
g87
g88
ssg69
g673
sg62
(lp685
S':'
asbag55
(g76
g57
NtRp686
(dp687
g60
(dp688
sg69
g673
sg62
(lp689
g55
(g56
g57
NtRp690
(dp691
g60
(dp692
g68
I4
ssg69
g686
sg62
(lp693
S'/home/kaique/Projects/web2py'
p694
asbasbasbag55
(g71
g57
NtRp695
(dp696
g60
(dp697
sg69
g647
sg62
(lp698
g55
(g76
g57
NtRp699
(dp700
g60
(dp701
g80
g81
ssg69
g695
sg62
(lp702
S'cmd_args'
p703
asbag55
(g76
g57
NtRp704
(dp705
g60
(dp706
g87
g88
ssg69
g695
sg62
(lp707
S':'
asbag55
(g76
g57
NtRp708
(dp709
g60
(dp710
sg69
g695
sg62
(lp711
g55
(g56
g57
NtRp712
(dp713
g60
(dp714
g68
I4
ssg69
g708
sg62
(lp715
g55
(g64
g57
NtRp716
(dp717
g60
(dp718
g68
I3
ssg69
Nsg62
(lp719
sbasbasbasbag55
(g71
g57
NtRp720
(dp721
g60
(dp722
sg69
g647
sg62
(lp723
g55
(g76
g57
NtRp724
(dp725
g60
(dp726
g80
g81
ssg69
g720
sg62
(lp727
S'cmd_options'
p728
asbag55
(g76
g57
NtRp729
(dp730
g60
(dp731
g87
g88
ssg69
g720
sg62
(lp732
S':'
asbag55
(g76
g57
NtRp733
(dp734
g60
(dp735
sg69
g720
sg62
(lp736
g55
(g56
g57
NtRp737
(dp738
g60
(dp739
g68
I4
ssg69
g733
sg62
(lp740
S"<Values at 0x228d950: {'verbose': False, 'ip': '127.0.0.1', 'shutdown_timeout': 5, 'taskbar': False, 'nocron': False, 'pid_filename': 'httpserver.pid', 'maxthreads': None, 'softcron': False, 'server_name': 'kaique-Pine-Trail-M', 'bpython': False, 'nogui': False, 'port': 8000, 'extcron': False, 'debuglevel': 30, 'test': None, 'folder': '/home/kaique/Projects/web2py', 'config': '', 'import_models': False, 'winservice': '', 'shell': None, 'run': '', 'log_filename': 'httpserver.log', 'args': [''], 'ssl_ca_certificate': None, 'scheduler': None, 'profiler_filename': None, 'ssl_private_key': '', 'password': 'dev', 'request_queue_size': 5, 'ssl_certificate': '', 'cronjob': False, 'plain': False, 'quiet': False, 'interfaces': None, 'minthreads': None, 'timeout': 10, 'numthreads': None, 'nobanner': False}>"
p741
asbasbasbag55
(g71
g57
NtRp742
(dp743
g60
(dp744
sg69
g647
sg62
(lp745
g55
(g76
g57
NtRp746
(dp747
g60
(dp748
g80
g81
ssg69
g742
sg62
(lp749
S'db_sessions'
p750
asbag55
(g76
g57
NtRp751
(dp752
g60
(dp753
g87
g88
ssg69
g742
sg62
(lp754
S':'
asbag55
(g76
g57
NtRp755
(dp756
g60
(dp757
sg69
g742
sg62
(lp758
g55
(g56
g57
NtRp759
(dp760
g60
(dp761
g68
I4
ssg69
g755
sg62
(lp762
S'set([])'
p763
asbasbasbag55
(g71
g57
NtRp764
(dp765
g60
(dp766
sg69
g647
sg62
(lp767
g55
(g76
g57
NtRp768
(dp769
g60
(dp770
g80
g81
ssg69
g764
sg62
(lp771
S'debugging'
p772
asbag55
(g76
g57
NtRp773
(dp774
g60
(dp775
g87
g88
ssg69
g764
sg62
(lp776
S':'
asbag55
(g76
g57
NtRp777
(dp778
g60
(dp779
sg69
g764
sg62
(lp780
g55
(g56
g57
NtRp781
(dp782
g60
(dp783
g68
I4
ssg69
g777
sg62
(lp784
g98
asbasbasbag55
(g71
g57
NtRp785
(dp786
g60
(dp787
sg69
g647
sg62
(lp788
g55
(g76
g57
NtRp789
(dp790
g60
(dp791
g80
g81
ssg69
g785
sg62
(lp792
S'gluon_parent'
p793
asbag55
(g76
g57
NtRp794
(dp795
g60
(dp796
g87
g88
ssg69
g785
sg62
(lp797
S':'
asbag55
(g76
g57
NtRp798
(dp799
g60
(dp800
sg69
g785
sg62
(lp801
g55
(g56
g57
NtRp802
(dp803
g60
(dp804
g68
I4
ssg69
g798
sg62
(lp805
S'/home/kaique/Projects/web2py'
p806
asbasbasbag55
(g71
g57
NtRp807
(dp808
g60
(dp809
sg69
g647
sg62
(lp810
g55
(g76
g57
NtRp811
(dp812
g60
(dp813
g80
g81
ssg69
g807
sg62
(lp814
S'http_accept'
p815
asbag55
(g76
g57
NtRp816
(dp817
g60
(dp818
g87
g88
ssg69
g807
sg62
(lp819
S':'
asbag55
(g76
g57
NtRp820
(dp821
g60
(dp822
sg69
g807
sg62
(lp823
g55
(g56
g57
NtRp824
(dp825
g60
(dp826
g68
I4
ssg69
g820
sg62
(lp827
S'text/html,application/xhtml+xml,application/xml;q=0.9,*/*;q=0.8'
p828
asbasbasbag55
(g71
g57
NtRp829
(dp830
g60
(dp831
sg69
g647
sg62
(lp832
g55
(g76
g57
NtRp833
(dp834
g60
(dp835
g80
g81
ssg69
g829
sg62
(lp836
S'http_accept_charset'
p837
asbag55
(g76
g57
NtRp838
(dp839
g60
(dp840
g87
g88
ssg69
g829
sg62
(lp841
S':'
asbag55
(g76
g57
NtRp842
(dp843
g60
(dp844
sg69
g829
sg62
(lp845
g55
(g56
g57
NtRp846
(dp847
g60
(dp848
g68
I4
ssg69
g842
sg62
(lp849
S'UTF-8,*;q=0.5'
p850
asbasbasbag55
(g71
g57
NtRp851
(dp852
g60
(dp853
sg69
g647
sg62
(lp854
g55
(g76
g57
NtRp855
(dp856
g60
(dp857
g80
g81
ssg69
g851
sg62
(lp858
S'http_accept_encoding'
p859
asbag55
(g76
g57
NtRp860
(dp861
g60
(dp862
g87
g88
ssg69
g851
sg62
(lp863
S':'
asbag55
(g76
g57
NtRp864
(dp865
g60
(dp866
sg69
g851
sg62
(lp867
g55
(g56
g57
NtRp868
(dp869
g60
(dp870
g68
I4
ssg69
g864
sg62
(lp871
S'gzip,deflate,sdch'
p872
asbasbasbag55
(g71
g57
NtRp873
(dp874
g60
(dp875
sg69
g647
sg62
(lp876
g55
(g76
g57
NtRp877
(dp878
g60
(dp879
g80
g81
ssg69
g873
sg62
(lp880
S'http_accept_language'
p881
asbag55
(g76
g57
NtRp882
(dp883
g60
(dp884
g87
g88
ssg69
g873
sg62
(lp885
S':'
asbag55
(g76
g57
NtRp886
(dp887
g60
(dp888
sg69
g873
sg62
(lp889
g55
(g56
g57
NtRp890
(dp891
g60
(dp892
g68
I4
ssg69
g886
sg62
(lp893
S'pt-BR,pt;q=0.8,en-US;q=0.6,en;q=0.4'
p894
asbasbasbag55
(g71
g57
NtRp895
(dp896
g60
(dp897
sg69
g647
sg62
(lp898
g55
(g76
g57
NtRp899
(dp900
g60
(dp901
g80
g81
ssg69
g895
sg62
(lp902
S'http_cache_control'
p903
asbag55
(g76
g57
NtRp904
(dp905
g60
(dp906
g87
g88
ssg69
g895
sg62
(lp907
S':'
asbag55
(g76
g57
NtRp908
(dp909
g60
(dp910
sg69
g895
sg62
(lp911
g55
(g56
g57
NtRp912
(dp913
g60
(dp914
g68
I4
ssg69
g908
sg62
(lp915
S'max-age=0'
p916
asbasbasbag55
(g71
g57
NtRp917
(dp918
g60
(dp919
sg69
g647
sg62
(lp920
g55
(g76
g57
NtRp921
(dp922
g60
(dp923
g80
g81
ssg69
g917
sg62
(lp924
S'http_connection'
p925
asbag55
(g76
g57
NtRp926
(dp927
g60
(dp928
g87
g88
ssg69
g917
sg62
(lp929
S':'
asbag55
(g76
g57
NtRp930
(dp931
g60
(dp932
sg69
g917
sg62
(lp933
g55
(g56
g57
NtRp934
(dp935
g60
(dp936
g68
I4
ssg69
g930
sg62
(lp937
S'keep-alive'
p938
asbasbasbag55
(g71
g57
NtRp939
(dp940
g60
(dp941
sg69
g647
sg62
(lp942
g55
(g76
g57
NtRp943
(dp944
g60
(dp945
g80
g81
ssg69
g939
sg62
(lp946
S'http_cookie'
p947
asbag55
(g76
g57
NtRp948
(dp949
g60
(dp950
g87
g88
ssg69
g939
sg62
(lp951
S':'
asbag55
(g76
g57
NtRp952
(dp953
g60
(dp954
sg69
g939
sg62
(lp955
g55
(g56
g57
NtRp956
(dp957
g60
(dp958
g68
I4
ssg69
g952
sg62
(lp959
S'session_id_admin=127.0.0.1-4e86946d-c0fa-4d4f-b7b9-dd71486e6bc6; session_id_synopsis=127.0.0.1-ea15d85f-607d-4f64-bdf1-d7c474a4e0c4'
p960
asbasbasbag55
(g71
g57
NtRp961
(dp962
g60
(dp963
sg69
g647
sg62
(lp964
g55
(g76
g57
NtRp965
(dp966
g60
(dp967
g80
g81
ssg69
g961
sg62
(lp968
S'http_host'
p969
asbag55
(g76
g57
NtRp970
(dp971
g60
(dp972
g87
g88
ssg69
g961
sg62
(lp973
S':'
asbag55
(g76
g57
NtRp974
(dp975
g60
(dp976
sg69
g961
sg62
(lp977
g55
(g56
g57
NtRp978
(dp979
g60
(dp980
g68
I4
ssg69
g974
sg62
(lp981
S'localhost:8000'
p982
asbasbasbag55
(g71
g57
NtRp983
(dp984
g60
(dp985
sg69
g647
sg62
(lp986
g55
(g76
g57
NtRp987
(dp988
g60
(dp989
g80
g81
ssg69
g983
sg62
(lp990
S'http_referer'
p991
asbag55
(g76
g57
NtRp992
(dp993
g60
(dp994
g87
g88
ssg69
g983
sg62
(lp995
S':'
asbag55
(g76
g57
NtRp996
(dp997
g60
(dp998
sg69
g983
sg62
(lp999
g55
(g56
g57
NtRp1000
(dp1001
g60
(dp1002
g68
I4
ssg69
g996
sg62
(lp1003
S'http://localhost:8000/synopsis/information/new/row/9'
p1004
asbasbasbag55
(g71
g57
NtRp1005
(dp1006
g60
(dp1007
sg69
g647
sg62
(lp1008
g55
(g76
g57
NtRp1009
(dp1010
g60
(dp1011
g80
g81
ssg69
g1005
sg62
(lp1012
S'http_user_agent'
p1013
asbag55
(g76
g57
NtRp1014
(dp1015
g60
(dp1016
g87
g88
ssg69
g1005
sg62
(lp1017
S':'
asbag55
(g76
g57
NtRp1018
(dp1019
g60
(dp1020
sg69
g1005
sg62
(lp1021
g55
(g56
g57
NtRp1022
(dp1023
g60
(dp1024
g68
I4
ssg69
g1018
sg62
(lp1025
S'Mozilla/5.0 (X11; Linux x86_64) AppleWebKit/535.7 (KHTML, like Gecko) Chrome/16.0.912.75 Safari/535.7'
p1026
asbasbasbag55
(g71
g57
NtRp1027
(dp1028
g60
(dp1029
sg69
g647
sg62
(lp1030
g55
(g76
g57
NtRp1031
(dp1032
g60
(dp1033
g80
g81
ssg69
g1027
sg62
(lp1034
S'is_jython'
p1035
asbag55
(g76
g57
NtRp1036
(dp1037
g60
(dp1038
g87
g88
ssg69
g1027
sg62
(lp1039
S':'
asbag55
(g76
g57
NtRp1040
(dp1041
g60
(dp1042
sg69
g1027
sg62
(lp1043
g55
(g56
g57
NtRp1044
(dp1045
g60
(dp1046
g68
I4
ssg69
g1040
sg62
(lp1047
g98
asbasbasbag55
(g71
g57
NtRp1048
(dp1049
g60
(dp1050
sg69
g647
sg62
(lp1051
g55
(g76
g57
NtRp1052
(dp1053
g60
(dp1054
g80
g81
ssg69
g1048
sg62
(lp1055
S'path_info'
p1056
asbag55
(g76
g57
NtRp1057
(dp1058
g60
(dp1059
g87
g88
ssg69
g1048
sg62
(lp1060
S':'
asbag55
(g76
g57
NtRp1061
(dp1062
g60
(dp1063
sg69
g1048
sg62
(lp1064
g55
(g56
g57
NtRp1065
(dp1066
g60
(dp1067
g68
I4
ssg69
g1061
sg62
(lp1068
S'/synopsis/information/publication/9'
p1069
asbasbasbag55
(g71
g57
NtRp1070
(dp1071
g60
(dp1072
sg69
g647
sg62
(lp1073
g55
(g76
g57
NtRp1074
(dp1075
g60
(dp1076
g80
g81
ssg69
g1070
sg62
(lp1077
S'query_string'
p1078
asbag55
(g76
g57
NtRp1079
(dp1080
g60
(dp1081
g87
g88
ssg69
g1070
sg62
(lp1082
S':'
asbag55
(g76
g57
NtRp1083
(dp1084
g60
(dp1085
sg69
g1070
sg62
(lp1086
g55
(g56
g57
NtRp1087
(dp1088
g60
(dp1089
g68
I4
ssg69
g1083
sg62
(lp1090
S''
asbasbasbag55
(g71
g57
NtRp1091
(dp1092
g60
(dp1093
sg69
g647
sg62
(lp1094
g55
(g76
g57
NtRp1095
(dp1096
g60
(dp1097
g80
g81
ssg69
g1091
sg62
(lp1098
S'remote_addr'
p1099
asbag55
(g76
g57
NtRp1100
(dp1101
g60
(dp1102
g87
g88
ssg69
g1091
sg62
(lp1103
S':'
asbag55
(g76
g57
NtRp1104
(dp1105
g60
(dp1106
sg69
g1091
sg62
(lp1107
g55
(g56
g57
NtRp1108
(dp1109
g60
(dp1110
g68
I4
ssg69
g1104
sg62
(lp1111
g200
asbasbasbag55
(g71
g57
NtRp1112
(dp1113
g60
(dp1114
sg69
g647
sg62
(lp1115
g55
(g76
g57
NtRp1116
(dp1117
g60
(dp1118
g80
g81
ssg69
g1112
sg62
(lp1119
S'remote_port'
p1120
asbag55
(g76
g57
NtRp1121
(dp1122
g60
(dp1123
g87
g88
ssg69
g1112
sg62
(lp1124
S':'
asbag55
(g76
g57
NtRp1125
(dp1126
g60
(dp1127
sg69
g1112
sg62
(lp1128
g55
(g56
g57
NtRp1129
(dp1130
g60
(dp1131
g68
I4
ssg69
g1125
sg62
(lp1132
S'41858'
p1133
asbasbasbag55
(g71
g57
NtRp1134
(dp1135
g60
(dp1136
sg69
g647
sg62
(lp1137
g55
(g76
g57
NtRp1138
(dp1139
g60
(dp1140
g80
g81
ssg69
g1134
sg62
(lp1141
S'request_method'
p1142
asbag55
(g76
g57
NtRp1143
(dp1144
g60
(dp1145
g87
g88
ssg69
g1134
sg62
(lp1146
S':'
asbag55
(g76
g57
NtRp1147
(dp1148
g60
(dp1149
sg69
g1134
sg62
(lp1150
g55
(g56
g57
NtRp1151
(dp1152
g60
(dp1153
g68
I4
ssg69
g1147
sg62
(lp1154
S'GET'
p1155
asbasbasbag55
(g71
g57
NtRp1156
(dp1157
g60
(dp1158
sg69
g647
sg62
(lp1159
g55
(g76
g57
NtRp1160
(dp1161
g60
(dp1162
g80
g81
ssg69
g1156
sg62
(lp1163
S'script_name'
p1164
asbag55
(g76
g57
NtRp1165
(dp1166
g60
(dp1167
g87
g88
ssg69
g1156
sg62
(lp1168
S':'
asbag55
(g76
g57
NtRp1169
(dp1170
g60
(dp1171
sg69
g1156
sg62
(lp1172
g55
(g56
g57
NtRp1173
(dp1174
g60
(dp1175
g68
I4
ssg69
g1169
sg62
(lp1176
S''
asbasbasbag55
(g71
g57
NtRp1177
(dp1178
g60
(dp1179
sg69
g647
sg62
(lp1180
g55
(g76
g57
NtRp1181
(dp1182
g60
(dp1183
g80
g81
ssg69
g1177
sg62
(lp1184
S'server_name'
p1185
asbag55
(g76
g57
NtRp1186
(dp1187
g60
(dp1188
g87
g88
ssg69
g1177
sg62
(lp1189
S':'
asbag55
(g76
g57
NtRp1190
(dp1191
g60
(dp1192
sg69
g1177
sg62
(lp1193
g55
(g56
g57
NtRp1194
(dp1195
g60
(dp1196
g68
I4
ssg69
g1190
sg62
(lp1197
S'kaique-Pine-Trail-M'
p1198
asbasbasbag55
(g71
g57
NtRp1199
(dp1200
g60
(dp1201
sg69
g647
sg62
(lp1202
g55
(g76
g57
NtRp1203
(dp1204
g60
(dp1205
g80
g81
ssg69
g1199
sg62
(lp1206
S'server_port'
p1207
asbag55
(g76
g57
NtRp1208
(dp1209
g60
(dp1210
g87
g88
ssg69
g1199
sg62
(lp1211
S':'
asbag55
(g76
g57
NtRp1212
(dp1213
g60
(dp1214
sg69
g1199
sg62
(lp1215
g55
(g56
g57
NtRp1216
(dp1217
g60
(dp1218
g68
I4
ssg69
g1212
sg62
(lp1219
S'8000'
p1220
asbasbasbag55
(g71
g57
NtRp1221
(dp1222
g60
(dp1223
sg69
g647
sg62
(lp1224
g55
(g76
g57
NtRp1225
(dp1226
g60
(dp1227
g80
g81
ssg69
g1221
sg62
(lp1228
S'server_protocol'
p1229
asbag55
(g76
g57
NtRp1230
(dp1231
g60
(dp1232
g87
g88
ssg69
g1221
sg62
(lp1233
S':'
asbag55
(g76
g57
NtRp1234
(dp1235
g60
(dp1236
sg69
g1221
sg62
(lp1237
g55
(g56
g57
NtRp1238
(dp1239
g60
(dp1240
g68
I4
ssg69
g1234
sg62
(lp1241
S'HTTP/1.1'
p1242
asbasbasbag55
(g71
g57
NtRp1243
(dp1244
g60
(dp1245
sg69
g647
sg62
(lp1246
g55
(g76
g57
NtRp1247
(dp1248
g60
(dp1249
g80
g81
ssg69
g1243
sg62
(lp1250
S'server_software'
p1251
asbag55
(g76
g57
NtRp1252
(dp1253
g60
(dp1254
g87
g88
ssg69
g1243
sg62
(lp1255
S':'
asbag55
(g76
g57
NtRp1256
(dp1257
g60
(dp1258
sg69
g1243
sg62
(lp1259
g55
(g56
g57
NtRp1260
(dp1261
g60
(dp1262
g68
I4
ssg69
g1256
sg62
(lp1263
S'Rocket 1.2.4'
p1264
asbasbasbag55
(g71
g57
NtRp1265
(dp1266
g60
(dp1267
sg69
g647
sg62
(lp1268
g55
(g76
g57
NtRp1269
(dp1270
g60
(dp1271
g80
g81
ssg69
g1265
sg62
(lp1272
S'web2py_crontype'
p1273
asbag55
(g76
g57
NtRp1274
(dp1275
g60
(dp1276
g87
g88
ssg69
g1265
sg62
(lp1277
S':'
asbag55
(g76
g57
NtRp1278
(dp1279
g60
(dp1280
sg69
g1265
sg62
(lp1281
g55
(g56
g57
NtRp1282
(dp1283
g60
(dp1284
g68
I4
ssg69
g1278
sg62
(lp1285
S'hard'
p1286
asbasbasbag55
(g71
g57
NtRp1287
(dp1288
g60
(dp1289
sg69
g647
sg62
(lp1290
g55
(g76
g57
NtRp1291
(dp1292
g60
(dp1293
g80
g81
ssg69
g1287
sg62
(lp1294
S'web2py_path'
p1295
asbag55
(g76
g57
NtRp1296
(dp1297
g60
(dp1298
g87
g88
ssg69
g1287
sg62
(lp1299
S':'
asbag55
(g76
g57
NtRp1300
(dp1301
g60
(dp1302
sg69
g1287
sg62
(lp1303
g55
(g56
g57
NtRp1304
(dp1305
g60
(dp1306
g68
I4
ssg69
g1300
sg62
(lp1307
g694
asbasbasbag55
(g71
g57
NtRp1308
(dp1309
g60
(dp1310
sg69
g647
sg62
(lp1311
g55
(g76
g57
NtRp1312
(dp1313
g60
(dp1314
g80
g81
ssg69
g1308
sg62
(lp1315
S'web2py_version'
p1316
asbag55
(g76
g57
NtRp1317
(dp1318
g60
(dp1319
g87
g88
ssg69
g1308
sg62
(lp1320
S':'
asbag55
(g76
g57
NtRp1321
(dp1322
g60
(dp1323
sg69
g1308
sg62
(lp1324
g55
(g56
g57
NtRp1325
(dp1326
g60
(dp1327
g68
I4
ssg69
g1321
sg62
(lp1328
g55
(g64
g57
NtRp1329
(dp1330
g60
(dp1331
g68
I3
ssg69
Nsg62
(lp1332
g55
(g71
g57
NtRp1333
(dp1334
g60
(dp1335
sg69
g1329
sg62
(lp1336
g55
(g76
g57
NtRp1337
(dp1338
g60
(dp1339
sg69
g1333
sg62
(lp1340
g55
(g56
g57
NtRp1341
(dp1342
g60
(dp1343
g68
I3
ssg69
g1337
sg62
(lp1344
S'1'
asbasbasbag55
(g71
g57
NtRp1345
(dp1346
g60
(dp1347
sg69
g1329
sg62
(lp1348
g55
(g76
g57
NtRp1349
(dp1350
g60
(dp1351
sg69
g1345
sg62
(lp1352
g55
(g56
g57
NtRp1353
(dp1354
g60
(dp1355
g68
I3
ssg69
g1349
sg62
(lp1356
S'99'
p1357
asbasbasbag55
(g71
g57
NtRp1358
(dp1359
g60
(dp1360
sg69
g1329
sg62
(lp1361
g55
(g76
g57
NtRp1362
(dp1363
g60
(dp1364
sg69
g1358
sg62
(lp1365
g55
(g56
g57
NtRp1366
(dp1367
g60
(dp1368
g68
I3
ssg69
g1362
sg62
(lp1369
S'2'
asbasbasbag55
(g71
g57
NtRp1370
(dp1371
g60
(dp1372
sg69
g1329
sg62
(lp1373
g55
(g76
g57
NtRp1374
(dp1375
g60
(dp1376
sg69
g1370
sg62
(lp1377
g55
(g56
g57
NtRp1378
(dp1379
g60
(dp1380
g68
I3
ssg69
g1374
sg62
(lp1381
S'datetime.datetime(2011, 9, 26, 6, 55, 33)'
p1382
asbasbasbag55
(g71
g57
NtRp1383
(dp1384
g60
(dp1385
sg69
g1329
sg62
(lp1386
g55
(g76
g57
NtRp1387
(dp1388
g60
(dp1389
sg69
g1383
sg62
(lp1390
g55
(g56
g57
NtRp1391
(dp1392
g60
(dp1393
g68
I3
ssg69
g1387
sg62
(lp1394
S'stable'
p1395
asbasbasbasbasbasbasbag55
(g71
g57
NtRp1396
(dp1397
g60
(dp1398
sg69
g647
sg62
(lp1399
g55
(g76
g57
NtRp1400
(dp1401
g60
(dp1402
g80
g81
ssg69
g1396
sg62
(lp1403
S'wsgi_errors'
p1404
asbag55
(g76
g57
NtRp1405
(dp1406
g60
(dp1407
g87
g88
ssg69
g1396
sg62
(lp1408
S':'
asbag55
(g76
g57
NtRp1409
(dp1410
g60
(dp1411
sg69
g1396
sg62
(lp1412
g55
(g56
g57
NtRp1413
(dp1414
g60
(dp1415
g68
I4
ssg69
g1409
sg62
(lp1416
S"<open file '<stderr>', mode 'w' at 0x7f041f2b1270>"
p1417
asbasbasbag55
(g71
g57
NtRp1418
(dp1419
g60
(dp1420
sg69
g647
sg62
(lp1421
g55
(g76
g57
NtRp1422
(dp1423
g60
(dp1424
g80
g81
ssg69
g1418
sg62
(lp1425
S'wsgi_file_wrapper'
p1426
asbag55
(g76
g57
NtRp1427
(dp1428
g60
(dp1429
g87
g88
ssg69
g1418
sg62
(lp1430
S':'
asbag55
(g76
g57
NtRp1431
(dp1432
g60
(dp1433
sg69
g1418
sg62
(lp1434
g55
(g56
g57
NtRp1435
(dp1436
g60
(dp1437
g68
I4
ssg69
g1431
sg62
(lp1438
S'<class wsgiref.util.FileWrapper at 0x2144ef0>'
p1439
asbasbasbag55
(g71
g57
NtRp1440
(dp1441
g60
(dp1442
sg69
g647
sg62
(lp1443
g55
(g76
g57
NtRp1444
(dp1445
g60
(dp1446
g80
g81
ssg69
g1440
sg62
(lp1447
S'wsgi_input'
p1448
asbag55
(g76
g57
NtRp1449
(dp1450
g60
(dp1451
g87
g88
ssg69
g1440
sg62
(lp1452
S':'
asbag55
(g76
g57
NtRp1453
(dp1454
g60
(dp1455
sg69
g1440
sg62
(lp1456
g55
(g56
g57
NtRp1457
(dp1458
g60
(dp1459
g68
I4
ssg69
g1453
sg62
(lp1460
S'<socket._fileobject object at 0x2451250>'
p1461
asbasbasbag55
(g71
g57
NtRp1462
(dp1463
g60
(dp1464
sg69
g647
sg62
(lp1465
g55
(g76
g57
NtRp1466
(dp1467
g60
(dp1468
g80
g81
ssg69
g1462
sg62
(lp1469
S'wsgi_multiprocess'
p1470
asbag55
(g76
g57
NtRp1471
(dp1472
g60
(dp1473
g87
g88
ssg69
g1462
sg62
(lp1474
S':'
asbag55
(g76
g57
NtRp1475
(dp1476
g60
(dp1477
sg69
g1462
sg62
(lp1478
g55
(g56
g57
NtRp1479
(dp1480
g60
(dp1481
g68
I4
ssg69
g1475
sg62
(lp1482
g98
asbasbasbag55
(g71
g57
NtRp1483
(dp1484
g60
(dp1485
sg69
g647
sg62
(lp1486
g55
(g76
g57
NtRp1487
(dp1488
g60
(dp1489
g80
g81
ssg69
g1483
sg62
(lp1490
S'wsgi_multithread'
p1491
asbag55
(g76
g57
NtRp1492
(dp1493
g60
(dp1494
g87
g88
ssg69
g1483
sg62
(lp1495
S':'
asbag55
(g76
g57
NtRp1496
(dp1497
g60
(dp1498
sg69
g1483
sg62
(lp1499
g55
(g56
g57
NtRp1500
(dp1501
g60
(dp1502
g68
I4
ssg69
g1496
sg62
(lp1503
S'True'
p1504
asbasbasbag55
(g71
g57
NtRp1505
(dp1506
g60
(dp1507
sg69
g647
sg62
(lp1508
g55
(g76
g57
NtRp1509
(dp1510
g60
(dp1511
g80
g81
ssg69
g1505
sg62
(lp1512
S'wsgi_run_once'
p1513
asbag55
(g76
g57
NtRp1514
(dp1515
g60
(dp1516
g87
g88
ssg69
g1505
sg62
(lp1517
S':'
asbag55
(g76
g57
NtRp1518
(dp1519
g60
(dp1520
sg69
g1505
sg62
(lp1521
g55
(g56
g57
NtRp1522
(dp1523
g60
(dp1524
g68
I4
ssg69
g1518
sg62
(lp1525
g98
asbasbasbag55
(g71
g57
NtRp1526
(dp1527
g60
(dp1528
sg69
g647
sg62
(lp1529
g55
(g76
g57
NtRp1530
(dp1531
g60
(dp1532
g80
g81
ssg69
g1526
sg62
(lp1533
S'wsgi_url_scheme'
p1534
asbag55
(g76
g57
NtRp1535
(dp1536
g60
(dp1537
g87
g88
ssg69
g1526
sg62
(lp1538
S':'
asbag55
(g76
g57
NtRp1539
(dp1540
g60
(dp1541
sg69
g1526
sg62
(lp1542
g55
(g56
g57
NtRp1543
(dp1544
g60
(dp1545
g68
I4
ssg69
g1539
sg62
(lp1546
S'http'
p1547
asbasbasbag55
(g71
g57
NtRp1548
(dp1549
g60
(dp1550
sg69
g647
sg62
(lp1551
g55
(g76
g57
NtRp1552
(dp1553
g60
(dp1554
g80
g81
ssg69
g1548
sg62
(lp1555
S'wsgi_version'
p1556
asbag55
(g76
g57
NtRp1557
(dp1558
g60
(dp1559
g87
g88
ssg69
g1548
sg62
(lp1560
S':'
asbag55
(g76
g57
NtRp1561
(dp1562
g60
(dp1563
sg69
g1548
sg62
(lp1564
g55
(g56
g57
NtRp1565
(dp1566
g60
(dp1567
g68
I4
ssg69
g1561
sg62
(lp1568
g55
(g64
g57
NtRp1569
(dp1570
g60
(dp1571
g68
I3
ssg69
Nsg62
(lp1572
g55
(g71
g57
NtRp1573
(dp1574
g60
(dp1575
sg69
g1569
sg62
(lp1576
g55
(g76
g57
NtRp1577
(dp1578
g60
(dp1579
sg69
g1573
sg62
(lp1580
g55
(g56
g57
NtRp1581
(dp1582
g60
(dp1583
g68
I3
ssg69
g1577
sg62
(lp1584
S'1'
asbasbasbag55
(g71
g57
NtRp1585
(dp1586
g60
(dp1587
sg69
g1569
sg62
(lp1588
g55
(g76
g57
NtRp1589
(dp1590
g60
(dp1591
sg69
g1585
sg62
(lp1592
g55
(g56
g57
NtRp1593
(dp1594
g60
(dp1595
g68
I3
ssg69
g1589
sg62
(lp1596
S'0'
asbasbasbasbasbasbasbasbasbasbasbag55
(g71
g57
NtRp1597
(dp1598
g60
(dp1599
sg69
g65
sg62
(lp1600
g55
(g76
g57
NtRp1601
(dp1602
g60
(dp1603
g80
g81
ssg69
g1597
sg62
(lp1604
S'extension'
p1605
asbag55
(g76
g57
NtRp1606
(dp1607
g60
(dp1608
g87
g88
ssg69
g1597
sg62
(lp1609
S':'
asbag55
(g76
g57
NtRp1610
(dp1611
g60
(dp1612
sg69
g1597
sg62
(lp1613
g55
(g56
g57
NtRp1614
(dp1615
g60
(dp1616
g68
I5
ssg69
g1610
sg62
(lp1617
S'html'
p1618
asbasbasbag55
(g71
g57
NtRp1619
(dp1620
g60
(dp1621
sg69
g65
sg62
(lp1622
g55
(g76
g57
NtRp1623
(dp1624
g60
(dp1625
g80
g81
ssg69
g1619
sg62
(lp1626
S'folder'
p1627
asbag55
(g76
g57
NtRp1628
(dp1629
g60
(dp1630
g87
g88
ssg69
g1619
sg62
(lp1631
S':'
asbag55
(g76
g57
NtRp1632
(dp1633
g60
(dp1634
sg69
g1619
sg62
(lp1635
g55
(g56
g57
NtRp1636
(dp1637
g60
(dp1638
g68
I5
ssg69
g1632
sg62
(lp1639
S'/home/kaique/Projects/web2py/applications/synopsis/'
p1640
asbasbasbag55
(g71
g57
NtRp1641
(dp1642
g60
(dp1643
sg69
g65
sg62
(lp1644
g55
(g76
g57
NtRp1645
(dp1646
g60
(dp1647
g80
g81
ssg69
g1641
sg62
(lp1648
S'function'
p1649
asbag55
(g76
g57
NtRp1650
(dp1651
g60
(dp1652
g87
g88
ssg69
g1641
sg62
(lp1653
S':'
asbag55
(g76
g57
NtRp1654
(dp1655
g60
(dp1656
sg69
g1641
sg62
(lp1657
g55
(g56
g57
NtRp1658
(dp1659
g60
(dp1660
g68
I5
ssg69
g1654
sg62
(lp1661
S'publication'
p1662
asbasbasbag55
(g71
g57
NtRp1663
(dp1664
g60
(dp1665
sg69
g65
sg62
(lp1666
g55
(g76
g57
NtRp1667
(dp1668
g60
(dp1669
g80
g81
ssg69
g1663
sg62
(lp1670
S'get_vars'
p1671
asbag55
(g76
g57
NtRp1672
(dp1673
g60
(dp1674
g87
g88
ssg69
g1663
sg62
(lp1675
S':'
asbag55
(g76
g57
NtRp1676
(dp1677
g60
(dp1678
sg69
g1663
sg62
(lp1679
g55
(g56
g57
NtRp1680
(dp1681
g60
(dp1682
g68
I5
ssg69
g1676
sg62
(lp1683
g55
(g64
g57
NtRp1684
(dp1685
g60
(dp1686
g68
I4
ssg69
Nsg62
(lp1687
sbasbasbasbag55
(g71
g57
NtRp1688
(dp1689
g60
(dp1690
sg69
g65
sg62
(lp1691
g55
(g76
g57
NtRp1692
(dp1693
g60
(dp1694
g80
g81
ssg69
g1688
sg62
(lp1695
S'global_settings'
p1696
asbag55
(g76
g57
NtRp1697
(dp1698
g60
(dp1699
g87
g88
ssg69
g1688
sg62
(lp1700
S':'
asbag55
(g76
g57
NtRp1701
(dp1702
g60
(dp1703
sg69
g1688
sg62
(lp1704
g55
(g56
g57
NtRp1705
(dp1706
g60
(dp1707
g68
I5
ssg69
g1701
sg62
(lp1708
g55
(g64
g57
NtRp1709
(dp1710
g60
(dp1711
g68
I4
ssg69
Nsg62
(lp1712
g55
(g71
g57
NtRp1713
(dp1714
g60
(dp1715
sg69
g1709
sg62
(lp1716
g55
(g76
g57
NtRp1717
(dp1718
g60
(dp1719
g80
g81
ssg69
g1713
sg62
(lp1720
g659
asbag55
(g76
g57
NtRp1721
(dp1722
g60
(dp1723
g87
g88
ssg69
g1713
sg62
(lp1724
S':'
asbag55
(g76
g57
NtRp1725
(dp1726
g60
(dp1727
sg69
g1713
sg62
(lp1728
g55
(g56
g57
NtRp1729
(dp1730
g60
(dp1731
g68
I4
ssg69
g1725
sg62
(lp1732
S"set(['/home/kaique/Projects/web2py/applications/synopsis/', '/home/kaique/Projects/web2py/applications/admin/'])"
p1733
asbasbasbag55
(g71
g57
NtRp1734
(dp1735
g60
(dp1736
sg69
g1709
sg62
(lp1737
g55
(g76
g57
NtRp1738
(dp1739
g60
(dp1740
g80
g81
ssg69
g1734
sg62
(lp1741
g681
asbag55
(g76
g57
NtRp1742
(dp1743
g60
(dp1744
g87
g88
ssg69
g1734
sg62
(lp1745
S':'
asbag55
(g76
g57
NtRp1746
(dp1747
g60
(dp1748
sg69
g1734
sg62
(lp1749
g55
(g56
g57
NtRp1750
(dp1751
g60
(dp1752
g68
I4
ssg69
g1746
sg62
(lp1753
g694
asbasbasbag55
(g71
g57
NtRp1754
(dp1755
g60
(dp1756
sg69
g1709
sg62
(lp1757
g55
(g76
g57
NtRp1758
(dp1759
g60
(dp1760
g80
g81
ssg69
g1754
sg62
(lp1761
g703
asbag55
(g76
g57
NtRp1762
(dp1763
g60
(dp1764
g87
g88
ssg69
g1754
sg62
(lp1765
S':'
asbag55
(g76
g57
NtRp1766
(dp1767
g60
(dp1768
sg69
g1754
sg62
(lp1769
g55
(g56
g57
NtRp1770
(dp1771
g60
(dp1772
g68
I4
ssg69
g1766
sg62
(lp1773
g55
(g64
g57
NtRp1774
(dp1775
g60
(dp1776
g68
I3
ssg69
Nsg62
(lp1777
sbasbasbasbag55
(g71
g57
NtRp1778
(dp1779
g60
(dp1780
sg69
g1709
sg62
(lp1781
g55
(g76
g57
NtRp1782
(dp1783
g60
(dp1784
g80
g81
ssg69
g1778
sg62
(lp1785
g728
asbag55
(g76
g57
NtRp1786
(dp1787
g60
(dp1788
g87
g88
ssg69
g1778
sg62
(lp1789
S':'
asbag55
(g76
g57
NtRp1790
(dp1791
g60
(dp1792
sg69
g1778
sg62
(lp1793
g55
(g56
g57
NtRp1794
(dp1795
g60
(dp1796
g68
I4
ssg69
g1790
sg62
(lp1797
S"<Values at 0x228d950: {'verbose': False, 'ip': '127.0.0.1', 'shutdown_timeout': 5, 'taskbar': False, 'nocron': False, 'pid_filename': 'httpserver.pid', 'maxthreads': None, 'softcron': False, 'server_name': 'kaique-Pine-Trail-M', 'bpython': False, 'nogui': False, 'port': 8000, 'extcron': False, 'debuglevel': 30, 'test': None, 'folder': '/home/kaique/Projects/web2py', 'config': '', 'import_models': False, 'winservice': '', 'shell': None, 'run': '', 'log_filename': 'httpserver.log', 'args': [''], 'ssl_ca_certificate': None, 'scheduler': None, 'profiler_filename': None, 'ssl_private_key': '', 'password': 'dev', 'request_queue_size': 5, 'ssl_certificate': '', 'cronjob': False, 'plain': False, 'quiet': False, 'interfaces': None, 'minthreads': None, 'timeout': 10, 'numthreads': None, 'nobanner': False}>"
p1798
asbasbasbag55
(g71
g57
NtRp1799
(dp1800
g60
(dp1801
sg69
g1709
sg62
(lp1802
g55
(g76
g57
NtRp1803
(dp1804
g60
(dp1805
g80
g81
ssg69
g1799
sg62
(lp1806
g750
asbag55
(g76
g57
NtRp1807
(dp1808
g60
(dp1809
g87
g88
ssg69
g1799
sg62
(lp1810
S':'
asbag55
(g76
g57
NtRp1811
(dp1812
g60
(dp1813
sg69
g1799
sg62
(lp1814
g55
(g56
g57
NtRp1815
(dp1816
g60
(dp1817
g68
I4
ssg69
g1811
sg62
(lp1818
S'set([])'
p1819
asbasbasbag55
(g71
g57
NtRp1820
(dp1821
g60
(dp1822
sg69
g1709
sg62
(lp1823
g55
(g76
g57
NtRp1824
(dp1825
g60
(dp1826
g80
g81
ssg69
g1820
sg62
(lp1827
g772
asbag55
(g76
g57
NtRp1828
(dp1829
g60
(dp1830
g87
g88
ssg69
g1820
sg62
(lp1831
S':'
asbag55
(g76
g57
NtRp1832
(dp1833
g60
(dp1834
sg69
g1820
sg62
(lp1835
g55
(g56
g57
NtRp1836
(dp1837
g60
(dp1838
g68
I4
ssg69
g1832
sg62
(lp1839
g98
asbasbasbag55
(g71
g57
NtRp1840
(dp1841
g60
(dp1842
sg69
g1709
sg62
(lp1843
g55
(g76
g57
NtRp1844
(dp1845
g60
(dp1846
g80
g81
ssg69
g1840
sg62
(lp1847
g793
asbag55
(g76
g57
NtRp1848
(dp1849
g60
(dp1850
g87
g88
ssg69
g1840
sg62
(lp1851
S':'
asbag55
(g76
g57
NtRp1852
(dp1853
g60
(dp1854
sg69
g1840
sg62
(lp1855
g55
(g56
g57
NtRp1856
(dp1857
g60
(dp1858
g68
I4
ssg69
g1852
sg62
(lp1859
g806
asbasbasbag55
(g71
g57
NtRp1860
(dp1861
g60
(dp1862
sg69
g1709
sg62
(lp1863
g55
(g76
g57
NtRp1864
(dp1865
g60
(dp1866
g80
g81
ssg69
g1860
sg62
(lp1867
g1035
asbag55
(g76
g57
NtRp1868
(dp1869
g60
(dp1870
g87
g88
ssg69
g1860
sg62
(lp1871
S':'
asbag55
(g76
g57
NtRp1872
(dp1873
g60
(dp1874
sg69
g1860
sg62
(lp1875
g55
(g56
g57
NtRp1876
(dp1877
g60
(dp1878
g68
I4
ssg69
g1872
sg62
(lp1879
g98
asbasbasbag55
(g71
g57
NtRp1880
(dp1881
g60
(dp1882
sg69
g1709
sg62
(lp1883
g55
(g76
g57
NtRp1884
(dp1885
g60
(dp1886
g80
g81
ssg69
g1880
sg62
(lp1887
g1273
asbag55
(g76
g57
NtRp1888
(dp1889
g60
(dp1890
g87
g88
ssg69
g1880
sg62
(lp1891
S':'
asbag55
(g76
g57
NtRp1892
(dp1893
g60
(dp1894
sg69
g1880
sg62
(lp1895
g55
(g56
g57
NtRp1896
(dp1897
g60
(dp1898
g68
I4
ssg69
g1892
sg62
(lp1899
g1286
asbasbasbag55
(g71
g57
NtRp1900
(dp1901
g60
(dp1902
sg69
g1709
sg62
(lp1903
g55
(g76
g57
NtRp1904
(dp1905
g60
(dp1906
g80
g81
ssg69
g1900
sg62
(lp1907
g1316
asbag55
(g76
g57
NtRp1908
(dp1909
g60
(dp1910
g87
g88
ssg69
g1900
sg62
(lp1911
S':'
asbag55
(g76
g57
NtRp1912
(dp1913
g60
(dp1914
sg69
g1900
sg62
(lp1915
g55
(g56
g57
NtRp1916
(dp1917
g60
(dp1918
g68
I4
ssg69
g1912
sg62
(lp1919
g55
(g64
g57
NtRp1920
(dp1921
g60
(dp1922
g68
I3
ssg69
Nsg62
(lp1923
g55
(g71
g57
NtRp1924
(dp1925
g60
(dp1926
sg69
g1920
sg62
(lp1927
g55
(g76
g57
NtRp1928
(dp1929
g60
(dp1930
sg69
g1924
sg62
(lp1931
g55
(g56
g57
NtRp1932
(dp1933
g60
(dp1934
g68
I3
ssg69
g1928
sg62
(lp1935
S'1'
asbasbasbag55
(g71
g57
NtRp1936
(dp1937
g60
(dp1938
sg69
g1920
sg62
(lp1939
g55
(g76
g57
NtRp1940
(dp1941
g60
(dp1942
sg69
g1936
sg62
(lp1943
g55
(g56
g57
NtRp1944
(dp1945
g60
(dp1946
g68
I3
ssg69
g1940
sg62
(lp1947
S'99'
p1948
asbasbasbag55
(g71
g57
NtRp1949
(dp1950
g60
(dp1951
sg69
g1920
sg62
(lp1952
g55
(g76
g57
NtRp1953
(dp1954
g60
(dp1955
sg69
g1949
sg62
(lp1956
g55
(g56
g57
NtRp1957
(dp1958
g60
(dp1959
g68
I3
ssg69
g1953
sg62
(lp1960
S'2'
asbasbasbag55
(g71
g57
NtRp1961
(dp1962
g60
(dp1963
sg69
g1920
sg62
(lp1964
g55
(g76
g57
NtRp1965
(dp1966
g60
(dp1967
sg69
g1961
sg62
(lp1968
g55
(g56
g57
NtRp1969
(dp1970
g60
(dp1971
g68
I3
ssg69
g1965
sg62
(lp1972
S'datetime.datetime(2011, 9, 26, 6, 55, 33)'
p1973
asbasbasbag55
(g71
g57
NtRp1974
(dp1975
g60
(dp1976
sg69
g1920
sg62
(lp1977
g55
(g76
g57
NtRp1978
(dp1979
g60
(dp1980
sg69
g1974
sg62
(lp1981
g55
(g56
g57
NtRp1982
(dp1983
g60
(dp1984
g68
I3
ssg69
g1978
sg62
(lp1985
g1395
asbasbasbasbasbasbasbasbasbasbasbag55
(g71
g57
NtRp1986
(dp1987
g60
(dp1988
sg69
g65
sg62
(lp1989
g55
(g76
g57
NtRp1990
(dp1991
g60
(dp1992
g80
g81
ssg69
g1986
sg62
(lp1993
S'is_https'
p1994
asbag55
(g76
g57
NtRp1995
(dp1996
g60
(dp1997
g87
g88
ssg69
g1986
sg62
(lp1998
S':'
asbag55
(g76
g57
NtRp1999
(dp2000
g60
(dp2001
sg69
g1986
sg62
(lp2002
g55
(g56
g57
NtRp2003
(dp2004
g60
(dp2005
g68
I5
ssg69
g1999
sg62
(lp2006
g98
asbasbasbag55
(g71
g57
NtRp2007
(dp2008
g60
(dp2009
sg69
g65
sg62
(lp2010
g55
(g76
g57
NtRp2011
(dp2012
g60
(dp2013
g80
g81
ssg69
g2007
sg62
(lp2014
S'is_local'
p2015
asbag55
(g76
g57
NtRp2016
(dp2017
g60
(dp2018
g87
g88
ssg69
g2007
sg62
(lp2019
S':'
asbag55
(g76
g57
NtRp2020
(dp2021
g60
(dp2022
sg69
g2007
sg62
(lp2023
g55
(g56
g57
NtRp2024
(dp2025
g60
(dp2026
g68
I5
ssg69
g2020
sg62
(lp2027
g1504
asbasbasbag55
(g71
g57
NtRp2028
(dp2029
g60
(dp2030
sg69
g65
sg62
(lp2031
g55
(g76
g57
NtRp2032
(dp2033
g60
(dp2034
g80
g81
ssg69
g2028
sg62
(lp2035
S'is_restful'
p2036
asbag55
(g76
g57
NtRp2037
(dp2038
g60
(dp2039
g87
g88
ssg69
g2028
sg62
(lp2040
S':'
asbag55
(g76
g57
NtRp2041
(dp2042
g60
(dp2043
sg69
g2028
sg62
(lp2044
g55
(g56
g57
NtRp2045
(dp2046
g60
(dp2047
g68
I5
ssg69
g2041
sg62
(lp2048
g98
asbasbasbag55
(g71
g57
NtRp2049
(dp2050
g60
(dp2051
sg69
g65
sg62
(lp2052
g55
(g76
g57
NtRp2053
(dp2054
g60
(dp2055
g80
g81
ssg69
g2049
sg62
(lp2056
S'now'
p2057
asbag55
(g76
g57
NtRp2058
(dp2059
g60
(dp2060
g87
g88
ssg69
g2049
sg62
(lp2061
S':'
asbag55
(g76
g57
NtRp2062
(dp2063
g60
(dp2064
sg69
g2049
sg62
(lp2065
g55
(g56
g57
NtRp2066
(dp2067
g60
(dp2068
g68
I5
ssg69
g2062
sg62
(lp2069
S'datetime.datetime(2012, 1, 16, 11, 38, 39, 150011)'
p2070
asbasbasbag55
(g71
g57
NtRp2071
(dp2072
g60
(dp2073
sg69
g65
sg62
(lp2074
g55
(g76
g57
NtRp2075
(dp2076
g60
(dp2077
g80
g81
ssg69
g2071
sg62
(lp2078
S'post_vars'
p2079
asbag55
(g76
g57
NtRp2080
(dp2081
g60
(dp2082
g87
g88
ssg69
g2071
sg62
(lp2083
S':'
asbag55
(g76
g57
NtRp2084
(dp2085
g60
(dp2086
sg69
g2071
sg62
(lp2087
g55
(g56
g57
NtRp2088
(dp2089
g60
(dp2090
g68
I5
ssg69
g2084
sg62
(lp2091
g55
(g64
g57
NtRp2092
(dp2093
g60
(dp2094
g68
I4
ssg69
Nsg62
(lp2095
sbasbasbasbag55
(g71
g57
NtRp2096
(dp2097
g60
(dp2098
sg69
g65
sg62
(lp2099
g55
(g76
g57
NtRp2100
(dp2101
g60
(dp2102
g80
g81
ssg69
g2096
sg62
(lp2103
S'raw_args'
p2104
asbag55
(g76
g57
NtRp2105
(dp2106
g60
(dp2107
g87
g88
ssg69
g2096
sg62
(lp2108
S':'
asbag55
(g76
g57
NtRp2109
(dp2110
g60
(dp2111
sg69
g2096
sg62
(lp2112
g55
(g56
g57
NtRp2113
(dp2114
g60
(dp2115
g68
I5
ssg69
g2109
sg62
(lp2116
S'9'
asbasbasbag55
(g71
g57
NtRp2117
(dp2118
g60
(dp2119
sg69
g65
sg62
(lp2120
g55
(g76
g57
NtRp2121
(dp2122
g60
(dp2123
g80
g81
ssg69
g2117
sg62
(lp2124
S'url'
p2125
asbag55
(g76
g57
NtRp2126
(dp2127
g60
(dp2128
g87
g88
ssg69
g2117
sg62
(lp2129
S':'
asbag55
(g76
g57
NtRp2130
(dp2131
g60
(dp2132
sg69
g2117
sg62
(lp2133
g55
(g56
g57
NtRp2134
(dp2135
g60
(dp2136
g68
I5
ssg69
g2130
sg62
(lp2137
S'/synopsis/information/publication/9'
p2138
asbasbasbag55
(g71
g57
NtRp2139
(dp2140
g60
(dp2141
sg69
g65
sg62
(lp2142
g55
(g76
g57
NtRp2143
(dp2144
g60
(dp2145
g80
g81
ssg69
g2139
sg62
(lp2146
S'utcnow'
p2147
asbag55
(g76
g57
NtRp2148
(dp2149
g60
(dp2150
g87
g88
ssg69
g2139
sg62
(lp2151
S':'
asbag55
(g76
g57
NtRp2152
(dp2153
g60
(dp2154
sg69
g2139
sg62
(lp2155
g55
(g56
g57
NtRp2156
(dp2157
g60
(dp2158
g68
I5
ssg69
g2152
sg62
(lp2159
S'datetime.datetime(2012, 1, 16, 13, 38, 39, 150132)'
p2160
asbasbasbag55
(g71
g57
NtRp2161
(dp2162
g60
(dp2163
sg69
g65
sg62
(lp2164
g55
(g76
g57
NtRp2165
(dp2166
g60
(dp2167
g80
g81
ssg69
g2161
sg62
(lp2168
S'uuid'
p2169
asbag55
(g76
g57
NtRp2170
(dp2171
g60
(dp2172
g87
g88
ssg69
g2161
sg62
(lp2173
S':'
asbag55
(g76
g57
NtRp2174
(dp2175
g60
(dp2176
sg69
g2161
sg62
(lp2177
g55
(g56
g57
NtRp2178
(dp2179
g60
(dp2180
g68
I5
ssg69
g2174
sg62
(lp2181
S'synopsis/127.0.0.1.2012-01-16.11-38-39.2ed2be06-3176-4603-9234-41c66e5e6511'
p2182
asbasbasbag55
(g71
g57
NtRp2183
(dp2184
g60
(dp2185
sg69
g65
sg62
(lp2186
g55
(g76
g57
NtRp2187
(dp2188
g60
(dp2189
g80
g81
ssg69
g2183
sg62
(lp2190
S'vars'
p2191
asbag55
(g76
g57
NtRp2192
(dp2193
g60
(dp2194
g87
g88
ssg69
g2183
sg62
(lp2195
S':'
asbag55
(g76
g57
NtRp2196
(dp2197
g60
(dp2198
sg69
g2183
sg62
(lp2199
g55
(g56
g57
NtRp2200
(dp2201
g60
(dp2202
g68
I5
ssg69
g2196
sg62
(lp2203
g55
(g64
g57
NtRp2204
(dp2205
g60
(dp2206
g68
I4
ssg69
Nsg62
(lp2207
sbasbasbasbag55
(g71
g57
NtRp2208
(dp2209
g60
(dp2210
sg69
g65
sg62
(lp2211
g55
(g76
g57
NtRp2212
(dp2213
g60
(dp2214
g80
g81
ssg69
g2208
sg62
(lp2215
S'wsgi'
p2216
asbag55
(g76
g57
NtRp2217
(dp2218
g60
(dp2219
g87
g88
ssg69
g2208
sg62
(lp2220
S':'
asbag55
(g76
g57
NtRp2221
(dp2222
g60
(dp2223
sg69
g2208
sg62
(lp2224
g55
(g56
g57
NtRp2225
(dp2226
g60
(dp2227
g68
I5
ssg69
g2221
sg62
(lp2228
g55
(g64
g57
NtRp2229
(dp2230
g60
(dp2231
g68
I4
ssg69
Nsg62
(lp2232
g55
(g71
g57
NtRp2233
(dp2234
g60
(dp2235
sg69
g2229
sg62
(lp2236
g55
(g76
g57
NtRp2237
(dp2238
g60
(dp2239
g80
g81
ssg69
g2233
sg62
(lp2240
S'environ'
p2241
asbag55
(g76
g57
NtRp2242
(dp2243
g60
(dp2244
g87
g88
ssg69
g2233
sg62
(lp2245
S':'
asbag55
(g76
g57
NtRp2246
(dp2247
g60
(dp2248
sg69
g2233
sg62
(lp2249
g55
(g56
g57
NtRp2250
(dp2251
g60
(dp2252
g68
I4
ssg69
g2246
sg62
(lp2253
g55
(g64
g57
NtRp2254
(dp2255
g60
(dp2256
g68
I3
ssg69
Nsg62
(lp2257
g55
(g71
g57
NtRp2258
(dp2259
g60
(dp2260
sg69
g2254
sg62
(lp2261
g55
(g76
g57
NtRp2262
(dp2263
g60
(dp2264
g80
g81
ssg69
g2258
sg62
(lp2265
S'HTTP_ACCEPT'
p2266
asbag55
(g76
g57
NtRp2267
(dp2268
g60
(dp2269
g87
g88
ssg69
g2258
sg62
(lp2270
S':'
asbag55
(g76
g57
NtRp2271
(dp2272
g60
(dp2273
sg69
g2258
sg62
(lp2274
g55
(g56
g57
NtRp2275
(dp2276
g60
(dp2277
g68
I3
ssg69
g2271
sg62
(lp2278
g828
asbasbasbag55
(g71
g57
NtRp2279
(dp2280
g60
(dp2281
sg69
g2254
sg62
(lp2282
g55
(g76
g57
NtRp2283
(dp2284
g60
(dp2285
g80
g81
ssg69
g2279
sg62
(lp2286
S'HTTP_ACCEPT_CHARSET'
p2287
asbag55
(g76
g57
NtRp2288
(dp2289
g60
(dp2290
g87
g88
ssg69
g2279
sg62
(lp2291
S':'
asbag55
(g76
g57
NtRp2292
(dp2293
g60
(dp2294
sg69
g2279
sg62
(lp2295
g55
(g56
g57
NtRp2296
(dp2297
g60
(dp2298
g68
I3
ssg69
g2292
sg62
(lp2299
g850
asbasbasbag55
(g71
g57
NtRp2300
(dp2301
g60
(dp2302
sg69
g2254
sg62
(lp2303
g55
(g76
g57
NtRp2304
(dp2305
g60
(dp2306
g80
g81
ssg69
g2300
sg62
(lp2307
S'HTTP_ACCEPT_ENCODING'
p2308
asbag55
(g76
g57
NtRp2309
(dp2310
g60
(dp2311
g87
g88
ssg69
g2300
sg62
(lp2312
S':'
asbag55
(g76
g57
NtRp2313
(dp2314
g60
(dp2315
sg69
g2300
sg62
(lp2316
g55
(g56
g57
NtRp2317
(dp2318
g60
(dp2319
g68
I3
ssg69
g2313
sg62
(lp2320
g872
asbasbasbag55
(g71
g57
NtRp2321
(dp2322
g60
(dp2323
sg69
g2254
sg62
(lp2324
g55
(g76
g57
NtRp2325
(dp2326
g60
(dp2327
g80
g81
ssg69
g2321
sg62
(lp2328
S'HTTP_ACCEPT_LANGUAGE'
p2329
asbag55
(g76
g57
NtRp2330
(dp2331
g60
(dp2332
g87
g88
ssg69
g2321
sg62
(lp2333
S':'
asbag55
(g76
g57
NtRp2334
(dp2335
g60
(dp2336
sg69
g2321
sg62
(lp2337
g55
(g56
g57
NtRp2338
(dp2339
g60
(dp2340
g68
I3
ssg69
g2334
sg62
(lp2341
g894
asbasbasbag55
(g71
g57
NtRp2342
(dp2343
g60
(dp2344
sg69
g2254
sg62
(lp2345
g55
(g76
g57
NtRp2346
(dp2347
g60
(dp2348
g80
g81
ssg69
g2342
sg62
(lp2349
S'HTTP_CACHE_CONTROL'
p2350
asbag55
(g76
g57
NtRp2351
(dp2352
g60
(dp2353
g87
g88
ssg69
g2342
sg62
(lp2354
S':'
asbag55
(g76
g57
NtRp2355
(dp2356
g60
(dp2357
sg69
g2342
sg62
(lp2358
g55
(g56
g57
NtRp2359
(dp2360
g60
(dp2361
g68
I3
ssg69
g2355
sg62
(lp2362
g916
asbasbasbag55
(g71
g57
NtRp2363
(dp2364
g60
(dp2365
sg69
g2254
sg62
(lp2366
g55
(g76
g57
NtRp2367
(dp2368
g60
(dp2369
g80
g81
ssg69
g2363
sg62
(lp2370
S'HTTP_CONNECTION'
p2371
asbag55
(g76
g57
NtRp2372
(dp2373
g60
(dp2374
g87
g88
ssg69
g2363
sg62
(lp2375
S':'
asbag55
(g76
g57
NtRp2376
(dp2377
g60
(dp2378
sg69
g2363
sg62
(lp2379
g55
(g56
g57
NtRp2380
(dp2381
g60
(dp2382
g68
I3
ssg69
g2376
sg62
(lp2383
g938
asbasbasbag55
(g71
g57
NtRp2384
(dp2385
g60
(dp2386
sg69
g2254
sg62
(lp2387
g55
(g76
g57
NtRp2388
(dp2389
g60
(dp2390
g80
g81
ssg69
g2384
sg62
(lp2391
S'HTTP_COOKIE'
p2392
asbag55
(g76
g57
NtRp2393
(dp2394
g60
(dp2395
g87
g88
ssg69
g2384
sg62
(lp2396
S':'
asbag55
(g76
g57
NtRp2397
(dp2398
g60
(dp2399
sg69
g2384
sg62
(lp2400
g55
(g56
g57
NtRp2401
(dp2402
g60
(dp2403
g68
I3
ssg69
g2397
sg62
(lp2404
g960
asbasbasbag55
(g71
g57
NtRp2405
(dp2406
g60
(dp2407
sg69
g2254
sg62
(lp2408
g55
(g76
g57
NtRp2409
(dp2410
g60
(dp2411
g80
g81
ssg69
g2405
sg62
(lp2412
S'HTTP_HOST'
p2413
asbag55
(g76
g57
NtRp2414
(dp2415
g60
(dp2416
g87
g88
ssg69
g2405
sg62
(lp2417
S':'
asbag55
(g76
g57
NtRp2418
(dp2419
g60
(dp2420
sg69
g2405
sg62
(lp2421
g55
(g56
g57
NtRp2422
(dp2423
g60
(dp2424
g68
I3
ssg69
g2418
sg62
(lp2425
g982
asbasbasbag55
(g71
g57
NtRp2426
(dp2427
g60
(dp2428
sg69
g2254
sg62
(lp2429
g55
(g76
g57
NtRp2430
(dp2431
g60
(dp2432
g80
g81
ssg69
g2426
sg62
(lp2433
S'HTTP_REFERER'
p2434
asbag55
(g76
g57
NtRp2435
(dp2436
g60
(dp2437
g87
g88
ssg69
g2426
sg62
(lp2438
S':'
asbag55
(g76
g57
NtRp2439
(dp2440
g60
(dp2441
sg69
g2426
sg62
(lp2442
g55
(g56
g57
NtRp2443
(dp2444
g60
(dp2445
g68
I3
ssg69
g2439
sg62
(lp2446
g1004
asbasbasbag55
(g71
g57
NtRp2447
(dp2448
g60
(dp2449
sg69
g2254
sg62
(lp2450
g55
(g76
g57
NtRp2451
(dp2452
g60
(dp2453
g80
g81
ssg69
g2447
sg62
(lp2454
S'HTTP_USER_AGENT'
p2455
asbag55
(g76
g57
NtRp2456
(dp2457
g60
(dp2458
g87
g88
ssg69
g2447
sg62
(lp2459
S':'
asbag55
(g76
g57
NtRp2460
(dp2461
g60
(dp2462
sg69
g2447
sg62
(lp2463
g55
(g56
g57
NtRp2464
(dp2465
g60
(dp2466
g68
I3
ssg69
g2460
sg62
(lp2467
g1026
asbasbasbag55
(g71
g57
NtRp2468
(dp2469
g60
(dp2470
sg69
g2254
sg62
(lp2471
g55
(g76
g57
NtRp2472
(dp2473
g60
(dp2474
g80
g81
ssg69
g2468
sg62
(lp2475
S'PATH_INFO'
p2476
asbag55
(g76
g57
NtRp2477
(dp2478
g60
(dp2479
g87
g88
ssg69
g2468
sg62
(lp2480
S':'
asbag55
(g76
g57
NtRp2481
(dp2482
g60
(dp2483
sg69
g2468
sg62
(lp2484
g55
(g56
g57
NtRp2485
(dp2486
g60
(dp2487
g68
I3
ssg69
g2481
sg62
(lp2488
g1069
asbasbasbag55
(g71
g57
NtRp2489
(dp2490
g60
(dp2491
sg69
g2254
sg62
(lp2492
g55
(g76
g57
NtRp2493
(dp2494
g60
(dp2495
g80
g81
ssg69
g2489
sg62
(lp2496
S'QUERY_STRING'
p2497
asbag55
(g76
g57
NtRp2498
(dp2499
g60
(dp2500
g87
g88
ssg69
g2489
sg62
(lp2501
S':'
asbag55
(g76
g57
NtRp2502
(dp2503
g60
(dp2504
sg69
g2489
sg62
(lp2505
g55
(g56
g57
NtRp2506
(dp2507
g60
(dp2508
g68
I3
ssg69
g2502
sg62
(lp2509
S''
asbasbasbag55
(g71
g57
NtRp2510
(dp2511
g60
(dp2512
sg69
g2254
sg62
(lp2513
g55
(g76
g57
NtRp2514
(dp2515
g60
(dp2516
g80
g81
ssg69
g2510
sg62
(lp2517
S'REMOTE_ADDR'
p2518
asbag55
(g76
g57
NtRp2519
(dp2520
g60
(dp2521
g87
g88
ssg69
g2510
sg62
(lp2522
S':'
asbag55
(g76
g57
NtRp2523
(dp2524
g60
(dp2525
sg69
g2510
sg62
(lp2526
g55
(g56
g57
NtRp2527
(dp2528
g60
(dp2529
g68
I3
ssg69
g2523
sg62
(lp2530
g200
asbasbasbag55
(g71
g57
NtRp2531
(dp2532
g60
(dp2533
sg69
g2254
sg62
(lp2534
g55
(g76
g57
NtRp2535
(dp2536
g60
(dp2537
g80
g81
ssg69
g2531
sg62
(lp2538
S'REMOTE_PORT'
p2539
asbag55
(g76
g57
NtRp2540
(dp2541
g60
(dp2542
g87
g88
ssg69
g2531
sg62
(lp2543
S':'
asbag55
(g76
g57
NtRp2544
(dp2545
g60
(dp2546
sg69
g2531
sg62
(lp2547
g55
(g56
g57
NtRp2548
(dp2549
g60
(dp2550
g68
I3
ssg69
g2544
sg62
(lp2551
g1133
asbasbasbag55
(g71
g57
NtRp2552
(dp2553
g60
(dp2554
sg69
g2254
sg62
(lp2555
g55
(g76
g57
NtRp2556
(dp2557
g60
(dp2558
g80
g81
ssg69
g2552
sg62
(lp2559
S'REQUEST_METHOD'
p2560
asbag55
(g76
g57
NtRp2561
(dp2562
g60
(dp2563
g87
g88
ssg69
g2552
sg62
(lp2564
S':'
asbag55
(g76
g57
NtRp2565
(dp2566
g60
(dp2567
sg69
g2552
sg62
(lp2568
g55
(g56
g57
NtRp2569
(dp2570
g60
(dp2571
g68
I3
ssg69
g2565
sg62
(lp2572
g1155
asbasbasbag55
(g71
g57
NtRp2573
(dp2574
g60
(dp2575
sg69
g2254
sg62
(lp2576
g55
(g76
g57
NtRp2577
(dp2578
g60
(dp2579
g80
g81
ssg69
g2573
sg62
(lp2580
S'SCRIPT_NAME'
p2581
asbag55
(g76
g57
NtRp2582
(dp2583
g60
(dp2584
g87
g88
ssg69
g2573
sg62
(lp2585
S':'
asbag55
(g76
g57
NtRp2586
(dp2587
g60
(dp2588
sg69
g2573
sg62
(lp2589
g55
(g56
g57
NtRp2590
(dp2591
g60
(dp2592
g68
I3
ssg69
g2586
sg62
(lp2593
S''
asbasbasbag55
(g71
g57
NtRp2594
(dp2595
g60
(dp2596
sg69
g2254
sg62
(lp2597
g55
(g76
g57
NtRp2598
(dp2599
g60
(dp2600
g80
g81
ssg69
g2594
sg62
(lp2601
S'SERVER_NAME'
p2602
asbag55
(g76
g57
NtRp2603
(dp2604
g60
(dp2605
g87
g88
ssg69
g2594
sg62
(lp2606
S':'
asbag55
(g76
g57
NtRp2607
(dp2608
g60
(dp2609
sg69
g2594
sg62
(lp2610
g55
(g56
g57
NtRp2611
(dp2612
g60
(dp2613
g68
I3
ssg69
g2607
sg62
(lp2614
g1198
asbasbasbag55
(g71
g57
NtRp2615
(dp2616
g60
(dp2617
sg69
g2254
sg62
(lp2618
g55
(g76
g57
NtRp2619
(dp2620
g60
(dp2621
g80
g81
ssg69
g2615
sg62
(lp2622
S'SERVER_PORT'
p2623
asbag55
(g76
g57
NtRp2624
(dp2625
g60
(dp2626
g87
g88
ssg69
g2615
sg62
(lp2627
S':'
asbag55
(g76
g57
NtRp2628
(dp2629
g60
(dp2630
sg69
g2615
sg62
(lp2631
g55
(g56
g57
NtRp2632
(dp2633
g60
(dp2634
g68
I3
ssg69
g2628
sg62
(lp2635
g1220
asbasbasbag55
(g71
g57
NtRp2636
(dp2637
g60
(dp2638
sg69
g2254
sg62
(lp2639
g55
(g76
g57
NtRp2640
(dp2641
g60
(dp2642
g80
g81
ssg69
g2636
sg62
(lp2643
S'SERVER_PROTOCOL'
p2644
asbag55
(g76
g57
NtRp2645
(dp2646
g60
(dp2647
g87
g88
ssg69
g2636
sg62
(lp2648
S':'
asbag55
(g76
g57
NtRp2649
(dp2650
g60
(dp2651
sg69
g2636
sg62
(lp2652
g55
(g56
g57
NtRp2653
(dp2654
g60
(dp2655
g68
I3
ssg69
g2649
sg62
(lp2656
g1242
asbasbasbag55
(g71
g57
NtRp2657
(dp2658
g60
(dp2659
sg69
g2254
sg62
(lp2660
g55
(g76
g57
NtRp2661
(dp2662
g60
(dp2663
g80
g81
ssg69
g2657
sg62
(lp2664
S'SERVER_SOFTWARE'
p2665
asbag55
(g76
g57
NtRp2666
(dp2667
g60
(dp2668
g87
g88
ssg69
g2657
sg62
(lp2669
S':'
asbag55
(g76
g57
NtRp2670
(dp2671
g60
(dp2672
sg69
g2657
sg62
(lp2673
g55
(g56
g57
NtRp2674
(dp2675
g60
(dp2676
g68
I3
ssg69
g2670
sg62
(lp2677
g1264
asbasbasbag55
(g71
g57
NtRp2678
(dp2679
g60
(dp2680
sg69
g2254
sg62
(lp2681
g55
(g76
g57
NtRp2682
(dp2683
g60
(dp2684
g80
g81
ssg69
g2678
sg62
(lp2685
S'wsgi.errors'
p2686
asbag55
(g76
g57
NtRp2687
(dp2688
g60
(dp2689
g87
g88
ssg69
g2678
sg62
(lp2690
S':'
asbag55
(g76
g57
NtRp2691
(dp2692
g60
(dp2693
sg69
g2678
sg62
(lp2694
g55
(g56
g57
NtRp2695
(dp2696
g60
(dp2697
g68
I3
ssg69
g2691
sg62
(lp2698
S"<open file '<stderr>', mode 'w' at 0x7f041f2b1270>"
p2699
asbasbasbag55
(g71
g57
NtRp2700
(dp2701
g60
(dp2702
sg69
g2254
sg62
(lp2703
g55
(g76
g57
NtRp2704
(dp2705
g60
(dp2706
g80
g81
ssg69
g2700
sg62
(lp2707
S'wsgi.file_wrapper'
p2708
asbag55
(g76
g57
NtRp2709
(dp2710
g60
(dp2711
g87
g88
ssg69
g2700
sg62
(lp2712
S':'
asbag55
(g76
g57
NtRp2713
(dp2714
g60
(dp2715
sg69
g2700
sg62
(lp2716
g55
(g56
g57
NtRp2717
(dp2718
g60
(dp2719
g68
I3
ssg69
g2713
sg62
(lp2720
S'<class wsgiref.util.FileWrapper at 0x2144ef0>'
p2721
asbasbasbag55
(g71
g57
NtRp2722
(dp2723
g60
(dp2724
sg69
g2254
sg62
(lp2725
g55
(g76
g57
NtRp2726
(dp2727
g60
(dp2728
g80
g81
ssg69
g2722
sg62
(lp2729
S'wsgi.input'
p2730
asbag55
(g76
g57
NtRp2731
(dp2732
g60
(dp2733
g87
g88
ssg69
g2722
sg62
(lp2734
S':'
asbag55
(g76
g57
NtRp2735
(dp2736
g60
(dp2737
sg69
g2722
sg62
(lp2738
g55
(g56
g57
NtRp2739
(dp2740
g60
(dp2741
g68
I3
ssg69
g2735
sg62
(lp2742
S'<cStringIO.StringO object at 0x3152030>'
p2743
asbasbasbag55
(g71
g57
NtRp2744
(dp2745
g60
(dp2746
sg69
g2254
sg62
(lp2747
g55
(g76
g57
NtRp2748
(dp2749
g60
(dp2750
g80
g81
ssg69
g2744
sg62
(lp2751
S'wsgi.multiprocess'
p2752
asbag55
(g76
g57
NtRp2753
(dp2754
g60
(dp2755
g87
g88
ssg69
g2744
sg62
(lp2756
S':'
asbag55
(g76
g57
NtRp2757
(dp2758
g60
(dp2759
sg69
g2744
sg62
(lp2760
g55
(g56
g57
NtRp2761
(dp2762
g60
(dp2763
g68
I3
ssg69
g2757
sg62
(lp2764
g98
asbasbasbag55
(g71
g57
NtRp2765
(dp2766
g60
(dp2767
sg69
g2254
sg62
(lp2768
g55
(g76
g57
NtRp2769
(dp2770
g60
(dp2771
g80
g81
ssg69
g2765
sg62
(lp2772
S'wsgi.multithread'
p2773
asbag55
(g76
g57
NtRp2774
(dp2775
g60
(dp2776
g87
g88
ssg69
g2765
sg62
(lp2777
S':'
asbag55
(g76
g57
NtRp2778
(dp2779
g60
(dp2780
sg69
g2765
sg62
(lp2781
g55
(g56
g57
NtRp2782
(dp2783
g60
(dp2784
g68
I3
ssg69
g2778
sg62
(lp2785
g1504
asbasbasbag55
(g71
g57
NtRp2786
(dp2787
g60
(dp2788
sg69
g2254
sg62
(lp2789
g55
(g76
g57
NtRp2790
(dp2791
g60
(dp2792
g80
g81
ssg69
g2786
sg62
(lp2793
S'wsgi.run_once'
p2794
asbag55
(g76
g57
NtRp2795
(dp2796
g60
(dp2797
g87
g88
ssg69
g2786
sg62
(lp2798
S':'
asbag55
(g76
g57
NtRp2799
(dp2800
g60
(dp2801
sg69
g2786
sg62
(lp2802
g55
(g56
g57
NtRp2803
(dp2804
g60
(dp2805
g68
I3
ssg69
g2799
sg62
(lp2806
g98
asbasbasbag55
(g71
g57
NtRp2807
(dp2808
g60
(dp2809
sg69
g2254
sg62
(lp2810
g55
(g76
g57
NtRp2811
(dp2812
g60
(dp2813
g80
g81
ssg69
g2807
sg62
(lp2814
S'wsgi.url_scheme'
p2815
asbag55
(g76
g57
NtRp2816
(dp2817
g60
(dp2818
g87
g88
ssg69
g2807
sg62
(lp2819
S':'
asbag55
(g76
g57
NtRp2820
(dp2821
g60
(dp2822
sg69
g2807
sg62
(lp2823
g55
(g56
g57
NtRp2824
(dp2825
g60
(dp2826
g68
I3
ssg69
g2820
sg62
(lp2827
g1547
asbasbasbag55
(g71
g57
NtRp2828
(dp2829
g60
(dp2830
sg69
g2254
sg62
(lp2831
g55
(g76
g57
NtRp2832
(dp2833
g60
(dp2834
g80
g81
ssg69
g2828
sg62
(lp2835
S'wsgi.version'
p2836
asbag55
(g76
g57
NtRp2837
(dp2838
g60
(dp2839
g87
g88
ssg69
g2828
sg62
(lp2840
S':'
asbag55
(g76
g57
NtRp2841
(dp2842
g60
(dp2843
sg69
g2828
sg62
(lp2844
g55
(g56
g57
NtRp2845
(dp2846
g60
(dp2847
g68
I3
ssg69
g2841
sg62
(lp2848
S'1'
asbasbasbasbasbasbasbasbasbasbasbasbasbsS'frames'
p2849
(lp2850
(dp2851
S'file'
p2852
S'/home/kaique/Projects/web2py/gluon/restricted.py'
p2853
sS'dump'
p2854
(dp2855
S'environment'
p2856
S"{'A': <class 'gluon.html.A'>, 'Auth': <class 'gluon.tools.Auth'>, 'B': <class 'gluon.html.B'>, 'BEAUTIFY': <class 'gluon.html.BEAUTIFY'>, 'BODY': <class 'gluon.html.BODY'>, 'BR': <class 'gluon.html.BR'>, 'BUTTON': <class 'gluon.html.BUTTON'>, 'CAT': <class 'gluon.html.CAT'>, 'CENTER': <class 'gluon.html.CENTER'>, 'CLEANUP': <class 'gluon.validators.CLEANUP'>, ...}"
p2857
sS'ccode'
p2858
S'<code object <module> at 0x2d7b5b0, file "/home/...psis/views/information/publication.html", line 1>'
p2859
ssS'lnum'
p2860
I194
sS'lines'
p2861
(dp2862
I192
S'        else:'
p2863
sI193
S'            ccode = compile2(code,layer)'
p2864
sI194
S'        exec ccode in environment'
p2865
sI195
S'    except HTTP:'
p2866
sI196
S'        raise'
p2867
sI197
S'    except Exception, error:'
p2868
sI198
S'        # XXX Show exception in Wing IDE if running in debugger'
p2869
sI189
S'    try:'
p2870
sI190
S'        if type(code) == types.CodeType:'
p2871
sI191
S'            ccode = code'
p2872
ssS'call'
p2873
S'(code=\'response.write(\\\'<!DOCTYPE html>\\\\n<html lang="\\\', ...nse.write(\\\'\\\\n  </body>\\\\n</html>\\\\n\\\', escape=False)\', environment={\'A\': <class \'gluon.html.A\'>, \'Auth\': <class \'gluon.tools.Auth\'>, \'B\': <class \'gluon.html.B\'>, \'BEAUTIFY\': <class \'gluon.html.BEAUTIFY\'>, \'BODY\': <class \'gluon.html.BODY\'>, \'BR\': <class \'gluon.html.BR\'>, \'BUTTON\': <class \'gluon.html.BUTTON\'>, \'CAT\': <class \'gluon.html.CAT\'>, \'CENTER\': <class \'gluon.html.CENTER\'>, \'CLEANUP\': <class \'gluon.validators.CLEANUP\'>, ...}, layer=\'/home/kaique/Projects/web2py/applications/synopsis/views/information/publication.html\')'
p2874
sS'func'
p2875
S'restricted'
p2876
sa(dp2877
g2852
S'/home/kaique/Projects/web2py/applications/synopsis/views/information/publication.html'
p2878
sg2854
(dp2879
sg2860
I130
sg2861
(dp2880
I128
S'        pass'
p2881
sI129
S"    response.write('\\n\\t\\t\\t\\t\\t\\t\\n\\t\\t\\t\\t\\t\\t', escape=False)"
p2882
sI130
S'    response.write(lines[9].xml())'
p2883
sI131
S"    response.write('\\n\\t\\t\\t\\t\\t\\t\\n\\t\\t\\t\\t\\t\\t', escape=False)"
p2884
sI132
S'    for line in lines:'
p2885
sI133
S"        response.write('\\n\\t\\t\\t\\t\\t\\t\\t', escape=False)"
p2886
sI134
S'        response.write(lines[line])'
p2887
sI135
S"        response.write('\\n\\t\\t\\t\\t\\t\\t', escape=False)"
p2888
sI136
S'        pass'
p2889
sI137
S'    response.write(\'\\n\\t\\t\\t\\t\\t</tbody>\\n\\t\\t\\t\\t</table>\\n\\t\\t\\t\\t<div classs="quote">\\n\\t\\t\\t\\t\', escape=False)'
p2890
sI138
S'    quotes = [quote for quote in detail.quote.select()]'
p2891
sI139
S"    response.write('\\n\\t\\t\\t\\t', escape=False)"
p2892
sI140
S'    if quotes:'
p2893
sI121
S"                response.write('\\n\\t\\t\\t\\t\\t\\t\\t\\t\\t', escape=False)"
p2894
sI122
S'                lines[r.column_id].append( r.content )'
p2895
sI123
S"                response.write('\\n\\t\\t\\t\\t\\t\\t\\t\\t', escape=False)"
p2896
sI124
S'                pass'
p2897
sI125
S"            response.write('\\n\\t\\t\\t\\t\\t\\t\\t', escape=False)"
p2898
sI126
S'            pass'
p2899
sI127
S"        response.write('\\n\\t\\t\\t\\t\\t\\t', escape=False)"
p2900
ssg2873
S'()'
p2901
sg2875
S'<module>'
p2902
sasS'pyver'
p2903
S'Python 2.7.2+: /usr/bin/python'
p2904
sS'session'
p2905
g55
(g56
g57
NtRp2906
(dp2907
g60
(dp2908
sg62
(lp2909
g55
(g64
g57
NtRp2910
(dp2911
g60
(dp2912
g68
I5
ssg69
Nsg62
(lp2913
g55
(g71
g57
NtRp2914
(dp2915
g60
(dp2916
sg69
g2910
sg62
(lp2917
g55
(g76
g57
NtRp2918
(dp2919
g60
(dp2920
g80
g81
ssg69
g2914
sg62
(lp2921
S'auth'
p2922
asbag55
(g76
g57
NtRp2923
(dp2924
g60
(dp2925
g87
g88
ssg69
g2914
sg62
(lp2926
S':'
asbag55
(g76
g57
NtRp2927
(dp2928
g60
(dp2929
sg69
g2914
sg62
(lp2930
g55
(g56
g57
NtRp2931
(dp2932
g60
(dp2933
g68
I5
ssg69
g2927
sg62
(lp2934
g55
(g64
g57
NtRp2935
(dp2936
g60
(dp2937
g68
I4
ssg69
Nsg62
(lp2938
g55
(g71
g57
NtRp2939
(dp2940
g60
(dp2941
sg69
g2935
sg62
(lp2942
g55
(g76
g57
NtRp2943
(dp2944
g60
(dp2945
g80
g81
ssg69
g2939
sg62
(lp2946
S'expiration'
p2947
asbag55
(g76
g57
NtRp2948
(dp2949
g60
(dp2950
g87
g88
ssg69
g2939
sg62
(lp2951
S':'
asbag55
(g76
g57
NtRp2952
(dp2953
g60
(dp2954
sg69
g2939
sg62
(lp2955
g55
(g56
g57
NtRp2956
(dp2957
g60
(dp2958
g68
I4
ssg69
g2952
sg62
(lp2959
S'2592000'
p2960
asbasbasbag55
(g71
g57
NtRp2961
(dp2962
g60
(dp2963
sg69
g2935
sg62
(lp2964
g55
(g76
g57
NtRp2965
(dp2966
g60
(dp2967
g80
g81
ssg69
g2961
sg62
(lp2968
S'hmac_key'
p2969
asbag55
(g76
g57
NtRp2970
(dp2971
g60
(dp2972
g87
g88
ssg69
g2961
sg62
(lp2973
S':'
asbag55
(g76
g57
NtRp2974
(dp2975
g60
(dp2976
sg69
g2961
sg62
(lp2977
g55
(g56
g57
NtRp2978
(dp2979
g60
(dp2980
g68
I4
ssg69
g2974
sg62
(lp2981
S'd467a3d7-fff5-4961-86db-279a0d896d41'
p2982
asbasbasbag55
(g71
g57
NtRp2983
(dp2984
g60
(dp2985
sg69
g2935
sg62
(lp2986
g55
(g76
g57
NtRp2987
(dp2988
g60
(dp2989
g80
g81
ssg69
g2983
sg62
(lp2990
S'last_visit'
p2991
asbag55
(g76
g57
NtRp2992
(dp2993
g60
(dp2994
g87
g88
ssg69
g2983
sg62
(lp2995
S':'
asbag55
(g76
g57
NtRp2996
(dp2997
g60
(dp2998
sg69
g2983
sg62
(lp2999
g55
(g56
g57
NtRp3000
(dp3001
g60
(dp3002
g68
I4
ssg69
g2996
sg62
(lp3003
S'datetime.datetime(2012, 1, 16, 8, 54, 37, 459818)'
p3004
asbasbasbag55
(g71
g57
NtRp3005
(dp3006
g60
(dp3007
sg69
g2935
sg62
(lp3008
g55
(g76
g57
NtRp3009
(dp3010
g60
(dp3011
g80
g81
ssg69
g3005
sg62
(lp3012
S'remember'
p3013
asbag55
(g76
g57
NtRp3014
(dp3015
g60
(dp3016
g87
g88
ssg69
g3005
sg62
(lp3017
S':'
asbag55
(g76
g57
NtRp3018
(dp3019
g60
(dp3020
sg69
g3005
sg62
(lp3021
g55
(g56
g57
NtRp3022
(dp3023
g60
(dp3024
g68
I4
ssg69
g3018
sg62
(lp3025
g98
asbasbasbag55
(g71
g57
NtRp3026
(dp3027
g60
(dp3028
sg69
g2935
sg62
(lp3029
g55
(g76
g57
NtRp3030
(dp3031
g60
(dp3032
g80
g81
ssg69
g3026
sg62
(lp3033
S'user'
p3034
asbag55
(g76
g57
NtRp3035
(dp3036
g60
(dp3037
g87
g88
ssg69
g3026
sg62
(lp3038
S':'
asbag55
(g76
g57
NtRp3039
(dp3040
g60
(dp3041
sg69
g3026
sg62
(lp3042
g55
(g56
g57
NtRp3043
(dp3044
g60
(dp3045
g68
I4
ssg69
g3039
sg62
(lp3046
g55
(g64
g57
NtRp3047
(dp3048
g60
(dp3049
g68
I3
ssg69
Nsg62
(lp3050
g55
(g71
g57
NtRp3051
(dp3052
g60
(dp3053
sg69
g3047
sg62
(lp3054
g55
(g76
g57
NtRp3055
(dp3056
g60
(dp3057
g80
g81
ssg69
g3051
sg62
(lp3058
S'email'
p3059
asbag55
(g76
g57
NtRp3060
(dp3061
g60
(dp3062
g87
g88
ssg69
g3051
sg62
(lp3063
S':'
asbag55
(g76
g57
NtRp3064
(dp3065
g60
(dp3066
sg69
g3051
sg62
(lp3067
g55
(g56
g57
NtRp3068
(dp3069
g60
(dp3070
g68
I3
ssg69
g3064
sg62
(lp3071
S'kaique.developer@gmail.com'
p3072
asbasbasbag55
(g71
g57
NtRp3073
(dp3074
g60
(dp3075
sg69
g3047
sg62
(lp3076
g55
(g76
g57
NtRp3077
(dp3078
g60
(dp3079
g80
g81
ssg69
g3073
sg62
(lp3080
S'first_name'
p3081
asbag55
(g76
g57
NtRp3082
(dp3083
g60
(dp3084
g87
g88
ssg69
g3073
sg62
(lp3085
S':'
asbag55
(g76
g57
NtRp3086
(dp3087
g60
(dp3088
sg69
g3073
sg62
(lp3089
g55
(g56
g57
NtRp3090
(dp3091
g60
(dp3092
g68
I3
ssg69
g3086
sg62
(lp3093
S'kaique'
p3094
asbasbasbag55
(g71
g57
NtRp3095
(dp3096
g60
(dp3097
sg69
g3047
sg62
(lp3098
g55
(g76
g57
NtRp3099
(dp3100
g60
(dp3101
g80
g81
ssg69
g3095
sg62
(lp3102
S'id'
p3103
asbag55
(g76
g57
NtRp3104
(dp3105
g60
(dp3106
g87
g88
ssg69
g3095
sg62
(lp3107
S':'
asbag55
(g76
g57
NtRp3108
(dp3109
g60
(dp3110
sg69
g3095
sg62
(lp3111
g55
(g56
g57
NtRp3112
(dp3113
g60
(dp3114
g68
I3
ssg69
g3108
sg62
(lp3115
S'1'
asbasbasbag55
(g71
g57
NtRp3116
(dp3117
g60
(dp3118
sg69
g3047
sg62
(lp3119
g55
(g76
g57
NtRp3120
(dp3121
g60
(dp3122
g80
g81
ssg69
g3116
sg62
(lp3123
S'last_name'
p3124
asbag55
(g76
g57
NtRp3125
(dp3126
g60
(dp3127
g87
g88
ssg69
g3116
sg62
(lp3128
S':'
asbag55
(g76
g57
NtRp3129
(dp3130
g60
(dp3131
sg69
g3116
sg62
(lp3132
g55
(g56
g57
NtRp3133
(dp3134
g60
(dp3135
g68
I3
ssg69
g3129
sg62
(lp3136
S'silva'
p3137
asbasbasbag55
(g71
g57
NtRp3138
(dp3139
g60
(dp3140
sg69
g3047
sg62
(lp3141
g55
(g76
g57
NtRp3142
(dp3143
g60
(dp3144
g80
g81
ssg69
g3138
sg62
(lp3145
S'password'
p3146
asbag55
(g76
g57
NtRp3147
(dp3148
g60
(dp3149
g87
g88
ssg69
g3138
sg62
(lp3150
S':'
asbag55
(g76
g57
NtRp3151
(dp3152
g60
(dp3153
sg69
g3138
sg62
(lp3154
g55
(g56
g57
NtRp3155
(dp3156
g60
(dp3157
g68
I3
ssg69
g3151
sg62
(lp3158
S'72c6a018d62d3fb47d95389e4a062cd2'
p3159
asbasbasbag55
(g71
g57
NtRp3160
(dp3161
g60
(dp3162
sg69
g3047
sg62
(lp3163
g55
(g76
g57
NtRp3164
(dp3165
g60
(dp3166
g80
g81
ssg69
g3160
sg62
(lp3167
S'registration_key'
p3168
asbag55
(g76
g57
NtRp3169
(dp3170
g60
(dp3171
g87
g88
ssg69
g3160
sg62
(lp3172
S':'
asbag55
(g76
g57
NtRp3173
(dp3174
g60
(dp3175
sg69
g3160
sg62
(lp3176
g55
(g56
g57
NtRp3177
(dp3178
g60
(dp3179
g68
I3
ssg69
g3173
sg62
(lp3180
S''
asbasbasbag55
(g71
g57
NtRp3181
(dp3182
g60
(dp3183
sg69
g3047
sg62
(lp3184
g55
(g76
g57
NtRp3185
(dp3186
g60
(dp3187
g80
g81
ssg69
g3181
sg62
(lp3188
S'reset_password_key'
p3189
asbag55
(g76
g57
NtRp3190
(dp3191
g60
(dp3192
g87
g88
ssg69
g3181
sg62
(lp3193
S':'
asbag55
(g76
g57
NtRp3194
(dp3195
g60
(dp3196
sg69
g3181
sg62
(lp3197
g55
(g56
g57
NtRp3198
(dp3199
g60
(dp3200
g68
I3
ssg69
g3194
sg62
(lp3201
S''
asbasbasbasbasbasbasbasbasbasbasbag55
(g71
g57
NtRp3202
(dp3203
g60
(dp3204
sg69
g2910
sg62
(lp3205
g55
(g76
g57
NtRp3206
(dp3207
g60
(dp3208
g80
g81
ssg69
g3202
sg62
(lp3209
S'back'
p3210
asbag55
(g76
g57
NtRp3211
(dp3212
g60
(dp3213
g87
g88
ssg69
g3202
sg62
(lp3214
S':'
asbag55
(g76
g57
NtRp3215
(dp3216
g60
(dp3217
sg69
g3202
sg62
(lp3218
g55
(g56
g57
NtRp3219
(dp3220
g60
(dp3221
g68
I5
ssg69
g3215
sg62
(lp3222
S'9'
asbasbasbag55
(g71
g57
NtRp3223
(dp3224
g60
(dp3225
sg69
g2910
sg62
(lp3226
g55
(g76
g57
NtRp3227
(dp3228
g60
(dp3229
g80
g81
ssg69
g3223
sg62
(lp3230
S'index'
p3231
asbag55
(g76
g57
NtRp3232
(dp3233
g60
(dp3234
g87
g88
ssg69
g3223
sg62
(lp3235
S':'
asbag55
(g76
g57
NtRp3236
(dp3237
g60
(dp3238
sg69
g3223
sg62
(lp3239
g55
(g56
g57
NtRp3240
(dp3241
g60
(dp3242
g68
I5
ssg69
g3236
sg62
(lp3243
S'1'
asbasbasbasbasbsS'etype'
p3244
S"<type 'exceptions.KeyError'>"
p3245
sS'date'
p3246
S'Mon Jan 16 11:38:39 2012'
p3247
sS'response'
p3248
g55
(g56
g57
NtRp3249
(dp3250
g60
(dp3251
sg62
(lp3252
g55
(g64
g57
NtRp3253
(dp3254
g60
(dp3255
g68
I5
ssg69
Nsg62
(lp3256
g55
(g71
g57
NtRp3257
(dp3258
g60
(dp3259
sg69
g3253
sg62
(lp3260
g55
(g76
g57
NtRp3261
(dp3262
g60
(dp3263
g80
g81
ssg69
g3257
sg62
(lp3264
g165
asbag55
(g76
g57
NtRp3265
(dp3266
g60
(dp3267
g87
g88
ssg69
g3257
sg62
(lp3268
S':'
asbag55
(g76
g57
NtRp3269
(dp3270
g60
(dp3271
sg69
g3257
sg62
(lp3272
g55
(g56
g57
NtRp3273
(dp3274
g60
(dp3275
g68
I5
ssg69
g3269
sg62
(lp3276
S'<cStringIO.StringO object at 0x3495688>'
p3277
asbasbasbag55
(g71
g57
NtRp3278
(dp3279
g60
(dp3280
sg69
g3253
sg62
(lp3281
g55
(g76
g57
NtRp3282
(dp3283
g60
(dp3284
g80
g81
ssg69
g3278
sg62
(lp3285
g231
asbag55
(g76
g57
NtRp3286
(dp3287
g60
(dp3288
g87
g88
ssg69
g3278
sg62
(lp3289
S':'
asbag55
(g76
g57
NtRp3290
(dp3291
g60
(dp3292
sg69
g3278
sg62
(lp3293
g55
(g56
g57
NtRp3294
(dp3295
g60
(dp3296
g68
I5
ssg69
g3290
sg62
(lp3297
g55
(g64
g57
NtRp3298
(dp3299
g60
(dp3300
g68
I4
ssg69
Nsg62
(lp3301
g55
(g71
g57
NtRp3302
(dp3303
g60
(dp3304
sg69
g3298
sg62
(lp3305
g55
(g76
g57
NtRp3306
(dp3307
g60
(dp3308
g80
g81
ssg69
g3302
sg62
(lp3309
S'session_id_synopsis'
p3310
asbag55
(g76
g57
NtRp3311
(dp3312
g60
(dp3313
g87
g88
ssg69
g3302
sg62
(lp3314
S':'
asbag55
(g76
g57
NtRp3315
(dp3316
g60
(dp3317
sg69
g3302
sg62
(lp3318
g55
(g56
g57
NtRp3319
(dp3320
g60
(dp3321
g68
I4
ssg69
g3315
sg62
(lp3322
g55
(g64
g57
NtRp3323
(dp3324
g60
(dp3325
g68
I3
ssg69
Nsg62
(lp3326
g55
(g71
g57
NtRp3327
(dp3328
g60
(dp3329
sg69
g3323
sg62
(lp3330
g55
(g76
g57
NtRp3331
(dp3332
g60
(dp3333
g80
g81
ssg69
g3327
sg62
(lp3334
g281
asbag55
(g76
g57
NtRp3335
(dp3336
g60
(dp3337
g87
g88
ssg69
g3327
sg62
(lp3338
S':'
asbag55
(g76
g57
NtRp3339
(dp3340
g60
(dp3341
sg69
g3327
sg62
(lp3342
g55
(g56
g57
NtRp3343
(dp3344
g60
(dp3345
g68
I3
ssg69
g3339
sg62
(lp3346
S''
asbasbasbag55
(g71
g57
NtRp3347
(dp3348
g60
(dp3349
sg69
g3323
sg62
(lp3350
g55
(g76
g57
NtRp3351
(dp3352
g60
(dp3353
g80
g81
ssg69
g3347
sg62
(lp3354
g302
asbag55
(g76
g57
NtRp3355
(dp3356
g60
(dp3357
g87
g88
ssg69
g3347
sg62
(lp3358
S':'
asbag55
(g76
g57
NtRp3359
(dp3360
g60
(dp3361
sg69
g3347
sg62
(lp3362
g55
(g56
g57
NtRp3363
(dp3364
g60
(dp3365
g68
I3
ssg69
g3359
sg62
(lp3366
S''
asbasbasbag55
(g71
g57
NtRp3367
(dp3368
g60
(dp3369
sg69
g3323
sg62
(lp3370
g55
(g76
g57
NtRp3371
(dp3372
g60
(dp3373
g80
g81
ssg69
g3367
sg62
(lp3374
g323
asbag55
(g76
g57
NtRp3375
(dp3376
g60
(dp3377
g87
g88
ssg69
g3367
sg62
(lp3378
S':'
asbag55
(g76
g57
NtRp3379
(dp3380
g60
(dp3381
sg69
g3367
sg62
(lp3382
g55
(g56
g57
NtRp3383
(dp3384
g60
(dp3385
g68
I3
ssg69
g3379
sg62
(lp3386
S''
asbasbasbag55
(g71
g57
NtRp3387
(dp3388
g60
(dp3389
sg69
g3323
sg62
(lp3390
g55
(g76
g57
NtRp3391
(dp3392
g60
(dp3393
g80
g81
ssg69
g3387
sg62
(lp3394
g344
asbag55
(g76
g57
NtRp3395
(dp3396
g60
(dp3397
g87
g88
ssg69
g3387
sg62
(lp3398
S':'
asbag55
(g76
g57
NtRp3399
(dp3400
g60
(dp3401
sg69
g3387
sg62
(lp3402
g55
(g56
g57
NtRp3403
(dp3404
g60
(dp3405
g68
I3
ssg69
g3399
sg62
(lp3406
S''
asbasbasbag55
(g71
g57
NtRp3407
(dp3408
g60
(dp3409
sg69
g3323
sg62
(lp3410
g55
(g76
g57
NtRp3411
(dp3412
g60
(dp3413
g80
g81
ssg69
g3407
sg62
(lp3414
g365
asbag55
(g76
g57
NtRp3415
(dp3416
g60
(dp3417
g87
g88
ssg69
g3407
sg62
(lp3418
S':'
asbag55
(g76
g57
NtRp3419
(dp3420
g60
(dp3421
sg69
g3407
sg62
(lp3422
g55
(g56
g57
NtRp3423
(dp3424
g60
(dp3425
g68
I3
ssg69
g3419
sg62
(lp3426
S''
asbasbasbag55
(g71
g57
NtRp3427
(dp3428
g60
(dp3429
sg69
g3323
sg62
(lp3430
g55
(g76
g57
NtRp3431
(dp3432
g60
(dp3433
g80
g81
ssg69
g3427
sg62
(lp3434
g386
asbag55
(g76
g57
NtRp3435
(dp3436
g60
(dp3437
g87
g88
ssg69
g3427
sg62
(lp3438
S':'
asbag55
(g76
g57
NtRp3439
(dp3440
g60
(dp3441
sg69
g3427
sg62
(lp3442
g55
(g56
g57
NtRp3443
(dp3444
g60
(dp3445
g68
I3
ssg69
g3439
sg62
(lp3446
S'/'
asbasbasbag55
(g71
g57
NtRp3447
(dp3448
g60
(dp3449
sg69
g3323
sg62
(lp3450
g55
(g76
g57
NtRp3451
(dp3452
g60
(dp3453
g80
g81
ssg69
g3447
sg62
(lp3454
g407
asbag55
(g76
g57
NtRp3455
(dp3456
g60
(dp3457
g87
g88
ssg69
g3447
sg62
(lp3458
S':'
asbag55
(g76
g57
NtRp3459
(dp3460
g60
(dp3461
sg69
g3447
sg62
(lp3462
g55
(g56
g57
NtRp3463
(dp3464
g60
(dp3465
g68
I3
ssg69
g3459
sg62
(lp3466
S''
asbasbasbag55
(g71
g57
NtRp3467
(dp3468
g60
(dp3469
sg69
g3323
sg62
(lp3470
g55
(g76
g57
NtRp3471
(dp3472
g60
(dp3473
g80
g81
ssg69
g3467
sg62
(lp3474
g428
asbag55
(g76
g57
NtRp3475
(dp3476
g60
(dp3477
g87
g88
ssg69
g3467
sg62
(lp3478
S':'
asbag55
(g76
g57
NtRp3479
(dp3480
g60
(dp3481
sg69
g3467
sg62
(lp3482
g55
(g56
g57
NtRp3483
(dp3484
g60
(dp3485
g68
I3
ssg69
g3479
sg62
(lp3486
S''
asbasbasbasbasbasbasbasbasbasbasbag55
(g71
g57
NtRp3487
(dp3488
g60
(dp3489
sg69
g3253
sg62
(lp3490
g55
(g76
g57
NtRp3491
(dp3492
g60
(dp3493
g80
g81
ssg69
g3487
sg62
(lp3494
S'files'
p3495
asbag55
(g76
g57
NtRp3496
(dp3497
g60
(dp3498
g87
g88
ssg69
g3487
sg62
(lp3499
S':'
asbag55
(g76
g57
NtRp3500
(dp3501
g60
(dp3502
sg69
g3487
sg62
(lp3503
g55
(g56
g57
NtRp3504
(dp3505
g60
(dp3506
g68
I5
ssg69
g3500
sg62
(lp3507
g55
(g64
g57
NtRp3508
(dp3509
g60
(dp3510
g68
I4
ssg69
Nsg62
(lp3511
g55
(g71
g57
NtRp3512
(dp3513
g60
(dp3514
sg69
g3508
sg62
(lp3515
g55
(g76
g57
NtRp3516
(dp3517
g60
(dp3518
sg69
g3512
sg62
(lp3519
g55
(g56
g57
NtRp3520
(dp3521
g60
(dp3522
g68
I4
ssg69
g3516
sg62
(lp3523
S'/synopsis/static/js/jquery.js'
p3524
asbasbasbag55
(g71
g57
NtRp3525
(dp3526
g60
(dp3527
sg69
g3508
sg62
(lp3528
g55
(g76
g57
NtRp3529
(dp3530
g60
(dp3531
sg69
g3525
sg62
(lp3532
g55
(g56
g57
NtRp3533
(dp3534
g60
(dp3535
g68
I4
ssg69
g3529
sg62
(lp3536
S'/synopsis/static/css/anytime.css'
p3537
asbasbasbag55
(g71
g57
NtRp3538
(dp3539
g60
(dp3540
sg69
g3508
sg62
(lp3541
g55
(g76
g57
NtRp3542
(dp3543
g60
(dp3544
sg69
g3538
sg62
(lp3545
g55
(g56
g57
NtRp3546
(dp3547
g60
(dp3548
g68
I4
ssg69
g3542
sg62
(lp3549
S'/synopsis/static/js/anytime.js'
p3550
asbasbasbag55
(g71
g57
NtRp3551
(dp3552
g60
(dp3553
sg69
g3508
sg62
(lp3554
g55
(g76
g57
NtRp3555
(dp3556
g60
(dp3557
sg69
g3551
sg62
(lp3558
g55
(g56
g57
NtRp3559
(dp3560
g60
(dp3561
g68
I4
ssg69
g3555
sg62
(lp3562
S'/synopsis/static/css/base.css'
p3563
asbasbasbag55
(g71
g57
NtRp3564
(dp3565
g60
(dp3566
sg69
g3508
sg62
(lp3567
g55
(g76
g57
NtRp3568
(dp3569
g60
(dp3570
sg69
g3564
sg62
(lp3571
g55
(g56
g57
NtRp3572
(dp3573
g60
(dp3574
g68
I4
ssg69
g3568
sg62
(lp3575
S'/synopsis/static/css/superfish.css'
p3576
asbasbasbag55
(g71
g57
NtRp3577
(dp3578
g60
(dp3579
sg69
g3508
sg62
(lp3580
g55
(g76
g57
NtRp3581
(dp3582
g60
(dp3583
sg69
g3577
sg62
(lp3584
g55
(g56
g57
NtRp3585
(dp3586
g60
(dp3587
g68
I4
ssg69
g3581
sg62
(lp3588
S'/synopsis/static/js/superfish.js'
p3589
asbasbasbasbasbasbasbag55
(g71
g57
NtRp3590
(dp3591
g60
(dp3592
sg69
g3253
sg62
(lp3593
g55
(g76
g57
NtRp3594
(dp3595
g60
(dp3596
g80
g81
ssg69
g3590
sg62
(lp3597
S'flash'
p3598
asbag55
(g76
g57
NtRp3599
(dp3600
g60
(dp3601
g87
g88
ssg69
g3590
sg62
(lp3602
S':'
asbag55
(g76
g57
NtRp3603
(dp3604
g60
(dp3605
sg69
g3590
sg62
(lp3606
g55
(g56
g57
NtRp3607
(dp3608
g60
(dp3609
g68
I5
ssg69
g3603
sg62
(lp3610
S''
asbasbasbag55
(g71
g57
NtRp3611
(dp3612
g60
(dp3613
sg69
g3253
sg62
(lp3614
g55
(g76
g57
NtRp3615
(dp3616
g60
(dp3617
g80
g81
ssg69
g3611
sg62
(lp3618
S'generic_patterns'
p3619
asbag55
(g76
g57
NtRp3620
(dp3621
g60
(dp3622
g87
g88
ssg69
g3611
sg62
(lp3623
S':'
asbag55
(g76
g57
NtRp3624
(dp3625
g60
(dp3626
sg69
g3611
sg62
(lp3627
g55
(g56
g57
NtRp3628
(dp3629
g60
(dp3630
g68
I5
ssg69
g3624
sg62
(lp3631
g55
(g64
g57
NtRp3632
(dp3633
g60
(dp3634
g68
I4
ssg69
Nsg62
(lp3635
g55
(g71
g57
NtRp3636
(dp3637
g60
(dp3638
sg69
g3632
sg62
(lp3639
g55
(g76
g57
NtRp3640
(dp3641
g60
(dp3642
sg69
g3636
sg62
(lp3643
g55
(g56
g57
NtRp3644
(dp3645
g60
(dp3646
g68
I4
ssg69
g3640
sg62
(lp3647
S'*'
asbasbasbasbasbasbasbag55
(g71
g57
NtRp3648
(dp3649
g60
(dp3650
sg69
g3253
sg62
(lp3651
g55
(g76
g57
NtRp3652
(dp3653
g60
(dp3654
g80
g81
ssg69
g3648
sg62
(lp3655
S'headers'
p3656
asbag55
(g76
g57
NtRp3657
(dp3658
g60
(dp3659
g87
g88
ssg69
g3648
sg62
(lp3660
S':'
asbag55
(g76
g57
NtRp3661
(dp3662
g60
(dp3663
sg69
g3648
sg62
(lp3664
g55
(g56
g57
NtRp3665
(dp3666
g60
(dp3667
g68
I5
ssg69
g3661
sg62
(lp3668
g55
(g64
g57
NtRp3669
(dp3670
g60
(dp3671
g68
I4
ssg69
Nsg62
(lp3672
g55
(g71
g57
NtRp3673
(dp3674
g60
(dp3675
sg69
g3669
sg62
(lp3676
g55
(g76
g57
NtRp3677
(dp3678
g60
(dp3679
g80
g81
ssg69
g3673
sg62
(lp3680
S'Cache-Control'
p3681
asbag55
(g76
g57
NtRp3682
(dp3683
g60
(dp3684
g87
g88
ssg69
g3673
sg62
(lp3685
S':'
asbag55
(g76
g57
NtRp3686
(dp3687
g60
(dp3688
sg69
g3673
sg62
(lp3689
g55
(g56
g57
NtRp3690
(dp3691
g60
(dp3692
g68
I4
ssg69
g3686
sg62
(lp3693
S'no-store, no-cache, must-revalidate, post-check=0, pre-check=0'
p3694
asbasbasbag55
(g71
g57
NtRp3695
(dp3696
g60
(dp3697
sg69
g3669
sg62
(lp3698
g55
(g76
g57
NtRp3699
(dp3700
g60
(dp3701
g80
g81
ssg69
g3695
sg62
(lp3702
S'Content-Type'
p3703
asbag55
(g76
g57
NtRp3704
(dp3705
g60
(dp3706
g87
g88
ssg69
g3695
sg62
(lp3707
S':'
asbag55
(g76
g57
NtRp3708
(dp3709
g60
(dp3710
sg69
g3695
sg62
(lp3711
g55
(g56
g57
NtRp3712
(dp3713
g60
(dp3714
g68
I4
ssg69
g3708
sg62
(lp3715
S'text/html; charset=utf-8'
p3716
asbasbasbag55
(g71
g57
NtRp3717
(dp3718
g60
(dp3719
sg69
g3669
sg62
(lp3720
g55
(g76
g57
NtRp3721
(dp3722
g60
(dp3723
g80
g81
ssg69
g3717
sg62
(lp3724
S'Expires'
p3725
asbag55
(g76
g57
NtRp3726
(dp3727
g60
(dp3728
g87
g88
ssg69
g3717
sg62
(lp3729
S':'
asbag55
(g76
g57
NtRp3730
(dp3731
g60
(dp3732
sg69
g3717
sg62
(lp3733
g55
(g56
g57
NtRp3734
(dp3735
g60
(dp3736
g68
I4
ssg69
g3730
sg62
(lp3737
S'Mon, 16 Jan 2012 13:38:39 GMT'
p3738
asbasbasbag55
(g71
g57
NtRp3739
(dp3740
g60
(dp3741
sg69
g3669
sg62
(lp3742
g55
(g76
g57
NtRp3743
(dp3744
g60
(dp3745
g80
g81
ssg69
g3739
sg62
(lp3746
S'Pragma'
p3747
asbag55
(g76
g57
NtRp3748
(dp3749
g60
(dp3750
g87
g88
ssg69
g3739
sg62
(lp3751
S':'
asbag55
(g76
g57
NtRp3752
(dp3753
g60
(dp3754
sg69
g3739
sg62
(lp3755
g55
(g56
g57
NtRp3756
(dp3757
g60
(dp3758
g68
I4
ssg69
g3752
sg62
(lp3759
S'no-cache'
p3760
asbasbasbag55
(g71
g57
NtRp3761
(dp3762
g60
(dp3763
sg69
g3669
sg62
(lp3764
g55
(g76
g57
NtRp3765
(dp3766
g60
(dp3767
g80
g81
ssg69
g3761
sg62
(lp3768
S'X-Powered-By'
p3769
asbag55
(g76
g57
NtRp3770
(dp3771
g60
(dp3772
g87
g88
ssg69
g3761
sg62
(lp3773
S':'
asbag55
(g76
g57
NtRp3774
(dp3775
g60
(dp3776
sg69
g3761
sg62
(lp3777
g55
(g56
g57
NtRp3778
(dp3779
g60
(dp3780
g68
I4
ssg69
g3774
sg62
(lp3781
S'web2py'
p3782
asbasbasbasbasbasbasbag55
(g71
g57
NtRp3783
(dp3784
g60
(dp3785
sg69
g3253
sg62
(lp3786
g55
(g76
g57
NtRp3787
(dp3788
g60
(dp3789
g80
g81
ssg69
g3783
sg62
(lp3790
S'menu'
p3791
asbag55
(g76
g57
NtRp3792
(dp3793
g60
(dp3794
g87
g88
ssg69
g3783
sg62
(lp3795
S':'
asbag55
(g76
g57
NtRp3796
(dp3797
g60
(dp3798
sg69
g3783
sg62
(lp3799
g55
(g56
g57
NtRp3800
(dp3801
g60
(dp3802
g68
I5
ssg69
g3796
sg62
(lp3803
g55
(g64
g57
NtRp3804
(dp3805
g60
(dp3806
g68
I4
ssg69
Nsg62
(lp3807
g55
(g71
g57
NtRp3808
(dp3809
g60
(dp3810
sg69
g3804
sg62
(lp3811
g55
(g76
g57
NtRp3812
(dp3813
g60
(dp3814
sg69
g3808
sg62
(lp3815
g55
(g56
g57
NtRp3816
(dp3817
g60
(dp3818
g68
I4
ssg69
g3812
sg62
(lp3819
g55
(g64
g57
NtRp3820
(dp3821
g60
(dp3822
g68
I3
ssg69
Nsg62
(lp3823
g55
(g71
g57
NtRp3824
(dp3825
g60
(dp3826
sg69
g3820
sg62
(lp3827
g55
(g76
g57
NtRp3828
(dp3829
g60
(dp3830
sg69
g3824
sg62
(lp3831
g55
(g56
g57
NtRp3832
(dp3833
g60
(dp3834
g68
I3
ssg69
g3828
sg62
(lp3835
cgluon.languages
lazyT_unpickle
p3836
(S't\x04\x00\x00\x00Home'
tRp3837
asbasbasbag55
(g71
g57
NtRp3838
(dp3839
g60
(dp3840
sg69
g3820
sg62
(lp3841
g55
(g76
g57
NtRp3842
(dp3843
g60
(dp3844
sg69
g3838
sg62
(lp3845
g55
(g56
g57
NtRp3846
(dp3847
g60
(dp3848
g68
I3
ssg69
g3842
sg62
(lp3849
g98
asbasbasbag55
(g71
g57
NtRp3850
(dp3851
g60
(dp3852
sg69
g3820
sg62
(lp3853
g55
(g76
g57
NtRp3854
(dp3855
g60
(dp3856
sg69
g3850
sg62
(lp3857
g55
(g56
g57
NtRp3858
(dp3859
g60
(dp3860
g68
I3
ssg69
g3854
sg62
(lp3861
S'/synopsis/default/index'
p3862
asbasbasbag55
(g71
g57
NtRp3863
(dp3864
g60
(dp3865
sg69
g3820
sg62
(lp3866
g55
(g76
g57
NtRp3867
(dp3868
g60
(dp3869
sg69
g3863
sg62
(lp3870
g55
(g56
g57
NtRp3871
(dp3872
g60
(dp3873
g68
I3
ssg69
g3867
sg62
(lp3874
g55
(g64
g57
NtRp3875
(dp3876
g60
(dp3877
g68
I2
ssg69
Nsg62
(lp3878
sbasbasbasbasbasbasbasbag55
(g71
g57
NtRp3879
(dp3880
g60
(dp3881
sg69
g3804
sg62
(lp3882
g55
(g76
g57
NtRp3883
(dp3884
g60
(dp3885
sg69
g3879
sg62
(lp3886
g55
(g56
g57
NtRp3887
(dp3888
g60
(dp3889
g68
I4
ssg69
g3883
sg62
(lp3890
g55
(g64
g57
NtRp3891
(dp3892
g60
(dp3893
g68
I3
ssg69
Nsg62
(lp3894
g55
(g71
g57
NtRp3895
(dp3896
g60
(dp3897
sg69
g3891
sg62
(lp3898
g55
(g76
g57
NtRp3899
(dp3900
g60
(dp3901
sg69
g3895
sg62
(lp3902
g55
(g56
g57
NtRp3903
(dp3904
g60
(dp3905
g68
I3
ssg69
g3899
sg62
(lp3906
g3836
(S't\x0b\x00\x00\x00Information'
tRp3907
asbasbasbag55
(g71
g57
NtRp3908
(dp3909
g60
(dp3910
sg69
g3891
sg62
(lp3911
g55
(g76
g57
NtRp3912
(dp3913
g60
(dp3914
sg69
g3908
sg62
(lp3915
g55
(g56
g57
NtRp3916
(dp3917
g60
(dp3918
g68
I3
ssg69
g3912
sg62
(lp3919
g98
asbasbasbag55
(g71
g57
NtRp3920
(dp3921
g60
(dp3922
sg69
g3891
sg62
(lp3923
g55
(g76
g57
NtRp3924
(dp3925
g60
(dp3926
sg69
g3920
sg62
(lp3927
g55
(g56
g57
NtRp3928
(dp3929
g60
(dp3930
g68
I3
ssg69
g3924
sg62
(lp3931
S'/synopsis/information/index'
p3932
asbasbasbag55
(g71
g57
NtRp3933
(dp3934
g60
(dp3935
sg69
g3891
sg62
(lp3936
g55
(g76
g57
NtRp3937
(dp3938
g60
(dp3939
sg69
g3933
sg62
(lp3940
g55
(g56
g57
NtRp3941
(dp3942
g60
(dp3943
g68
I3
ssg69
g3937
sg62
(lp3944
g55
(g64
g57
NtRp3945
(dp3946
g60
(dp3947
g68
I2
ssg69
Nsg62
(lp3948
sbasbasbasbasbasbasbasbag55
(g71
g57
NtRp3949
(dp3950
g60
(dp3951
sg69
g3804
sg62
(lp3952
g55
(g76
g57
NtRp3953
(dp3954
g60
(dp3955
sg69
g3949
sg62
(lp3956
g55
(g56
g57
NtRp3957
(dp3958
g60
(dp3959
g68
I4
ssg69
g3953
sg62
(lp3960
g55
(g64
g57
NtRp3961
(dp3962
g60
(dp3963
g68
I3
ssg69
Nsg62
(lp3964
g55
(g71
g57
NtRp3965
(dp3966
g60
(dp3967
sg69
g3961
sg62
(lp3968
g55
(g76
g57
NtRp3969
(dp3970
g60
(dp3971
sg69
g3965
sg62
(lp3972
g55
(g56
g57
NtRp3973
(dp3974
g60
(dp3975
g68
I3
ssg69
g3969
sg62
(lp3976
g3836
(S't\x05\x00\x00\x00About'
tRp3977
asbasbasbag55
(g71
g57
NtRp3978
(dp3979
g60
(dp3980
sg69
g3961
sg62
(lp3981
g55
(g76
g57
NtRp3982
(dp3983
g60
(dp3984
sg69
g3978
sg62
(lp3985
g55
(g56
g57
NtRp3986
(dp3987
g60
(dp3988
g68
I3
ssg69
g3982
sg62
(lp3989
g98
asbasbasbag55
(g71
g57
NtRp3990
(dp3991
g60
(dp3992
sg69
g3961
sg62
(lp3993
g55
(g76
g57
NtRp3994
(dp3995
g60
(dp3996
sg69
g3990
sg62
(lp3997
g55
(g56
g57
NtRp3998
(dp3999
g60
(dp4000
g68
I3
ssg69
g3994
sg62
(lp4001
S'/synopsis/about/index'
p4002
asbasbasbag55
(g71
g57
NtRp4003
(dp4004
g60
(dp4005
sg69
g3961
sg62
(lp4006
g55
(g76
g57
NtRp4007
(dp4008
g60
(dp4009
sg69
g4003
sg62
(lp4010
g55
(g56
g57
NtRp4011
(dp4012
g60
(dp4013
g68
I3
ssg69
g4007
sg62
(lp4014
g55
(g64
g57
NtRp4015
(dp4016
g60
(dp4017
g68
I2
ssg69
Nsg62
(lp4018
sbasbasbasbasbasbasbasbasbasbasbasbag55
(g71
g57
NtRp4019
(dp4020
g60
(dp4021
sg69
g3253
sg62
(lp4022
g55
(g76
g57
NtRp4023
(dp4024
g60
(dp4025
g80
g81
ssg69
g4019
sg62
(lp4026
S'meta'
p4027
asbag55
(g76
g57
NtRp4028
(dp4029
g60
(dp4030
g87
g88
ssg69
g4019
sg62
(lp4031
S':'
asbag55
(g76
g57
NtRp4032
(dp4033
g60
(dp4034
sg69
g4019
sg62
(lp4035
g55
(g56
g57
NtRp4036
(dp4037
g60
(dp4038
g68
I5
ssg69
g4032
sg62
(lp4039
g55
(g64
g57
NtRp4040
(dp4041
g60
(dp4042
g68
I4
ssg69
Nsg62
(lp4043
g55
(g71
g57
NtRp4044
(dp4045
g60
(dp4046
sg69
g4040
sg62
(lp4047
g55
(g76
g57
NtRp4048
(dp4049
g60
(dp4050
g80
g81
ssg69
g4044
sg62
(lp4051
S'author'
p4052
asbag55
(g76
g57
NtRp4053
(dp4054
g60
(dp4055
g87
g88
ssg69
g4044
sg62
(lp4056
S':'
asbag55
(g76
g57
NtRp4057
(dp4058
g60
(dp4059
sg69
g4044
sg62
(lp4060
g55
(g56
g57
NtRp4061
(dp4062
g60
(dp4063
g68
I4
ssg69
g4057
sg62
(lp4064
S'Your Name <you@example.com>'
p4065
asbasbasbag55
(g71
g57
NtRp4066
(dp4067
g60
(dp4068
sg69
g4040
sg62
(lp4069
g55
(g76
g57
NtRp4070
(dp4071
g60
(dp4072
g80
g81
ssg69
g4066
sg62
(lp4073
S'copyright'
p4074
asbag55
(g76
g57
NtRp4075
(dp4076
g60
(dp4077
g87
g88
ssg69
g4066
sg62
(lp4078
S':'
asbag55
(g76
g57
NtRp4079
(dp4080
g60
(dp4081
sg69
g4066
sg62
(lp4082
g55
(g56
g57
NtRp4083
(dp4084
g60
(dp4085
g68
I4
ssg69
g4079
sg62
(lp4086
S'Copyright 2011'
p4087
asbasbasbag55
(g71
g57
NtRp4088
(dp4089
g60
(dp4090
sg69
g4040
sg62
(lp4091
g55
(g76
g57
NtRp4092
(dp4093
g60
(dp4094
g80
g81
ssg69
g4088
sg62
(lp4095
S'description'
p4096
asbag55
(g76
g57
NtRp4097
(dp4098
g60
(dp4099
g87
g88
ssg69
g4088
sg62
(lp4100
S':'
asbag55
(g76
g57
NtRp4101
(dp4102
g60
(dp4103
sg69
g4088
sg62
(lp4104
g55
(g56
g57
NtRp4105
(dp4106
g60
(dp4107
g68
I4
ssg69
g4101
sg62
(lp4108
S'a cool new app'
p4109
asbasbasbag55
(g71
g57
NtRp4110
(dp4111
g60
(dp4112
sg69
g4040
sg62
(lp4113
g55
(g76
g57
NtRp4114
(dp4115
g60
(dp4116
g80
g81
ssg69
g4110
sg62
(lp4117
S'generator'
p4118
asbag55
(g76
g57
NtRp4119
(dp4120
g60
(dp4121
g87
g88
ssg69
g4110
sg62
(lp4122
S':'
asbag55
(g76
g57
NtRp4123
(dp4124
g60
(dp4125
sg69
g4110
sg62
(lp4126
g55
(g56
g57
NtRp4127
(dp4128
g60
(dp4129
g68
I4
ssg69
g4123
sg62
(lp4130
S'Web2py Web Framework'
p4131
asbasbasbag55
(g71
g57
NtRp4132
(dp4133
g60
(dp4134
sg69
g4040
sg62
(lp4135
g55
(g76
g57
NtRp4136
(dp4137
g60
(dp4138
g80
g81
ssg69
g4132
sg62
(lp4139
S'keywords'
p4140
asbag55
(g76
g57
NtRp4141
(dp4142
g60
(dp4143
g87
g88
ssg69
g4132
sg62
(lp4144
S':'
asbag55
(g76
g57
NtRp4145
(dp4146
g60
(dp4147
sg69
g4132
sg62
(lp4148
g55
(g56
g57
NtRp4149
(dp4150
g60
(dp4151
g68
I4
ssg69
g4145
sg62
(lp4152
S'web2py, python, framework'
p4153
asbasbasbasbasbasbasbag55
(g71
g57
NtRp4154
(dp4155
g60
(dp4156
sg69
g3253
sg62
(lp4157
g55
(g76
g57
NtRp4158
(dp4159
g60
(dp4160
g80
g81
ssg69
g4154
sg62
(lp4161
S'postprocessing'
p4162
asbag55
(g76
g57
NtRp4163
(dp4164
g60
(dp4165
g87
g88
ssg69
g4154
sg62
(lp4166
S':'
asbag55
(g76
g57
NtRp4167
(dp4168
g60
(dp4169
sg69
g4154
sg62
(lp4170
g55
(g56
g57
NtRp4171
(dp4172
g60
(dp4173
g68
I5
ssg69
g4167
sg62
(lp4174
g55
(g64
g57
NtRp4175
(dp4176
g60
(dp4177
g68
I4
ssg69
Nsg62
(lp4178
sbasbasbasbag55
(g71
g57
NtRp4179
(dp4180
g60
(dp4181
sg69
g3253
sg62
(lp4182
g55
(g76
g57
NtRp4183
(dp4184
g60
(dp4185
g80
g81
ssg69
g4179
sg62
(lp4186
S'session_file'
p4187
asbag55
(g76
g57
NtRp4188
(dp4189
g60
(dp4190
g87
g88
ssg69
g4179
sg62
(lp4191
S':'
asbag55
(g76
g57
NtRp4192
(dp4193
g60
(dp4194
sg69
g4179
sg62
(lp4195
g55
(g56
g57
NtRp4196
(dp4197
g60
(dp4198
g68
I5
ssg69
g4192
sg62
(lp4199
S"<open file '/home/kaique/Projects/web2py/applications/synopsis/sessions/127.0.0.1-ea15d85f-607d-4f64-bdf1-d7c474a4e0c4', mode 'rb+' at 0x2d77e40>"
p4200
asbasbasbag55
(g71
g57
NtRp4201
(dp4202
g60
(dp4203
sg69
g3253
sg62
(lp4204
g55
(g76
g57
NtRp4205
(dp4206
g60
(dp4207
g80
g81
ssg69
g4201
sg62
(lp4208
S'session_filename'
p4209
asbag55
(g76
g57
NtRp4210
(dp4211
g60
(dp4212
g87
g88
ssg69
g4201
sg62
(lp4213
S':'
asbag55
(g76
g57
NtRp4214
(dp4215
g60
(dp4216
sg69
g4201
sg62
(lp4217
g55
(g56
g57
NtRp4218
(dp4219
g60
(dp4220
g68
I5
ssg69
g4214
sg62
(lp4221
S'/home/kaique/Projects/web2py/applications/synopsis/sessions/127.0.0.1-ea15d85f-607d-4f64-bdf1-d7c474a4e0c4'
p4222
asbasbasbag55
(g71
g57
NtRp4223
(dp4224
g60
(dp4225
sg69
g3253
sg62
(lp4226
g55
(g76
g57
NtRp4227
(dp4228
g60
(dp4229
g80
g81
ssg69
g4223
sg62
(lp4230
S'session_id'
p4231
asbag55
(g76
g57
NtRp4232
(dp4233
g60
(dp4234
g87
g88
ssg69
g4223
sg62
(lp4235
S':'
asbag55
(g76
g57
NtRp4236
(dp4237
g60
(dp4238
sg69
g4223
sg62
(lp4239
g55
(g56
g57
NtRp4240
(dp4241
g60
(dp4242
g68
I5
ssg69
g4236
sg62
(lp4243
S'127.0.0.1-ea15d85f-607d-4f64-bdf1-d7c474a4e0c4'
p4244
asbasbasbag55
(g71
g57
NtRp4245
(dp4246
g60
(dp4247
sg69
g3253
sg62
(lp4248
g55
(g76
g57
NtRp4249
(dp4250
g60
(dp4251
g80
g81
ssg69
g4245
sg62
(lp4252
S'session_id_name'
p4253
asbag55
(g76
g57
NtRp4254
(dp4255
g60
(dp4256
g87
g88
ssg69
g4245
sg62
(lp4257
S':'
asbag55
(g76
g57
NtRp4258
(dp4259
g60
(dp4260
sg69
g4245
sg62
(lp4261
g55
(g56
g57
NtRp4262
(dp4263
g60
(dp4264
g68
I5
ssg69
g4258
sg62
(lp4265
g3310
asbasbasbag55
(g71
g57
NtRp4266
(dp4267
g60
(dp4268
sg69
g3253
sg62
(lp4269
g55
(g76
g57
NtRp4270
(dp4271
g60
(dp4272
g80
g81
ssg69
g4266
sg62
(lp4273
S'session_locked'
p4274
asbag55
(g76
g57
NtRp4275
(dp4276
g60
(dp4277
g87
g88
ssg69
g4266
sg62
(lp4278
S':'
asbag55
(g76
g57
NtRp4279
(dp4280
g60
(dp4281
sg69
g4266
sg62
(lp4282
g55
(g56
g57
NtRp4283
(dp4284
g60
(dp4285
g68
I5
ssg69
g4279
sg62
(lp4286
g1504
asbasbasbag55
(g71
g57
NtRp4287
(dp4288
g60
(dp4289
sg69
g3253
sg62
(lp4290
g55
(g76
g57
NtRp4291
(dp4292
g60
(dp4293
g80
g81
ssg69
g4287
sg62
(lp4294
S'session_new'
p4295
asbag55
(g76
g57
NtRp4296
(dp4297
g60
(dp4298
g87
g88
ssg69
g4287
sg62
(lp4299
S':'
asbag55
(g76
g57
NtRp4300
(dp4301
g60
(dp4302
sg69
g4287
sg62
(lp4303
g55
(g56
g57
NtRp4304
(dp4305
g60
(dp4306
g68
I5
ssg69
g4300
sg62
(lp4307
g98
asbasbasbag55
(g71
g57
NtRp4308
(dp4309
g60
(dp4310
sg69
g3253
sg62
(lp4311
g55
(g76
g57
NtRp4312
(dp4313
g60
(dp4314
g80
g81
ssg69
g4308
sg62
(lp4315
S'status'
p4316
asbag55
(g76
g57
NtRp4317
(dp4318
g60
(dp4319
g87
g88
ssg69
g4308
sg62
(lp4320
S':'
asbag55
(g76
g57
NtRp4321
(dp4322
g60
(dp4323
sg69
g4308
sg62
(lp4324
g55
(g56
g57
NtRp4325
(dp4326
g60
(dp4327
g68
I5
ssg69
g4321
sg62
(lp4328
S'200'
p4329
asbasbasbag55
(g71
g57
NtRp4330
(dp4331
g60
(dp4332
sg69
g3253
sg62
(lp4333
g55
(g76
g57
NtRp4334
(dp4335
g60
(dp4336
g80
g81
ssg69
g4330
sg62
(lp4337
S'subtitle'
p4338
asbag55
(g76
g57
NtRp4339
(dp4340
g60
(dp4341
g87
g88
ssg69
g4330
sg62
(lp4342
S':'
asbag55
(g76
g57
NtRp4343
(dp4344
g60
(dp4345
sg69
g4330
sg62
(lp4346
g55
(g56
g57
NtRp4347
(dp4348
g60
(dp4349
g68
I5
ssg69
g4343
sg62
(lp4350
g3836
(S's\x0f\x00\x00\x00Personalize-me!'
tRp4351
asbasbasbag55
(g71
g57
NtRp4352
(dp4353
g60
(dp4354
sg69
g3253
sg62
(lp4355
g55
(g76
g57
NtRp4356
(dp4357
g60
(dp4358
g80
g81
ssg69
g4352
sg62
(lp4359
S'title'
p4360
asbag55
(g76
g57
NtRp4361
(dp4362
g60
(dp4363
g87
g88
ssg69
g4352
sg62
(lp4364
S':'
asbag55
(g76
g57
NtRp4365
(dp4366
g60
(dp4367
sg69
g4352
sg62
(lp4368
g55
(g56
g57
NtRp4369
(dp4370
g60
(dp4371
g68
I5
ssg69
g4365
sg62
(lp4372
g120
asbasbasbag55
(g71
g57
NtRp4373
(dp4374
g60
(dp4375
sg69
g3253
sg62
(lp4376
g55
(g76
g57
NtRp4377
(dp4378
g60
(dp4379
g80
g81
ssg69
g4373
sg62
(lp4380
g2169
asbag55
(g76
g57
NtRp4381
(dp4382
g60
(dp4383
g87
g88
ssg69
g4373
sg62
(lp4384
S':'
asbag55
(g76
g57
NtRp4385
(dp4386
g60
(dp4387
sg69
g4373
sg62
(lp4388
g55
(g56
g57
NtRp4389
(dp4390
g60
(dp4391
g68
I5
ssg69
g4385
sg62
(lp4392
g2182
asbasbasbag55
(g71
g57
NtRp4393
(dp4394
g60
(dp4395
sg69
g3253
sg62
(lp4396
g55
(g76
g57
NtRp4397
(dp4398
g60
(dp4399
g80
g81
ssg69
g4393
sg62
(lp4400
S'view'
p4401
asbag55
(g76
g57
NtRp4402
(dp4403
g60
(dp4404
g87
g88
ssg69
g4393
sg62
(lp4405
S':'
asbag55
(g76
g57
NtRp4406
(dp4407
g60
(dp4408
sg69
g4393
sg62
(lp4409
g55
(g56
g57
NtRp4410
(dp4411
g60
(dp4412
g68
I5
ssg69
g4406
sg62
(lp4413
S'information/publication.html'
p4414
asbasbasbasbasbsS'locals'
p4415
(dp4416
S'Service'
p4417
S"<class 'gluon.tools.Service'>"
p4418
sS'OBJECT'
p4419
S"<class 'gluon.html.OBJECT'>"
p4420
sS'SQLDB'
p4421
S"<class 'gluon.dal.DAL'>"
p4422
sg2905
S"<Storage {'index': '1', '_formkey[row/create]': ...a\\x8f}\\xf9\\xeeN\\x9f\\x08\\n\\x88\\x1f\\x06\\xe8\\x1fg'}>"
p4423
sS'LINK'
p4424
S"<class 'gluon.html.LINK'>"
p4425
sS'BR'
p4426
S"<class 'gluon.html.BR'>"
p4427
sS'local_import'
p4428
S'<function <lambda>>'
p4429
sS'OPTGROUP'
p4430
S"<class 'gluon.html.OPTGROUP'>"
p4431
sS'row'
p4432
S"[<Row {'updated_by': 1, 'update_record': <functio...elete_record': <function <lambda> at 0x31425f0>}>]"
p4433
sS'PRE'
p4434
S"<class 'gluon.html.PRE'>"
p4435
sS'IS_INT_IN_RANGE'
p4436
S"<class 'gluon.validators.IS_INT_IN_RANGE'>"
p4437
sS'left_sidebar_enabled'
p4438
g98
sS'IS_LOWER'
p4439
S"<class 'gluon.validators.IS_LOWER'>"
p4440
sS'IS_STRONG'
p4441
S"<class 'gluon.validators.IS_STRONG'>"
p4442
sS'cache'
p4443
S'<gluon.cache.Cache object>'
p4444
sS'IS_IN_DB'
p4445
S"<class 'gluon.validators.IS_IN_DB'>"
p4446
sS'TAG'
p4447
S'<gluon.html.__TAG__ object>'
p4448
sS'SQLField'
p4449
S"<class 'gluon.dal.Field'>"
p4450
sS'mail'
p4451
S'<gluon.tools.Mail object>'
p4452
sS'columns'
p4453
S"[<Row {'updated_by': 1, 'title': 'Title1', 'updat...88>, 'row': <gluon.dal.Set object at 0x27adb90>}>, <Row {'updated_by': 1, 'title': 'Title 2', 'upda...c0>, 'row': <gluon.dal.Set object at 0x27adbd0>}>, <Row {'updated_by': 1, 'title': 'Column 3', 'upd...e0>, 'row': <gluon.dal.Set object at 0x27ad7d0>}>]"
p4454
sS'BODY'
p4455
S"<class 'gluon.html.BODY'>"
p4456
sS'IS_DATE_IN_RANGE'
p4457
S"<class 'gluon.validators.IS_DATE_IN_RANGE'>"
p4458
sS'TH'
p4459
S"<class 'gluon.html.TH'>"
p4460
sS'URL'
p4461
S'<function URL>'
p4462
sS'__file__'
p4463
S"'/home/kaique/Projects/web2py/applications/synopsis/views/information/publication.html'"
p4464
sS'db'
p4465
S"<DAL {'auth_event': <Table {'origin': <gluon.dal..., 'id': <gluon.dal.Field object at 0x27b2f90>}>}>"
p4466
sS'auth'
p4467
S'<gluon.tools.Auth object>'
p4468
sS'P'
S"<class 'gluon.html.P'>"
p4469
sS'TFOOT'
p4470
S"<class 'gluon.html.TFOOT'>"
p4471
sS'count_equals'
p4472
S'<function count_equals>'
p4473
sS'XHTML'
p4474
S"<class 'gluon.html.XHTML'>"
p4475
sS'ON'
p4476
g1504
sS'OL'
p4477
S"<class 'gluon.html.OL'>"
p4478
sS'TEXTAREA'
p4479
S"<class 'gluon.html.TEXTAREA'>"
p4480
sS'MENU'
p4481
S"<class 'gluon.html.MENU'>"
p4482
sg2861
g44
sS'LOAD'
p4483
S'<gluon.compileapp.LoadFactory object>'
p4484
sS'CODE'
p4485
S"<class 'gluon.html.CODE'>"
p4486
sS'HTTP'
p4487
S"<class 'gluon.http.HTTP'>"
p4488
sS'HR'
p4489
S"<class 'gluon.html.HR'>"
p4490
sS'IS_DATETIME'
p4491
S"<class 'gluon.validators.IS_DATETIME'>"
p4492
sS'HEAD'
p4493
S"<class 'gluon.html.HEAD'>"
p4494
sS'LABEL'
p4495
S"<class 'gluon.html.LABEL'>"
p4496
sS'CLEANUP'
p4497
S"<class 'gluon.validators.CLEANUP'>"
p4498
sS'plugins'
p4499
S'<gluon.tools.PluginManager object>'
p4500
sS'SELECT'
p4501
S"<class 'gluon.html.SELECT'>"
p4502
sS'use_janrain'
p4503
S'<function use_janrain>'
p4504
sS'CENTER'
p4505
S"<class 'gluon.html.CENTER'>"
p4506
sS'prettydate'
p4507
S'<function prettydate>'
p4508
sS'Crud'
p4509
S"<class 'gluon.tools.Crud'>"
p4510
sS'Auth'
p4511
S"<class 'gluon.tools.Auth'>"
p4512
sS'__builtins__'
p4513
S"{'ArithmeticError': <type 'exceptions.ArithmeticError'>, 'AssertionError': <type 'exceptions.AssertionError'>, 'AttributeError': <type 'exceptions.AttributeError'>, 'BaseException': <type 'exceptions.BaseException'>, 'BufferError': <type 'exceptions.BufferError'>, 'BytesWarning': <type 'exceptions.BytesWarning'>, 'DeprecationWarning': <type 'exceptions.DeprecationWarning'>, 'EOFError': <type 'exceptions.EOFError'>, 'Ellipsis': Ellipsis, 'EnvironmentError': <type 'exceptions.EnvironmentError'>, ...}"
p4514
sS'HTML'
p4515
S"<class 'gluon.html.HTML'>"
p4516
sS'SQLFORM'
p4517
S"<class 'gluon.sqlhtml.SQLFORM'>"
p4518
sS'EM'
p4519
S"<class 'gluon.html.EM'>"
p4520
sS'redirect'
p4521
S'<function redirect>'
p4522
sS'FIELDSET'
p4523
S"<class 'gluon.html.FIELDSET'>"
p4524
sS'IS_EQUAL_TO'
p4525
S"<class 'gluon.validators.IS_EQUAL_TO'>"
p4526
sS'embed64'
p4527
S'<function embed64>'
p4528
sS'IS_LIST_OF'
p4529
S"<class 'gluon.validators.IS_LIST_OF'>"
p4530
sS'INPUT'
p4531
S"<class 'gluon.html.INPUT'>"
p4532
sS'EMBED'
p4533
S"<class 'gluon.html.EMBED'>"
p4534
sS'r'
S"<Row {'updated_by': 1, 'update_record': <functio...elete_record': <function <lambda> at 0x31425f0>}>"
p4535
sS'FORM'
p4536
S"<class 'gluon.html.FORM'>"
p4537
sS'width_content'
p4538
S"'100%'"
p4539
sS'column'
p4540
S'2'
sS'H3'
p4541
S"<class 'gluon.html.H3'>"
p4542
sS'BUTTON'
p4543
S"<class 'gluon.html.BUTTON'>"
p4544
sS'H1'
p4545
S"<class 'gluon.html.H1'>"
p4546
sS'H6'
p4547
S"<class 'gluon.html.H6'>"
p4548
sS'H4'
p4549
S"<class 'gluon.html.H4'>"
p4550
sS'H5'
p4551
S"<class 'gluon.html.H5'>"
p4552
sS'UL'
p4553
S"<class 'gluon.html.UL'>"
p4554
sS'IS_UPPER'
p4555
S"<class 'gluon.validators.IS_UPPER'>"
p4556
sS'signature'
p4557
S"<Table {'ALL': <gluon.dal.SQLALL object at 0x27a...0>, 'id': <gluon.dal.Field object at 0x27a54d0>}>"
p4558
sS'IS_TIME'
p4559
S"<class 'gluon.validators.IS_TIME'>"
p4560
sS'OPTION'
p4561
S"<class 'gluon.html.OPTION'>"
p4562
sS'TITLE'
p4563
S"<class 'gluon.html.TITLE'>"
p4564
sS'CRYPT'
p4565
S"<class 'gluon.validators.CRYPT'>"
p4566
sS'IS_EMPTY_OR'
p4567
S"<class 'gluon.validators.IS_EMPTY_OR'>"
p4568
sS'MARKMIN'
p4569
S"<class 'gluon.html.MARKMIN'>"
p4570
sS'COL'
p4571
S"<class 'gluon.html.COL'>"
p4572
sS'rows'
p4573
S"[[<Row {'updated_by': 1, 'update_record': <functio...elete_record': <function <lambda> at 0x3142cf8>}>], [<Row {'updated_by': 1, 'update_record': <functio...elete_record': <function <lambda> at 0x3142d70>}>], [<Row {'updated_by': 1, 'update_record': <functio...elete_record': <function <lambda> at 0x31425f0>}>]]"
p4574
sS'publication'
p4575
S'<gluon.dal.Rows object>'
p4576
sS'service'
p4577
S'<gluon.tools.Service object>'
p4578
sS'SCRIPT'
p4579
S"<class 'gluon.html.SCRIPT'>"
p4580
sS'TABLE'
p4581
S"<class 'gluon.html.TABLE'>"
p4582
sS'IS_IPV4'
p4583
S"<class 'gluon.validators.IS_IPV4'>"
p4584
sS'IS_LENGTH'
p4585
S"<class 'gluon.validators.IS_LENGTH'>"
p4586
sS'XML'
p4587
S"<class 'gluon.html.XML'>"
p4588
sS'B'
S"<class 'gluon.html.B'>"
p4589
sS'IMG'
p4590
S"<class 'gluon.html.IMG'>"
p4591
sS'SQLTABLE'
p4592
S"<class 'gluon.sqlhtml.SQLTABLE'>"
p4593
sS'IS_MATCH'
p4594
S"<class 'gluon.validators.IS_MATCH'>"
p4595
sS'IS_ALPHANUMERIC'
p4596
S"<class 'gluon.validators.IS_ALPHANUMERIC'>"
p4597
sS'SPAN'
p4598
S"<class 'gluon.html.SPAN'>"
p4599
sS'IS_SLUG'
p4600
S"<class 'gluon.validators.IS_SLUG'>"
p4601
sS'H2'
p4602
S"<class 'gluon.html.H2'>"
p4603
sS'BEAUTIFY'
p4604
S"<class 'gluon.html.BEAUTIFY'>"
p4605
sS'META'
p4606
S"<class 'gluon.html.META'>"
p4607
sS'IS_DATE'
p4608
S"<class 'gluon.validators.IS_DATE'>"
p4609
sS'IS_EMAIL'
p4610
S"<class 'gluon.validators.IS_EMAIL'>"
p4611
sS'IS_NOT_EMPTY'
p4612
S"<class 'gluon.validators.IS_NOT_EMPTY'>"
p4613
sS'IS_FLOAT_IN_RANGE'
p4614
S"<class 'gluon.validators.IS_FLOAT_IN_RANGE'>"
p4615
sS'TBODY'
p4616
S"<class 'gluon.html.TBODY'>"
p4617
sS'CAT'
p4618
S"<class 'gluon.html.CAT'>"
p4619
sS'Field'
p4620
S"<class 'gluon.dal.Field'>"
p4621
sS'DIV'
p4622
S"<class 'gluon.html.DIV'>"
p4623
sS'LEGEND'
p4624
S"<class 'gluon.html.LEGEND'>"
p4625
sS'COLGROUP'
p4626
S"<class 'gluon.html.COLGROUP'>"
p4627
sS'DAL'
p4628
S"<class 'gluon.dal.DAL'>"
p4629
sS'TT'
p4630
S"<class 'gluon.html.TT'>"
p4631
sS'TR'
p4632
S"<class 'gluon.html.TR'>"
p4633
sS'detail'
p4634
S"<Row {'updated_by': 1, 'title': 'No complete tes...elete_record': <function <lambda> at 0x331e140>}>"
p4635
sS'LI'
p4636
S"<class 'gluon.html.LI'>"
p4637
sS'right_sidebar_enabled'
p4638
g98
sS'IFRAME'
p4639
S"<class 'gluon.html.IFRAME'>"
p4640
sS'TD'
p4641
S"<class 'gluon.html.TD'>"
p4642
sS'PluginManager'
p4643
S"<class 'gluon.tools.PluginManager'>"
p4644
sS'IS_URL'
p4645
S"<class 'gluon.validators.IS_URL'>"
p4646
sS'A'
S"<class 'gluon.html.A'>"
p4647
sS'STYLE'
p4648
S"<class 'gluon.html.STYLE'>"
p4649
sS'IS_DATETIME_IN_RANGE'
p4650
S"<class 'gluon.validators.IS_DATETIME_IN_RANGE'>"
p4651
sS'IS_IMAGE'
p4652
S"<class 'gluon.validators.IS_IMAGE'>"
p4653
sS'I'
S"<class 'gluon.html.I'>"
p4654
sS'crud'
p4655
S'<gluon.tools.Crud object>'
p4656
sS'xmlescape'
p4657
S'<function xmlescape>'
p4658
sS'right_sidebar_style'
p4659
S'\'style="display: none;"\''
p4660
sS'IS_NOT_IN_DB'
p4661
S"<class 'gluon.validators.IS_NOT_IN_DB'>"
p4662
sg3248
S"<Storage {'body': <cStringIO.StringO object at 0...56c848>, 'view': 'information/publication.html'}>"
p4663
sS'THEAD'
p4664
S"<class 'gluon.html.THEAD'>"
p4665
sS'IS_NULL_OR'
p4666
S"<class 'gluon.validators.IS_EMPTY_OR'>"
p4667
sS'left_sidebar_style'
p4668
S'\'style="display: none;"\''
p4669
sg54
S"<Storage {'body': <cStringIO.StringO object at 0..._vars': <Storage {}>, 'post_vars': <Storage {}>}>"
p4670
sS'IS_EXPR'
p4671
S"<class 'gluon.validators.IS_EXPR'>"
p4672
sS'T'
S'<gluon.languages.translator object>'
p4673
sS'IS_IN_SET'
p4674
S"<class 'gluon.validators.IS_IN_SET'>"
p4675
sS'IS_UPLOAD_FILENAME'
p4676
S"<class 'gluon.validators.IS_UPLOAD_FILENAME'>"
p4677
sS'style_content'
p4678
S'\'style="width: 100%"\''
p4679
sS'IS_DECIMAL_IN_RANGE'
p4680
S"<class 'gluon.validators.IS_DECIMAL_IN_RANGE'>"
p4681
sssS'traceback'
p4682
S'Traceback (most recent call last):\n  File "/home/kaique/Projects/web2py/gluon/restricted.py", line 194, in restricted\n    exec ccode in environment\n  File "/home/kaique/Projects/web2py/applications/synopsis/views/information/publication.html", line 130, in <module>\nKeyError: 9\n'
p4683
s.