(dp1
S'output'
p2
S''
sS'layer'
p3
S'/home/kaique/Projects/web2py/applications/synopsis/controllers/information.py'
p4
sS'code'
p5
S"# -*- coding: utf-8 -*-\nimport functions as f # shorthand function\n\n@auth.requires_login()\ndef index(): # Show the all content for redirect to profile\n\tsubject = f.get_table(db, 'subject', order='created_on')\n\treturn { 'subject': subject }\n\n@auth.requires_login()\ndef profile(): # Show the profile of subject\n\targs = request.args # query url's\n\tif args: \n\t\tprofile = f.get_table(db, 'subject', id=args[0]) \n\t\tsession.index = args[0] \n\tif not args or not profile: return redirect( URL('index') )\n\treturn { 'profile': profile }\n\n@auth.requires_login()\ndef publication(): # Show the publication profile\n\targs = request.args # query url's\n\tcount_equals = f.count_equals\n\tif args: \n\t\tpublication = f.get_table(db, 'publication', id=args[0])\n\t\tsession.back = args[0] \n\tif not args or not publication: return redirect( URL('profile') )\n\treturn { 'publication': publication, \n\t\t\t 'count_equals': count_equals }\n\n@auth.requires_login()\ndef new(): # Create a new subject\n\targs = request.args\n\t\n\tif not args:\n\t\ttitle = 'Subject'\n\t\tsubject = SQLFORM(db.subject, fields=['name'])\n\t\tsubject.elements(_type='submit')[0]['_value'] = 'Create'\n\t\t\n\t\tif subject.process().accepted:\n\t\t\tresponse.flash = T('{0} {1} {2}'.format('New', title.lower(), 'inserted!'))\n\t\telif subject.errors:\n\t\t\tresponse.flash = T('Sorry, try again!')\n\t\telse:\n\t\t\tresponse.flah = T('Please, fill the field...')\n\t\t\t\n\t\treturn { 'form': subject, \n\t\t\t \t 'title': title }\n\t\n\telif args[0] == 'publication':\n\t\ttitle = 'Publication'\n\t\tpublication = SQLFORM(db.publication, fields=['title', 'sub_title'])\n\t\tpublication.vars.subject_id = args[1]\n\t\tif publication.process().accepted:\n\t\t\tresponse.flash = T(T('{0} {1} {2}'.format('New', title.lower(), 'inserted!')))\n\t\telif publication.errors:\n\t\t\tresponse.flash = T('Sorry, try again!')\n\t\telse:\n\t\t\tresponse.flahs = T('Please, fill the field...')\n\t\n\t\treturn { 'form': publication,\n\t\t\t\t 'title': title }\n\t\t\t\t \n\telif args[0] == 'quote':\n\t\ttitle = 'Quote'\n\t\tquote = SQLFORM(db.quote, fields=['content'])\n\t\tquote.vars.publication_id = args[1]\n\t\tif quote.process().accepted:\n\t\t\tresponse.flash = T(T('{0} {1} {2}'.format('New', title.lower(), 'inserted!')))\n\t\telif quote.errors:\n\t\t\tresponse.flash = T('Sorry, try again!')\n\t\telse:\n\t\t\tresponse.flahs = T('Please, fill the field...')\n\t\n\t\treturn { 'form': quote,\n\t\t\t\t 'title': title }\n\t\t\t\t \n\telif args[0] == 'column':\n\t\ttitle = 'Topic'\n\t\tcolumn = SQLFORM(db.column, fields=['title'])\n\t\tcolumn.vars.publication_id = args[1]\n\t\tif column.process().accepted:\n\t\t\tresponse.flash = T(T('{0} {1} {2}'.format('New', title.lower(), 'inserted!')))\n\t\telif column.errors:\n\t\t\tresponse.flash = T('Sorry, try again!')\n\t\telse:\n\t\t\tresponse.flahs = T('Please, fill the field...')\n\t\n\t\treturn { 'form': column,\n\t\t\t\t 'title': title }\n\t\n\telif args[0] == 'line':\n\t\ttitle = 'Line'\n:\n\t\tif column.process().accepted:\n\t\t\tresponse.flash = T(T('{0} {1} {2}'.format('New', title.lower(), 'inserted!')))\n\t\telif column.errors:\n\t\t\tresponse.flash = T('Sorry, try again!')\n\t\telse:\n\t\t\tresponse.flahs = T('Please, fill the field...')\n\t:\n\t\treturn { 'form': column,\n\t\t\t\t 'title': title }\n\t\t\t\t \n\telif args[0] == 'row':\n\t\ttitle = 'Row for {0}'.format(db.column(args[1])['title'])\n\t\trow = SQLFORM(db.row, fields=['content'])\n\t\trow.vars.column_id = args[1]\n\t\tif row.process().accepted:\n\t\t\tresponse.flash = T(T('{0} {1} {2}'.format('New', title.lower(), 'inserted!')))\n\t\telif row.errors:\n\t\t\tresponse.flash = T('Sorry, try again!')\n\t\telse:\n\t\t\tresponse.flahs = T('Please, fill the field...')\n\t\n\t\treturn { 'form': row,\n\t\t\t\t 'title': title }\n\t\t\t \t \n@auth.requires_login()\ndef edit(): # Edit the subject\n\treturn {}\n\nresponse._vars=response._caller(new)\n"
p6
sS'snapshot'
p7
(dp8
S'exception'
p9
(dp10
S'__getslice__'
p11
S"<method-wrapper '__getslice__' of exceptions.SyntaxError object>"
p12
sS'text'
p13
S"':\\n'"
p14
sS'__str__'
p15
S"<method-wrapper '__str__' of exceptions.SyntaxError object>"
p16
sS'__reduce__'
p17
S'<built-in method __reduce__ of exceptions.SyntaxError object>'
p18
sS'__dict__'
p19
S'{}'
p20
sS'__sizeof__'
p21
S'<built-in method __sizeof__ of exceptions.SyntaxError object>'
p22
sS'__init__'
p23
S"<method-wrapper '__init__' of exceptions.SyntaxError object>"
p24
sS'__setattr__'
p25
S"<method-wrapper '__setattr__' of exceptions.SyntaxError object>"
p26
sS'__reduce_ex__'
p27
S'<built-in method __reduce_ex__ of exceptions.SyntaxError object>'
p28
sS'__new__'
p29
S'<built-in method __new__ of type object>'
p30
sS'__format__'
p31
S'<built-in method __format__ of exceptions.SyntaxError object>'
p32
sS'__class__'
p33
S"<type 'exceptions.SyntaxError'>"
p34
sS'filename'
p35
S"'/home/kaique/Projects/web2py/applications/synopsis/controllers/information.py'"
p36
sS'lineno'
p37
S'92'
p38
sS'msg'
p39
S"'invalid syntax'"
p40
sS'__doc__'
p41
S"'Invalid syntax.'"
p42
sS'__getitem__'
p43
S"<method-wrapper '__getitem__' of exceptions.SyntaxError object>"
p44
sS'__setstate__'
p45
S'<built-in method __setstate__ of exceptions.SyntaxError object>'
p46
sS'__getattribute__'
p47
S"<method-wrapper '__getattribute__' of exceptions.SyntaxError object>"
p48
sS'print_file_and_line'
p49
S'None'
p50
sS'args'
p51
S"('invalid syntax', ('/home/kaique/Projects/web2py/applications/synopsis/controllers/information.py', 92, 1, ':\\n'))"
p52
sS'__subclasshook__'
p53
S'<built-in method __subclasshook__ of type object>'
p54
sS'offset'
p55
S'1'
sS'__unicode__'
p56
S'<built-in method __unicode__ of exceptions.SyntaxError object>'
p57
sS'__delattr__'
p58
S"<method-wrapper '__delattr__' of exceptions.SyntaxError object>"
p59
sS'__repr__'
p60
S"<method-wrapper '__repr__' of exceptions.SyntaxError object>"
p61
sS'__hash__'
p62
S"<method-wrapper '__hash__' of exceptions.SyntaxError object>"
p63
ssS'evalue'
p64
S'invalid syntax (information.py, line 92)'
p65
sS'request'
p66
ccopy_reg
_reconstructor
p67
(cgluon.html
BEAUTIFY
p68
c__builtin__
object
p69
NtRp70
(dp71
S'attributes'
p72
(dp73
sS'components'
p74
(lp75
g67
(cgluon.html
TABLE
p76
g69
NtRp77
(dp78
g72
(dp79
S'level'
p80
I5
ssS'parent'
p81
Nsg74
(lp82
g67
(cgluon.html
TR
p83
g69
NtRp84
(dp85
g72
(dp86
sg81
g77
sg74
(lp87
g67
(cgluon.html
TD
p88
g69
NtRp89
(dp90
g72
(dp91
S'_style'
p92
S'font-weight:bold;'
p93
ssg81
g84
sg74
(lp94
S'ajax'
p95
asbag67
(g88
g69
NtRp96
(dp97
g72
(dp98
S'_valign'
p99
S'top'
p100
ssg81
g84
sg74
(lp101
S':'
asbag67
(g88
g69
NtRp102
(dp103
g72
(dp104
sg81
g84
sg74
(lp105
g67
(g68
g69
NtRp106
(dp107
g72
(dp108
g80
I5
ssg81
g102
sg74
(lp109
S'False'
p110
asbasbasbag67
(g83
g69
NtRp111
(dp112
g72
(dp113
sg81
g77
sg74
(lp114
g67
(g88
g69
NtRp115
(dp116
g72
(dp117
g92
g93
ssg81
g111
sg74
(lp118
S'application'
p119
asbag67
(g88
g69
NtRp120
(dp121
g72
(dp122
g99
g100
ssg81
g111
sg74
(lp123
S':'
asbag67
(g88
g69
NtRp124
(dp125
g72
(dp126
sg81
g111
sg74
(lp127
g67
(g68
g69
NtRp128
(dp129
g72
(dp130
g80
I5
ssg81
g124
sg74
(lp131
S'synopsis'
p132
asbasbasbag67
(g83
g69
NtRp133
(dp134
g72
(dp135
sg81
g77
sg74
(lp136
g67
(g88
g69
NtRp137
(dp138
g72
(dp139
g92
g93
ssg81
g133
sg74
(lp140
g51
asbag67
(g88
g69
NtRp141
(dp142
g72
(dp143
g99
g100
ssg81
g133
sg74
(lp144
S':'
asbag67
(g88
g69
NtRp145
(dp146
g72
(dp147
sg81
g133
sg74
(lp148
g67
(g68
g69
NtRp149
(dp150
g72
(dp151
g80
I5
ssg81
g145
sg74
(lp152
g67
(g76
g69
NtRp153
(dp154
g72
(dp155
g80
I4
ssg81
Nsg74
(lp156
g67
(g83
g69
NtRp157
(dp158
g72
(dp159
sg81
g153
sg74
(lp160
g67
(g88
g69
NtRp161
(dp162
g72
(dp163
sg81
g157
sg74
(lp164
g67
(g68
g69
NtRp165
(dp166
g72
(dp167
g80
I4
ssg81
g161
sg74
(lp168
S'line'
p169
asbasbasbag67
(g83
g69
NtRp170
(dp171
g72
(dp172
sg81
g153
sg74
(lp173
g67
(g88
g69
NtRp174
(dp175
g72
(dp176
sg81
g170
sg74
(lp177
g67
(g68
g69
NtRp178
(dp179
g72
(dp180
g80
I4
ssg81
g174
sg74
(lp181
S'1'
asbasbasbasbasbasbasbag67
(g83
g69
NtRp182
(dp183
g72
(dp184
sg81
g77
sg74
(lp185
g67
(g88
g69
NtRp186
(dp187
g72
(dp188
g92
g93
ssg81
g182
sg74
(lp189
S'body'
p190
asbag67
(g88
g69
NtRp191
(dp192
g72
(dp193
g99
g100
ssg81
g182
sg74
(lp194
S':'
asbag67
(g88
g69
NtRp195
(dp196
g72
(dp197
sg81
g182
sg74
(lp198
g67
(g68
g69
NtRp199
(dp200
g72
(dp201
g80
I5
ssg81
g195
sg74
(lp202
S'<cStringIO.StringO object at 0x3a50f80>'
p203
asbasbasbag67
(g83
g69
NtRp204
(dp205
g72
(dp206
sg81
g77
sg74
(lp207
g67
(g88
g69
NtRp208
(dp209
g72
(dp210
g92
g93
ssg81
g204
sg74
(lp211
S'client'
p212
asbag67
(g88
g69
NtRp213
(dp214
g72
(dp215
g99
g100
ssg81
g204
sg74
(lp216
S':'
asbag67
(g88
g69
NtRp217
(dp218
g72
(dp219
sg81
g204
sg74
(lp220
g67
(g68
g69
NtRp221
(dp222
g72
(dp223
g80
I5
ssg81
g217
sg74
(lp224
S'127.0.0.1'
p225
asbasbasbag67
(g83
g69
NtRp226
(dp227
g72
(dp228
sg81
g77
sg74
(lp229
g67
(g88
g69
NtRp230
(dp231
g72
(dp232
g92
g93
ssg81
g226
sg74
(lp233
S'controller'
p234
asbag67
(g88
g69
NtRp235
(dp236
g72
(dp237
g99
g100
ssg81
g226
sg74
(lp238
S':'
asbag67
(g88
g69
NtRp239
(dp240
g72
(dp241
sg81
g226
sg74
(lp242
g67
(g68
g69
NtRp243
(dp244
g72
(dp245
g80
I5
ssg81
g239
sg74
(lp246
S'information'
p247
asbasbasbag67
(g83
g69
NtRp248
(dp249
g72
(dp250
sg81
g77
sg74
(lp251
g67
(g88
g69
NtRp252
(dp253
g72
(dp254
g92
g93
ssg81
g248
sg74
(lp255
S'cookies'
p256
asbag67
(g88
g69
NtRp257
(dp258
g72
(dp259
g99
g100
ssg81
g248
sg74
(lp260
S':'
asbag67
(g88
g69
NtRp261
(dp262
g72
(dp263
sg81
g248
sg74
(lp264
g67
(g68
g69
NtRp265
(dp266
g72
(dp267
g80
I5
ssg81
g261
sg74
(lp268
g67
(g76
g69
NtRp269
(dp270
g72
(dp271
g80
I4
ssg81
Nsg74
(lp272
g67
(g83
g69
NtRp273
(dp274
g72
(dp275
sg81
g269
sg74
(lp276
g67
(g88
g69
NtRp277
(dp278
g72
(dp279
g92
g93
ssg81
g273
sg74
(lp280
S'currency'
p281
asbag67
(g88
g69
NtRp282
(dp283
g72
(dp284
g99
g100
ssg81
g273
sg74
(lp285
S':'
asbag67
(g88
g69
NtRp286
(dp287
g72
(dp288
sg81
g273
sg74
(lp289
g67
(g68
g69
NtRp290
(dp291
g72
(dp292
g80
I4
ssg81
g286
sg74
(lp293
g67
(g76
g69
NtRp294
(dp295
g72
(dp296
g80
I3
ssg81
Nsg74
(lp297
g67
(g83
g69
NtRp298
(dp299
g72
(dp300
sg81
g294
sg74
(lp301
g67
(g88
g69
NtRp302
(dp303
g72
(dp304
g92
g93
ssg81
g298
sg74
(lp305
S'comment'
p306
asbag67
(g88
g69
NtRp307
(dp308
g72
(dp309
g99
g100
ssg81
g298
sg74
(lp310
S':'
asbag67
(g88
g69
NtRp311
(dp312
g72
(dp313
sg81
g298
sg74
(lp314
g67
(g68
g69
NtRp315
(dp316
g72
(dp317
g80
I3
ssg81
g311
sg74
(lp318
S''
asbasbasbag67
(g83
g69
NtRp319
(dp320
g72
(dp321
sg81
g294
sg74
(lp322
g67
(g88
g69
NtRp323
(dp324
g72
(dp325
g92
g93
ssg81
g319
sg74
(lp326
S'domain'
p327
asbag67
(g88
g69
NtRp328
(dp329
g72
(dp330
g99
g100
ssg81
g319
sg74
(lp331
S':'
asbag67
(g88
g69
NtRp332
(dp333
g72
(dp334
sg81
g319
sg74
(lp335
g67
(g68
g69
NtRp336
(dp337
g72
(dp338
g80
I3
ssg81
g332
sg74
(lp339
S''
asbasbasbag67
(g83
g69
NtRp340
(dp341
g72
(dp342
sg81
g294
sg74
(lp343
g67
(g88
g69
NtRp344
(dp345
g72
(dp346
g92
g93
ssg81
g340
sg74
(lp347
S'expires'
p348
asbag67
(g88
g69
NtRp349
(dp350
g72
(dp351
g99
g100
ssg81
g340
sg74
(lp352
S':'
asbag67
(g88
g69
NtRp353
(dp354
g72
(dp355
sg81
g340
sg74
(lp356
g67
(g68
g69
NtRp357
(dp358
g72
(dp359
g80
I3
ssg81
g353
sg74
(lp360
S''
asbasbasbag67
(g83
g69
NtRp361
(dp362
g72
(dp363
sg81
g294
sg74
(lp364
g67
(g88
g69
NtRp365
(dp366
g72
(dp367
g92
g93
ssg81
g361
sg74
(lp368
S'httponly'
p369
asbag67
(g88
g69
NtRp370
(dp371
g72
(dp372
g99
g100
ssg81
g361
sg74
(lp373
S':'
asbag67
(g88
g69
NtRp374
(dp375
g72
(dp376
sg81
g361
sg74
(lp377
g67
(g68
g69
NtRp378
(dp379
g72
(dp380
g80
I3
ssg81
g374
sg74
(lp381
S''
asbasbasbag67
(g83
g69
NtRp382
(dp383
g72
(dp384
sg81
g294
sg74
(lp385
g67
(g88
g69
NtRp386
(dp387
g72
(dp388
g92
g93
ssg81
g382
sg74
(lp389
S'max-age'
p390
asbag67
(g88
g69
NtRp391
(dp392
g72
(dp393
g99
g100
ssg81
g382
sg74
(lp394
S':'
asbag67
(g88
g69
NtRp395
(dp396
g72
(dp397
sg81
g382
sg74
(lp398
g67
(g68
g69
NtRp399
(dp400
g72
(dp401
g80
I3
ssg81
g395
sg74
(lp402
S''
asbasbasbag67
(g83
g69
NtRp403
(dp404
g72
(dp405
sg81
g294
sg74
(lp406
g67
(g88
g69
NtRp407
(dp408
g72
(dp409
g92
g93
ssg81
g403
sg74
(lp410
S'path'
p411
asbag67
(g88
g69
NtRp412
(dp413
g72
(dp414
g99
g100
ssg81
g403
sg74
(lp415
S':'
asbag67
(g88
g69
NtRp416
(dp417
g72
(dp418
sg81
g403
sg74
(lp419
g67
(g68
g69
NtRp420
(dp421
g72
(dp422
g80
I3
ssg81
g416
sg74
(lp423
S''
asbasbasbag67
(g83
g69
NtRp424
(dp425
g72
(dp426
sg81
g294
sg74
(lp427
g67
(g88
g69
NtRp428
(dp429
g72
(dp430
g92
g93
ssg81
g424
sg74
(lp431
S'secure'
p432
asbag67
(g88
g69
NtRp433
(dp434
g72
(dp435
g99
g100
ssg81
g424
sg74
(lp436
S':'
asbag67
(g88
g69
NtRp437
(dp438
g72
(dp439
sg81
g424
sg74
(lp440
g67
(g68
g69
NtRp441
(dp442
g72
(dp443
g80
I3
ssg81
g437
sg74
(lp444
S''
asbasbasbag67
(g83
g69
NtRp445
(dp446
g72
(dp447
sg81
g294
sg74
(lp448
g67
(g88
g69
NtRp449
(dp450
g72
(dp451
g92
g93
ssg81
g445
sg74
(lp452
S'version'
p453
asbag67
(g88
g69
NtRp454
(dp455
g72
(dp456
g99
g100
ssg81
g445
sg74
(lp457
S':'
asbag67
(g88
g69
NtRp458
(dp459
g72
(dp460
sg81
g445
sg74
(lp461
g67
(g68
g69
NtRp462
(dp463
g72
(dp464
g80
I3
ssg81
g458
sg74
(lp465
S''
asbasbasbasbasbasbasbag67
(g83
g69
NtRp466
(dp467
g72
(dp468
sg81
g269
sg74
(lp469
g67
(g88
g69
NtRp470
(dp471
g72
(dp472
g92
g93
ssg81
g466
sg74
(lp473
S'session_id_admin'
p474
asbag67
(g88
g69
NtRp475
(dp476
g72
(dp477
g99
g100
ssg81
g466
sg74
(lp478
S':'
asbag67
(g88
g69
NtRp479
(dp480
g72
(dp481
sg81
g466
sg74
(lp482
g67
(g68
g69
NtRp483
(dp484
g72
(dp485
g80
I4
ssg81
g479
sg74
(lp486
g67
(g76
g69
NtRp487
(dp488
g72
(dp489
g80
I3
ssg81
Nsg74
(lp490
g67
(g83
g69
NtRp491
(dp492
g72
(dp493
sg81
g487
sg74
(lp494
g67
(g88
g69
NtRp495
(dp496
g72
(dp497
g92
g93
ssg81
g491
sg74
(lp498
g306
asbag67
(g88
g69
NtRp499
(dp500
g72
(dp501
g99
g100
ssg81
g491
sg74
(lp502
S':'
asbag67
(g88
g69
NtRp503
(dp504
g72
(dp505
sg81
g491
sg74
(lp506
g67
(g68
g69
NtRp507
(dp508
g72
(dp509
g80
I3
ssg81
g503
sg74
(lp510
S''
asbasbasbag67
(g83
g69
NtRp511
(dp512
g72
(dp513
sg81
g487
sg74
(lp514
g67
(g88
g69
NtRp515
(dp516
g72
(dp517
g92
g93
ssg81
g511
sg74
(lp518
g327
asbag67
(g88
g69
NtRp519
(dp520
g72
(dp521
g99
g100
ssg81
g511
sg74
(lp522
S':'
asbag67
(g88
g69
NtRp523
(dp524
g72
(dp525
sg81
g511
sg74
(lp526
g67
(g68
g69
NtRp527
(dp528
g72
(dp529
g80
I3
ssg81
g523
sg74
(lp530
S''
asbasbasbag67
(g83
g69
NtRp531
(dp532
g72
(dp533
sg81
g487
sg74
(lp534
g67
(g88
g69
NtRp535
(dp536
g72
(dp537
g92
g93
ssg81
g531
sg74
(lp538
g348
asbag67
(g88
g69
NtRp539
(dp540
g72
(dp541
g99
g100
ssg81
g531
sg74
(lp542
S':'
asbag67
(g88
g69
NtRp543
(dp544
g72
(dp545
sg81
g531
sg74
(lp546
g67
(g68
g69
NtRp547
(dp548
g72
(dp549
g80
I3
ssg81
g543
sg74
(lp550
S''
asbasbasbag67
(g83
g69
NtRp551
(dp552
g72
(dp553
sg81
g487
sg74
(lp554
g67
(g88
g69
NtRp555
(dp556
g72
(dp557
g92
g93
ssg81
g551
sg74
(lp558
g369
asbag67
(g88
g69
NtRp559
(dp560
g72
(dp561
g99
g100
ssg81
g551
sg74
(lp562
S':'
asbag67
(g88
g69
NtRp563
(dp564
g72
(dp565
sg81
g551
sg74
(lp566
g67
(g68
g69
NtRp567
(dp568
g72
(dp569
g80
I3
ssg81
g563
sg74
(lp570
S''
asbasbasbag67
(g83
g69
NtRp571
(dp572
g72
(dp573
sg81
g487
sg74
(lp574
g67
(g88
g69
NtRp575
(dp576
g72
(dp577
g92
g93
ssg81
g571
sg74
(lp578
g390
asbag67
(g88
g69
NtRp579
(dp580
g72
(dp581
g99
g100
ssg81
g571
sg74
(lp582
S':'
asbag67
(g88
g69
NtRp583
(dp584
g72
(dp585
sg81
g571
sg74
(lp586
g67
(g68
g69
NtRp587
(dp588
g72
(dp589
g80
I3
ssg81
g583
sg74
(lp590
S''
asbasbasbag67
(g83
g69
NtRp591
(dp592
g72
(dp593
sg81
g487
sg74
(lp594
g67
(g88
g69
NtRp595
(dp596
g72
(dp597
g92
g93
ssg81
g591
sg74
(lp598
g411
asbag67
(g88
g69
NtRp599
(dp600
g72
(dp601
g99
g100
ssg81
g591
sg74
(lp602
S':'
asbag67
(g88
g69
NtRp603
(dp604
g72
(dp605
sg81
g591
sg74
(lp606
g67
(g68
g69
NtRp607
(dp608
g72
(dp609
g80
I3
ssg81
g603
sg74
(lp610
S''
asbasbasbag67
(g83
g69
NtRp611
(dp612
g72
(dp613
sg81
g487
sg74
(lp614
g67
(g88
g69
NtRp615
(dp616
g72
(dp617
g92
g93
ssg81
g611
sg74
(lp618
g432
asbag67
(g88
g69
NtRp619
(dp620
g72
(dp621
g99
g100
ssg81
g611
sg74
(lp622
S':'
asbag67
(g88
g69
NtRp623
(dp624
g72
(dp625
sg81
g611
sg74
(lp626
g67
(g68
g69
NtRp627
(dp628
g72
(dp629
g80
I3
ssg81
g623
sg74
(lp630
S''
asbasbasbag67
(g83
g69
NtRp631
(dp632
g72
(dp633
sg81
g487
sg74
(lp634
g67
(g88
g69
NtRp635
(dp636
g72
(dp637
g92
g93
ssg81
g631
sg74
(lp638
g453
asbag67
(g88
g69
NtRp639
(dp640
g72
(dp641
g99
g100
ssg81
g631
sg74
(lp642
S':'
asbag67
(g88
g69
NtRp643
(dp644
g72
(dp645
sg81
g631
sg74
(lp646
g67
(g68
g69
NtRp647
(dp648
g72
(dp649
g80
I3
ssg81
g643
sg74
(lp650
S''
asbasbasbasbasbasbasbag67
(g83
g69
NtRp651
(dp652
g72
(dp653
sg81
g269
sg74
(lp654
g67
(g88
g69
NtRp655
(dp656
g72
(dp657
g92
g93
ssg81
g651
sg74
(lp658
S'session_id_synopsis'
p659
asbag67
(g88
g69
NtRp660
(dp661
g72
(dp662
g99
g100
ssg81
g651
sg74
(lp663
S':'
asbag67
(g88
g69
NtRp664
(dp665
g72
(dp666
sg81
g651
sg74
(lp667
g67
(g68
g69
NtRp668
(dp669
g72
(dp670
g80
I4
ssg81
g664
sg74
(lp671
g67
(g76
g69
NtRp672
(dp673
g72
(dp674
g80
I3
ssg81
Nsg74
(lp675
g67
(g83
g69
NtRp676
(dp677
g72
(dp678
sg81
g672
sg74
(lp679
g67
(g88
g69
NtRp680
(dp681
g72
(dp682
g92
g93
ssg81
g676
sg74
(lp683
g306
asbag67
(g88
g69
NtRp684
(dp685
g72
(dp686
g99
g100
ssg81
g676
sg74
(lp687
S':'
asbag67
(g88
g69
NtRp688
(dp689
g72
(dp690
sg81
g676
sg74
(lp691
g67
(g68
g69
NtRp692
(dp693
g72
(dp694
g80
I3
ssg81
g688
sg74
(lp695
S''
asbasbasbag67
(g83
g69
NtRp696
(dp697
g72
(dp698
sg81
g672
sg74
(lp699
g67
(g88
g69
NtRp700
(dp701
g72
(dp702
g92
g93
ssg81
g696
sg74
(lp703
g327
asbag67
(g88
g69
NtRp704
(dp705
g72
(dp706
g99
g100
ssg81
g696
sg74
(lp707
S':'
asbag67
(g88
g69
NtRp708
(dp709
g72
(dp710
sg81
g696
sg74
(lp711
g67
(g68
g69
NtRp712
(dp713
g72
(dp714
g80
I3
ssg81
g708
sg74
(lp715
S''
asbasbasbag67
(g83
g69
NtRp716
(dp717
g72
(dp718
sg81
g672
sg74
(lp719
g67
(g88
g69
NtRp720
(dp721
g72
(dp722
g92
g93
ssg81
g716
sg74
(lp723
g348
asbag67
(g88
g69
NtRp724
(dp725
g72
(dp726
g99
g100
ssg81
g716
sg74
(lp727
S':'
asbag67
(g88
g69
NtRp728
(dp729
g72
(dp730
sg81
g716
sg74
(lp731
g67
(g68
g69
NtRp732
(dp733
g72
(dp734
g80
I3
ssg81
g728
sg74
(lp735
S''
asbasbasbag67
(g83
g69
NtRp736
(dp737
g72
(dp738
sg81
g672
sg74
(lp739
g67
(g88
g69
NtRp740
(dp741
g72
(dp742
g92
g93
ssg81
g736
sg74
(lp743
g369
asbag67
(g88
g69
NtRp744
(dp745
g72
(dp746
g99
g100
ssg81
g736
sg74
(lp747
S':'
asbag67
(g88
g69
NtRp748
(dp749
g72
(dp750
sg81
g736
sg74
(lp751
g67
(g68
g69
NtRp752
(dp753
g72
(dp754
g80
I3
ssg81
g748
sg74
(lp755
S''
asbasbasbag67
(g83
g69
NtRp756
(dp757
g72
(dp758
sg81
g672
sg74
(lp759
g67
(g88
g69
NtRp760
(dp761
g72
(dp762
g92
g93
ssg81
g756
sg74
(lp763
g390
asbag67
(g88
g69
NtRp764
(dp765
g72
(dp766
g99
g100
ssg81
g756
sg74
(lp767
S':'
asbag67
(g88
g69
NtRp768
(dp769
g72
(dp770
sg81
g756
sg74
(lp771
g67
(g68
g69
NtRp772
(dp773
g72
(dp774
g80
I3
ssg81
g768
sg74
(lp775
S''
asbasbasbag67
(g83
g69
NtRp776
(dp777
g72
(dp778
sg81
g672
sg74
(lp779
g67
(g88
g69
NtRp780
(dp781
g72
(dp782
g92
g93
ssg81
g776
sg74
(lp783
g411
asbag67
(g88
g69
NtRp784
(dp785
g72
(dp786
g99
g100
ssg81
g776
sg74
(lp787
S':'
asbag67
(g88
g69
NtRp788
(dp789
g72
(dp790
sg81
g776
sg74
(lp791
g67
(g68
g69
NtRp792
(dp793
g72
(dp794
g80
I3
ssg81
g788
sg74
(lp795
S''
asbasbasbag67
(g83
g69
NtRp796
(dp797
g72
(dp798
sg81
g672
sg74
(lp799
g67
(g88
g69
NtRp800
(dp801
g72
(dp802
g92
g93
ssg81
g796
sg74
(lp803
g432
asbag67
(g88
g69
NtRp804
(dp805
g72
(dp806
g99
g100
ssg81
g796
sg74
(lp807
S':'
asbag67
(g88
g69
NtRp808
(dp809
g72
(dp810
sg81
g796
sg74
(lp811
g67
(g68
g69
NtRp812
(dp813
g72
(dp814
g80
I3
ssg81
g808
sg74
(lp815
S''
asbasbasbag67
(g83
g69
NtRp816
(dp817
g72
(dp818
sg81
g672
sg74
(lp819
g67
(g88
g69
NtRp820
(dp821
g72
(dp822
g92
g93
ssg81
g816
sg74
(lp823
g453
asbag67
(g88
g69
NtRp824
(dp825
g72
(dp826
g99
g100
ssg81
g816
sg74
(lp827
S':'
asbag67
(g88
g69
NtRp828
(dp829
g72
(dp830
sg81
g816
sg74
(lp831
g67
(g68
g69
NtRp832
(dp833
g72
(dp834
g80
I3
ssg81
g828
sg74
(lp835
S''
asbasbasbasbasbasbasbasbasbasbasbag67
(g83
g69
NtRp836
(dp837
g72
(dp838
sg81
g77
sg74
(lp839
g67
(g88
g69
NtRp840
(dp841
g72
(dp842
g92
g93
ssg81
g836
sg74
(lp843
S'env'
p844
asbag67
(g88
g69
NtRp845
(dp846
g72
(dp847
g99
g100
ssg81
g836
sg74
(lp848
S':'
asbag67
(g88
g69
NtRp849
(dp850
g72
(dp851
sg81
g836
sg74
(lp852
g67
(g68
g69
NtRp853
(dp854
g72
(dp855
g80
I5
ssg81
g849
sg74
(lp856
g67
(g76
g69
NtRp857
(dp858
g72
(dp859
g80
I4
ssg81
Nsg74
(lp860
g67
(g83
g69
NtRp861
(dp862
g72
(dp863
sg81
g857
sg74
(lp864
g67
(g88
g69
NtRp865
(dp866
g72
(dp867
g92
g93
ssg81
g861
sg74
(lp868
S'app_folders'
p869
asbag67
(g88
g69
NtRp870
(dp871
g72
(dp872
g99
g100
ssg81
g861
sg74
(lp873
S':'
asbag67
(g88
g69
NtRp874
(dp875
g72
(dp876
sg81
g861
sg74
(lp877
g67
(g68
g69
NtRp878
(dp879
g72
(dp880
g80
I4
ssg81
g874
sg74
(lp881
S"set(['/home/kaique/Projects/web2py/applications/carstore/', '/home/kaique/Projects/web2py/applications/synopsis/', '/home/kaique/Projects/web2py/applications/admin/'])"
p882
asbasbasbag67
(g83
g69
NtRp883
(dp884
g72
(dp885
sg81
g857
sg74
(lp886
g67
(g88
g69
NtRp887
(dp888
g72
(dp889
g92
g93
ssg81
g883
sg74
(lp890
S'applications_parent'
p891
asbag67
(g88
g69
NtRp892
(dp893
g72
(dp894
g99
g100
ssg81
g883
sg74
(lp895
S':'
asbag67
(g88
g69
NtRp896
(dp897
g72
(dp898
sg81
g883
sg74
(lp899
g67
(g68
g69
NtRp900
(dp901
g72
(dp902
g80
I4
ssg81
g896
sg74
(lp903
S'/home/kaique/Projects/web2py'
p904
asbasbasbag67
(g83
g69
NtRp905
(dp906
g72
(dp907
sg81
g857
sg74
(lp908
g67
(g88
g69
NtRp909
(dp910
g72
(dp911
g92
g93
ssg81
g905
sg74
(lp912
S'cmd_args'
p913
asbag67
(g88
g69
NtRp914
(dp915
g72
(dp916
g99
g100
ssg81
g905
sg74
(lp917
S':'
asbag67
(g88
g69
NtRp918
(dp919
g72
(dp920
sg81
g905
sg74
(lp921
g67
(g68
g69
NtRp922
(dp923
g72
(dp924
g80
I4
ssg81
g918
sg74
(lp925
g67
(g76
g69
NtRp926
(dp927
g72
(dp928
g80
I3
ssg81
Nsg74
(lp929
sbasbasbasbag67
(g83
g69
NtRp930
(dp931
g72
(dp932
sg81
g857
sg74
(lp933
g67
(g88
g69
NtRp934
(dp935
g72
(dp936
g92
g93
ssg81
g930
sg74
(lp937
S'cmd_options'
p938
asbag67
(g88
g69
NtRp939
(dp940
g72
(dp941
g99
g100
ssg81
g930
sg74
(lp942
S':'
asbag67
(g88
g69
NtRp943
(dp944
g72
(dp945
sg81
g930
sg74
(lp946
g67
(g68
g69
NtRp947
(dp948
g72
(dp949
g80
I4
ssg81
g943
sg74
(lp950
S"<Values at 0x228d950: {'verbose': False, 'ip': '127.0.0.1', 'shutdown_timeout': 5, 'taskbar': False, 'nocron': False, 'pid_filename': 'httpserver.pid', 'maxthreads': None, 'softcron': False, 'server_name': 'kaique-Pine-Trail-M', 'bpython': False, 'nogui': False, 'port': 8000, 'extcron': False, 'debuglevel': 30, 'test': None, 'folder': '/home/kaique/Projects/web2py', 'config': '', 'import_models': False, 'winservice': '', 'shell': None, 'run': '', 'log_filename': 'httpserver.log', 'args': [''], 'ssl_ca_certificate': None, 'scheduler': None, 'profiler_filename': None, 'ssl_private_key': '', 'password': 'dev', 'request_queue_size': 5, 'ssl_certificate': '', 'cronjob': False, 'plain': False, 'quiet': False, 'interfaces': None, 'minthreads': None, 'timeout': 10, 'numthreads': None, 'nobanner': False}>"
p951
asbasbasbag67
(g83
g69
NtRp952
(dp953
g72
(dp954
sg81
g857
sg74
(lp955
g67
(g88
g69
NtRp956
(dp957
g72
(dp958
g92
g93
ssg81
g952
sg74
(lp959
S'db_sessions'
p960
asbag67
(g88
g69
NtRp961
(dp962
g72
(dp963
g99
g100
ssg81
g952
sg74
(lp964
S':'
asbag67
(g88
g69
NtRp965
(dp966
g72
(dp967
sg81
g952
sg74
(lp968
g67
(g68
g69
NtRp969
(dp970
g72
(dp971
g80
I4
ssg81
g965
sg74
(lp972
S'set([])'
p973
asbasbasbag67
(g83
g69
NtRp974
(dp975
g72
(dp976
sg81
g857
sg74
(lp977
g67
(g88
g69
NtRp978
(dp979
g72
(dp980
g92
g93
ssg81
g974
sg74
(lp981
S'debugging'
p982
asbag67
(g88
g69
NtRp983
(dp984
g72
(dp985
g99
g100
ssg81
g974
sg74
(lp986
S':'
asbag67
(g88
g69
NtRp987
(dp988
g72
(dp989
sg81
g974
sg74
(lp990
g67
(g68
g69
NtRp991
(dp992
g72
(dp993
g80
I4
ssg81
g987
sg74
(lp994
g110
asbasbasbag67
(g83
g69
NtRp995
(dp996
g72
(dp997
sg81
g857
sg74
(lp998
g67
(g88
g69
NtRp999
(dp1000
g72
(dp1001
g92
g93
ssg81
g995
sg74
(lp1002
S'gluon_parent'
p1003
asbag67
(g88
g69
NtRp1004
(dp1005
g72
(dp1006
g99
g100
ssg81
g995
sg74
(lp1007
S':'
asbag67
(g88
g69
NtRp1008
(dp1009
g72
(dp1010
sg81
g995
sg74
(lp1011
g67
(g68
g69
NtRp1012
(dp1013
g72
(dp1014
g80
I4
ssg81
g1008
sg74
(lp1015
S'/home/kaique/Projects/web2py'
p1016
asbasbasbag67
(g83
g69
NtRp1017
(dp1018
g72
(dp1019
sg81
g857
sg74
(lp1020
g67
(g88
g69
NtRp1021
(dp1022
g72
(dp1023
g92
g93
ssg81
g1017
sg74
(lp1024
S'http_accept'
p1025
asbag67
(g88
g69
NtRp1026
(dp1027
g72
(dp1028
g99
g100
ssg81
g1017
sg74
(lp1029
S':'
asbag67
(g88
g69
NtRp1030
(dp1031
g72
(dp1032
sg81
g1017
sg74
(lp1033
g67
(g68
g69
NtRp1034
(dp1035
g72
(dp1036
g80
I4
ssg81
g1030
sg74
(lp1037
S'text/html,application/xhtml+xml,application/xml;q=0.9,*/*;q=0.8'
p1038
asbasbasbag67
(g83
g69
NtRp1039
(dp1040
g72
(dp1041
sg81
g857
sg74
(lp1042
g67
(g88
g69
NtRp1043
(dp1044
g72
(dp1045
g92
g93
ssg81
g1039
sg74
(lp1046
S'http_accept_charset'
p1047
asbag67
(g88
g69
NtRp1048
(dp1049
g72
(dp1050
g99
g100
ssg81
g1039
sg74
(lp1051
S':'
asbag67
(g88
g69
NtRp1052
(dp1053
g72
(dp1054
sg81
g1039
sg74
(lp1055
g67
(g68
g69
NtRp1056
(dp1057
g72
(dp1058
g80
I4
ssg81
g1052
sg74
(lp1059
S'ISO-8859-1,utf-8;q=0.7,*;q=0.7'
p1060
asbasbasbag67
(g83
g69
NtRp1061
(dp1062
g72
(dp1063
sg81
g857
sg74
(lp1064
g67
(g88
g69
NtRp1065
(dp1066
g72
(dp1067
g92
g93
ssg81
g1061
sg74
(lp1068
S'http_accept_encoding'
p1069
asbag67
(g88
g69
NtRp1070
(dp1071
g72
(dp1072
g99
g100
ssg81
g1061
sg74
(lp1073
S':'
asbag67
(g88
g69
NtRp1074
(dp1075
g72
(dp1076
sg81
g1061
sg74
(lp1077
g67
(g68
g69
NtRp1078
(dp1079
g72
(dp1080
g80
I4
ssg81
g1074
sg74
(lp1081
S'gzip, deflate'
p1082
asbasbasbag67
(g83
g69
NtRp1083
(dp1084
g72
(dp1085
sg81
g857
sg74
(lp1086
g67
(g88
g69
NtRp1087
(dp1088
g72
(dp1089
g92
g93
ssg81
g1083
sg74
(lp1090
S'http_accept_language'
p1091
asbag67
(g88
g69
NtRp1092
(dp1093
g72
(dp1094
g99
g100
ssg81
g1083
sg74
(lp1095
S':'
asbag67
(g88
g69
NtRp1096
(dp1097
g72
(dp1098
sg81
g1083
sg74
(lp1099
g67
(g68
g69
NtRp1100
(dp1101
g72
(dp1102
g80
I4
ssg81
g1096
sg74
(lp1103
S'pt-br,pt;q=0.8,en-us;q=0.5,en;q=0.3'
p1104
asbasbasbag67
(g83
g69
NtRp1105
(dp1106
g72
(dp1107
sg81
g857
sg74
(lp1108
g67
(g88
g69
NtRp1109
(dp1110
g72
(dp1111
g92
g93
ssg81
g1105
sg74
(lp1112
S'http_cache_control'
p1113
asbag67
(g88
g69
NtRp1114
(dp1115
g72
(dp1116
g99
g100
ssg81
g1105
sg74
(lp1117
S':'
asbag67
(g88
g69
NtRp1118
(dp1119
g72
(dp1120
sg81
g1105
sg74
(lp1121
g67
(g68
g69
NtRp1122
(dp1123
g72
(dp1124
g80
I4
ssg81
g1118
sg74
(lp1125
S'max-age=0'
p1126
asbasbasbag67
(g83
g69
NtRp1127
(dp1128
g72
(dp1129
sg81
g857
sg74
(lp1130
g67
(g88
g69
NtRp1131
(dp1132
g72
(dp1133
g92
g93
ssg81
g1127
sg74
(lp1134
S'http_connection'
p1135
asbag67
(g88
g69
NtRp1136
(dp1137
g72
(dp1138
g99
g100
ssg81
g1127
sg74
(lp1139
S':'
asbag67
(g88
g69
NtRp1140
(dp1141
g72
(dp1142
sg81
g1127
sg74
(lp1143
g67
(g68
g69
NtRp1144
(dp1145
g72
(dp1146
g80
I4
ssg81
g1140
sg74
(lp1147
S'keep-alive'
p1148
asbasbasbag67
(g83
g69
NtRp1149
(dp1150
g72
(dp1151
sg81
g857
sg74
(lp1152
g67
(g88
g69
NtRp1153
(dp1154
g72
(dp1155
g92
g93
ssg81
g1149
sg74
(lp1156
S'http_cookie'
p1157
asbag67
(g88
g69
NtRp1158
(dp1159
g72
(dp1160
g99
g100
ssg81
g1149
sg74
(lp1161
S':'
asbag67
(g88
g69
NtRp1162
(dp1163
g72
(dp1164
sg81
g1149
sg74
(lp1165
g67
(g68
g69
NtRp1166
(dp1167
g72
(dp1168
g80
I4
ssg81
g1162
sg74
(lp1169
S'currency=GBP; session_id_synopsis=127.0.0.1-b4f447cc-7ffd-43f9-80d9-5b54dcde711e; session_id_admin=127.0.0.1-941ecd8a-e1ee-43ab-951d-bff31fe2852d'
p1170
asbasbasbag67
(g83
g69
NtRp1171
(dp1172
g72
(dp1173
sg81
g857
sg74
(lp1174
g67
(g88
g69
NtRp1175
(dp1176
g72
(dp1177
g92
g93
ssg81
g1171
sg74
(lp1178
S'http_host'
p1179
asbag67
(g88
g69
NtRp1180
(dp1181
g72
(dp1182
g99
g100
ssg81
g1171
sg74
(lp1183
S':'
asbag67
(g88
g69
NtRp1184
(dp1185
g72
(dp1186
sg81
g1171
sg74
(lp1187
g67
(g68
g69
NtRp1188
(dp1189
g72
(dp1190
g80
I4
ssg81
g1184
sg74
(lp1191
S'localhost:8000'
p1192
asbasbasbag67
(g83
g69
NtRp1193
(dp1194
g72
(dp1195
sg81
g857
sg74
(lp1196
g67
(g88
g69
NtRp1197
(dp1198
g72
(dp1199
g92
g93
ssg81
g1193
sg74
(lp1200
S'http_referer'
p1201
asbag67
(g88
g69
NtRp1202
(dp1203
g72
(dp1204
g99
g100
ssg81
g1193
sg74
(lp1205
S':'
asbag67
(g88
g69
NtRp1206
(dp1207
g72
(dp1208
sg81
g1193
sg74
(lp1209
g67
(g68
g69
NtRp1210
(dp1211
g72
(dp1212
g80
I4
ssg81
g1206
sg74
(lp1213
S'http://localhost:8000/synopsis/information/publication/1'
p1214
asbasbasbag67
(g83
g69
NtRp1215
(dp1216
g72
(dp1217
sg81
g857
sg74
(lp1218
g67
(g88
g69
NtRp1219
(dp1220
g72
(dp1221
g92
g93
ssg81
g1215
sg74
(lp1222
S'http_user_agent'
p1223
asbag67
(g88
g69
NtRp1224
(dp1225
g72
(dp1226
g99
g100
ssg81
g1215
sg74
(lp1227
S':'
asbag67
(g88
g69
NtRp1228
(dp1229
g72
(dp1230
sg81
g1215
sg74
(lp1231
g67
(g68
g69
NtRp1232
(dp1233
g72
(dp1234
g80
I4
ssg81
g1228
sg74
(lp1235
S'Mozilla/5.0 (Ubuntu; X11; Linux x86_64; rv:9.0.1) Gecko/20100101 Firefox/9.0.1'
p1236
asbasbasbag67
(g83
g69
NtRp1237
(dp1238
g72
(dp1239
sg81
g857
sg74
(lp1240
g67
(g88
g69
NtRp1241
(dp1242
g72
(dp1243
g92
g93
ssg81
g1237
sg74
(lp1244
S'is_jython'
p1245
asbag67
(g88
g69
NtRp1246
(dp1247
g72
(dp1248
g99
g100
ssg81
g1237
sg74
(lp1249
S':'
asbag67
(g88
g69
NtRp1250
(dp1251
g72
(dp1252
sg81
g1237
sg74
(lp1253
g67
(g68
g69
NtRp1254
(dp1255
g72
(dp1256
g80
I4
ssg81
g1250
sg74
(lp1257
g110
asbasbasbag67
(g83
g69
NtRp1258
(dp1259
g72
(dp1260
sg81
g857
sg74
(lp1261
g67
(g88
g69
NtRp1262
(dp1263
g72
(dp1264
g92
g93
ssg81
g1258
sg74
(lp1265
S'path_info'
p1266
asbag67
(g88
g69
NtRp1267
(dp1268
g72
(dp1269
g99
g100
ssg81
g1258
sg74
(lp1270
S':'
asbag67
(g88
g69
NtRp1271
(dp1272
g72
(dp1273
sg81
g1258
sg74
(lp1274
g67
(g68
g69
NtRp1275
(dp1276
g72
(dp1277
g80
I4
ssg81
g1271
sg74
(lp1278
S'/synopsis/information/new/line/1'
p1279
asbasbasbag67
(g83
g69
NtRp1280
(dp1281
g72
(dp1282
sg81
g857
sg74
(lp1283
g67
(g88
g69
NtRp1284
(dp1285
g72
(dp1286
g92
g93
ssg81
g1280
sg74
(lp1287
S'query_string'
p1288
asbag67
(g88
g69
NtRp1289
(dp1290
g72
(dp1291
g99
g100
ssg81
g1280
sg74
(lp1292
S':'
asbag67
(g88
g69
NtRp1293
(dp1294
g72
(dp1295
sg81
g1280
sg74
(lp1296
g67
(g68
g69
NtRp1297
(dp1298
g72
(dp1299
g80
I4
ssg81
g1293
sg74
(lp1300
S''
asbasbasbag67
(g83
g69
NtRp1301
(dp1302
g72
(dp1303
sg81
g857
sg74
(lp1304
g67
(g88
g69
NtRp1305
(dp1306
g72
(dp1307
g92
g93
ssg81
g1301
sg74
(lp1308
S'remote_addr'
p1309
asbag67
(g88
g69
NtRp1310
(dp1311
g72
(dp1312
g99
g100
ssg81
g1301
sg74
(lp1313
S':'
asbag67
(g88
g69
NtRp1314
(dp1315
g72
(dp1316
sg81
g1301
sg74
(lp1317
g67
(g68
g69
NtRp1318
(dp1319
g72
(dp1320
g80
I4
ssg81
g1314
sg74
(lp1321
g225
asbasbasbag67
(g83
g69
NtRp1322
(dp1323
g72
(dp1324
sg81
g857
sg74
(lp1325
g67
(g88
g69
NtRp1326
(dp1327
g72
(dp1328
g92
g93
ssg81
g1322
sg74
(lp1329
S'remote_port'
p1330
asbag67
(g88
g69
NtRp1331
(dp1332
g72
(dp1333
g99
g100
ssg81
g1322
sg74
(lp1334
S':'
asbag67
(g88
g69
NtRp1335
(dp1336
g72
(dp1337
sg81
g1322
sg74
(lp1338
g67
(g68
g69
NtRp1339
(dp1340
g72
(dp1341
g80
I4
ssg81
g1335
sg74
(lp1342
S'44683'
p1343
asbasbasbag67
(g83
g69
NtRp1344
(dp1345
g72
(dp1346
sg81
g857
sg74
(lp1347
g67
(g88
g69
NtRp1348
(dp1349
g72
(dp1350
g92
g93
ssg81
g1344
sg74
(lp1351
S'request_method'
p1352
asbag67
(g88
g69
NtRp1353
(dp1354
g72
(dp1355
g99
g100
ssg81
g1344
sg74
(lp1356
S':'
asbag67
(g88
g69
NtRp1357
(dp1358
g72
(dp1359
sg81
g1344
sg74
(lp1360
g67
(g68
g69
NtRp1361
(dp1362
g72
(dp1363
g80
I4
ssg81
g1357
sg74
(lp1364
S'GET'
p1365
asbasbasbag67
(g83
g69
NtRp1366
(dp1367
g72
(dp1368
sg81
g857
sg74
(lp1369
g67
(g88
g69
NtRp1370
(dp1371
g72
(dp1372
g92
g93
ssg81
g1366
sg74
(lp1373
S'script_name'
p1374
asbag67
(g88
g69
NtRp1375
(dp1376
g72
(dp1377
g99
g100
ssg81
g1366
sg74
(lp1378
S':'
asbag67
(g88
g69
NtRp1379
(dp1380
g72
(dp1381
sg81
g1366
sg74
(lp1382
g67
(g68
g69
NtRp1383
(dp1384
g72
(dp1385
g80
I4
ssg81
g1379
sg74
(lp1386
S''
asbasbasbag67
(g83
g69
NtRp1387
(dp1388
g72
(dp1389
sg81
g857
sg74
(lp1390
g67
(g88
g69
NtRp1391
(dp1392
g72
(dp1393
g92
g93
ssg81
g1387
sg74
(lp1394
S'server_name'
p1395
asbag67
(g88
g69
NtRp1396
(dp1397
g72
(dp1398
g99
g100
ssg81
g1387
sg74
(lp1399
S':'
asbag67
(g88
g69
NtRp1400
(dp1401
g72
(dp1402
sg81
g1387
sg74
(lp1403
g67
(g68
g69
NtRp1404
(dp1405
g72
(dp1406
g80
I4
ssg81
g1400
sg74
(lp1407
S'kaique-Pine-Trail-M'
p1408
asbasbasbag67
(g83
g69
NtRp1409
(dp1410
g72
(dp1411
sg81
g857
sg74
(lp1412
g67
(g88
g69
NtRp1413
(dp1414
g72
(dp1415
g92
g93
ssg81
g1409
sg74
(lp1416
S'server_port'
p1417
asbag67
(g88
g69
NtRp1418
(dp1419
g72
(dp1420
g99
g100
ssg81
g1409
sg74
(lp1421
S':'
asbag67
(g88
g69
NtRp1422
(dp1423
g72
(dp1424
sg81
g1409
sg74
(lp1425
g67
(g68
g69
NtRp1426
(dp1427
g72
(dp1428
g80
I4
ssg81
g1422
sg74
(lp1429
S'8000'
p1430
asbasbasbag67
(g83
g69
NtRp1431
(dp1432
g72
(dp1433
sg81
g857
sg74
(lp1434
g67
(g88
g69
NtRp1435
(dp1436
g72
(dp1437
g92
g93
ssg81
g1431
sg74
(lp1438
S'server_protocol'
p1439
asbag67
(g88
g69
NtRp1440
(dp1441
g72
(dp1442
g99
g100
ssg81
g1431
sg74
(lp1443
S':'
asbag67
(g88
g69
NtRp1444
(dp1445
g72
(dp1446
sg81
g1431
sg74
(lp1447
g67
(g68
g69
NtRp1448
(dp1449
g72
(dp1450
g80
I4
ssg81
g1444
sg74
(lp1451
S'HTTP/1.1'
p1452
asbasbasbag67
(g83
g69
NtRp1453
(dp1454
g72
(dp1455
sg81
g857
sg74
(lp1456
g67
(g88
g69
NtRp1457
(dp1458
g72
(dp1459
g92
g93
ssg81
g1453
sg74
(lp1460
S'server_software'
p1461
asbag67
(g88
g69
NtRp1462
(dp1463
g72
(dp1464
g99
g100
ssg81
g1453
sg74
(lp1465
S':'
asbag67
(g88
g69
NtRp1466
(dp1467
g72
(dp1468
sg81
g1453
sg74
(lp1469
g67
(g68
g69
NtRp1470
(dp1471
g72
(dp1472
g80
I4
ssg81
g1466
sg74
(lp1473
S'Rocket 1.2.4'
p1474
asbasbasbag67
(g83
g69
NtRp1475
(dp1476
g72
(dp1477
sg81
g857
sg74
(lp1478
g67
(g88
g69
NtRp1479
(dp1480
g72
(dp1481
g92
g93
ssg81
g1475
sg74
(lp1482
S'web2py_crontype'
p1483
asbag67
(g88
g69
NtRp1484
(dp1485
g72
(dp1486
g99
g100
ssg81
g1475
sg74
(lp1487
S':'
asbag67
(g88
g69
NtRp1488
(dp1489
g72
(dp1490
sg81
g1475
sg74
(lp1491
g67
(g68
g69
NtRp1492
(dp1493
g72
(dp1494
g80
I4
ssg81
g1488
sg74
(lp1495
S'hard'
p1496
asbasbasbag67
(g83
g69
NtRp1497
(dp1498
g72
(dp1499
sg81
g857
sg74
(lp1500
g67
(g88
g69
NtRp1501
(dp1502
g72
(dp1503
g92
g93
ssg81
g1497
sg74
(lp1504
S'web2py_path'
p1505
asbag67
(g88
g69
NtRp1506
(dp1507
g72
(dp1508
g99
g100
ssg81
g1497
sg74
(lp1509
S':'
asbag67
(g88
g69
NtRp1510
(dp1511
g72
(dp1512
sg81
g1497
sg74
(lp1513
g67
(g68
g69
NtRp1514
(dp1515
g72
(dp1516
g80
I4
ssg81
g1510
sg74
(lp1517
g904
asbasbasbag67
(g83
g69
NtRp1518
(dp1519
g72
(dp1520
sg81
g857
sg74
(lp1521
g67
(g88
g69
NtRp1522
(dp1523
g72
(dp1524
g92
g93
ssg81
g1518
sg74
(lp1525
S'web2py_version'
p1526
asbag67
(g88
g69
NtRp1527
(dp1528
g72
(dp1529
g99
g100
ssg81
g1518
sg74
(lp1530
S':'
asbag67
(g88
g69
NtRp1531
(dp1532
g72
(dp1533
sg81
g1518
sg74
(lp1534
g67
(g68
g69
NtRp1535
(dp1536
g72
(dp1537
g80
I4
ssg81
g1531
sg74
(lp1538
g67
(g76
g69
NtRp1539
(dp1540
g72
(dp1541
g80
I3
ssg81
Nsg74
(lp1542
g67
(g83
g69
NtRp1543
(dp1544
g72
(dp1545
sg81
g1539
sg74
(lp1546
g67
(g88
g69
NtRp1547
(dp1548
g72
(dp1549
sg81
g1543
sg74
(lp1550
g67
(g68
g69
NtRp1551
(dp1552
g72
(dp1553
g80
I3
ssg81
g1547
sg74
(lp1554
S'1'
asbasbasbag67
(g83
g69
NtRp1555
(dp1556
g72
(dp1557
sg81
g1539
sg74
(lp1558
g67
(g88
g69
NtRp1559
(dp1560
g72
(dp1561
sg81
g1555
sg74
(lp1562
g67
(g68
g69
NtRp1563
(dp1564
g72
(dp1565
g80
I3
ssg81
g1559
sg74
(lp1566
S'99'
p1567
asbasbasbag67
(g83
g69
NtRp1568
(dp1569
g72
(dp1570
sg81
g1539
sg74
(lp1571
g67
(g88
g69
NtRp1572
(dp1573
g72
(dp1574
sg81
g1568
sg74
(lp1575
g67
(g68
g69
NtRp1576
(dp1577
g72
(dp1578
g80
I3
ssg81
g1572
sg74
(lp1579
S'2'
asbasbasbag67
(g83
g69
NtRp1580
(dp1581
g72
(dp1582
sg81
g1539
sg74
(lp1583
g67
(g88
g69
NtRp1584
(dp1585
g72
(dp1586
sg81
g1580
sg74
(lp1587
g67
(g68
g69
NtRp1588
(dp1589
g72
(dp1590
g80
I3
ssg81
g1584
sg74
(lp1591
S'datetime.datetime(2011, 9, 26, 6, 55, 33)'
p1592
asbasbasbag67
(g83
g69
NtRp1593
(dp1594
g72
(dp1595
sg81
g1539
sg74
(lp1596
g67
(g88
g69
NtRp1597
(dp1598
g72
(dp1599
sg81
g1593
sg74
(lp1600
g67
(g68
g69
NtRp1601
(dp1602
g72
(dp1603
g80
I3
ssg81
g1597
sg74
(lp1604
S'stable'
p1605
asbasbasbasbasbasbasbag67
(g83
g69
NtRp1606
(dp1607
g72
(dp1608
sg81
g857
sg74
(lp1609
g67
(g88
g69
NtRp1610
(dp1611
g72
(dp1612
g92
g93
ssg81
g1606
sg74
(lp1613
S'wsgi_errors'
p1614
asbag67
(g88
g69
NtRp1615
(dp1616
g72
(dp1617
g99
g100
ssg81
g1606
sg74
(lp1618
S':'
asbag67
(g88
g69
NtRp1619
(dp1620
g72
(dp1621
sg81
g1606
sg74
(lp1622
g67
(g68
g69
NtRp1623
(dp1624
g72
(dp1625
g80
I4
ssg81
g1619
sg74
(lp1626
S"<open file '<stderr>', mode 'w' at 0x7f041f2b1270>"
p1627
asbasbasbag67
(g83
g69
NtRp1628
(dp1629
g72
(dp1630
sg81
g857
sg74
(lp1631
g67
(g88
g69
NtRp1632
(dp1633
g72
(dp1634
g92
g93
ssg81
g1628
sg74
(lp1635
S'wsgi_file_wrapper'
p1636
asbag67
(g88
g69
NtRp1637
(dp1638
g72
(dp1639
g99
g100
ssg81
g1628
sg74
(lp1640
S':'
asbag67
(g88
g69
NtRp1641
(dp1642
g72
(dp1643
sg81
g1628
sg74
(lp1644
g67
(g68
g69
NtRp1645
(dp1646
g72
(dp1647
g80
I4
ssg81
g1641
sg74
(lp1648
S'<class wsgiref.util.FileWrapper at 0x2144ef0>'
p1649
asbasbasbag67
(g83
g69
NtRp1650
(dp1651
g72
(dp1652
sg81
g857
sg74
(lp1653
g67
(g88
g69
NtRp1654
(dp1655
g72
(dp1656
g92
g93
ssg81
g1650
sg74
(lp1657
S'wsgi_input'
p1658
asbag67
(g88
g69
NtRp1659
(dp1660
g72
(dp1661
g99
g100
ssg81
g1650
sg74
(lp1662
S':'
asbag67
(g88
g69
NtRp1663
(dp1664
g72
(dp1665
sg81
g1650
sg74
(lp1666
g67
(g68
g69
NtRp1667
(dp1668
g72
(dp1669
g80
I4
ssg81
g1663
sg74
(lp1670
S'<socket._fileobject object at 0x3925950>'
p1671
asbasbasbag67
(g83
g69
NtRp1672
(dp1673
g72
(dp1674
sg81
g857
sg74
(lp1675
g67
(g88
g69
NtRp1676
(dp1677
g72
(dp1678
g92
g93
ssg81
g1672
sg74
(lp1679
S'wsgi_multiprocess'
p1680
asbag67
(g88
g69
NtRp1681
(dp1682
g72
(dp1683
g99
g100
ssg81
g1672
sg74
(lp1684
S':'
asbag67
(g88
g69
NtRp1685
(dp1686
g72
(dp1687
sg81
g1672
sg74
(lp1688
g67
(g68
g69
NtRp1689
(dp1690
g72
(dp1691
g80
I4
ssg81
g1685
sg74
(lp1692
g110
asbasbasbag67
(g83
g69
NtRp1693
(dp1694
g72
(dp1695
sg81
g857
sg74
(lp1696
g67
(g88
g69
NtRp1697
(dp1698
g72
(dp1699
g92
g93
ssg81
g1693
sg74
(lp1700
S'wsgi_multithread'
p1701
asbag67
(g88
g69
NtRp1702
(dp1703
g72
(dp1704
g99
g100
ssg81
g1693
sg74
(lp1705
S':'
asbag67
(g88
g69
NtRp1706
(dp1707
g72
(dp1708
sg81
g1693
sg74
(lp1709
g67
(g68
g69
NtRp1710
(dp1711
g72
(dp1712
g80
I4
ssg81
g1706
sg74
(lp1713
S'True'
p1714
asbasbasbag67
(g83
g69
NtRp1715
(dp1716
g72
(dp1717
sg81
g857
sg74
(lp1718
g67
(g88
g69
NtRp1719
(dp1720
g72
(dp1721
g92
g93
ssg81
g1715
sg74
(lp1722
S'wsgi_run_once'
p1723
asbag67
(g88
g69
NtRp1724
(dp1725
g72
(dp1726
g99
g100
ssg81
g1715
sg74
(lp1727
S':'
asbag67
(g88
g69
NtRp1728
(dp1729
g72
(dp1730
sg81
g1715
sg74
(lp1731
g67
(g68
g69
NtRp1732
(dp1733
g72
(dp1734
g80
I4
ssg81
g1728
sg74
(lp1735
g110
asbasbasbag67
(g83
g69
NtRp1736
(dp1737
g72
(dp1738
sg81
g857
sg74
(lp1739
g67
(g88
g69
NtRp1740
(dp1741
g72
(dp1742
g92
g93
ssg81
g1736
sg74
(lp1743
S'wsgi_url_scheme'
p1744
asbag67
(g88
g69
NtRp1745
(dp1746
g72
(dp1747
g99
g100
ssg81
g1736
sg74
(lp1748
S':'
asbag67
(g88
g69
NtRp1749
(dp1750
g72
(dp1751
sg81
g1736
sg74
(lp1752
g67
(g68
g69
NtRp1753
(dp1754
g72
(dp1755
g80
I4
ssg81
g1749
sg74
(lp1756
S'http'
p1757
asbasbasbag67
(g83
g69
NtRp1758
(dp1759
g72
(dp1760
sg81
g857
sg74
(lp1761
g67
(g88
g69
NtRp1762
(dp1763
g72
(dp1764
g92
g93
ssg81
g1758
sg74
(lp1765
S'wsgi_version'
p1766
asbag67
(g88
g69
NtRp1767
(dp1768
g72
(dp1769
g99
g100
ssg81
g1758
sg74
(lp1770
S':'
asbag67
(g88
g69
NtRp1771
(dp1772
g72
(dp1773
sg81
g1758
sg74
(lp1774
g67
(g68
g69
NtRp1775
(dp1776
g72
(dp1777
g80
I4
ssg81
g1771
sg74
(lp1778
g67
(g76
g69
NtRp1779
(dp1780
g72
(dp1781
g80
I3
ssg81
Nsg74
(lp1782
g67
(g83
g69
NtRp1783
(dp1784
g72
(dp1785
sg81
g1779
sg74
(lp1786
g67
(g88
g69
NtRp1787
(dp1788
g72
(dp1789
sg81
g1783
sg74
(lp1790
g67
(g68
g69
NtRp1791
(dp1792
g72
(dp1793
g80
I3
ssg81
g1787
sg74
(lp1794
S'1'
asbasbasbag67
(g83
g69
NtRp1795
(dp1796
g72
(dp1797
sg81
g1779
sg74
(lp1798
g67
(g88
g69
NtRp1799
(dp1800
g72
(dp1801
sg81
g1795
sg74
(lp1802
g67
(g68
g69
NtRp1803
(dp1804
g72
(dp1805
g80
I3
ssg81
g1799
sg74
(lp1806
S'0'
asbasbasbasbasbasbasbasbasbasbasbag67
(g83
g69
NtRp1807
(dp1808
g72
(dp1809
sg81
g77
sg74
(lp1810
g67
(g88
g69
NtRp1811
(dp1812
g72
(dp1813
g92
g93
ssg81
g1807
sg74
(lp1814
S'extension'
p1815
asbag67
(g88
g69
NtRp1816
(dp1817
g72
(dp1818
g99
g100
ssg81
g1807
sg74
(lp1819
S':'
asbag67
(g88
g69
NtRp1820
(dp1821
g72
(dp1822
sg81
g1807
sg74
(lp1823
g67
(g68
g69
NtRp1824
(dp1825
g72
(dp1826
g80
I5
ssg81
g1820
sg74
(lp1827
S'html'
p1828
asbasbasbag67
(g83
g69
NtRp1829
(dp1830
g72
(dp1831
sg81
g77
sg74
(lp1832
g67
(g88
g69
NtRp1833
(dp1834
g72
(dp1835
g92
g93
ssg81
g1829
sg74
(lp1836
S'folder'
p1837
asbag67
(g88
g69
NtRp1838
(dp1839
g72
(dp1840
g99
g100
ssg81
g1829
sg74
(lp1841
S':'
asbag67
(g88
g69
NtRp1842
(dp1843
g72
(dp1844
sg81
g1829
sg74
(lp1845
g67
(g68
g69
NtRp1846
(dp1847
g72
(dp1848
g80
I5
ssg81
g1842
sg74
(lp1849
S'/home/kaique/Projects/web2py/applications/synopsis/'
p1850
asbasbasbag67
(g83
g69
NtRp1851
(dp1852
g72
(dp1853
sg81
g77
sg74
(lp1854
g67
(g88
g69
NtRp1855
(dp1856
g72
(dp1857
g92
g93
ssg81
g1851
sg74
(lp1858
S'function'
p1859
asbag67
(g88
g69
NtRp1860
(dp1861
g72
(dp1862
g99
g100
ssg81
g1851
sg74
(lp1863
S':'
asbag67
(g88
g69
NtRp1864
(dp1865
g72
(dp1866
sg81
g1851
sg74
(lp1867
g67
(g68
g69
NtRp1868
(dp1869
g72
(dp1870
g80
I5
ssg81
g1864
sg74
(lp1871
S'new'
p1872
asbasbasbag67
(g83
g69
NtRp1873
(dp1874
g72
(dp1875
sg81
g77
sg74
(lp1876
g67
(g88
g69
NtRp1877
(dp1878
g72
(dp1879
g92
g93
ssg81
g1873
sg74
(lp1880
S'get_vars'
p1881
asbag67
(g88
g69
NtRp1882
(dp1883
g72
(dp1884
g99
g100
ssg81
g1873
sg74
(lp1885
S':'
asbag67
(g88
g69
NtRp1886
(dp1887
g72
(dp1888
sg81
g1873
sg74
(lp1889
g67
(g68
g69
NtRp1890
(dp1891
g72
(dp1892
g80
I5
ssg81
g1886
sg74
(lp1893
g67
(g76
g69
NtRp1894
(dp1895
g72
(dp1896
g80
I4
ssg81
Nsg74
(lp1897
sbasbasbasbag67
(g83
g69
NtRp1898
(dp1899
g72
(dp1900
sg81
g77
sg74
(lp1901
g67
(g88
g69
NtRp1902
(dp1903
g72
(dp1904
g92
g93
ssg81
g1898
sg74
(lp1905
S'global_settings'
p1906
asbag67
(g88
g69
NtRp1907
(dp1908
g72
(dp1909
g99
g100
ssg81
g1898
sg74
(lp1910
S':'
asbag67
(g88
g69
NtRp1911
(dp1912
g72
(dp1913
sg81
g1898
sg74
(lp1914
g67
(g68
g69
NtRp1915
(dp1916
g72
(dp1917
g80
I5
ssg81
g1911
sg74
(lp1918
g67
(g76
g69
NtRp1919
(dp1920
g72
(dp1921
g80
I4
ssg81
Nsg74
(lp1922
g67
(g83
g69
NtRp1923
(dp1924
g72
(dp1925
sg81
g1919
sg74
(lp1926
g67
(g88
g69
NtRp1927
(dp1928
g72
(dp1929
g92
g93
ssg81
g1923
sg74
(lp1930
g869
asbag67
(g88
g69
NtRp1931
(dp1932
g72
(dp1933
g99
g100
ssg81
g1923
sg74
(lp1934
S':'
asbag67
(g88
g69
NtRp1935
(dp1936
g72
(dp1937
sg81
g1923
sg74
(lp1938
g67
(g68
g69
NtRp1939
(dp1940
g72
(dp1941
g80
I4
ssg81
g1935
sg74
(lp1942
S"set(['/home/kaique/Projects/web2py/applications/carstore/', '/home/kaique/Projects/web2py/applications/synopsis/', '/home/kaique/Projects/web2py/applications/admin/'])"
p1943
asbasbasbag67
(g83
g69
NtRp1944
(dp1945
g72
(dp1946
sg81
g1919
sg74
(lp1947
g67
(g88
g69
NtRp1948
(dp1949
g72
(dp1950
g92
g93
ssg81
g1944
sg74
(lp1951
g891
asbag67
(g88
g69
NtRp1952
(dp1953
g72
(dp1954
g99
g100
ssg81
g1944
sg74
(lp1955
S':'
asbag67
(g88
g69
NtRp1956
(dp1957
g72
(dp1958
sg81
g1944
sg74
(lp1959
g67
(g68
g69
NtRp1960
(dp1961
g72
(dp1962
g80
I4
ssg81
g1956
sg74
(lp1963
g904
asbasbasbag67
(g83
g69
NtRp1964
(dp1965
g72
(dp1966
sg81
g1919
sg74
(lp1967
g67
(g88
g69
NtRp1968
(dp1969
g72
(dp1970
g92
g93
ssg81
g1964
sg74
(lp1971
g913
asbag67
(g88
g69
NtRp1972
(dp1973
g72
(dp1974
g99
g100
ssg81
g1964
sg74
(lp1975
S':'
asbag67
(g88
g69
NtRp1976
(dp1977
g72
(dp1978
sg81
g1964
sg74
(lp1979
g67
(g68
g69
NtRp1980
(dp1981
g72
(dp1982
g80
I4
ssg81
g1976
sg74
(lp1983
g67
(g76
g69
NtRp1984
(dp1985
g72
(dp1986
g80
I3
ssg81
Nsg74
(lp1987
sbasbasbasbag67
(g83
g69
NtRp1988
(dp1989
g72
(dp1990
sg81
g1919
sg74
(lp1991
g67
(g88
g69
NtRp1992
(dp1993
g72
(dp1994
g92
g93
ssg81
g1988
sg74
(lp1995
g938
asbag67
(g88
g69
NtRp1996
(dp1997
g72
(dp1998
g99
g100
ssg81
g1988
sg74
(lp1999
S':'
asbag67
(g88
g69
NtRp2000
(dp2001
g72
(dp2002
sg81
g1988
sg74
(lp2003
g67
(g68
g69
NtRp2004
(dp2005
g72
(dp2006
g80
I4
ssg81
g2000
sg74
(lp2007
S"<Values at 0x228d950: {'verbose': False, 'ip': '127.0.0.1', 'shutdown_timeout': 5, 'taskbar': False, 'nocron': False, 'pid_filename': 'httpserver.pid', 'maxthreads': None, 'softcron': False, 'server_name': 'kaique-Pine-Trail-M', 'bpython': False, 'nogui': False, 'port': 8000, 'extcron': False, 'debuglevel': 30, 'test': None, 'folder': '/home/kaique/Projects/web2py', 'config': '', 'import_models': False, 'winservice': '', 'shell': None, 'run': '', 'log_filename': 'httpserver.log', 'args': [''], 'ssl_ca_certificate': None, 'scheduler': None, 'profiler_filename': None, 'ssl_private_key': '', 'password': 'dev', 'request_queue_size': 5, 'ssl_certificate': '', 'cronjob': False, 'plain': False, 'quiet': False, 'interfaces': None, 'minthreads': None, 'timeout': 10, 'numthreads': None, 'nobanner': False}>"
p2008
asbasbasbag67
(g83
g69
NtRp2009
(dp2010
g72
(dp2011
sg81
g1919
sg74
(lp2012
g67
(g88
g69
NtRp2013
(dp2014
g72
(dp2015
g92
g93
ssg81
g2009
sg74
(lp2016
g960
asbag67
(g88
g69
NtRp2017
(dp2018
g72
(dp2019
g99
g100
ssg81
g2009
sg74
(lp2020
S':'
asbag67
(g88
g69
NtRp2021
(dp2022
g72
(dp2023
sg81
g2009
sg74
(lp2024
g67
(g68
g69
NtRp2025
(dp2026
g72
(dp2027
g80
I4
ssg81
g2021
sg74
(lp2028
S'set([])'
p2029
asbasbasbag67
(g83
g69
NtRp2030
(dp2031
g72
(dp2032
sg81
g1919
sg74
(lp2033
g67
(g88
g69
NtRp2034
(dp2035
g72
(dp2036
g92
g93
ssg81
g2030
sg74
(lp2037
g982
asbag67
(g88
g69
NtRp2038
(dp2039
g72
(dp2040
g99
g100
ssg81
g2030
sg74
(lp2041
S':'
asbag67
(g88
g69
NtRp2042
(dp2043
g72
(dp2044
sg81
g2030
sg74
(lp2045
g67
(g68
g69
NtRp2046
(dp2047
g72
(dp2048
g80
I4
ssg81
g2042
sg74
(lp2049
g110
asbasbasbag67
(g83
g69
NtRp2050
(dp2051
g72
(dp2052
sg81
g1919
sg74
(lp2053
g67
(g88
g69
NtRp2054
(dp2055
g72
(dp2056
g92
g93
ssg81
g2050
sg74
(lp2057
g1003
asbag67
(g88
g69
NtRp2058
(dp2059
g72
(dp2060
g99
g100
ssg81
g2050
sg74
(lp2061
S':'
asbag67
(g88
g69
NtRp2062
(dp2063
g72
(dp2064
sg81
g2050
sg74
(lp2065
g67
(g68
g69
NtRp2066
(dp2067
g72
(dp2068
g80
I4
ssg81
g2062
sg74
(lp2069
g1016
asbasbasbag67
(g83
g69
NtRp2070
(dp2071
g72
(dp2072
sg81
g1919
sg74
(lp2073
g67
(g88
g69
NtRp2074
(dp2075
g72
(dp2076
g92
g93
ssg81
g2070
sg74
(lp2077
g1245
asbag67
(g88
g69
NtRp2078
(dp2079
g72
(dp2080
g99
g100
ssg81
g2070
sg74
(lp2081
S':'
asbag67
(g88
g69
NtRp2082
(dp2083
g72
(dp2084
sg81
g2070
sg74
(lp2085
g67
(g68
g69
NtRp2086
(dp2087
g72
(dp2088
g80
I4
ssg81
g2082
sg74
(lp2089
g110
asbasbasbag67
(g83
g69
NtRp2090
(dp2091
g72
(dp2092
sg81
g1919
sg74
(lp2093
g67
(g88
g69
NtRp2094
(dp2095
g72
(dp2096
g92
g93
ssg81
g2090
sg74
(lp2097
g1483
asbag67
(g88
g69
NtRp2098
(dp2099
g72
(dp2100
g99
g100
ssg81
g2090
sg74
(lp2101
S':'
asbag67
(g88
g69
NtRp2102
(dp2103
g72
(dp2104
sg81
g2090
sg74
(lp2105
g67
(g68
g69
NtRp2106
(dp2107
g72
(dp2108
g80
I4
ssg81
g2102
sg74
(lp2109
g1496
asbasbasbag67
(g83
g69
NtRp2110
(dp2111
g72
(dp2112
sg81
g1919
sg74
(lp2113
g67
(g88
g69
NtRp2114
(dp2115
g72
(dp2116
g92
g93
ssg81
g2110
sg74
(lp2117
g1526
asbag67
(g88
g69
NtRp2118
(dp2119
g72
(dp2120
g99
g100
ssg81
g2110
sg74
(lp2121
S':'
asbag67
(g88
g69
NtRp2122
(dp2123
g72
(dp2124
sg81
g2110
sg74
(lp2125
g67
(g68
g69
NtRp2126
(dp2127
g72
(dp2128
g80
I4
ssg81
g2122
sg74
(lp2129
g67
(g76
g69
NtRp2130
(dp2131
g72
(dp2132
g80
I3
ssg81
Nsg74
(lp2133
g67
(g83
g69
NtRp2134
(dp2135
g72
(dp2136
sg81
g2130
sg74
(lp2137
g67
(g88
g69
NtRp2138
(dp2139
g72
(dp2140
sg81
g2134
sg74
(lp2141
g67
(g68
g69
NtRp2142
(dp2143
g72
(dp2144
g80
I3
ssg81
g2138
sg74
(lp2145
S'1'
asbasbasbag67
(g83
g69
NtRp2146
(dp2147
g72
(dp2148
sg81
g2130
sg74
(lp2149
g67
(g88
g69
NtRp2150
(dp2151
g72
(dp2152
sg81
g2146
sg74
(lp2153
g67
(g68
g69
NtRp2154
(dp2155
g72
(dp2156
g80
I3
ssg81
g2150
sg74
(lp2157
S'99'
p2158
asbasbasbag67
(g83
g69
NtRp2159
(dp2160
g72
(dp2161
sg81
g2130
sg74
(lp2162
g67
(g88
g69
NtRp2163
(dp2164
g72
(dp2165
sg81
g2159
sg74
(lp2166
g67
(g68
g69
NtRp2167
(dp2168
g72
(dp2169
g80
I3
ssg81
g2163
sg74
(lp2170
S'2'
asbasbasbag67
(g83
g69
NtRp2171
(dp2172
g72
(dp2173
sg81
g2130
sg74
(lp2174
g67
(g88
g69
NtRp2175
(dp2176
g72
(dp2177
sg81
g2171
sg74
(lp2178
g67
(g68
g69
NtRp2179
(dp2180
g72
(dp2181
g80
I3
ssg81
g2175
sg74
(lp2182
S'datetime.datetime(2011, 9, 26, 6, 55, 33)'
p2183
asbasbasbag67
(g83
g69
NtRp2184
(dp2185
g72
(dp2186
sg81
g2130
sg74
(lp2187
g67
(g88
g69
NtRp2188
(dp2189
g72
(dp2190
sg81
g2184
sg74
(lp2191
g67
(g68
g69
NtRp2192
(dp2193
g72
(dp2194
g80
I3
ssg81
g2188
sg74
(lp2195
g1605
asbasbasbasbasbasbasbasbasbasbasbag67
(g83
g69
NtRp2196
(dp2197
g72
(dp2198
sg81
g77
sg74
(lp2199
g67
(g88
g69
NtRp2200
(dp2201
g72
(dp2202
g92
g93
ssg81
g2196
sg74
(lp2203
S'is_https'
p2204
asbag67
(g88
g69
NtRp2205
(dp2206
g72
(dp2207
g99
g100
ssg81
g2196
sg74
(lp2208
S':'
asbag67
(g88
g69
NtRp2209
(dp2210
g72
(dp2211
sg81
g2196
sg74
(lp2212
g67
(g68
g69
NtRp2213
(dp2214
g72
(dp2215
g80
I5
ssg81
g2209
sg74
(lp2216
g110
asbasbasbag67
(g83
g69
NtRp2217
(dp2218
g72
(dp2219
sg81
g77
sg74
(lp2220
g67
(g88
g69
NtRp2221
(dp2222
g72
(dp2223
g92
g93
ssg81
g2217
sg74
(lp2224
S'is_local'
p2225
asbag67
(g88
g69
NtRp2226
(dp2227
g72
(dp2228
g99
g100
ssg81
g2217
sg74
(lp2229
S':'
asbag67
(g88
g69
NtRp2230
(dp2231
g72
(dp2232
sg81
g2217
sg74
(lp2233
g67
(g68
g69
NtRp2234
(dp2235
g72
(dp2236
g80
I5
ssg81
g2230
sg74
(lp2237
g1714
asbasbasbag67
(g83
g69
NtRp2238
(dp2239
g72
(dp2240
sg81
g77
sg74
(lp2241
g67
(g88
g69
NtRp2242
(dp2243
g72
(dp2244
g92
g93
ssg81
g2238
sg74
(lp2245
S'is_restful'
p2246
asbag67
(g88
g69
NtRp2247
(dp2248
g72
(dp2249
g99
g100
ssg81
g2238
sg74
(lp2250
S':'
asbag67
(g88
g69
NtRp2251
(dp2252
g72
(dp2253
sg81
g2238
sg74
(lp2254
g67
(g68
g69
NtRp2255
(dp2256
g72
(dp2257
g80
I5
ssg81
g2251
sg74
(lp2258
g110
asbasbasbag67
(g83
g69
NtRp2259
(dp2260
g72
(dp2261
sg81
g77
sg74
(lp2262
g67
(g88
g69
NtRp2263
(dp2264
g72
(dp2265
g92
g93
ssg81
g2259
sg74
(lp2266
S'now'
p2267
asbag67
(g88
g69
NtRp2268
(dp2269
g72
(dp2270
g99
g100
ssg81
g2259
sg74
(lp2271
S':'
asbag67
(g88
g69
NtRp2272
(dp2273
g72
(dp2274
sg81
g2259
sg74
(lp2275
g67
(g68
g69
NtRp2276
(dp2277
g72
(dp2278
g80
I5
ssg81
g2272
sg74
(lp2279
S'datetime.datetime(2012, 1, 16, 15, 46, 58, 793943)'
p2280
asbasbasbag67
(g83
g69
NtRp2281
(dp2282
g72
(dp2283
sg81
g77
sg74
(lp2284
g67
(g88
g69
NtRp2285
(dp2286
g72
(dp2287
g92
g93
ssg81
g2281
sg74
(lp2288
S'post_vars'
p2289
asbag67
(g88
g69
NtRp2290
(dp2291
g72
(dp2292
g99
g100
ssg81
g2281
sg74
(lp2293
S':'
asbag67
(g88
g69
NtRp2294
(dp2295
g72
(dp2296
sg81
g2281
sg74
(lp2297
g67
(g68
g69
NtRp2298
(dp2299
g72
(dp2300
g80
I5
ssg81
g2294
sg74
(lp2301
g67
(g76
g69
NtRp2302
(dp2303
g72
(dp2304
g80
I4
ssg81
Nsg74
(lp2305
sbasbasbasbag67
(g83
g69
NtRp2306
(dp2307
g72
(dp2308
sg81
g77
sg74
(lp2309
g67
(g88
g69
NtRp2310
(dp2311
g72
(dp2312
g92
g93
ssg81
g2306
sg74
(lp2313
S'raw_args'
p2314
asbag67
(g88
g69
NtRp2315
(dp2316
g72
(dp2317
g99
g100
ssg81
g2306
sg74
(lp2318
S':'
asbag67
(g88
g69
NtRp2319
(dp2320
g72
(dp2321
sg81
g2306
sg74
(lp2322
g67
(g68
g69
NtRp2323
(dp2324
g72
(dp2325
g80
I5
ssg81
g2319
sg74
(lp2326
S'line/1'
p2327
asbasbasbag67
(g83
g69
NtRp2328
(dp2329
g72
(dp2330
sg81
g77
sg74
(lp2331
g67
(g88
g69
NtRp2332
(dp2333
g72
(dp2334
g92
g93
ssg81
g2328
sg74
(lp2335
S'url'
p2336
asbag67
(g88
g69
NtRp2337
(dp2338
g72
(dp2339
g99
g100
ssg81
g2328
sg74
(lp2340
S':'
asbag67
(g88
g69
NtRp2341
(dp2342
g72
(dp2343
sg81
g2328
sg74
(lp2344
g67
(g68
g69
NtRp2345
(dp2346
g72
(dp2347
g80
I5
ssg81
g2341
sg74
(lp2348
S'/synopsis/information/new/line/1'
p2349
asbasbasbag67
(g83
g69
NtRp2350
(dp2351
g72
(dp2352
sg81
g77
sg74
(lp2353
g67
(g88
g69
NtRp2354
(dp2355
g72
(dp2356
g92
g93
ssg81
g2350
sg74
(lp2357
S'utcnow'
p2358
asbag67
(g88
g69
NtRp2359
(dp2360
g72
(dp2361
g99
g100
ssg81
g2350
sg74
(lp2362
S':'
asbag67
(g88
g69
NtRp2363
(dp2364
g72
(dp2365
sg81
g2350
sg74
(lp2366
g67
(g68
g69
NtRp2367
(dp2368
g72
(dp2369
g80
I5
ssg81
g2363
sg74
(lp2370
S'datetime.datetime(2012, 1, 16, 17, 46, 58, 794024)'
p2371
asbasbasbag67
(g83
g69
NtRp2372
(dp2373
g72
(dp2374
sg81
g77
sg74
(lp2375
g67
(g88
g69
NtRp2376
(dp2377
g72
(dp2378
g92
g93
ssg81
g2372
sg74
(lp2379
S'uuid'
p2380
asbag67
(g88
g69
NtRp2381
(dp2382
g72
(dp2383
g99
g100
ssg81
g2372
sg74
(lp2384
S':'
asbag67
(g88
g69
NtRp2385
(dp2386
g72
(dp2387
sg81
g2372
sg74
(lp2388
g67
(g68
g69
NtRp2389
(dp2390
g72
(dp2391
g80
I5
ssg81
g2385
sg74
(lp2392
S'synopsis/127.0.0.1.2012-01-16.15-46-58.d7157790-45fd-464d-ab7c-da3c69430f8c'
p2393
asbasbasbag67
(g83
g69
NtRp2394
(dp2395
g72
(dp2396
sg81
g77
sg74
(lp2397
g67
(g88
g69
NtRp2398
(dp2399
g72
(dp2400
g92
g93
ssg81
g2394
sg74
(lp2401
S'vars'
p2402
asbag67
(g88
g69
NtRp2403
(dp2404
g72
(dp2405
g99
g100
ssg81
g2394
sg74
(lp2406
S':'
asbag67
(g88
g69
NtRp2407
(dp2408
g72
(dp2409
sg81
g2394
sg74
(lp2410
g67
(g68
g69
NtRp2411
(dp2412
g72
(dp2413
g80
I5
ssg81
g2407
sg74
(lp2414
g67
(g76
g69
NtRp2415
(dp2416
g72
(dp2417
g80
I4
ssg81
Nsg74
(lp2418
sbasbasbasbag67
(g83
g69
NtRp2419
(dp2420
g72
(dp2421
sg81
g77
sg74
(lp2422
g67
(g88
g69
NtRp2423
(dp2424
g72
(dp2425
g92
g93
ssg81
g2419
sg74
(lp2426
S'wsgi'
p2427
asbag67
(g88
g69
NtRp2428
(dp2429
g72
(dp2430
g99
g100
ssg81
g2419
sg74
(lp2431
S':'
asbag67
(g88
g69
NtRp2432
(dp2433
g72
(dp2434
sg81
g2419
sg74
(lp2435
g67
(g68
g69
NtRp2436
(dp2437
g72
(dp2438
g80
I5
ssg81
g2432
sg74
(lp2439
g67
(g76
g69
NtRp2440
(dp2441
g72
(dp2442
g80
I4
ssg81
Nsg74
(lp2443
g67
(g83
g69
NtRp2444
(dp2445
g72
(dp2446
sg81
g2440
sg74
(lp2447
g67
(g88
g69
NtRp2448
(dp2449
g72
(dp2450
g92
g93
ssg81
g2444
sg74
(lp2451
S'environ'
p2452
asbag67
(g88
g69
NtRp2453
(dp2454
g72
(dp2455
g99
g100
ssg81
g2444
sg74
(lp2456
S':'
asbag67
(g88
g69
NtRp2457
(dp2458
g72
(dp2459
sg81
g2444
sg74
(lp2460
g67
(g68
g69
NtRp2461
(dp2462
g72
(dp2463
g80
I4
ssg81
g2457
sg74
(lp2464
g67
(g76
g69
NtRp2465
(dp2466
g72
(dp2467
g80
I3
ssg81
Nsg74
(lp2468
g67
(g83
g69
NtRp2469
(dp2470
g72
(dp2471
sg81
g2465
sg74
(lp2472
g67
(g88
g69
NtRp2473
(dp2474
g72
(dp2475
g92
g93
ssg81
g2469
sg74
(lp2476
S'HTTP_ACCEPT'
p2477
asbag67
(g88
g69
NtRp2478
(dp2479
g72
(dp2480
g99
g100
ssg81
g2469
sg74
(lp2481
S':'
asbag67
(g88
g69
NtRp2482
(dp2483
g72
(dp2484
sg81
g2469
sg74
(lp2485
g67
(g68
g69
NtRp2486
(dp2487
g72
(dp2488
g80
I3
ssg81
g2482
sg74
(lp2489
g1038
asbasbasbag67
(g83
g69
NtRp2490
(dp2491
g72
(dp2492
sg81
g2465
sg74
(lp2493
g67
(g88
g69
NtRp2494
(dp2495
g72
(dp2496
g92
g93
ssg81
g2490
sg74
(lp2497
S'HTTP_ACCEPT_CHARSET'
p2498
asbag67
(g88
g69
NtRp2499
(dp2500
g72
(dp2501
g99
g100
ssg81
g2490
sg74
(lp2502
S':'
asbag67
(g88
g69
NtRp2503
(dp2504
g72
(dp2505
sg81
g2490
sg74
(lp2506
g67
(g68
g69
NtRp2507
(dp2508
g72
(dp2509
g80
I3
ssg81
g2503
sg74
(lp2510
g1060
asbasbasbag67
(g83
g69
NtRp2511
(dp2512
g72
(dp2513
sg81
g2465
sg74
(lp2514
g67
(g88
g69
NtRp2515
(dp2516
g72
(dp2517
g92
g93
ssg81
g2511
sg74
(lp2518
S'HTTP_ACCEPT_ENCODING'
p2519
asbag67
(g88
g69
NtRp2520
(dp2521
g72
(dp2522
g99
g100
ssg81
g2511
sg74
(lp2523
S':'
asbag67
(g88
g69
NtRp2524
(dp2525
g72
(dp2526
sg81
g2511
sg74
(lp2527
g67
(g68
g69
NtRp2528
(dp2529
g72
(dp2530
g80
I3
ssg81
g2524
sg74
(lp2531
g1082
asbasbasbag67
(g83
g69
NtRp2532
(dp2533
g72
(dp2534
sg81
g2465
sg74
(lp2535
g67
(g88
g69
NtRp2536
(dp2537
g72
(dp2538
g92
g93
ssg81
g2532
sg74
(lp2539
S'HTTP_ACCEPT_LANGUAGE'
p2540
asbag67
(g88
g69
NtRp2541
(dp2542
g72
(dp2543
g99
g100
ssg81
g2532
sg74
(lp2544
S':'
asbag67
(g88
g69
NtRp2545
(dp2546
g72
(dp2547
sg81
g2532
sg74
(lp2548
g67
(g68
g69
NtRp2549
(dp2550
g72
(dp2551
g80
I3
ssg81
g2545
sg74
(lp2552
g1104
asbasbasbag67
(g83
g69
NtRp2553
(dp2554
g72
(dp2555
sg81
g2465
sg74
(lp2556
g67
(g88
g69
NtRp2557
(dp2558
g72
(dp2559
g92
g93
ssg81
g2553
sg74
(lp2560
S'HTTP_CACHE_CONTROL'
p2561
asbag67
(g88
g69
NtRp2562
(dp2563
g72
(dp2564
g99
g100
ssg81
g2553
sg74
(lp2565
S':'
asbag67
(g88
g69
NtRp2566
(dp2567
g72
(dp2568
sg81
g2553
sg74
(lp2569
g67
(g68
g69
NtRp2570
(dp2571
g72
(dp2572
g80
I3
ssg81
g2566
sg74
(lp2573
g1126
asbasbasbag67
(g83
g69
NtRp2574
(dp2575
g72
(dp2576
sg81
g2465
sg74
(lp2577
g67
(g88
g69
NtRp2578
(dp2579
g72
(dp2580
g92
g93
ssg81
g2574
sg74
(lp2581
S'HTTP_CONNECTION'
p2582
asbag67
(g88
g69
NtRp2583
(dp2584
g72
(dp2585
g99
g100
ssg81
g2574
sg74
(lp2586
S':'
asbag67
(g88
g69
NtRp2587
(dp2588
g72
(dp2589
sg81
g2574
sg74
(lp2590
g67
(g68
g69
NtRp2591
(dp2592
g72
(dp2593
g80
I3
ssg81
g2587
sg74
(lp2594
g1148
asbasbasbag67
(g83
g69
NtRp2595
(dp2596
g72
(dp2597
sg81
g2465
sg74
(lp2598
g67
(g88
g69
NtRp2599
(dp2600
g72
(dp2601
g92
g93
ssg81
g2595
sg74
(lp2602
S'HTTP_COOKIE'
p2603
asbag67
(g88
g69
NtRp2604
(dp2605
g72
(dp2606
g99
g100
ssg81
g2595
sg74
(lp2607
S':'
asbag67
(g88
g69
NtRp2608
(dp2609
g72
(dp2610
sg81
g2595
sg74
(lp2611
g67
(g68
g69
NtRp2612
(dp2613
g72
(dp2614
g80
I3
ssg81
g2608
sg74
(lp2615
g1170
asbasbasbag67
(g83
g69
NtRp2616
(dp2617
g72
(dp2618
sg81
g2465
sg74
(lp2619
g67
(g88
g69
NtRp2620
(dp2621
g72
(dp2622
g92
g93
ssg81
g2616
sg74
(lp2623
S'HTTP_HOST'
p2624
asbag67
(g88
g69
NtRp2625
(dp2626
g72
(dp2627
g99
g100
ssg81
g2616
sg74
(lp2628
S':'
asbag67
(g88
g69
NtRp2629
(dp2630
g72
(dp2631
sg81
g2616
sg74
(lp2632
g67
(g68
g69
NtRp2633
(dp2634
g72
(dp2635
g80
I3
ssg81
g2629
sg74
(lp2636
g1192
asbasbasbag67
(g83
g69
NtRp2637
(dp2638
g72
(dp2639
sg81
g2465
sg74
(lp2640
g67
(g88
g69
NtRp2641
(dp2642
g72
(dp2643
g92
g93
ssg81
g2637
sg74
(lp2644
S'HTTP_REFERER'
p2645
asbag67
(g88
g69
NtRp2646
(dp2647
g72
(dp2648
g99
g100
ssg81
g2637
sg74
(lp2649
S':'
asbag67
(g88
g69
NtRp2650
(dp2651
g72
(dp2652
sg81
g2637
sg74
(lp2653
g67
(g68
g69
NtRp2654
(dp2655
g72
(dp2656
g80
I3
ssg81
g2650
sg74
(lp2657
g1214
asbasbasbag67
(g83
g69
NtRp2658
(dp2659
g72
(dp2660
sg81
g2465
sg74
(lp2661
g67
(g88
g69
NtRp2662
(dp2663
g72
(dp2664
g92
g93
ssg81
g2658
sg74
(lp2665
S'HTTP_USER_AGENT'
p2666
asbag67
(g88
g69
NtRp2667
(dp2668
g72
(dp2669
g99
g100
ssg81
g2658
sg74
(lp2670
S':'
asbag67
(g88
g69
NtRp2671
(dp2672
g72
(dp2673
sg81
g2658
sg74
(lp2674
g67
(g68
g69
NtRp2675
(dp2676
g72
(dp2677
g80
I3
ssg81
g2671
sg74
(lp2678
g1236
asbasbasbag67
(g83
g69
NtRp2679
(dp2680
g72
(dp2681
sg81
g2465
sg74
(lp2682
g67
(g88
g69
NtRp2683
(dp2684
g72
(dp2685
g92
g93
ssg81
g2679
sg74
(lp2686
S'PATH_INFO'
p2687
asbag67
(g88
g69
NtRp2688
(dp2689
g72
(dp2690
g99
g100
ssg81
g2679
sg74
(lp2691
S':'
asbag67
(g88
g69
NtRp2692
(dp2693
g72
(dp2694
sg81
g2679
sg74
(lp2695
g67
(g68
g69
NtRp2696
(dp2697
g72
(dp2698
g80
I3
ssg81
g2692
sg74
(lp2699
g1279
asbasbasbag67
(g83
g69
NtRp2700
(dp2701
g72
(dp2702
sg81
g2465
sg74
(lp2703
g67
(g88
g69
NtRp2704
(dp2705
g72
(dp2706
g92
g93
ssg81
g2700
sg74
(lp2707
S'QUERY_STRING'
p2708
asbag67
(g88
g69
NtRp2709
(dp2710
g72
(dp2711
g99
g100
ssg81
g2700
sg74
(lp2712
S':'
asbag67
(g88
g69
NtRp2713
(dp2714
g72
(dp2715
sg81
g2700
sg74
(lp2716
g67
(g68
g69
NtRp2717
(dp2718
g72
(dp2719
g80
I3
ssg81
g2713
sg74
(lp2720
S''
asbasbasbag67
(g83
g69
NtRp2721
(dp2722
g72
(dp2723
sg81
g2465
sg74
(lp2724
g67
(g88
g69
NtRp2725
(dp2726
g72
(dp2727
g92
g93
ssg81
g2721
sg74
(lp2728
S'REMOTE_ADDR'
p2729
asbag67
(g88
g69
NtRp2730
(dp2731
g72
(dp2732
g99
g100
ssg81
g2721
sg74
(lp2733
S':'
asbag67
(g88
g69
NtRp2734
(dp2735
g72
(dp2736
sg81
g2721
sg74
(lp2737
g67
(g68
g69
NtRp2738
(dp2739
g72
(dp2740
g80
I3
ssg81
g2734
sg74
(lp2741
g225
asbasbasbag67
(g83
g69
NtRp2742
(dp2743
g72
(dp2744
sg81
g2465
sg74
(lp2745
g67
(g88
g69
NtRp2746
(dp2747
g72
(dp2748
g92
g93
ssg81
g2742
sg74
(lp2749
S'REMOTE_PORT'
p2750
asbag67
(g88
g69
NtRp2751
(dp2752
g72
(dp2753
g99
g100
ssg81
g2742
sg74
(lp2754
S':'
asbag67
(g88
g69
NtRp2755
(dp2756
g72
(dp2757
sg81
g2742
sg74
(lp2758
g67
(g68
g69
NtRp2759
(dp2760
g72
(dp2761
g80
I3
ssg81
g2755
sg74
(lp2762
g1343
asbasbasbag67
(g83
g69
NtRp2763
(dp2764
g72
(dp2765
sg81
g2465
sg74
(lp2766
g67
(g88
g69
NtRp2767
(dp2768
g72
(dp2769
g92
g93
ssg81
g2763
sg74
(lp2770
S'REQUEST_METHOD'
p2771
asbag67
(g88
g69
NtRp2772
(dp2773
g72
(dp2774
g99
g100
ssg81
g2763
sg74
(lp2775
S':'
asbag67
(g88
g69
NtRp2776
(dp2777
g72
(dp2778
sg81
g2763
sg74
(lp2779
g67
(g68
g69
NtRp2780
(dp2781
g72
(dp2782
g80
I3
ssg81
g2776
sg74
(lp2783
g1365
asbasbasbag67
(g83
g69
NtRp2784
(dp2785
g72
(dp2786
sg81
g2465
sg74
(lp2787
g67
(g88
g69
NtRp2788
(dp2789
g72
(dp2790
g92
g93
ssg81
g2784
sg74
(lp2791
S'SCRIPT_NAME'
p2792
asbag67
(g88
g69
NtRp2793
(dp2794
g72
(dp2795
g99
g100
ssg81
g2784
sg74
(lp2796
S':'
asbag67
(g88
g69
NtRp2797
(dp2798
g72
(dp2799
sg81
g2784
sg74
(lp2800
g67
(g68
g69
NtRp2801
(dp2802
g72
(dp2803
g80
I3
ssg81
g2797
sg74
(lp2804
S''
asbasbasbag67
(g83
g69
NtRp2805
(dp2806
g72
(dp2807
sg81
g2465
sg74
(lp2808
g67
(g88
g69
NtRp2809
(dp2810
g72
(dp2811
g92
g93
ssg81
g2805
sg74
(lp2812
S'SERVER_NAME'
p2813
asbag67
(g88
g69
NtRp2814
(dp2815
g72
(dp2816
g99
g100
ssg81
g2805
sg74
(lp2817
S':'
asbag67
(g88
g69
NtRp2818
(dp2819
g72
(dp2820
sg81
g2805
sg74
(lp2821
g67
(g68
g69
NtRp2822
(dp2823
g72
(dp2824
g80
I3
ssg81
g2818
sg74
(lp2825
g1408
asbasbasbag67
(g83
g69
NtRp2826
(dp2827
g72
(dp2828
sg81
g2465
sg74
(lp2829
g67
(g88
g69
NtRp2830
(dp2831
g72
(dp2832
g92
g93
ssg81
g2826
sg74
(lp2833
S'SERVER_PORT'
p2834
asbag67
(g88
g69
NtRp2835
(dp2836
g72
(dp2837
g99
g100
ssg81
g2826
sg74
(lp2838
S':'
asbag67
(g88
g69
NtRp2839
(dp2840
g72
(dp2841
sg81
g2826
sg74
(lp2842
g67
(g68
g69
NtRp2843
(dp2844
g72
(dp2845
g80
I3
ssg81
g2839
sg74
(lp2846
g1430
asbasbasbag67
(g83
g69
NtRp2847
(dp2848
g72
(dp2849
sg81
g2465
sg74
(lp2850
g67
(g88
g69
NtRp2851
(dp2852
g72
(dp2853
g92
g93
ssg81
g2847
sg74
(lp2854
S'SERVER_PROTOCOL'
p2855
asbag67
(g88
g69
NtRp2856
(dp2857
g72
(dp2858
g99
g100
ssg81
g2847
sg74
(lp2859
S':'
asbag67
(g88
g69
NtRp2860
(dp2861
g72
(dp2862
sg81
g2847
sg74
(lp2863
g67
(g68
g69
NtRp2864
(dp2865
g72
(dp2866
g80
I3
ssg81
g2860
sg74
(lp2867
g1452
asbasbasbag67
(g83
g69
NtRp2868
(dp2869
g72
(dp2870
sg81
g2465
sg74
(lp2871
g67
(g88
g69
NtRp2872
(dp2873
g72
(dp2874
g92
g93
ssg81
g2868
sg74
(lp2875
S'SERVER_SOFTWARE'
p2876
asbag67
(g88
g69
NtRp2877
(dp2878
g72
(dp2879
g99
g100
ssg81
g2868
sg74
(lp2880
S':'
asbag67
(g88
g69
NtRp2881
(dp2882
g72
(dp2883
sg81
g2868
sg74
(lp2884
g67
(g68
g69
NtRp2885
(dp2886
g72
(dp2887
g80
I3
ssg81
g2881
sg74
(lp2888
g1474
asbasbasbag67
(g83
g69
NtRp2889
(dp2890
g72
(dp2891
sg81
g2465
sg74
(lp2892
g67
(g88
g69
NtRp2893
(dp2894
g72
(dp2895
g92
g93
ssg81
g2889
sg74
(lp2896
S'wsgi.errors'
p2897
asbag67
(g88
g69
NtRp2898
(dp2899
g72
(dp2900
g99
g100
ssg81
g2889
sg74
(lp2901
S':'
asbag67
(g88
g69
NtRp2902
(dp2903
g72
(dp2904
sg81
g2889
sg74
(lp2905
g67
(g68
g69
NtRp2906
(dp2907
g72
(dp2908
g80
I3
ssg81
g2902
sg74
(lp2909
S"<open file '<stderr>', mode 'w' at 0x7f041f2b1270>"
p2910
asbasbasbag67
(g83
g69
NtRp2911
(dp2912
g72
(dp2913
sg81
g2465
sg74
(lp2914
g67
(g88
g69
NtRp2915
(dp2916
g72
(dp2917
g92
g93
ssg81
g2911
sg74
(lp2918
S'wsgi.file_wrapper'
p2919
asbag67
(g88
g69
NtRp2920
(dp2921
g72
(dp2922
g99
g100
ssg81
g2911
sg74
(lp2923
S':'
asbag67
(g88
g69
NtRp2924
(dp2925
g72
(dp2926
sg81
g2911
sg74
(lp2927
g67
(g68
g69
NtRp2928
(dp2929
g72
(dp2930
g80
I3
ssg81
g2924
sg74
(lp2931
S'<class wsgiref.util.FileWrapper at 0x2144ef0>'
p2932
asbasbasbag67
(g83
g69
NtRp2933
(dp2934
g72
(dp2935
sg81
g2465
sg74
(lp2936
g67
(g88
g69
NtRp2937
(dp2938
g72
(dp2939
g92
g93
ssg81
g2933
sg74
(lp2940
S'wsgi.input'
p2941
asbag67
(g88
g69
NtRp2942
(dp2943
g72
(dp2944
g99
g100
ssg81
g2933
sg74
(lp2945
S':'
asbag67
(g88
g69
NtRp2946
(dp2947
g72
(dp2948
sg81
g2933
sg74
(lp2949
g67
(g68
g69
NtRp2950
(dp2951
g72
(dp2952
g80
I3
ssg81
g2946
sg74
(lp2953
S'<cStringIO.StringO object at 0x3a50f80>'
p2954
asbasbasbag67
(g83
g69
NtRp2955
(dp2956
g72
(dp2957
sg81
g2465
sg74
(lp2958
g67
(g88
g69
NtRp2959
(dp2960
g72
(dp2961
g92
g93
ssg81
g2955
sg74
(lp2962
S'wsgi.multiprocess'
p2963
asbag67
(g88
g69
NtRp2964
(dp2965
g72
(dp2966
g99
g100
ssg81
g2955
sg74
(lp2967
S':'
asbag67
(g88
g69
NtRp2968
(dp2969
g72
(dp2970
sg81
g2955
sg74
(lp2971
g67
(g68
g69
NtRp2972
(dp2973
g72
(dp2974
g80
I3
ssg81
g2968
sg74
(lp2975
g110
asbasbasbag67
(g83
g69
NtRp2976
(dp2977
g72
(dp2978
sg81
g2465
sg74
(lp2979
g67
(g88
g69
NtRp2980
(dp2981
g72
(dp2982
g92
g93
ssg81
g2976
sg74
(lp2983
S'wsgi.multithread'
p2984
asbag67
(g88
g69
NtRp2985
(dp2986
g72
(dp2987
g99
g100
ssg81
g2976
sg74
(lp2988
S':'
asbag67
(g88
g69
NtRp2989
(dp2990
g72
(dp2991
sg81
g2976
sg74
(lp2992
g67
(g68
g69
NtRp2993
(dp2994
g72
(dp2995
g80
I3
ssg81
g2989
sg74
(lp2996
g1714
asbasbasbag67
(g83
g69
NtRp2997
(dp2998
g72
(dp2999
sg81
g2465
sg74
(lp3000
g67
(g88
g69
NtRp3001
(dp3002
g72
(dp3003
g92
g93
ssg81
g2997
sg74
(lp3004
S'wsgi.run_once'
p3005
asbag67
(g88
g69
NtRp3006
(dp3007
g72
(dp3008
g99
g100
ssg81
g2997
sg74
(lp3009
S':'
asbag67
(g88
g69
NtRp3010
(dp3011
g72
(dp3012
sg81
g2997
sg74
(lp3013
g67
(g68
g69
NtRp3014
(dp3015
g72
(dp3016
g80
I3
ssg81
g3010
sg74
(lp3017
g110
asbasbasbag67
(g83
g69
NtRp3018
(dp3019
g72
(dp3020
sg81
g2465
sg74
(lp3021
g67
(g88
g69
NtRp3022
(dp3023
g72
(dp3024
g92
g93
ssg81
g3018
sg74
(lp3025
S'wsgi.url_scheme'
p3026
asbag67
(g88
g69
NtRp3027
(dp3028
g72
(dp3029
g99
g100
ssg81
g3018
sg74
(lp3030
S':'
asbag67
(g88
g69
NtRp3031
(dp3032
g72
(dp3033
sg81
g3018
sg74
(lp3034
g67
(g68
g69
NtRp3035
(dp3036
g72
(dp3037
g80
I3
ssg81
g3031
sg74
(lp3038
g1757
asbasbasbag67
(g83
g69
NtRp3039
(dp3040
g72
(dp3041
sg81
g2465
sg74
(lp3042
g67
(g88
g69
NtRp3043
(dp3044
g72
(dp3045
g92
g93
ssg81
g3039
sg74
(lp3046
S'wsgi.version'
p3047
asbag67
(g88
g69
NtRp3048
(dp3049
g72
(dp3050
g99
g100
ssg81
g3039
sg74
(lp3051
S':'
asbag67
(g88
g69
NtRp3052
(dp3053
g72
(dp3054
sg81
g3039
sg74
(lp3055
g67
(g68
g69
NtRp3056
(dp3057
g72
(dp3058
g80
I3
ssg81
g3052
sg74
(lp3059
S'1'
asbasbasbasbasbasbasbasbasbasbasbasbasbsS'frames'
p3060
(lp3061
(dp3062
S'file'
p3063
S'/home/kaique/Projects/web2py/gluon/restricted.py'
p3064
sS'dump'
p3065
(dp3066
S'code'
p3067
S"'# -*- coding: utf-8 -*-\\nimport functions as f # ...\\treturn {}\\n\\nresponse._vars=response._caller(new)\\n'"
p3068
sS'layer'
p3069
S"'/home/kaique/Projects/web2py/applications/synopsis/controllers/information.py'"
p3070
sS'global compile2'
p3071
S'<function compile2>'
p3072
sS'ccode'
p3073
S'undefined'
p3074
ssS'lnum'
p3075
I193
sS'lines'
p3076
(dp3077
I192
S'        else:'
p3078
sI193
S'            ccode = compile2(code,layer)'
p3079
sI194
S'        exec ccode in environment'
p3080
sI195
S'    except HTTP:'
p3081
sI196
S'        raise'
p3082
sI197
S'    except Exception, error:'
p3083
sI188
S"    environment['__file__'] = layer"
p3084
sI189
S'    try:'
p3085
sI190
S'        if type(code) == types.CodeType:'
p3086
sI191
S'            ccode = code'
p3087
ssS'call'
p3088
S"(code='# -*- coding: utf-8 -*-\\nimport functions as f # ...\\treturn {}\\n\\nresponse._vars=response._caller(new)\\n', environment={'A': <class 'gluon.html.A'>, 'Auth': <class 'gluon.tools.Auth'>, 'B': <class 'gluon.html.B'>, 'BEAUTIFY': <class 'gluon.html.BEAUTIFY'>, 'BODY': <class 'gluon.html.BODY'>, 'BR': <class 'gluon.html.BR'>, 'BUTTON': <class 'gluon.html.BUTTON'>, 'CAT': <class 'gluon.html.CAT'>, 'CENTER': <class 'gluon.html.CENTER'>, 'CLEANUP': <class 'gluon.validators.CLEANUP'>, ...}, layer='/home/kaique/Projects/web2py/applications/synopsis/controllers/information.py')"
p3089
sS'func'
p3090
S'restricted'
p3091
sa(dp3092
g3063
S'/home/kaique/Projects/web2py/gluon/restricted.py'
p3093
sg3065
(dp3094
S'builtincompile'
p3095
S'<built-in function compile>'
p3096
sS'code'
p3097
S"'# -*- coding: utf-8 -*-\\nimport functions as f # ...\\treturn {}\\n\\nresponse._vars=response._caller(new)\\n'"
p3098
sS'code.rstrip'
p3099
S'<built-in method rstrip of str object>'
p3100
sS').replace'
p3101
g3074
sS'layer'
p3102
S"'/home/kaique/Projects/web2py/applications/synopsis/controllers/information.py'"
p3103
ssg3075
I179
sg3076
(dp3104
I174
S''
sI175
S'def compile2(code,layer):'
p3105
sI176
S'    """'
p3106
sI177
S"    The +'\\n' is necessary else compile fails when code ends in a comment."
p3107
sI178
S'    """'
p3108
sI179
S"    return compile(code.rstrip().replace('\\r\\n','\\n')+'\\n', layer, 'exec')"
p3109
sI180
S''
sI181
S"def restricted(code, environment=None, layer='Unknown'):"
p3110
sI182
S'    """'
p3111
sI183
S'    runs code in environment and returns the output. if an exception occurs'
p3112
ssg3088
S"(code='# -*- coding: utf-8 -*-\\nimport functions as f # ...\\treturn {}\\n\\nresponse._vars=response._caller(new)\\n', layer='/home/kaique/Projects/web2py/applications/synopsis/controllers/information.py')"
p3113
sg3090
S'compile2'
p3114
sasS'pyver'
p3115
S'Python 2.7.2+: /usr/bin/python'
p3116
sS'session'
p3117
g67
(g68
g69
NtRp3118
(dp3119
g72
(dp3120
sg74
(lp3121
g67
(g76
g69
NtRp3122
(dp3123
g72
(dp3124
g80
I5
ssg81
Nsg74
(lp3125
g67
(g83
g69
NtRp3126
(dp3127
g72
(dp3128
sg81
g3122
sg74
(lp3129
g67
(g88
g69
NtRp3130
(dp3131
g72
(dp3132
g92
g93
ssg81
g3126
sg74
(lp3133
S'auth'
p3134
asbag67
(g88
g69
NtRp3135
(dp3136
g72
(dp3137
g99
g100
ssg81
g3126
sg74
(lp3138
S':'
asbag67
(g88
g69
NtRp3139
(dp3140
g72
(dp3141
sg81
g3126
sg74
(lp3142
g67
(g68
g69
NtRp3143
(dp3144
g72
(dp3145
g80
I5
ssg81
g3139
sg74
(lp3146
g67
(g76
g69
NtRp3147
(dp3148
g72
(dp3149
g80
I4
ssg81
Nsg74
(lp3150
g67
(g83
g69
NtRp3151
(dp3152
g72
(dp3153
sg81
g3147
sg74
(lp3154
g67
(g88
g69
NtRp3155
(dp3156
g72
(dp3157
g92
g93
ssg81
g3151
sg74
(lp3158
S'expiration'
p3159
asbag67
(g88
g69
NtRp3160
(dp3161
g72
(dp3162
g99
g100
ssg81
g3151
sg74
(lp3163
S':'
asbag67
(g88
g69
NtRp3164
(dp3165
g72
(dp3166
sg81
g3151
sg74
(lp3167
g67
(g68
g69
NtRp3168
(dp3169
g72
(dp3170
g80
I4
ssg81
g3164
sg74
(lp3171
S'2592000'
p3172
asbasbasbag67
(g83
g69
NtRp3173
(dp3174
g72
(dp3175
sg81
g3147
sg74
(lp3176
g67
(g88
g69
NtRp3177
(dp3178
g72
(dp3179
g92
g93
ssg81
g3173
sg74
(lp3180
S'hmac_key'
p3181
asbag67
(g88
g69
NtRp3182
(dp3183
g72
(dp3184
g99
g100
ssg81
g3173
sg74
(lp3185
S':'
asbag67
(g88
g69
NtRp3186
(dp3187
g72
(dp3188
sg81
g3173
sg74
(lp3189
g67
(g68
g69
NtRp3190
(dp3191
g72
(dp3192
g80
I4
ssg81
g3186
sg74
(lp3193
S'3168090d-3c7b-44b5-8451-f19ea84932c1'
p3194
asbasbasbag67
(g83
g69
NtRp3195
(dp3196
g72
(dp3197
sg81
g3147
sg74
(lp3198
g67
(g88
g69
NtRp3199
(dp3200
g72
(dp3201
g92
g93
ssg81
g3195
sg74
(lp3202
S'last_visit'
p3203
asbag67
(g88
g69
NtRp3204
(dp3205
g72
(dp3206
g99
g100
ssg81
g3195
sg74
(lp3207
S':'
asbag67
(g88
g69
NtRp3208
(dp3209
g72
(dp3210
sg81
g3195
sg74
(lp3211
g67
(g68
g69
NtRp3212
(dp3213
g72
(dp3214
g80
I4
ssg81
g3208
sg74
(lp3215
S'datetime.datetime(2012, 1, 16, 15, 22, 16, 612921)'
p3216
asbasbasbag67
(g83
g69
NtRp3217
(dp3218
g72
(dp3219
sg81
g3147
sg74
(lp3220
g67
(g88
g69
NtRp3221
(dp3222
g72
(dp3223
g92
g93
ssg81
g3217
sg74
(lp3224
S'remember'
p3225
asbag67
(g88
g69
NtRp3226
(dp3227
g72
(dp3228
g99
g100
ssg81
g3217
sg74
(lp3229
S':'
asbag67
(g88
g69
NtRp3230
(dp3231
g72
(dp3232
sg81
g3217
sg74
(lp3233
g67
(g68
g69
NtRp3234
(dp3235
g72
(dp3236
g80
I4
ssg81
g3230
sg74
(lp3237
g110
asbasbasbag67
(g83
g69
NtRp3238
(dp3239
g72
(dp3240
sg81
g3147
sg74
(lp3241
g67
(g88
g69
NtRp3242
(dp3243
g72
(dp3244
g92
g93
ssg81
g3238
sg74
(lp3245
S'user'
p3246
asbag67
(g88
g69
NtRp3247
(dp3248
g72
(dp3249
g99
g100
ssg81
g3238
sg74
(lp3250
S':'
asbag67
(g88
g69
NtRp3251
(dp3252
g72
(dp3253
sg81
g3238
sg74
(lp3254
g67
(g68
g69
NtRp3255
(dp3256
g72
(dp3257
g80
I4
ssg81
g3251
sg74
(lp3258
g67
(g76
g69
NtRp3259
(dp3260
g72
(dp3261
g80
I3
ssg81
Nsg74
(lp3262
g67
(g83
g69
NtRp3263
(dp3264
g72
(dp3265
sg81
g3259
sg74
(lp3266
g67
(g88
g69
NtRp3267
(dp3268
g72
(dp3269
g92
g93
ssg81
g3263
sg74
(lp3270
S'email'
p3271
asbag67
(g88
g69
NtRp3272
(dp3273
g72
(dp3274
g99
g100
ssg81
g3263
sg74
(lp3275
S':'
asbag67
(g88
g69
NtRp3276
(dp3277
g72
(dp3278
sg81
g3263
sg74
(lp3279
g67
(g68
g69
NtRp3280
(dp3281
g72
(dp3282
g80
I3
ssg81
g3276
sg74
(lp3283
S'kaique.developer@gmail.com'
p3284
asbasbasbag67
(g83
g69
NtRp3285
(dp3286
g72
(dp3287
sg81
g3259
sg74
(lp3288
g67
(g88
g69
NtRp3289
(dp3290
g72
(dp3291
g92
g93
ssg81
g3285
sg74
(lp3292
S'first_name'
p3293
asbag67
(g88
g69
NtRp3294
(dp3295
g72
(dp3296
g99
g100
ssg81
g3285
sg74
(lp3297
S':'
asbag67
(g88
g69
NtRp3298
(dp3299
g72
(dp3300
sg81
g3285
sg74
(lp3301
g67
(g68
g69
NtRp3302
(dp3303
g72
(dp3304
g80
I3
ssg81
g3298
sg74
(lp3305
S'kaique'
p3306
asbasbasbag67
(g83
g69
NtRp3307
(dp3308
g72
(dp3309
sg81
g3259
sg74
(lp3310
g67
(g88
g69
NtRp3311
(dp3312
g72
(dp3313
g92
g93
ssg81
g3307
sg74
(lp3314
S'id'
p3315
asbag67
(g88
g69
NtRp3316
(dp3317
g72
(dp3318
g99
g100
ssg81
g3307
sg74
(lp3319
S':'
asbag67
(g88
g69
NtRp3320
(dp3321
g72
(dp3322
sg81
g3307
sg74
(lp3323
g67
(g68
g69
NtRp3324
(dp3325
g72
(dp3326
g80
I3
ssg81
g3320
sg74
(lp3327
S'1'
asbasbasbag67
(g83
g69
NtRp3328
(dp3329
g72
(dp3330
sg81
g3259
sg74
(lp3331
g67
(g88
g69
NtRp3332
(dp3333
g72
(dp3334
g92
g93
ssg81
g3328
sg74
(lp3335
S'last_name'
p3336
asbag67
(g88
g69
NtRp3337
(dp3338
g72
(dp3339
g99
g100
ssg81
g3328
sg74
(lp3340
S':'
asbag67
(g88
g69
NtRp3341
(dp3342
g72
(dp3343
sg81
g3328
sg74
(lp3344
g67
(g68
g69
NtRp3345
(dp3346
g72
(dp3347
g80
I3
ssg81
g3341
sg74
(lp3348
S'silva'
p3349
asbasbasbag67
(g83
g69
NtRp3350
(dp3351
g72
(dp3352
sg81
g3259
sg74
(lp3353
g67
(g88
g69
NtRp3354
(dp3355
g72
(dp3356
g92
g93
ssg81
g3350
sg74
(lp3357
S'password'
p3358
asbag67
(g88
g69
NtRp3359
(dp3360
g72
(dp3361
g99
g100
ssg81
g3350
sg74
(lp3362
S':'
asbag67
(g88
g69
NtRp3363
(dp3364
g72
(dp3365
sg81
g3350
sg74
(lp3366
g67
(g68
g69
NtRp3367
(dp3368
g72
(dp3369
g80
I3
ssg81
g3363
sg74
(lp3370
S'72c6a018d62d3fb47d95389e4a062cd2'
p3371
asbasbasbag67
(g83
g69
NtRp3372
(dp3373
g72
(dp3374
sg81
g3259
sg74
(lp3375
g67
(g88
g69
NtRp3376
(dp3377
g72
(dp3378
g92
g93
ssg81
g3372
sg74
(lp3379
S'registration_key'
p3380
asbag67
(g88
g69
NtRp3381
(dp3382
g72
(dp3383
g99
g100
ssg81
g3372
sg74
(lp3384
S':'
asbag67
(g88
g69
NtRp3385
(dp3386
g72
(dp3387
sg81
g3372
sg74
(lp3388
g67
(g68
g69
NtRp3389
(dp3390
g72
(dp3391
g80
I3
ssg81
g3385
sg74
(lp3392
S''
asbasbasbag67
(g83
g69
NtRp3393
(dp3394
g72
(dp3395
sg81
g3259
sg74
(lp3396
g67
(g88
g69
NtRp3397
(dp3398
g72
(dp3399
g92
g93
ssg81
g3393
sg74
(lp3400
S'reset_password_key'
p3401
asbag67
(g88
g69
NtRp3402
(dp3403
g72
(dp3404
g99
g100
ssg81
g3393
sg74
(lp3405
S':'
asbag67
(g88
g69
NtRp3406
(dp3407
g72
(dp3408
sg81
g3393
sg74
(lp3409
g67
(g68
g69
NtRp3410
(dp3411
g72
(dp3412
g80
I3
ssg81
g3406
sg74
(lp3413
S''
asbasbasbasbasbasbasbasbasbasbasbag67
(g83
g69
NtRp3414
(dp3415
g72
(dp3416
sg81
g3122
sg74
(lp3417
g67
(g88
g69
NtRp3418
(dp3419
g72
(dp3420
g92
g93
ssg81
g3414
sg74
(lp3421
S'back'
p3422
asbag67
(g88
g69
NtRp3423
(dp3424
g72
(dp3425
g99
g100
ssg81
g3414
sg74
(lp3426
S':'
asbag67
(g88
g69
NtRp3427
(dp3428
g72
(dp3429
sg81
g3414
sg74
(lp3430
g67
(g68
g69
NtRp3431
(dp3432
g72
(dp3433
g80
I5
ssg81
g3427
sg74
(lp3434
S'1'
asbasbasbag67
(g83
g69
NtRp3435
(dp3436
g72
(dp3437
sg81
g3122
sg74
(lp3438
g67
(g88
g69
NtRp3439
(dp3440
g72
(dp3441
g92
g93
ssg81
g3435
sg74
(lp3442
S'index'
p3443
asbag67
(g88
g69
NtRp3444
(dp3445
g72
(dp3446
g99
g100
ssg81
g3435
sg74
(lp3447
S':'
asbag67
(g88
g69
NtRp3448
(dp3449
g72
(dp3450
sg81
g3435
sg74
(lp3451
g67
(g68
g69
NtRp3452
(dp3453
g72
(dp3454
g80
I5
ssg81
g3448
sg74
(lp3455
S'1'
asbasbasbasbasbsS'etype'
p3456
S"<type 'exceptions.SyntaxError'>"
p3457
sS'date'
p3458
S'Mon Jan 16 15:46:58 2012'
p3459
sS'response'
p3460
g67
(g68
g69
NtRp3461
(dp3462
g72
(dp3463
sg74
(lp3464
g67
(g76
g69
NtRp3465
(dp3466
g72
(dp3467
g80
I5
ssg81
Nsg74
(lp3468
g67
(g83
g69
NtRp3469
(dp3470
g72
(dp3471
sg81
g3465
sg74
(lp3472
g67
(g88
g69
NtRp3473
(dp3474
g72
(dp3475
g92
g93
ssg81
g3469
sg74
(lp3476
g190
asbag67
(g88
g69
NtRp3477
(dp3478
g72
(dp3479
g99
g100
ssg81
g3469
sg74
(lp3480
S':'
asbag67
(g88
g69
NtRp3481
(dp3482
g72
(dp3483
sg81
g3469
sg74
(lp3484
g67
(g68
g69
NtRp3485
(dp3486
g72
(dp3487
g80
I5
ssg81
g3481
sg74
(lp3488
S'<cStringIO.StringO object at 0x3e3c068>'
p3489
asbasbasbag67
(g83
g69
NtRp3490
(dp3491
g72
(dp3492
sg81
g3465
sg74
(lp3493
g67
(g88
g69
NtRp3494
(dp3495
g72
(dp3496
g92
g93
ssg81
g3490
sg74
(lp3497
g256
asbag67
(g88
g69
NtRp3498
(dp3499
g72
(dp3500
g99
g100
ssg81
g3490
sg74
(lp3501
S':'
asbag67
(g88
g69
NtRp3502
(dp3503
g72
(dp3504
sg81
g3490
sg74
(lp3505
g67
(g68
g69
NtRp3506
(dp3507
g72
(dp3508
g80
I5
ssg81
g3502
sg74
(lp3509
g67
(g76
g69
NtRp3510
(dp3511
g72
(dp3512
g80
I4
ssg81
Nsg74
(lp3513
g67
(g83
g69
NtRp3514
(dp3515
g72
(dp3516
sg81
g3510
sg74
(lp3517
g67
(g88
g69
NtRp3518
(dp3519
g72
(dp3520
g92
g93
ssg81
g3514
sg74
(lp3521
S'session_id_synopsis'
p3522
asbag67
(g88
g69
NtRp3523
(dp3524
g72
(dp3525
g99
g100
ssg81
g3514
sg74
(lp3526
S':'
asbag67
(g88
g69
NtRp3527
(dp3528
g72
(dp3529
sg81
g3514
sg74
(lp3530
g67
(g68
g69
NtRp3531
(dp3532
g72
(dp3533
g80
I4
ssg81
g3527
sg74
(lp3534
g67
(g76
g69
NtRp3535
(dp3536
g72
(dp3537
g80
I3
ssg81
Nsg74
(lp3538
g67
(g83
g69
NtRp3539
(dp3540
g72
(dp3541
sg81
g3535
sg74
(lp3542
g67
(g88
g69
NtRp3543
(dp3544
g72
(dp3545
g92
g93
ssg81
g3539
sg74
(lp3546
g306
asbag67
(g88
g69
NtRp3547
(dp3548
g72
(dp3549
g99
g100
ssg81
g3539
sg74
(lp3550
S':'
asbag67
(g88
g69
NtRp3551
(dp3552
g72
(dp3553
sg81
g3539
sg74
(lp3554
g67
(g68
g69
NtRp3555
(dp3556
g72
(dp3557
g80
I3
ssg81
g3551
sg74
(lp3558
S''
asbasbasbag67
(g83
g69
NtRp3559
(dp3560
g72
(dp3561
sg81
g3535
sg74
(lp3562
g67
(g88
g69
NtRp3563
(dp3564
g72
(dp3565
g92
g93
ssg81
g3559
sg74
(lp3566
g327
asbag67
(g88
g69
NtRp3567
(dp3568
g72
(dp3569
g99
g100
ssg81
g3559
sg74
(lp3570
S':'
asbag67
(g88
g69
NtRp3571
(dp3572
g72
(dp3573
sg81
g3559
sg74
(lp3574
g67
(g68
g69
NtRp3575
(dp3576
g72
(dp3577
g80
I3
ssg81
g3571
sg74
(lp3578
S''
asbasbasbag67
(g83
g69
NtRp3579
(dp3580
g72
(dp3581
sg81
g3535
sg74
(lp3582
g67
(g88
g69
NtRp3583
(dp3584
g72
(dp3585
g92
g93
ssg81
g3579
sg74
(lp3586
g348
asbag67
(g88
g69
NtRp3587
(dp3588
g72
(dp3589
g99
g100
ssg81
g3579
sg74
(lp3590
S':'
asbag67
(g88
g69
NtRp3591
(dp3592
g72
(dp3593
sg81
g3579
sg74
(lp3594
g67
(g68
g69
NtRp3595
(dp3596
g72
(dp3597
g80
I3
ssg81
g3591
sg74
(lp3598
S''
asbasbasbag67
(g83
g69
NtRp3599
(dp3600
g72
(dp3601
sg81
g3535
sg74
(lp3602
g67
(g88
g69
NtRp3603
(dp3604
g72
(dp3605
g92
g93
ssg81
g3599
sg74
(lp3606
g369
asbag67
(g88
g69
NtRp3607
(dp3608
g72
(dp3609
g99
g100
ssg81
g3599
sg74
(lp3610
S':'
asbag67
(g88
g69
NtRp3611
(dp3612
g72
(dp3613
sg81
g3599
sg74
(lp3614
g67
(g68
g69
NtRp3615
(dp3616
g72
(dp3617
g80
I3
ssg81
g3611
sg74
(lp3618
S''
asbasbasbag67
(g83
g69
NtRp3619
(dp3620
g72
(dp3621
sg81
g3535
sg74
(lp3622
g67
(g88
g69
NtRp3623
(dp3624
g72
(dp3625
g92
g93
ssg81
g3619
sg74
(lp3626
g390
asbag67
(g88
g69
NtRp3627
(dp3628
g72
(dp3629
g99
g100
ssg81
g3619
sg74
(lp3630
S':'
asbag67
(g88
g69
NtRp3631
(dp3632
g72
(dp3633
sg81
g3619
sg74
(lp3634
g67
(g68
g69
NtRp3635
(dp3636
g72
(dp3637
g80
I3
ssg81
g3631
sg74
(lp3638
S''
asbasbasbag67
(g83
g69
NtRp3639
(dp3640
g72
(dp3641
sg81
g3535
sg74
(lp3642
g67
(g88
g69
NtRp3643
(dp3644
g72
(dp3645
g92
g93
ssg81
g3639
sg74
(lp3646
g411
asbag67
(g88
g69
NtRp3647
(dp3648
g72
(dp3649
g99
g100
ssg81
g3639
sg74
(lp3650
S':'
asbag67
(g88
g69
NtRp3651
(dp3652
g72
(dp3653
sg81
g3639
sg74
(lp3654
g67
(g68
g69
NtRp3655
(dp3656
g72
(dp3657
g80
I3
ssg81
g3651
sg74
(lp3658
S'/'
asbasbasbag67
(g83
g69
NtRp3659
(dp3660
g72
(dp3661
sg81
g3535
sg74
(lp3662
g67
(g88
g69
NtRp3663
(dp3664
g72
(dp3665
g92
g93
ssg81
g3659
sg74
(lp3666
g432
asbag67
(g88
g69
NtRp3667
(dp3668
g72
(dp3669
g99
g100
ssg81
g3659
sg74
(lp3670
S':'
asbag67
(g88
g69
NtRp3671
(dp3672
g72
(dp3673
sg81
g3659
sg74
(lp3674
g67
(g68
g69
NtRp3675
(dp3676
g72
(dp3677
g80
I3
ssg81
g3671
sg74
(lp3678
S''
asbasbasbag67
(g83
g69
NtRp3679
(dp3680
g72
(dp3681
sg81
g3535
sg74
(lp3682
g67
(g88
g69
NtRp3683
(dp3684
g72
(dp3685
g92
g93
ssg81
g3679
sg74
(lp3686
g453
asbag67
(g88
g69
NtRp3687
(dp3688
g72
(dp3689
g99
g100
ssg81
g3679
sg74
(lp3690
S':'
asbag67
(g88
g69
NtRp3691
(dp3692
g72
(dp3693
sg81
g3679
sg74
(lp3694
g67
(g68
g69
NtRp3695
(dp3696
g72
(dp3697
g80
I3
ssg81
g3691
sg74
(lp3698
S''
asbasbasbasbasbasbasbasbasbasbasbag67
(g83
g69
NtRp3699
(dp3700
g72
(dp3701
sg81
g3465
sg74
(lp3702
g67
(g88
g69
NtRp3703
(dp3704
g72
(dp3705
g92
g93
ssg81
g3699
sg74
(lp3706
S'files'
p3707
asbag67
(g88
g69
NtRp3708
(dp3709
g72
(dp3710
g99
g100
ssg81
g3699
sg74
(lp3711
S':'
asbag67
(g88
g69
NtRp3712
(dp3713
g72
(dp3714
sg81
g3699
sg74
(lp3715
g67
(g68
g69
NtRp3716
(dp3717
g72
(dp3718
g80
I5
ssg81
g3712
sg74
(lp3719
g67
(g76
g69
NtRp3720
(dp3721
g72
(dp3722
g80
I4
ssg81
Nsg74
(lp3723
sbasbasbasbag67
(g83
g69
NtRp3724
(dp3725
g72
(dp3726
sg81
g3465
sg74
(lp3727
g67
(g88
g69
NtRp3728
(dp3729
g72
(dp3730
g92
g93
ssg81
g3724
sg74
(lp3731
S'flash'
p3732
asbag67
(g88
g69
NtRp3733
(dp3734
g72
(dp3735
g99
g100
ssg81
g3724
sg74
(lp3736
S':'
asbag67
(g88
g69
NtRp3737
(dp3738
g72
(dp3739
sg81
g3724
sg74
(lp3740
g67
(g68
g69
NtRp3741
(dp3742
g72
(dp3743
g80
I5
ssg81
g3737
sg74
(lp3744
S''
asbasbasbag67
(g83
g69
NtRp3745
(dp3746
g72
(dp3747
sg81
g3465
sg74
(lp3748
g67
(g88
g69
NtRp3749
(dp3750
g72
(dp3751
g92
g93
ssg81
g3745
sg74
(lp3752
S'generic_patterns'
p3753
asbag67
(g88
g69
NtRp3754
(dp3755
g72
(dp3756
g99
g100
ssg81
g3745
sg74
(lp3757
S':'
asbag67
(g88
g69
NtRp3758
(dp3759
g72
(dp3760
sg81
g3745
sg74
(lp3761
g67
(g68
g69
NtRp3762
(dp3763
g72
(dp3764
g80
I5
ssg81
g3758
sg74
(lp3765
g67
(g76
g69
NtRp3766
(dp3767
g72
(dp3768
g80
I4
ssg81
Nsg74
(lp3769
g67
(g83
g69
NtRp3770
(dp3771
g72
(dp3772
sg81
g3766
sg74
(lp3773
g67
(g88
g69
NtRp3774
(dp3775
g72
(dp3776
sg81
g3770
sg74
(lp3777
g67
(g68
g69
NtRp3778
(dp3779
g72
(dp3780
g80
I4
ssg81
g3774
sg74
(lp3781
S'*'
asbasbasbasbasbasbasbag67
(g83
g69
NtRp3782
(dp3783
g72
(dp3784
sg81
g3465
sg74
(lp3785
g67
(g88
g69
NtRp3786
(dp3787
g72
(dp3788
g92
g93
ssg81
g3782
sg74
(lp3789
S'headers'
p3790
asbag67
(g88
g69
NtRp3791
(dp3792
g72
(dp3793
g99
g100
ssg81
g3782
sg74
(lp3794
S':'
asbag67
(g88
g69
NtRp3795
(dp3796
g72
(dp3797
sg81
g3782
sg74
(lp3798
g67
(g68
g69
NtRp3799
(dp3800
g72
(dp3801
g80
I5
ssg81
g3795
sg74
(lp3802
g67
(g76
g69
NtRp3803
(dp3804
g72
(dp3805
g80
I4
ssg81
Nsg74
(lp3806
g67
(g83
g69
NtRp3807
(dp3808
g72
(dp3809
sg81
g3803
sg74
(lp3810
g67
(g88
g69
NtRp3811
(dp3812
g72
(dp3813
g92
g93
ssg81
g3807
sg74
(lp3814
S'Cache-Control'
p3815
asbag67
(g88
g69
NtRp3816
(dp3817
g72
(dp3818
g99
g100
ssg81
g3807
sg74
(lp3819
S':'
asbag67
(g88
g69
NtRp3820
(dp3821
g72
(dp3822
sg81
g3807
sg74
(lp3823
g67
(g68
g69
NtRp3824
(dp3825
g72
(dp3826
g80
I4
ssg81
g3820
sg74
(lp3827
S'no-store, no-cache, must-revalidate, post-check=0, pre-check=0'
p3828
asbasbasbag67
(g83
g69
NtRp3829
(dp3830
g72
(dp3831
sg81
g3803
sg74
(lp3832
g67
(g88
g69
NtRp3833
(dp3834
g72
(dp3835
g92
g93
ssg81
g3829
sg74
(lp3836
S'Content-Type'
p3837
asbag67
(g88
g69
NtRp3838
(dp3839
g72
(dp3840
g99
g100
ssg81
g3829
sg74
(lp3841
S':'
asbag67
(g88
g69
NtRp3842
(dp3843
g72
(dp3844
sg81
g3829
sg74
(lp3845
g67
(g68
g69
NtRp3846
(dp3847
g72
(dp3848
g80
I4
ssg81
g3842
sg74
(lp3849
S'text/html; charset=utf-8'
p3850
asbasbasbag67
(g83
g69
NtRp3851
(dp3852
g72
(dp3853
sg81
g3803
sg74
(lp3854
g67
(g88
g69
NtRp3855
(dp3856
g72
(dp3857
g92
g93
ssg81
g3851
sg74
(lp3858
S'Expires'
p3859
asbag67
(g88
g69
NtRp3860
(dp3861
g72
(dp3862
g99
g100
ssg81
g3851
sg74
(lp3863
S':'
asbag67
(g88
g69
NtRp3864
(dp3865
g72
(dp3866
sg81
g3851
sg74
(lp3867
g67
(g68
g69
NtRp3868
(dp3869
g72
(dp3870
g80
I4
ssg81
g3864
sg74
(lp3871
S'Mon, 16 Jan 2012 17:46:58 GMT'
p3872
asbasbasbag67
(g83
g69
NtRp3873
(dp3874
g72
(dp3875
sg81
g3803
sg74
(lp3876
g67
(g88
g69
NtRp3877
(dp3878
g72
(dp3879
g92
g93
ssg81
g3873
sg74
(lp3880
S'Pragma'
p3881
asbag67
(g88
g69
NtRp3882
(dp3883
g72
(dp3884
g99
g100
ssg81
g3873
sg74
(lp3885
S':'
asbag67
(g88
g69
NtRp3886
(dp3887
g72
(dp3888
sg81
g3873
sg74
(lp3889
g67
(g68
g69
NtRp3890
(dp3891
g72
(dp3892
g80
I4
ssg81
g3886
sg74
(lp3893
S'no-cache'
p3894
asbasbasbag67
(g83
g69
NtRp3895
(dp3896
g72
(dp3897
sg81
g3803
sg74
(lp3898
g67
(g88
g69
NtRp3899
(dp3900
g72
(dp3901
g92
g93
ssg81
g3895
sg74
(lp3902
S'X-Powered-By'
p3903
asbag67
(g88
g69
NtRp3904
(dp3905
g72
(dp3906
g99
g100
ssg81
g3895
sg74
(lp3907
S':'
asbag67
(g88
g69
NtRp3908
(dp3909
g72
(dp3910
sg81
g3895
sg74
(lp3911
g67
(g68
g69
NtRp3912
(dp3913
g72
(dp3914
g80
I4
ssg81
g3908
sg74
(lp3915
S'web2py'
p3916
asbasbasbasbasbasbasbag67
(g83
g69
NtRp3917
(dp3918
g72
(dp3919
sg81
g3465
sg74
(lp3920
g67
(g88
g69
NtRp3921
(dp3922
g72
(dp3923
g92
g93
ssg81
g3917
sg74
(lp3924
S'menu'
p3925
asbag67
(g88
g69
NtRp3926
(dp3927
g72
(dp3928
g99
g100
ssg81
g3917
sg74
(lp3929
S':'
asbag67
(g88
g69
NtRp3930
(dp3931
g72
(dp3932
sg81
g3917
sg74
(lp3933
g67
(g68
g69
NtRp3934
(dp3935
g72
(dp3936
g80
I5
ssg81
g3930
sg74
(lp3937
g67
(g76
g69
NtRp3938
(dp3939
g72
(dp3940
g80
I4
ssg81
Nsg74
(lp3941
g67
(g83
g69
NtRp3942
(dp3943
g72
(dp3944
sg81
g3938
sg74
(lp3945
g67
(g88
g69
NtRp3946
(dp3947
g72
(dp3948
sg81
g3942
sg74
(lp3949
g67
(g68
g69
NtRp3950
(dp3951
g72
(dp3952
g80
I4
ssg81
g3946
sg74
(lp3953
g67
(g76
g69
NtRp3954
(dp3955
g72
(dp3956
g80
I3
ssg81
Nsg74
(lp3957
g67
(g83
g69
NtRp3958
(dp3959
g72
(dp3960
sg81
g3954
sg74
(lp3961
g67
(g88
g69
NtRp3962
(dp3963
g72
(dp3964
sg81
g3958
sg74
(lp3965
g67
(g68
g69
NtRp3966
(dp3967
g72
(dp3968
g80
I3
ssg81
g3962
sg74
(lp3969
cgluon.languages
lazyT_unpickle
p3970
(S't\x06\x00\x00\x00Inicio'
tRp3971
asbasbasbag67
(g83
g69
NtRp3972
(dp3973
g72
(dp3974
sg81
g3954
sg74
(lp3975
g67
(g88
g69
NtRp3976
(dp3977
g72
(dp3978
sg81
g3972
sg74
(lp3979
g67
(g68
g69
NtRp3980
(dp3981
g72
(dp3982
g80
I3
ssg81
g3976
sg74
(lp3983
g110
asbasbasbag67
(g83
g69
NtRp3984
(dp3985
g72
(dp3986
sg81
g3954
sg74
(lp3987
g67
(g88
g69
NtRp3988
(dp3989
g72
(dp3990
sg81
g3984
sg74
(lp3991
g67
(g68
g69
NtRp3992
(dp3993
g72
(dp3994
g80
I3
ssg81
g3988
sg74
(lp3995
S'/synopsis/default/index'
p3996
asbasbasbag67
(g83
g69
NtRp3997
(dp3998
g72
(dp3999
sg81
g3954
sg74
(lp4000
g67
(g88
g69
NtRp4001
(dp4002
g72
(dp4003
sg81
g3997
sg74
(lp4004
g67
(g68
g69
NtRp4005
(dp4006
g72
(dp4007
g80
I3
ssg81
g4001
sg74
(lp4008
g67
(g76
g69
NtRp4009
(dp4010
g72
(dp4011
g80
I2
ssg81
Nsg74
(lp4012
sbasbasbasbasbasbasbasbag67
(g83
g69
NtRp4013
(dp4014
g72
(dp4015
sg81
g3938
sg74
(lp4016
g67
(g88
g69
NtRp4017
(dp4018
g72
(dp4019
sg81
g4013
sg74
(lp4020
g67
(g68
g69
NtRp4021
(dp4022
g72
(dp4023
g80
I4
ssg81
g4017
sg74
(lp4024
g67
(g76
g69
NtRp4025
(dp4026
g72
(dp4027
g80
I3
ssg81
Nsg74
(lp4028
g67
(g83
g69
NtRp4029
(dp4030
g72
(dp4031
sg81
g4025
sg74
(lp4032
g67
(g88
g69
NtRp4033
(dp4034
g72
(dp4035
sg81
g4029
sg74
(lp4036
g67
(g68
g69
NtRp4037
(dp4038
g72
(dp4039
g80
I3
ssg81
g4033
sg74
(lp4040
g3970
(S's\r\x00\x00\x00Informa\xc3\xa7\xc3\xb5es'
tRp4041
asbasbasbag67
(g83
g69
NtRp4042
(dp4043
g72
(dp4044
sg81
g4025
sg74
(lp4045
g67
(g88
g69
NtRp4046
(dp4047
g72
(dp4048
sg81
g4042
sg74
(lp4049
g67
(g68
g69
NtRp4050
(dp4051
g72
(dp4052
g80
I3
ssg81
g4046
sg74
(lp4053
g110
asbasbasbag67
(g83
g69
NtRp4054
(dp4055
g72
(dp4056
sg81
g4025
sg74
(lp4057
g67
(g88
g69
NtRp4058
(dp4059
g72
(dp4060
sg81
g4054
sg74
(lp4061
g67
(g68
g69
NtRp4062
(dp4063
g72
(dp4064
g80
I3
ssg81
g4058
sg74
(lp4065
S'/synopsis/information/index'
p4066
asbasbasbag67
(g83
g69
NtRp4067
(dp4068
g72
(dp4069
sg81
g4025
sg74
(lp4070
g67
(g88
g69
NtRp4071
(dp4072
g72
(dp4073
sg81
g4067
sg74
(lp4074
g67
(g68
g69
NtRp4075
(dp4076
g72
(dp4077
g80
I3
ssg81
g4071
sg74
(lp4078
g67
(g76
g69
NtRp4079
(dp4080
g72
(dp4081
g80
I2
ssg81
Nsg74
(lp4082
sbasbasbasbasbasbasbasbag67
(g83
g69
NtRp4083
(dp4084
g72
(dp4085
sg81
g3938
sg74
(lp4086
g67
(g88
g69
NtRp4087
(dp4088
g72
(dp4089
sg81
g4083
sg74
(lp4090
g67
(g68
g69
NtRp4091
(dp4092
g72
(dp4093
g80
I4
ssg81
g4087
sg74
(lp4094
g67
(g76
g69
NtRp4095
(dp4096
g72
(dp4097
g80
I3
ssg81
Nsg74
(lp4098
g67
(g83
g69
NtRp4099
(dp4100
g72
(dp4101
sg81
g4095
sg74
(lp4102
g67
(g88
g69
NtRp4103
(dp4104
g72
(dp4105
sg81
g4099
sg74
(lp4106
g67
(g68
g69
NtRp4107
(dp4108
g72
(dp4109
g80
I3
ssg81
g4103
sg74
(lp4110
g3970
(S't\x05\x00\x00\x00Sobre'
tRp4111
asbasbasbag67
(g83
g69
NtRp4112
(dp4113
g72
(dp4114
sg81
g4095
sg74
(lp4115
g67
(g88
g69
NtRp4116
(dp4117
g72
(dp4118
sg81
g4112
sg74
(lp4119
g67
(g68
g69
NtRp4120
(dp4121
g72
(dp4122
g80
I3
ssg81
g4116
sg74
(lp4123
g110
asbasbasbag67
(g83
g69
NtRp4124
(dp4125
g72
(dp4126
sg81
g4095
sg74
(lp4127
g67
(g88
g69
NtRp4128
(dp4129
g72
(dp4130
sg81
g4124
sg74
(lp4131
g67
(g68
g69
NtRp4132
(dp4133
g72
(dp4134
g80
I3
ssg81
g4128
sg74
(lp4135
S'/synopsis/default/about'
p4136
asbasbasbag67
(g83
g69
NtRp4137
(dp4138
g72
(dp4139
sg81
g4095
sg74
(lp4140
g67
(g88
g69
NtRp4141
(dp4142
g72
(dp4143
sg81
g4137
sg74
(lp4144
g67
(g68
g69
NtRp4145
(dp4146
g72
(dp4147
g80
I3
ssg81
g4141
sg74
(lp4148
g67
(g76
g69
NtRp4149
(dp4150
g72
(dp4151
g80
I2
ssg81
Nsg74
(lp4152
sbasbasbasbasbasbasbasbasbasbasbasbag67
(g83
g69
NtRp4153
(dp4154
g72
(dp4155
sg81
g3465
sg74
(lp4156
g67
(g88
g69
NtRp4157
(dp4158
g72
(dp4159
g92
g93
ssg81
g4153
sg74
(lp4160
S'meta'
p4161
asbag67
(g88
g69
NtRp4162
(dp4163
g72
(dp4164
g99
g100
ssg81
g4153
sg74
(lp4165
S':'
asbag67
(g88
g69
NtRp4166
(dp4167
g72
(dp4168
sg81
g4153
sg74
(lp4169
g67
(g68
g69
NtRp4170
(dp4171
g72
(dp4172
g80
I5
ssg81
g4166
sg74
(lp4173
g67
(g76
g69
NtRp4174
(dp4175
g72
(dp4176
g80
I4
ssg81
Nsg74
(lp4177
g67
(g83
g69
NtRp4178
(dp4179
g72
(dp4180
sg81
g4174
sg74
(lp4181
g67
(g88
g69
NtRp4182
(dp4183
g72
(dp4184
g92
g93
ssg81
g4178
sg74
(lp4185
S'author'
p4186
asbag67
(g88
g69
NtRp4187
(dp4188
g72
(dp4189
g99
g100
ssg81
g4178
sg74
(lp4190
S':'
asbag67
(g88
g69
NtRp4191
(dp4192
g72
(dp4193
sg81
g4178
sg74
(lp4194
g67
(g68
g69
NtRp4195
(dp4196
g72
(dp4197
g80
I4
ssg81
g4191
sg74
(lp4198
S'Your Name <you@example.com>'
p4199
asbasbasbag67
(g83
g69
NtRp4200
(dp4201
g72
(dp4202
sg81
g4174
sg74
(lp4203
g67
(g88
g69
NtRp4204
(dp4205
g72
(dp4206
g92
g93
ssg81
g4200
sg74
(lp4207
S'copyright'
p4208
asbag67
(g88
g69
NtRp4209
(dp4210
g72
(dp4211
g99
g100
ssg81
g4200
sg74
(lp4212
S':'
asbag67
(g88
g69
NtRp4213
(dp4214
g72
(dp4215
sg81
g4200
sg74
(lp4216
g67
(g68
g69
NtRp4217
(dp4218
g72
(dp4219
g80
I4
ssg81
g4213
sg74
(lp4220
S'Copyright 2011'
p4221
asbasbasbag67
(g83
g69
NtRp4222
(dp4223
g72
(dp4224
sg81
g4174
sg74
(lp4225
g67
(g88
g69
NtRp4226
(dp4227
g72
(dp4228
g92
g93
ssg81
g4222
sg74
(lp4229
S'description'
p4230
asbag67
(g88
g69
NtRp4231
(dp4232
g72
(dp4233
g99
g100
ssg81
g4222
sg74
(lp4234
S':'
asbag67
(g88
g69
NtRp4235
(dp4236
g72
(dp4237
sg81
g4222
sg74
(lp4238
g67
(g68
g69
NtRp4239
(dp4240
g72
(dp4241
g80
I4
ssg81
g4235
sg74
(lp4242
S'a cool new app'
p4243
asbasbasbag67
(g83
g69
NtRp4244
(dp4245
g72
(dp4246
sg81
g4174
sg74
(lp4247
g67
(g88
g69
NtRp4248
(dp4249
g72
(dp4250
g92
g93
ssg81
g4244
sg74
(lp4251
S'generator'
p4252
asbag67
(g88
g69
NtRp4253
(dp4254
g72
(dp4255
g99
g100
ssg81
g4244
sg74
(lp4256
S':'
asbag67
(g88
g69
NtRp4257
(dp4258
g72
(dp4259
sg81
g4244
sg74
(lp4260
g67
(g68
g69
NtRp4261
(dp4262
g72
(dp4263
g80
I4
ssg81
g4257
sg74
(lp4264
S'Web2py Web Framework'
p4265
asbasbasbag67
(g83
g69
NtRp4266
(dp4267
g72
(dp4268
sg81
g4174
sg74
(lp4269
g67
(g88
g69
NtRp4270
(dp4271
g72
(dp4272
g92
g93
ssg81
g4266
sg74
(lp4273
S'keywords'
p4274
asbag67
(g88
g69
NtRp4275
(dp4276
g72
(dp4277
g99
g100
ssg81
g4266
sg74
(lp4278
S':'
asbag67
(g88
g69
NtRp4279
(dp4280
g72
(dp4281
sg81
g4266
sg74
(lp4282
g67
(g68
g69
NtRp4283
(dp4284
g72
(dp4285
g80
I4
ssg81
g4279
sg74
(lp4286
S'web2py, python, framework'
p4287
asbasbasbasbasbasbasbag67
(g83
g69
NtRp4288
(dp4289
g72
(dp4290
sg81
g3465
sg74
(lp4291
g67
(g88
g69
NtRp4292
(dp4293
g72
(dp4294
g92
g93
ssg81
g4288
sg74
(lp4295
S'postprocessing'
p4296
asbag67
(g88
g69
NtRp4297
(dp4298
g72
(dp4299
g99
g100
ssg81
g4288
sg74
(lp4300
S':'
asbag67
(g88
g69
NtRp4301
(dp4302
g72
(dp4303
sg81
g4288
sg74
(lp4304
g67
(g68
g69
NtRp4305
(dp4306
g72
(dp4307
g80
I5
ssg81
g4301
sg74
(lp4308
g67
(g76
g69
NtRp4309
(dp4310
g72
(dp4311
g80
I4
ssg81
Nsg74
(lp4312
sbasbasbasbag67
(g83
g69
NtRp4313
(dp4314
g72
(dp4315
sg81
g3465
sg74
(lp4316
g67
(g88
g69
NtRp4317
(dp4318
g72
(dp4319
g92
g93
ssg81
g4313
sg74
(lp4320
S'session_file'
p4321
asbag67
(g88
g69
NtRp4322
(dp4323
g72
(dp4324
g99
g100
ssg81
g4313
sg74
(lp4325
S':'
asbag67
(g88
g69
NtRp4326
(dp4327
g72
(dp4328
sg81
g4313
sg74
(lp4329
g67
(g68
g69
NtRp4330
(dp4331
g72
(dp4332
g80
I5
ssg81
g4326
sg74
(lp4333
S"<open file '/home/kaique/Projects/web2py/applications/synopsis/sessions/127.0.0.1-b4f447cc-7ffd-43f9-80d9-5b54dcde711e', mode 'rb+' at 0x3923810>"
p4334
asbasbasbag67
(g83
g69
NtRp4335
(dp4336
g72
(dp4337
sg81
g3465
sg74
(lp4338
g67
(g88
g69
NtRp4339
(dp4340
g72
(dp4341
g92
g93
ssg81
g4335
sg74
(lp4342
S'session_filename'
p4343
asbag67
(g88
g69
NtRp4344
(dp4345
g72
(dp4346
g99
g100
ssg81
g4335
sg74
(lp4347
S':'
asbag67
(g88
g69
NtRp4348
(dp4349
g72
(dp4350
sg81
g4335
sg74
(lp4351
g67
(g68
g69
NtRp4352
(dp4353
g72
(dp4354
g80
I5
ssg81
g4348
sg74
(lp4355
S'/home/kaique/Projects/web2py/applications/synopsis/sessions/127.0.0.1-b4f447cc-7ffd-43f9-80d9-5b54dcde711e'
p4356
asbasbasbag67
(g83
g69
NtRp4357
(dp4358
g72
(dp4359
sg81
g3465
sg74
(lp4360
g67
(g88
g69
NtRp4361
(dp4362
g72
(dp4363
g92
g93
ssg81
g4357
sg74
(lp4364
S'session_id'
p4365
asbag67
(g88
g69
NtRp4366
(dp4367
g72
(dp4368
g99
g100
ssg81
g4357
sg74
(lp4369
S':'
asbag67
(g88
g69
NtRp4370
(dp4371
g72
(dp4372
sg81
g4357
sg74
(lp4373
g67
(g68
g69
NtRp4374
(dp4375
g72
(dp4376
g80
I5
ssg81
g4370
sg74
(lp4377
S'127.0.0.1-b4f447cc-7ffd-43f9-80d9-5b54dcde711e'
p4378
asbasbasbag67
(g83
g69
NtRp4379
(dp4380
g72
(dp4381
sg81
g3465
sg74
(lp4382
g67
(g88
g69
NtRp4383
(dp4384
g72
(dp4385
g92
g93
ssg81
g4379
sg74
(lp4386
S'session_id_name'
p4387
asbag67
(g88
g69
NtRp4388
(dp4389
g72
(dp4390
g99
g100
ssg81
g4379
sg74
(lp4391
S':'
asbag67
(g88
g69
NtRp4392
(dp4393
g72
(dp4394
sg81
g4379
sg74
(lp4395
g67
(g68
g69
NtRp4396
(dp4397
g72
(dp4398
g80
I5
ssg81
g4392
sg74
(lp4399
g3522
asbasbasbag67
(g83
g69
NtRp4400
(dp4401
g72
(dp4402
sg81
g3465
sg74
(lp4403
g67
(g88
g69
NtRp4404
(dp4405
g72
(dp4406
g92
g93
ssg81
g4400
sg74
(lp4407
S'session_locked'
p4408
asbag67
(g88
g69
NtRp4409
(dp4410
g72
(dp4411
g99
g100
ssg81
g4400
sg74
(lp4412
S':'
asbag67
(g88
g69
NtRp4413
(dp4414
g72
(dp4415
sg81
g4400
sg74
(lp4416
g67
(g68
g69
NtRp4417
(dp4418
g72
(dp4419
g80
I5
ssg81
g4413
sg74
(lp4420
g1714
asbasbasbag67
(g83
g69
NtRp4421
(dp4422
g72
(dp4423
sg81
g3465
sg74
(lp4424
g67
(g88
g69
NtRp4425
(dp4426
g72
(dp4427
g92
g93
ssg81
g4421
sg74
(lp4428
S'session_new'
p4429
asbag67
(g88
g69
NtRp4430
(dp4431
g72
(dp4432
g99
g100
ssg81
g4421
sg74
(lp4433
S':'
asbag67
(g88
g69
NtRp4434
(dp4435
g72
(dp4436
sg81
g4421
sg74
(lp4437
g67
(g68
g69
NtRp4438
(dp4439
g72
(dp4440
g80
I5
ssg81
g4434
sg74
(lp4441
g110
asbasbasbag67
(g83
g69
NtRp4442
(dp4443
g72
(dp4444
sg81
g3465
sg74
(lp4445
g67
(g88
g69
NtRp4446
(dp4447
g72
(dp4448
g92
g93
ssg81
g4442
sg74
(lp4449
S'status'
p4450
asbag67
(g88
g69
NtRp4451
(dp4452
g72
(dp4453
g99
g100
ssg81
g4442
sg74
(lp4454
S':'
asbag67
(g88
g69
NtRp4455
(dp4456
g72
(dp4457
sg81
g4442
sg74
(lp4458
g67
(g68
g69
NtRp4459
(dp4460
g72
(dp4461
g80
I5
ssg81
g4455
sg74
(lp4462
S'200'
p4463
asbasbasbag67
(g83
g69
NtRp4464
(dp4465
g72
(dp4466
sg81
g3465
sg74
(lp4467
g67
(g88
g69
NtRp4468
(dp4469
g72
(dp4470
g92
g93
ssg81
g4464
sg74
(lp4471
S'subtitle'
p4472
asbag67
(g88
g69
NtRp4473
(dp4474
g72
(dp4475
g99
g100
ssg81
g4464
sg74
(lp4476
S':'
asbag67
(g88
g69
NtRp4477
(dp4478
g72
(dp4479
sg81
g4464
sg74
(lp4480
g67
(g68
g69
NtRp4481
(dp4482
g72
(dp4483
g80
I5
ssg81
g4477
sg74
(lp4484
g3970
(S's\x0f\x00\x00\x00Personalize-me!'
tRp4485
asbasbasbag67
(g83
g69
NtRp4486
(dp4487
g72
(dp4488
sg81
g3465
sg74
(lp4489
g67
(g88
g69
NtRp4490
(dp4491
g72
(dp4492
g92
g93
ssg81
g4486
sg74
(lp4493
S'title'
p4494
asbag67
(g88
g69
NtRp4495
(dp4496
g72
(dp4497
g99
g100
ssg81
g4486
sg74
(lp4498
S':'
asbag67
(g88
g69
NtRp4499
(dp4500
g72
(dp4501
sg81
g4486
sg74
(lp4502
g67
(g68
g69
NtRp4503
(dp4504
g72
(dp4505
g80
I5
ssg81
g4499
sg74
(lp4506
g132
asbasbasbag67
(g83
g69
NtRp4507
(dp4508
g72
(dp4509
sg81
g3465
sg74
(lp4510
g67
(g88
g69
NtRp4511
(dp4512
g72
(dp4513
g92
g93
ssg81
g4507
sg74
(lp4514
g2380
asbag67
(g88
g69
NtRp4515
(dp4516
g72
(dp4517
g99
g100
ssg81
g4507
sg74
(lp4518
S':'
asbag67
(g88
g69
NtRp4519
(dp4520
g72
(dp4521
sg81
g4507
sg74
(lp4522
g67
(g68
g69
NtRp4523
(dp4524
g72
(dp4525
g80
I5
ssg81
g4519
sg74
(lp4526
g2393
asbasbasbag67
(g83
g69
NtRp4527
(dp4528
g72
(dp4529
sg81
g3465
sg74
(lp4530
g67
(g88
g69
NtRp4531
(dp4532
g72
(dp4533
g92
g93
ssg81
g4527
sg74
(lp4534
S'view'
p4535
asbag67
(g88
g69
NtRp4536
(dp4537
g72
(dp4538
g99
g100
ssg81
g4527
sg74
(lp4539
S':'
asbag67
(g88
g69
NtRp4540
(dp4541
g72
(dp4542
sg81
g4527
sg74
(lp4543
g67
(g68
g69
NtRp4544
(dp4545
g72
(dp4546
g80
I5
ssg81
g4540
sg74
(lp4547
S'information/new.html'
p4548
asbasbasbasbasbsS'locals'
p4549
(dp4550
g3
S"'/home/kaique/Projects/web2py/applications/synopsis/controllers/information.py'"
p4551
sg5
S"'# -*- coding: utf-8 -*-\\nimport functions as f # ...\\treturn {}\\n\\nresponse._vars=response._caller(new)\\n'"
p4552
sssS'traceback'
p4553
S'Traceback (most recent call last):\n  File "/home/kaique/Projects/web2py/gluon/restricted.py", line 193, in restricted\n    ccode = compile2(code,layer)\n  File "/home/kaique/Projects/web2py/gluon/restricted.py", line 179, in compile2\n    return compile(code.rstrip().replace(\'\\r\\n\',\'\\n\')+\'\\n\', layer, \'exec\')\n  File "/home/kaique/Projects/web2py/applications/synopsis/controllers/information.py", line 92\n    :\n    ^\nSyntaxError: invalid syntax\n'
p4554
s.