(dp1
S'output'
p2
S''
sS'layer'
p3
S'/home/kaique/Projects/web2py/applications/synopsis/views/information/publication.html'
p4
sS'code'
p5
S'response.write(\'<!DOCTYPE html>\\n<html lang="\', escape=False)\nresponse.write(T.accepted_language or \'en\')\nresponse.write(\'" class="no-js"><!-- no-js need it for modernzr -->\\n  <head>\\n    \\n    <meta charset="utf-8" />        \\n    <!-- www.phpied.com/conditional-comments-block-downloads/ -->\\n    <!--[if IE]>\\n      <!-- Always force latest IE rendering engine \\n       (even in intranet) & Chrome Frame \\n       Remove this if you use the .htaccess -->\\n      <meta http-equiv="X-UA-Compatible" content="IE=edge,chrome=1">\\n    <![endif]-->    \\n\\n    <title>\', escape=False)\nresponse.write(response.title or request.application)\nresponse.write(\'</title>\\n    \\n    <!-- http://dev.w3.org/html5/markup/meta.name.html -->\\n    <meta name="application-name" content="\', escape=False)\nresponse.write(request.application)\nresponse.write(\'" /> \\n    \\n    <!-- Speaking of Google, don\\\'t forget to set your site up: \\n     http://google.com/webmasters -->\\n    <meta name="google-site-verification" content="" />\\n    \\n    <!--  Mobile Viewport Fix\\n      j.mp/mobileviewport & davidbcalhoun.com/2010/viewport-metatag \\n      device-width: Occupy full width of the screen in its current orientation\\n      initial-scale = 1.0 retains dimensions instead of zooming out if page height > device height\\n      maximum-scale = 1.0 retains dimensions instead of zooming in if page width < device width\\n      -->\\n    <meta name="viewport" content="width=device-width, initial-scale=1.0, maximum-scale=1.0">\\n    \\n    <!-- Place favicon.ico and apple-touch-icon.png in the root of your domain and delete these references -->\\n    <link rel="shortcut icon" href="\', escape=False)\nresponse.write(URL(\'static\',\'favicon.ico\'))\nresponse.write(\'" type="image/x-icon">\\n    <link rel="apple-touch-icon" href="\', escape=False)\nresponse.write(URL(\'static\',\'favicon.png\'))\nresponse.write(\'">\\n\\n    <!-- For the less-enabled mobile browsers like Opera Mini -->\\n    <link rel="stylesheet" media="handheld" href="\', escape=False)\nresponse.write(URL(\'static\',\'css/handheld.css\'))\nresponse.write(\'">\\n    \\n    <!-- All JavaScript at the bottom, except for Modernizr which enables HTML5 elements & feature detects -->\\n    <script src="\', escape=False)\nresponse.write(URL(\'static\',\'js/modernizr-1.7.min.js\'))\nresponse.write(\'"></script>\\n    \\n    \', escape=False)\n#------  require CSS and JS files for this page (read info in base.css) ------\nresponse.write(\'\\n    \', escape=False)\nresponse.files.append(URL(\'static\',\'css/base.css\'))\nresponse.write(\'\\n    \', escape=False)\nresponse.files.append(URL(\'static\',\'css/superfish.css\'))\nresponse.write(\'\\n    \', escape=False)\nresponse.files.append(URL(\'static\',\'js/superfish.js\'))\nresponse.write(\'\\n    \', escape=False)\n#------ include web2py specific js code (jquery, calendar, form stuff) ------\nresponse.write(\'\\n    \', escape=False)\nresponse.files.insert(0,URL(\'static\',\'js/jquery.js\'))\nresponse.files.insert(1,URL(\'static\',\'css/anytime.css\'))\nresponse.files.insert(2,URL(\'static\',\'js/anytime.js\'))\nresponse.include_meta()\nresponse.include_files()\nresponse.write(\'\\n<script type="text/javascript"><!--\\n    // These variables are used by the web2py_ajax_init function in web2py_ajax.js (which is loaded below).\\n    var w2p_ajax_confirm_message = "\', escape=False)\nresponse.write(T(\'Are you sure you want to delete this object?\'))\nresponse.write(\'";\\n    var w2p_ajax_date_format = "\', escape=False)\nresponse.write(T(\'%Y-%m-%d\'))\nresponse.write(\'";\\n    var w2p_ajax_datetime_format = "\', escape=False)\nresponse.write(T(\'%Y-%m-%d %H:%M:%S\'))\nresponse.write(\'";\\n    //--></script>\\n    <script src="\', escape=False)\nresponse.write(URL(\'static\',\'js/web2py_ajax.js\'))\nresponse.write(\'" type="text/javascript"></script>\\n\', escape=False)\nresponse.write(\'\\n\\n    \', escape=False)\n#using sidebars need to know what sidebar you want to use\n#prior of using it, because of static width size of content, you can use\n#left_sidebar, right_sidebar, both or none (False left and right)\nleft_sidebar_enabled = globals().get(\'left_sidebar_enabled\',False)\nright_sidebar_enabled = globals().get(\'right_sidebar_enabled\',False)\nif left_sidebar_enabled and right_sidebar_enabled: width_content=\'63%\'\nelif left_sidebar_enabled != right_sidebar_enabled: width_content=\'740px\'\nelse: width_content=\'100%\'\nif left_sidebar_enabled: left_sidebar_style = \'style="display: block;"\'\nelse: left_sidebar_style = \'style="display: none;"\'\nif right_sidebar_enabled: right_sidebar_style = \'style="display: block;"\'\nelse: right_sidebar_style = \'style="display: none;"\'\nstyle_content = \'style="width: %s"\' % width_content\nresponse.write(\'\\n    \\n    <!-- uncomment here to load jquery-ui -->\\n    \\n    <link rel="stylesheet" href="http://ajax.googleapis.com/ajax/libs/jqueryui/1.8.16/themes/base/jquery-ui.css" type="text/css" media="all" />\\n    <script src="http://ajax.googleapis.com/ajax/libs/jqueryui/1.8.16/jquery-ui.min.js" type="text/javascript"></script>\\n    \\n   <!-- uncomment to load jquery-ui -->\\n    \\n    \\n  </head>\\n  \\n  <!-- paulirish.com/2008/conditional-stylesheets-vs-css-hacks-answer-neither/ -->  \\n  <!--[if lt IE 7 ]> <body class="ie6"> <![endif]-->\\n  <!--[if IE 7 ]>    <body class="ie7"> <![endif]-->\\n  <!--[if IE 8 ]>    <body class="ie8"> <![endif]-->\\n  <!--[if IE 9 ]>    <body class="ie9"> <![endif]-->\\n  <!--[if (gt IE 9)|!(IE)]><!--> <body> <!--<![endif]-->\\n    \\n    <div class="flash">\', escape=False)\nresponse.write(response.flash or \'\')\nresponse.write(\'</div> <!-- notification div -->\\n\\n        \\n\\n    <div id="container">                        \\n      \\n      <div id="wrapper">        \\n      \', escape=False)\ntry:\n    response.write(auth.navbar(action=URL(\'default\',\'user\')))\nexcept:pass\nresponse.write(\'\\n    \\n    <div id="header"> <!-- header and login nav -->\\n      \', escape=False)\nresponse.write(\' <!-- this is default header -->\\n      \\n      <h1>\\n        <span id="appname">\', escape=False)\nresponse.write(request.application.capitalize())\nresponse.write(\'</span>App\\n      </h1>\\n      <div style="clear: both;"></div><!-- Clear the divs -->\\n      \', escape=False)\nresponse.write(\'\\n    </div><!-- header  -->\\n    \\n    <div id="statusbar"><!-- statusbar is menu zone -->\\n      \', escape=False)\nresponse.write(\' <!-- this is default statusbar -->\\n      \', escape=False)\n#------ superfish menu ------\nresponse.write(\'\\n      \', escape=False)\nresponse.write(MENU(response.menu,_class=\'sf-menu\'))\nresponse.write(\'\\n      <script type="text/javascript">\\n        jQuery(document).ready(function(){\\n        jQuery(\\\'ul.sf-menu\\\').superfish();});\\n      </script>\\n\\n      <!-- AddToAny BEGIN -->\\n      <div style="padding: 7px; float:right;" class="a2a_kit a2a_default_style"><a class="a2a_dd" href="http://www.addtoany.com/share_save">Share</a></div><script type="text/javascript" src="http://static.addtoany.com/menu/page.js"></script>\\n      <!-- AddToAny END -->\\n\\n      <div style="clear: both;"></div><!-- Clear the divs -->   \\n      \', escape=False)\nresponse.write(\'               \\n    </div><!-- statusbar -->\\n    \\n    <div id="page"> <!-- Here my central body -->     \\n\\n      \', escape=False)\nif left_sidebar_enabled:\n    response.write(\'\\n          <div id="left_sidebar" \', escape=False)\n    response.write(XML(left_sidebar_style))\n    response.write(\' >\\n            <div style="padding: 4px;">\\n          \', escape=False)\n    response.write(\'Content Left Sidebar\', escape=False)\n    response.write(\'       \\n            </div>\\n          </div><!-- left_sidebar -->\\n      \', escape=False)\n    pass\nresponse.write(\'\\n\\n      <!-- content -->\\n      <div id="content" \', escape=False)\nresponse.write(XML(style_content))\nresponse.write(\' >\\n        \', escape=False)\nresponse.write(\'\\n\\n<div class="content">\\n\\t<section>\\n\\t\\t<article>\\n\\t\\t\\t\', escape=False)\nfor detail in publication:\n    response.write(\'\\n\\t\\t\\t<header>\\n\\t\\t\\t\\t\', escape=False)\n    response.write(A( T(\'Go to publications\'), _href=URL(\'information\', \'profile\', args=[session.index]) ))\n    response.write(\' |\\n\\t\\t\\t\\t\', escape=False)\n    response.write(A(T(\'Insert a new column\'), _href=URL(\'new\', args=[\'column\', request.args[0]]) ))\n    response.write(\'\\n\\t\\t\\t\\t<hr />\\n\\t\\t\\t\\t<h1>\', escape=False)\n    response.write(detail.title)\n    response.write(\'</h1>\\n\\t\\t\\t\\t<h4 style="font-weight: 200;">\', escape=False)\n    if detail.sub_title:\n        response.write(\' \', escape=False)\n        response.write(detail.sub_title)\n        response.write(\' \', escape=False)\n        pass\n    response.write(\'</h4>\\n\\t\\t\\t\\t<hr />\\n\\t\\t\\t</header>\\n\\t\\t\\t<div>\\t\\n\\t\\t\\t\\t<table style="border: 1px solid #ccc; margin: 10px 0 10px;">\\n\\t\\t\\t\\t\\t<thead>\\n\\t\\t\\t\\t\\t\\t<tr>\\n\\t\\t\\t\\t\\t\\t\\t\', escape=False)\n    for column in detail.column.select():\n        response.write(\'\\n\\t\\t\\t\\t\\t\\t\\t\\t<td>\', escape=False)\n        response.write(A(column.title, _href=URL(\'new\', args=[\'row\', column.id])))\n        response.write(\'</td>\\n\\t\\t\\t\\t\\t\\t\\t\', escape=False)\n        pass\n    response.write(\'\\t\\t\\t\\t\\t\\t\\t\\n\\t\\t\\t\\t\\t\\t</tr>\\n\\t\\t\\t\\t\\t</thead>\\n\\t\\t\\t\\t\\t<tbody>\\n\\t\\t\\t\\t\\t\\t\\t\', escape=False)\n    response.write(column.count())\n    response.write(\'\\n\\t\\t\\t\\t\\t</tbody>\\n\\t\\t\\t\\t</table>\\n\\t\\t\\t\\t<div classs="quote">\\n\\t\\t\\t\\t\', escape=False)\n    for quote in detail.quote.select():\n        response.write(\'\\n\\t\\t\\t\\t\\t<p>\', escape=False)\n        response.write(quote.content)\n        response.write(\'</p>\\n\\t\\t\\t\\t\', escape=False)\n        pass\n    response.write(\'\\n\\t\\t\\t\\t</div>\\n\\t\\t\\t</div>\\n\\t\\t\\t\', escape=False)\n    pass\nresponse.write(\'\\n\\t\\t</article>\\n\\t</section>\\n</div>\\n\', escape=False)\nresponse.write(\' \\n      </div>\\n      <!-- content -->\\n\\n      \', escape=False)\nif right_sidebar_enabled:\n    response.write(\'\\n          <div id="right_sidebar" \', escape=False)\n    response.write(XML(right_sidebar_style))\n    response.write(\' >\\n            <div style="padding: 4px;">\\n              \', escape=False)\n    response.write(\'Content Right Sidebar\', escape=False)\n    response.write(\'\\n            </div>\\n      </div><!-- right_sidebar -->\\n          \', escape=False)\n    pass\nresponse.write(\'\\n\\n\\n      <div style="clear: both;"></div><!-- Clear the divs -->\\n      \\n    </div><!-- page -->                         \\n    \\n    <div id="footer">\\n      \', escape=False)\nresponse.write(\' <!-- this is default footer -->\\n      <a href="http://www.web2py.com/" style="float: left; padding-right: 6px;">\\n        <img src="\', escape=False)\nresponse.write(URL(\'static\',\'images/poweredby.png\'))\nresponse.write(\'"/>\\n      </a>\\n      \', escape=False)\nresponse.write(T(\'Copyright\'))\nresponse.write(\' &#169; 2011               \\n      <div style="clear: both;"></div><!-- Clear the divs -->\\n      \', escape=False)\nresponse.write(\'\\n\\n    </div><!-- footer -->           \\n      </div><!-- wrapper -->\\n    </div><!-- container -->        \\n    \\n    <!--[if lt IE 7 ]>\\n    <script src="\', escape=False)\nresponse.write(URL(\'static\',\'js/dd_belatedpng.js\'))\nresponse.write(\'"></script>\\n    <script> DD_belatedPNG.fix(\\\'img, .png_bg\\\'); //fix any <img> or .png_bg background-images </script>\\n    <![endif]-->\\n    \', escape=False)\nif response.google_analytics_id:\n    response.write("<script>/* http://mathiasbynens.be/notes/async-analytics-snippet */ var _gaq=[[\'_setAccount\',\'", escape=False)\n    response.write(response.google_analyitics_id)\n    response.write("\'],[\'_trackPageview\']];(function(d,t){var g=d.createElement(t),s=d.getElementsByTagName(t)[0];g.src=\'//www.google-analytics.com/ga.js\';s.parentNode.insertBefore(g,s)}(document,\'script\')) </script>", escape=False)\n    pass\nresponse.write(\'\\n  </body>\\n</html>\\n\', escape=False)'
p6
sS'snapshot'
p7
(dp8
S'exception'
p9
(dp10
S'__hash__'
p11
S"<method-wrapper '__hash__' of exceptions.KeyError object>"
p12
sS'__setattr__'
p13
S"<method-wrapper '__setattr__' of exceptions.KeyError object>"
p14
sS'__reduce_ex__'
p15
S'<built-in method __reduce_ex__ of exceptions.KeyError object>'
p16
sS'__getslice__'
p17
S"<method-wrapper '__getslice__' of exceptions.KeyError object>"
p18
sS'__getitem__'
p19
S"<method-wrapper '__getitem__' of exceptions.KeyError object>"
p20
sS'__setstate__'
p21
S'<built-in method __setstate__ of exceptions.KeyError object>'
p22
sS'args'
p23
S"('count',)"
p24
sS'__reduce__'
p25
S'<built-in method __reduce__ of exceptions.KeyError object>'
p26
sS'__str__'
p27
S"<method-wrapper '__str__' of exceptions.KeyError object>"
p28
sS'__format__'
p29
S'<built-in method __format__ of exceptions.KeyError object>'
p30
sS'__getattribute__'
p31
S"<method-wrapper '__getattribute__' of exceptions.KeyError object>"
p32
sS'__class__'
p33
S"<type 'exceptions.KeyError'>"
p34
sS'__unicode__'
p35
S'<built-in method __unicode__ of exceptions.KeyError object>'
p36
sS'__delattr__'
p37
S"<method-wrapper '__delattr__' of exceptions.KeyError object>"
p38
sS'__subclasshook__'
p39
S'<built-in method __subclasshook__ of type object>'
p40
sS'__repr__'
p41
S"<method-wrapper '__repr__' of exceptions.KeyError object>"
p42
sS'__dict__'
p43
S'{}'
p44
sS'__sizeof__'
p45
S'<built-in method __sizeof__ of exceptions.KeyError object>'
p46
sS'__doc__'
p47
S"'Mapping key not found.'"
p48
sS'__init__'
p49
S"<method-wrapper '__init__' of exceptions.KeyError object>"
p50
sS'__new__'
p51
S'<built-in method __new__ of type object>'
p52
ssS'evalue'
p53
S"'count'"
p54
sS'request'
p55
ccopy_reg
_reconstructor
p56
(cgluon.html
BEAUTIFY
p57
c__builtin__
object
p58
NtRp59
(dp60
S'attributes'
p61
(dp62
sS'components'
p63
(lp64
g56
(cgluon.html
TABLE
p65
g58
NtRp66
(dp67
g61
(dp68
S'level'
p69
I5
ssS'parent'
p70
Nsg63
(lp71
g56
(cgluon.html
TR
p72
g58
NtRp73
(dp74
g61
(dp75
sg70
g66
sg63
(lp76
g56
(cgluon.html
TD
p77
g58
NtRp78
(dp79
g61
(dp80
S'_style'
p81
S'font-weight:bold;'
p82
ssg70
g73
sg63
(lp83
S'ajax'
p84
asbag56
(g77
g58
NtRp85
(dp86
g61
(dp87
S'_valign'
p88
S'top'
p89
ssg70
g73
sg63
(lp90
S':'
asbag56
(g77
g58
NtRp91
(dp92
g61
(dp93
sg70
g73
sg63
(lp94
g56
(g57
g58
NtRp95
(dp96
g61
(dp97
g69
I5
ssg70
g91
sg63
(lp98
S'False'
p99
asbasbasbag56
(g72
g58
NtRp100
(dp101
g61
(dp102
sg70
g66
sg63
(lp103
g56
(g77
g58
NtRp104
(dp105
g61
(dp106
g81
g82
ssg70
g100
sg63
(lp107
S'application'
p108
asbag56
(g77
g58
NtRp109
(dp110
g61
(dp111
g88
g89
ssg70
g100
sg63
(lp112
S':'
asbag56
(g77
g58
NtRp113
(dp114
g61
(dp115
sg70
g100
sg63
(lp116
g56
(g57
g58
NtRp117
(dp118
g61
(dp119
g69
I5
ssg70
g113
sg63
(lp120
S'synopsis'
p121
asbasbasbag56
(g72
g58
NtRp122
(dp123
g61
(dp124
sg70
g66
sg63
(lp125
g56
(g77
g58
NtRp126
(dp127
g61
(dp128
g81
g82
ssg70
g122
sg63
(lp129
g23
asbag56
(g77
g58
NtRp130
(dp131
g61
(dp132
g88
g89
ssg70
g122
sg63
(lp133
S':'
asbag56
(g77
g58
NtRp134
(dp135
g61
(dp136
sg70
g122
sg63
(lp137
g56
(g57
g58
NtRp138
(dp139
g61
(dp140
g69
I5
ssg70
g134
sg63
(lp141
g56
(g65
g58
NtRp142
(dp143
g61
(dp144
g69
I4
ssg70
Nsg63
(lp145
g56
(g72
g58
NtRp146
(dp147
g61
(dp148
sg70
g142
sg63
(lp149
g56
(g77
g58
NtRp150
(dp151
g61
(dp152
sg70
g146
sg63
(lp153
g56
(g57
g58
NtRp154
(dp155
g61
(dp156
g69
I4
ssg70
g150
sg63
(lp157
S'8'
asbasbasbasbasbasbasbag56
(g72
g58
NtRp158
(dp159
g61
(dp160
sg70
g66
sg63
(lp161
g56
(g77
g58
NtRp162
(dp163
g61
(dp164
g81
g82
ssg70
g158
sg63
(lp165
S'body'
p166
asbag56
(g77
g58
NtRp167
(dp168
g61
(dp169
g88
g89
ssg70
g158
sg63
(lp170
S':'
asbag56
(g77
g58
NtRp171
(dp172
g61
(dp173
sg70
g158
sg63
(lp174
g56
(g57
g58
NtRp175
(dp176
g61
(dp177
g69
I5
ssg70
g171
sg63
(lp178
S'<cStringIO.StringO object at 0x1bead88>'
p179
asbasbasbag56
(g72
g58
NtRp180
(dp181
g61
(dp182
sg70
g66
sg63
(lp183
g56
(g77
g58
NtRp184
(dp185
g61
(dp186
g81
g82
ssg70
g180
sg63
(lp187
S'client'
p188
asbag56
(g77
g58
NtRp189
(dp190
g61
(dp191
g88
g89
ssg70
g180
sg63
(lp192
S':'
asbag56
(g77
g58
NtRp193
(dp194
g61
(dp195
sg70
g180
sg63
(lp196
g56
(g57
g58
NtRp197
(dp198
g61
(dp199
g69
I5
ssg70
g193
sg63
(lp200
S'127.0.0.1'
p201
asbasbasbag56
(g72
g58
NtRp202
(dp203
g61
(dp204
sg70
g66
sg63
(lp205
g56
(g77
g58
NtRp206
(dp207
g61
(dp208
g81
g82
ssg70
g202
sg63
(lp209
S'controller'
p210
asbag56
(g77
g58
NtRp211
(dp212
g61
(dp213
g88
g89
ssg70
g202
sg63
(lp214
S':'
asbag56
(g77
g58
NtRp215
(dp216
g61
(dp217
sg70
g202
sg63
(lp218
g56
(g57
g58
NtRp219
(dp220
g61
(dp221
g69
I5
ssg70
g215
sg63
(lp222
S'information'
p223
asbasbasbag56
(g72
g58
NtRp224
(dp225
g61
(dp226
sg70
g66
sg63
(lp227
g56
(g77
g58
NtRp228
(dp229
g61
(dp230
g81
g82
ssg70
g224
sg63
(lp231
S'cookies'
p232
asbag56
(g77
g58
NtRp233
(dp234
g61
(dp235
g88
g89
ssg70
g224
sg63
(lp236
S':'
asbag56
(g77
g58
NtRp237
(dp238
g61
(dp239
sg70
g224
sg63
(lp240
g56
(g57
g58
NtRp241
(dp242
g61
(dp243
g69
I5
ssg70
g237
sg63
(lp244
g56
(g65
g58
NtRp245
(dp246
g61
(dp247
g69
I4
ssg70
Nsg63
(lp248
g56
(g72
g58
NtRp249
(dp250
g61
(dp251
sg70
g245
sg63
(lp252
g56
(g77
g58
NtRp253
(dp254
g61
(dp255
g81
g82
ssg70
g249
sg63
(lp256
S'PHPSESSID'
p257
asbag56
(g77
g58
NtRp258
(dp259
g61
(dp260
g88
g89
ssg70
g249
sg63
(lp261
S':'
asbag56
(g77
g58
NtRp262
(dp263
g61
(dp264
sg70
g249
sg63
(lp265
g56
(g57
g58
NtRp266
(dp267
g61
(dp268
g69
I4
ssg70
g262
sg63
(lp269
g56
(g65
g58
NtRp270
(dp271
g61
(dp272
g69
I3
ssg70
Nsg63
(lp273
g56
(g72
g58
NtRp274
(dp275
g61
(dp276
sg70
g270
sg63
(lp277
g56
(g77
g58
NtRp278
(dp279
g61
(dp280
g81
g82
ssg70
g274
sg63
(lp281
S'comment'
p282
asbag56
(g77
g58
NtRp283
(dp284
g61
(dp285
g88
g89
ssg70
g274
sg63
(lp286
S':'
asbag56
(g77
g58
NtRp287
(dp288
g61
(dp289
sg70
g274
sg63
(lp290
g56
(g57
g58
NtRp291
(dp292
g61
(dp293
g69
I3
ssg70
g287
sg63
(lp294
S''
asbasbasbag56
(g72
g58
NtRp295
(dp296
g61
(dp297
sg70
g270
sg63
(lp298
g56
(g77
g58
NtRp299
(dp300
g61
(dp301
g81
g82
ssg70
g295
sg63
(lp302
S'domain'
p303
asbag56
(g77
g58
NtRp304
(dp305
g61
(dp306
g88
g89
ssg70
g295
sg63
(lp307
S':'
asbag56
(g77
g58
NtRp308
(dp309
g61
(dp310
sg70
g295
sg63
(lp311
g56
(g57
g58
NtRp312
(dp313
g61
(dp314
g69
I3
ssg70
g308
sg63
(lp315
S''
asbasbasbag56
(g72
g58
NtRp316
(dp317
g61
(dp318
sg70
g270
sg63
(lp319
g56
(g77
g58
NtRp320
(dp321
g61
(dp322
g81
g82
ssg70
g316
sg63
(lp323
S'expires'
p324
asbag56
(g77
g58
NtRp325
(dp326
g61
(dp327
g88
g89
ssg70
g316
sg63
(lp328
S':'
asbag56
(g77
g58
NtRp329
(dp330
g61
(dp331
sg70
g316
sg63
(lp332
g56
(g57
g58
NtRp333
(dp334
g61
(dp335
g69
I3
ssg70
g329
sg63
(lp336
S''
asbasbasbag56
(g72
g58
NtRp337
(dp338
g61
(dp339
sg70
g270
sg63
(lp340
g56
(g77
g58
NtRp341
(dp342
g61
(dp343
g81
g82
ssg70
g337
sg63
(lp344
S'httponly'
p345
asbag56
(g77
g58
NtRp346
(dp347
g61
(dp348
g88
g89
ssg70
g337
sg63
(lp349
S':'
asbag56
(g77
g58
NtRp350
(dp351
g61
(dp352
sg70
g337
sg63
(lp353
g56
(g57
g58
NtRp354
(dp355
g61
(dp356
g69
I3
ssg70
g350
sg63
(lp357
S''
asbasbasbag56
(g72
g58
NtRp358
(dp359
g61
(dp360
sg70
g270
sg63
(lp361
g56
(g77
g58
NtRp362
(dp363
g61
(dp364
g81
g82
ssg70
g358
sg63
(lp365
S'max-age'
p366
asbag56
(g77
g58
NtRp367
(dp368
g61
(dp369
g88
g89
ssg70
g358
sg63
(lp370
S':'
asbag56
(g77
g58
NtRp371
(dp372
g61
(dp373
sg70
g358
sg63
(lp374
g56
(g57
g58
NtRp375
(dp376
g61
(dp377
g69
I3
ssg70
g371
sg63
(lp378
S''
asbasbasbag56
(g72
g58
NtRp379
(dp380
g61
(dp381
sg70
g270
sg63
(lp382
g56
(g77
g58
NtRp383
(dp384
g61
(dp385
g81
g82
ssg70
g379
sg63
(lp386
S'path'
p387
asbag56
(g77
g58
NtRp388
(dp389
g61
(dp390
g88
g89
ssg70
g379
sg63
(lp391
S':'
asbag56
(g77
g58
NtRp392
(dp393
g61
(dp394
sg70
g379
sg63
(lp395
g56
(g57
g58
NtRp396
(dp397
g61
(dp398
g69
I3
ssg70
g392
sg63
(lp399
S''
asbasbasbag56
(g72
g58
NtRp400
(dp401
g61
(dp402
sg70
g270
sg63
(lp403
g56
(g77
g58
NtRp404
(dp405
g61
(dp406
g81
g82
ssg70
g400
sg63
(lp407
S'secure'
p408
asbag56
(g77
g58
NtRp409
(dp410
g61
(dp411
g88
g89
ssg70
g400
sg63
(lp412
S':'
asbag56
(g77
g58
NtRp413
(dp414
g61
(dp415
sg70
g400
sg63
(lp416
g56
(g57
g58
NtRp417
(dp418
g61
(dp419
g69
I3
ssg70
g413
sg63
(lp420
S''
asbasbasbag56
(g72
g58
NtRp421
(dp422
g61
(dp423
sg70
g270
sg63
(lp424
g56
(g77
g58
NtRp425
(dp426
g61
(dp427
g81
g82
ssg70
g421
sg63
(lp428
S'version'
p429
asbag56
(g77
g58
NtRp430
(dp431
g61
(dp432
g88
g89
ssg70
g421
sg63
(lp433
S':'
asbag56
(g77
g58
NtRp434
(dp435
g61
(dp436
sg70
g421
sg63
(lp437
g56
(g57
g58
NtRp438
(dp439
g61
(dp440
g69
I3
ssg70
g434
sg63
(lp441
S''
asbasbasbasbasbasbasbag56
(g72
g58
NtRp442
(dp443
g61
(dp444
sg70
g245
sg63
(lp445
g56
(g77
g58
NtRp446
(dp447
g61
(dp448
g81
g82
ssg70
g442
sg63
(lp449
S'currency'
p450
asbag56
(g77
g58
NtRp451
(dp452
g61
(dp453
g88
g89
ssg70
g442
sg63
(lp454
S':'
asbag56
(g77
g58
NtRp455
(dp456
g61
(dp457
sg70
g442
sg63
(lp458
g56
(g57
g58
NtRp459
(dp460
g61
(dp461
g69
I4
ssg70
g455
sg63
(lp462
g56
(g65
g58
NtRp463
(dp464
g61
(dp465
g69
I3
ssg70
Nsg63
(lp466
g56
(g72
g58
NtRp467
(dp468
g61
(dp469
sg70
g463
sg63
(lp470
g56
(g77
g58
NtRp471
(dp472
g61
(dp473
g81
g82
ssg70
g467
sg63
(lp474
g282
asbag56
(g77
g58
NtRp475
(dp476
g61
(dp477
g88
g89
ssg70
g467
sg63
(lp478
S':'
asbag56
(g77
g58
NtRp479
(dp480
g61
(dp481
sg70
g467
sg63
(lp482
g56
(g57
g58
NtRp483
(dp484
g61
(dp485
g69
I3
ssg70
g479
sg63
(lp486
S''
asbasbasbag56
(g72
g58
NtRp487
(dp488
g61
(dp489
sg70
g463
sg63
(lp490
g56
(g77
g58
NtRp491
(dp492
g61
(dp493
g81
g82
ssg70
g487
sg63
(lp494
g303
asbag56
(g77
g58
NtRp495
(dp496
g61
(dp497
g88
g89
ssg70
g487
sg63
(lp498
S':'
asbag56
(g77
g58
NtRp499
(dp500
g61
(dp501
sg70
g487
sg63
(lp502
g56
(g57
g58
NtRp503
(dp504
g61
(dp505
g69
I3
ssg70
g499
sg63
(lp506
S''
asbasbasbag56
(g72
g58
NtRp507
(dp508
g61
(dp509
sg70
g463
sg63
(lp510
g56
(g77
g58
NtRp511
(dp512
g61
(dp513
g81
g82
ssg70
g507
sg63
(lp514
g324
asbag56
(g77
g58
NtRp515
(dp516
g61
(dp517
g88
g89
ssg70
g507
sg63
(lp518
S':'
asbag56
(g77
g58
NtRp519
(dp520
g61
(dp521
sg70
g507
sg63
(lp522
g56
(g57
g58
NtRp523
(dp524
g61
(dp525
g69
I3
ssg70
g519
sg63
(lp526
S''
asbasbasbag56
(g72
g58
NtRp527
(dp528
g61
(dp529
sg70
g463
sg63
(lp530
g56
(g77
g58
NtRp531
(dp532
g61
(dp533
g81
g82
ssg70
g527
sg63
(lp534
g345
asbag56
(g77
g58
NtRp535
(dp536
g61
(dp537
g88
g89
ssg70
g527
sg63
(lp538
S':'
asbag56
(g77
g58
NtRp539
(dp540
g61
(dp541
sg70
g527
sg63
(lp542
g56
(g57
g58
NtRp543
(dp544
g61
(dp545
g69
I3
ssg70
g539
sg63
(lp546
S''
asbasbasbag56
(g72
g58
NtRp547
(dp548
g61
(dp549
sg70
g463
sg63
(lp550
g56
(g77
g58
NtRp551
(dp552
g61
(dp553
g81
g82
ssg70
g547
sg63
(lp554
g366
asbag56
(g77
g58
NtRp555
(dp556
g61
(dp557
g88
g89
ssg70
g547
sg63
(lp558
S':'
asbag56
(g77
g58
NtRp559
(dp560
g61
(dp561
sg70
g547
sg63
(lp562
g56
(g57
g58
NtRp563
(dp564
g61
(dp565
g69
I3
ssg70
g559
sg63
(lp566
S''
asbasbasbag56
(g72
g58
NtRp567
(dp568
g61
(dp569
sg70
g463
sg63
(lp570
g56
(g77
g58
NtRp571
(dp572
g61
(dp573
g81
g82
ssg70
g567
sg63
(lp574
g387
asbag56
(g77
g58
NtRp575
(dp576
g61
(dp577
g88
g89
ssg70
g567
sg63
(lp578
S':'
asbag56
(g77
g58
NtRp579
(dp580
g61
(dp581
sg70
g567
sg63
(lp582
g56
(g57
g58
NtRp583
(dp584
g61
(dp585
g69
I3
ssg70
g579
sg63
(lp586
S''
asbasbasbag56
(g72
g58
NtRp587
(dp588
g61
(dp589
sg70
g463
sg63
(lp590
g56
(g77
g58
NtRp591
(dp592
g61
(dp593
g81
g82
ssg70
g587
sg63
(lp594
g408
asbag56
(g77
g58
NtRp595
(dp596
g61
(dp597
g88
g89
ssg70
g587
sg63
(lp598
S':'
asbag56
(g77
g58
NtRp599
(dp600
g61
(dp601
sg70
g587
sg63
(lp602
g56
(g57
g58
NtRp603
(dp604
g61
(dp605
g69
I3
ssg70
g599
sg63
(lp606
S''
asbasbasbag56
(g72
g58
NtRp607
(dp608
g61
(dp609
sg70
g463
sg63
(lp610
g56
(g77
g58
NtRp611
(dp612
g61
(dp613
g81
g82
ssg70
g607
sg63
(lp614
g429
asbag56
(g77
g58
NtRp615
(dp616
g61
(dp617
g88
g89
ssg70
g607
sg63
(lp618
S':'
asbag56
(g77
g58
NtRp619
(dp620
g61
(dp621
sg70
g607
sg63
(lp622
g56
(g57
g58
NtRp623
(dp624
g61
(dp625
g69
I3
ssg70
g619
sg63
(lp626
S''
asbasbasbasbasbasbasbag56
(g72
g58
NtRp627
(dp628
g61
(dp629
sg70
g245
sg63
(lp630
g56
(g77
g58
NtRp631
(dp632
g61
(dp633
g81
g82
ssg70
g627
sg63
(lp634
S'session_id_synopsis'
p635
asbag56
(g77
g58
NtRp636
(dp637
g61
(dp638
g88
g89
ssg70
g627
sg63
(lp639
S':'
asbag56
(g77
g58
NtRp640
(dp641
g61
(dp642
sg70
g627
sg63
(lp643
g56
(g57
g58
NtRp644
(dp645
g61
(dp646
g69
I4
ssg70
g640
sg63
(lp647
g56
(g65
g58
NtRp648
(dp649
g61
(dp650
g69
I3
ssg70
Nsg63
(lp651
g56
(g72
g58
NtRp652
(dp653
g61
(dp654
sg70
g648
sg63
(lp655
g56
(g77
g58
NtRp656
(dp657
g61
(dp658
g81
g82
ssg70
g652
sg63
(lp659
g282
asbag56
(g77
g58
NtRp660
(dp661
g61
(dp662
g88
g89
ssg70
g652
sg63
(lp663
S':'
asbag56
(g77
g58
NtRp664
(dp665
g61
(dp666
sg70
g652
sg63
(lp667
g56
(g57
g58
NtRp668
(dp669
g61
(dp670
g69
I3
ssg70
g664
sg63
(lp671
S''
asbasbasbag56
(g72
g58
NtRp672
(dp673
g61
(dp674
sg70
g648
sg63
(lp675
g56
(g77
g58
NtRp676
(dp677
g61
(dp678
g81
g82
ssg70
g672
sg63
(lp679
g303
asbag56
(g77
g58
NtRp680
(dp681
g61
(dp682
g88
g89
ssg70
g672
sg63
(lp683
S':'
asbag56
(g77
g58
NtRp684
(dp685
g61
(dp686
sg70
g672
sg63
(lp687
g56
(g57
g58
NtRp688
(dp689
g61
(dp690
g69
I3
ssg70
g684
sg63
(lp691
S''
asbasbasbag56
(g72
g58
NtRp692
(dp693
g61
(dp694
sg70
g648
sg63
(lp695
g56
(g77
g58
NtRp696
(dp697
g61
(dp698
g81
g82
ssg70
g692
sg63
(lp699
g324
asbag56
(g77
g58
NtRp700
(dp701
g61
(dp702
g88
g89
ssg70
g692
sg63
(lp703
S':'
asbag56
(g77
g58
NtRp704
(dp705
g61
(dp706
sg70
g692
sg63
(lp707
g56
(g57
g58
NtRp708
(dp709
g61
(dp710
g69
I3
ssg70
g704
sg63
(lp711
S''
asbasbasbag56
(g72
g58
NtRp712
(dp713
g61
(dp714
sg70
g648
sg63
(lp715
g56
(g77
g58
NtRp716
(dp717
g61
(dp718
g81
g82
ssg70
g712
sg63
(lp719
g345
asbag56
(g77
g58
NtRp720
(dp721
g61
(dp722
g88
g89
ssg70
g712
sg63
(lp723
S':'
asbag56
(g77
g58
NtRp724
(dp725
g61
(dp726
sg70
g712
sg63
(lp727
g56
(g57
g58
NtRp728
(dp729
g61
(dp730
g69
I3
ssg70
g724
sg63
(lp731
S''
asbasbasbag56
(g72
g58
NtRp732
(dp733
g61
(dp734
sg70
g648
sg63
(lp735
g56
(g77
g58
NtRp736
(dp737
g61
(dp738
g81
g82
ssg70
g732
sg63
(lp739
g366
asbag56
(g77
g58
NtRp740
(dp741
g61
(dp742
g88
g89
ssg70
g732
sg63
(lp743
S':'
asbag56
(g77
g58
NtRp744
(dp745
g61
(dp746
sg70
g732
sg63
(lp747
g56
(g57
g58
NtRp748
(dp749
g61
(dp750
g69
I3
ssg70
g744
sg63
(lp751
S''
asbasbasbag56
(g72
g58
NtRp752
(dp753
g61
(dp754
sg70
g648
sg63
(lp755
g56
(g77
g58
NtRp756
(dp757
g61
(dp758
g81
g82
ssg70
g752
sg63
(lp759
g387
asbag56
(g77
g58
NtRp760
(dp761
g61
(dp762
g88
g89
ssg70
g752
sg63
(lp763
S':'
asbag56
(g77
g58
NtRp764
(dp765
g61
(dp766
sg70
g752
sg63
(lp767
g56
(g57
g58
NtRp768
(dp769
g61
(dp770
g69
I3
ssg70
g764
sg63
(lp771
S''
asbasbasbag56
(g72
g58
NtRp772
(dp773
g61
(dp774
sg70
g648
sg63
(lp775
g56
(g77
g58
NtRp776
(dp777
g61
(dp778
g81
g82
ssg70
g772
sg63
(lp779
g408
asbag56
(g77
g58
NtRp780
(dp781
g61
(dp782
g88
g89
ssg70
g772
sg63
(lp783
S':'
asbag56
(g77
g58
NtRp784
(dp785
g61
(dp786
sg70
g772
sg63
(lp787
g56
(g57
g58
NtRp788
(dp789
g61
(dp790
g69
I3
ssg70
g784
sg63
(lp791
S''
asbasbasbag56
(g72
g58
NtRp792
(dp793
g61
(dp794
sg70
g648
sg63
(lp795
g56
(g77
g58
NtRp796
(dp797
g61
(dp798
g81
g82
ssg70
g792
sg63
(lp799
g429
asbag56
(g77
g58
NtRp800
(dp801
g61
(dp802
g88
g89
ssg70
g792
sg63
(lp803
S':'
asbag56
(g77
g58
NtRp804
(dp805
g61
(dp806
sg70
g792
sg63
(lp807
g56
(g57
g58
NtRp808
(dp809
g61
(dp810
g69
I3
ssg70
g804
sg63
(lp811
S''
asbasbasbasbasbasbasbag56
(g72
g58
NtRp812
(dp813
g61
(dp814
sg70
g245
sg63
(lp815
g56
(g77
g58
NtRp816
(dp817
g61
(dp818
g81
g82
ssg70
g812
sg63
(lp819
S'session_id_welcome'
p820
asbag56
(g77
g58
NtRp821
(dp822
g61
(dp823
g88
g89
ssg70
g812
sg63
(lp824
S':'
asbag56
(g77
g58
NtRp825
(dp826
g61
(dp827
sg70
g812
sg63
(lp828
g56
(g57
g58
NtRp829
(dp830
g61
(dp831
g69
I4
ssg70
g825
sg63
(lp832
g56
(g65
g58
NtRp833
(dp834
g61
(dp835
g69
I3
ssg70
Nsg63
(lp836
g56
(g72
g58
NtRp837
(dp838
g61
(dp839
sg70
g833
sg63
(lp840
g56
(g77
g58
NtRp841
(dp842
g61
(dp843
g81
g82
ssg70
g837
sg63
(lp844
g282
asbag56
(g77
g58
NtRp845
(dp846
g61
(dp847
g88
g89
ssg70
g837
sg63
(lp848
S':'
asbag56
(g77
g58
NtRp849
(dp850
g61
(dp851
sg70
g837
sg63
(lp852
g56
(g57
g58
NtRp853
(dp854
g61
(dp855
g69
I3
ssg70
g849
sg63
(lp856
S''
asbasbasbag56
(g72
g58
NtRp857
(dp858
g61
(dp859
sg70
g833
sg63
(lp860
g56
(g77
g58
NtRp861
(dp862
g61
(dp863
g81
g82
ssg70
g857
sg63
(lp864
g303
asbag56
(g77
g58
NtRp865
(dp866
g61
(dp867
g88
g89
ssg70
g857
sg63
(lp868
S':'
asbag56
(g77
g58
NtRp869
(dp870
g61
(dp871
sg70
g857
sg63
(lp872
g56
(g57
g58
NtRp873
(dp874
g61
(dp875
g69
I3
ssg70
g869
sg63
(lp876
S''
asbasbasbag56
(g72
g58
NtRp877
(dp878
g61
(dp879
sg70
g833
sg63
(lp880
g56
(g77
g58
NtRp881
(dp882
g61
(dp883
g81
g82
ssg70
g877
sg63
(lp884
g324
asbag56
(g77
g58
NtRp885
(dp886
g61
(dp887
g88
g89
ssg70
g877
sg63
(lp888
S':'
asbag56
(g77
g58
NtRp889
(dp890
g61
(dp891
sg70
g877
sg63
(lp892
g56
(g57
g58
NtRp893
(dp894
g61
(dp895
g69
I3
ssg70
g889
sg63
(lp896
S''
asbasbasbag56
(g72
g58
NtRp897
(dp898
g61
(dp899
sg70
g833
sg63
(lp900
g56
(g77
g58
NtRp901
(dp902
g61
(dp903
g81
g82
ssg70
g897
sg63
(lp904
g345
asbag56
(g77
g58
NtRp905
(dp906
g61
(dp907
g88
g89
ssg70
g897
sg63
(lp908
S':'
asbag56
(g77
g58
NtRp909
(dp910
g61
(dp911
sg70
g897
sg63
(lp912
g56
(g57
g58
NtRp913
(dp914
g61
(dp915
g69
I3
ssg70
g909
sg63
(lp916
S''
asbasbasbag56
(g72
g58
NtRp917
(dp918
g61
(dp919
sg70
g833
sg63
(lp920
g56
(g77
g58
NtRp921
(dp922
g61
(dp923
g81
g82
ssg70
g917
sg63
(lp924
g366
asbag56
(g77
g58
NtRp925
(dp926
g61
(dp927
g88
g89
ssg70
g917
sg63
(lp928
S':'
asbag56
(g77
g58
NtRp929
(dp930
g61
(dp931
sg70
g917
sg63
(lp932
g56
(g57
g58
NtRp933
(dp934
g61
(dp935
g69
I3
ssg70
g929
sg63
(lp936
S''
asbasbasbag56
(g72
g58
NtRp937
(dp938
g61
(dp939
sg70
g833
sg63
(lp940
g56
(g77
g58
NtRp941
(dp942
g61
(dp943
g81
g82
ssg70
g937
sg63
(lp944
g387
asbag56
(g77
g58
NtRp945
(dp946
g61
(dp947
g88
g89
ssg70
g937
sg63
(lp948
S':'
asbag56
(g77
g58
NtRp949
(dp950
g61
(dp951
sg70
g937
sg63
(lp952
g56
(g57
g58
NtRp953
(dp954
g61
(dp955
g69
I3
ssg70
g949
sg63
(lp956
S''
asbasbasbag56
(g72
g58
NtRp957
(dp958
g61
(dp959
sg70
g833
sg63
(lp960
g56
(g77
g58
NtRp961
(dp962
g61
(dp963
g81
g82
ssg70
g957
sg63
(lp964
g408
asbag56
(g77
g58
NtRp965
(dp966
g61
(dp967
g88
g89
ssg70
g957
sg63
(lp968
S':'
asbag56
(g77
g58
NtRp969
(dp970
g61
(dp971
sg70
g957
sg63
(lp972
g56
(g57
g58
NtRp973
(dp974
g61
(dp975
g69
I3
ssg70
g969
sg63
(lp976
S''
asbasbasbag56
(g72
g58
NtRp977
(dp978
g61
(dp979
sg70
g833
sg63
(lp980
g56
(g77
g58
NtRp981
(dp982
g61
(dp983
g81
g82
ssg70
g977
sg63
(lp984
g429
asbag56
(g77
g58
NtRp985
(dp986
g61
(dp987
g88
g89
ssg70
g977
sg63
(lp988
S':'
asbag56
(g77
g58
NtRp989
(dp990
g61
(dp991
sg70
g977
sg63
(lp992
g56
(g57
g58
NtRp993
(dp994
g61
(dp995
g69
I3
ssg70
g989
sg63
(lp996
S''
asbasbasbasbasbasbasbasbasbasbasbag56
(g72
g58
NtRp997
(dp998
g61
(dp999
sg70
g66
sg63
(lp1000
g56
(g77
g58
NtRp1001
(dp1002
g61
(dp1003
g81
g82
ssg70
g997
sg63
(lp1004
S'env'
p1005
asbag56
(g77
g58
NtRp1006
(dp1007
g61
(dp1008
g88
g89
ssg70
g997
sg63
(lp1009
S':'
asbag56
(g77
g58
NtRp1010
(dp1011
g61
(dp1012
sg70
g997
sg63
(lp1013
g56
(g57
g58
NtRp1014
(dp1015
g61
(dp1016
g69
I5
ssg70
g1010
sg63
(lp1017
g56
(g65
g58
NtRp1018
(dp1019
g61
(dp1020
g69
I4
ssg70
Nsg63
(lp1021
g56
(g72
g58
NtRp1022
(dp1023
g61
(dp1024
sg70
g1018
sg63
(lp1025
g56
(g77
g58
NtRp1026
(dp1027
g61
(dp1028
g81
g82
ssg70
g1022
sg63
(lp1029
S'app_folders'
p1030
asbag56
(g77
g58
NtRp1031
(dp1032
g61
(dp1033
g88
g89
ssg70
g1022
sg63
(lp1034
S':'
asbag56
(g77
g58
NtRp1035
(dp1036
g61
(dp1037
sg70
g1022
sg63
(lp1038
g56
(g57
g58
NtRp1039
(dp1040
g61
(dp1041
g69
I4
ssg70
g1035
sg63
(lp1042
S"set(['/home/kaique/Projects/web2py/applications/welcome/', '/home/kaique/Projects/web2py/applications/synopsis/'])"
p1043
asbasbasbag56
(g72
g58
NtRp1044
(dp1045
g61
(dp1046
sg70
g1018
sg63
(lp1047
g56
(g77
g58
NtRp1048
(dp1049
g61
(dp1050
g81
g82
ssg70
g1044
sg63
(lp1051
S'applications_parent'
p1052
asbag56
(g77
g58
NtRp1053
(dp1054
g61
(dp1055
g88
g89
ssg70
g1044
sg63
(lp1056
S':'
asbag56
(g77
g58
NtRp1057
(dp1058
g61
(dp1059
sg70
g1044
sg63
(lp1060
g56
(g57
g58
NtRp1061
(dp1062
g61
(dp1063
g69
I4
ssg70
g1057
sg63
(lp1064
S'/home/kaique/Projects/web2py'
p1065
asbasbasbag56
(g72
g58
NtRp1066
(dp1067
g61
(dp1068
sg70
g1018
sg63
(lp1069
g56
(g77
g58
NtRp1070
(dp1071
g61
(dp1072
g81
g82
ssg70
g1066
sg63
(lp1073
S'cmd_args'
p1074
asbag56
(g77
g58
NtRp1075
(dp1076
g61
(dp1077
g88
g89
ssg70
g1066
sg63
(lp1078
S':'
asbag56
(g77
g58
NtRp1079
(dp1080
g61
(dp1081
sg70
g1066
sg63
(lp1082
g56
(g57
g58
NtRp1083
(dp1084
g61
(dp1085
g69
I4
ssg70
g1079
sg63
(lp1086
g56
(g65
g58
NtRp1087
(dp1088
g61
(dp1089
g69
I3
ssg70
Nsg63
(lp1090
sbasbasbasbag56
(g72
g58
NtRp1091
(dp1092
g61
(dp1093
sg70
g1018
sg63
(lp1094
g56
(g77
g58
NtRp1095
(dp1096
g61
(dp1097
g81
g82
ssg70
g1091
sg63
(lp1098
S'cmd_options'
p1099
asbag56
(g77
g58
NtRp1100
(dp1101
g61
(dp1102
g88
g89
ssg70
g1091
sg63
(lp1103
S':'
asbag56
(g77
g58
NtRp1104
(dp1105
g61
(dp1106
sg70
g1091
sg63
(lp1107
g56
(g57
g58
NtRp1108
(dp1109
g61
(dp1110
g69
I4
ssg70
g1104
sg63
(lp1111
S"<Values at 0x1986950: {'verbose': False, 'ip': '127.0.0.1', 'shutdown_timeout': 5, 'taskbar': False, 'nocron': False, 'pid_filename': 'httpserver.pid', 'maxthreads': None, 'softcron': False, 'server_name': 'kaique-Pine-Trail-M', 'bpython': False, 'nogui': False, 'port': 8000, 'extcron': False, 'debuglevel': 30, 'test': None, 'folder': '/home/kaique/Projects/web2py', 'config': '', 'import_models': False, 'winservice': '', 'shell': None, 'run': '', 'log_filename': 'httpserver.log', 'args': [''], 'ssl_ca_certificate': None, 'scheduler': None, 'profiler_filename': None, 'ssl_private_key': '', 'password': 'dev', 'request_queue_size': 5, 'ssl_certificate': '', 'cronjob': False, 'plain': False, 'quiet': False, 'interfaces': None, 'minthreads': None, 'timeout': 10, 'numthreads': None, 'nobanner': False}>"
p1112
asbasbasbag56
(g72
g58
NtRp1113
(dp1114
g61
(dp1115
sg70
g1018
sg63
(lp1116
g56
(g77
g58
NtRp1117
(dp1118
g61
(dp1119
g81
g82
ssg70
g1113
sg63
(lp1120
S'db_sessions'
p1121
asbag56
(g77
g58
NtRp1122
(dp1123
g61
(dp1124
g88
g89
ssg70
g1113
sg63
(lp1125
S':'
asbag56
(g77
g58
NtRp1126
(dp1127
g61
(dp1128
sg70
g1113
sg63
(lp1129
g56
(g57
g58
NtRp1130
(dp1131
g61
(dp1132
g69
I4
ssg70
g1126
sg63
(lp1133
S'set([])'
p1134
asbasbasbag56
(g72
g58
NtRp1135
(dp1136
g61
(dp1137
sg70
g1018
sg63
(lp1138
g56
(g77
g58
NtRp1139
(dp1140
g61
(dp1141
g81
g82
ssg70
g1135
sg63
(lp1142
S'debugging'
p1143
asbag56
(g77
g58
NtRp1144
(dp1145
g61
(dp1146
g88
g89
ssg70
g1135
sg63
(lp1147
S':'
asbag56
(g77
g58
NtRp1148
(dp1149
g61
(dp1150
sg70
g1135
sg63
(lp1151
g56
(g57
g58
NtRp1152
(dp1153
g61
(dp1154
g69
I4
ssg70
g1148
sg63
(lp1155
g99
asbasbasbag56
(g72
g58
NtRp1156
(dp1157
g61
(dp1158
sg70
g1018
sg63
(lp1159
g56
(g77
g58
NtRp1160
(dp1161
g61
(dp1162
g81
g82
ssg70
g1156
sg63
(lp1163
S'gluon_parent'
p1164
asbag56
(g77
g58
NtRp1165
(dp1166
g61
(dp1167
g88
g89
ssg70
g1156
sg63
(lp1168
S':'
asbag56
(g77
g58
NtRp1169
(dp1170
g61
(dp1171
sg70
g1156
sg63
(lp1172
g56
(g57
g58
NtRp1173
(dp1174
g61
(dp1175
g69
I4
ssg70
g1169
sg63
(lp1176
S'/home/kaique/Projects/web2py'
p1177
asbasbasbag56
(g72
g58
NtRp1178
(dp1179
g61
(dp1180
sg70
g1018
sg63
(lp1181
g56
(g77
g58
NtRp1182
(dp1183
g61
(dp1184
g81
g82
ssg70
g1178
sg63
(lp1185
S'http_accept'
p1186
asbag56
(g77
g58
NtRp1187
(dp1188
g61
(dp1189
g88
g89
ssg70
g1178
sg63
(lp1190
S':'
asbag56
(g77
g58
NtRp1191
(dp1192
g61
(dp1193
sg70
g1178
sg63
(lp1194
g56
(g57
g58
NtRp1195
(dp1196
g61
(dp1197
g69
I4
ssg70
g1191
sg63
(lp1198
S'text/html,application/xhtml+xml,application/xml;q=0.9,*/*;q=0.8'
p1199
asbasbasbag56
(g72
g58
NtRp1200
(dp1201
g61
(dp1202
sg70
g1018
sg63
(lp1203
g56
(g77
g58
NtRp1204
(dp1205
g61
(dp1206
g81
g82
ssg70
g1200
sg63
(lp1207
S'http_accept_charset'
p1208
asbag56
(g77
g58
NtRp1209
(dp1210
g61
(dp1211
g88
g89
ssg70
g1200
sg63
(lp1212
S':'
asbag56
(g77
g58
NtRp1213
(dp1214
g61
(dp1215
sg70
g1200
sg63
(lp1216
g56
(g57
g58
NtRp1217
(dp1218
g61
(dp1219
g69
I4
ssg70
g1213
sg63
(lp1220
S'ISO-8859-1,utf-8;q=0.7,*;q=0.7'
p1221
asbasbasbag56
(g72
g58
NtRp1222
(dp1223
g61
(dp1224
sg70
g1018
sg63
(lp1225
g56
(g77
g58
NtRp1226
(dp1227
g61
(dp1228
g81
g82
ssg70
g1222
sg63
(lp1229
S'http_accept_encoding'
p1230
asbag56
(g77
g58
NtRp1231
(dp1232
g61
(dp1233
g88
g89
ssg70
g1222
sg63
(lp1234
S':'
asbag56
(g77
g58
NtRp1235
(dp1236
g61
(dp1237
sg70
g1222
sg63
(lp1238
g56
(g57
g58
NtRp1239
(dp1240
g61
(dp1241
g69
I4
ssg70
g1235
sg63
(lp1242
S'gzip, deflate'
p1243
asbasbasbag56
(g72
g58
NtRp1244
(dp1245
g61
(dp1246
sg70
g1018
sg63
(lp1247
g56
(g77
g58
NtRp1248
(dp1249
g61
(dp1250
g81
g82
ssg70
g1244
sg63
(lp1251
S'http_accept_language'
p1252
asbag56
(g77
g58
NtRp1253
(dp1254
g61
(dp1255
g88
g89
ssg70
g1244
sg63
(lp1256
S':'
asbag56
(g77
g58
NtRp1257
(dp1258
g61
(dp1259
sg70
g1244
sg63
(lp1260
g56
(g57
g58
NtRp1261
(dp1262
g61
(dp1263
g69
I4
ssg70
g1257
sg63
(lp1264
S'pt-br,pt;q=0.8,en-us;q=0.5,en;q=0.3'
p1265
asbasbasbag56
(g72
g58
NtRp1266
(dp1267
g61
(dp1268
sg70
g1018
sg63
(lp1269
g56
(g77
g58
NtRp1270
(dp1271
g61
(dp1272
g81
g82
ssg70
g1266
sg63
(lp1273
S'http_cache_control'
p1274
asbag56
(g77
g58
NtRp1275
(dp1276
g61
(dp1277
g88
g89
ssg70
g1266
sg63
(lp1278
S':'
asbag56
(g77
g58
NtRp1279
(dp1280
g61
(dp1281
sg70
g1266
sg63
(lp1282
g56
(g57
g58
NtRp1283
(dp1284
g61
(dp1285
g69
I4
ssg70
g1279
sg63
(lp1286
S'max-age=0'
p1287
asbasbasbag56
(g72
g58
NtRp1288
(dp1289
g61
(dp1290
sg70
g1018
sg63
(lp1291
g56
(g77
g58
NtRp1292
(dp1293
g61
(dp1294
g81
g82
ssg70
g1288
sg63
(lp1295
S'http_connection'
p1296
asbag56
(g77
g58
NtRp1297
(dp1298
g61
(dp1299
g88
g89
ssg70
g1288
sg63
(lp1300
S':'
asbag56
(g77
g58
NtRp1301
(dp1302
g61
(dp1303
sg70
g1288
sg63
(lp1304
g56
(g57
g58
NtRp1305
(dp1306
g61
(dp1307
g69
I4
ssg70
g1301
sg63
(lp1308
S'keep-alive'
p1309
asbasbasbag56
(g72
g58
NtRp1310
(dp1311
g61
(dp1312
sg70
g1018
sg63
(lp1313
g56
(g77
g58
NtRp1314
(dp1315
g61
(dp1316
g81
g82
ssg70
g1310
sg63
(lp1317
S'http_cookie'
p1318
asbag56
(g77
g58
NtRp1319
(dp1320
g61
(dp1321
g88
g89
ssg70
g1310
sg63
(lp1322
S':'
asbag56
(g77
g58
NtRp1323
(dp1324
g61
(dp1325
sg70
g1310
sg63
(lp1326
g56
(g57
g58
NtRp1327
(dp1328
g61
(dp1329
g69
I4
ssg70
g1323
sg63
(lp1330
S'currency=GBP; PHPSESSID=9p6ovvset7bb455bs5oc3eara3; session_id_welcome=127.0.0.1-2178f248-6721-4586-ae68-1cad380386a5; session_id_synopsis=127.0.0.1-22caa4ed-0448-4782-a756-bcb437fd81d3'
p1331
asbasbasbag56
(g72
g58
NtRp1332
(dp1333
g61
(dp1334
sg70
g1018
sg63
(lp1335
g56
(g77
g58
NtRp1336
(dp1337
g61
(dp1338
g81
g82
ssg70
g1332
sg63
(lp1339
S'http_host'
p1340
asbag56
(g77
g58
NtRp1341
(dp1342
g61
(dp1343
g88
g89
ssg70
g1332
sg63
(lp1344
S':'
asbag56
(g77
g58
NtRp1345
(dp1346
g61
(dp1347
sg70
g1332
sg63
(lp1348
g56
(g57
g58
NtRp1349
(dp1350
g61
(dp1351
g69
I4
ssg70
g1345
sg63
(lp1352
S'localhost:8000'
p1353
asbasbasbag56
(g72
g58
NtRp1354
(dp1355
g61
(dp1356
sg70
g1018
sg63
(lp1357
g56
(g77
g58
NtRp1358
(dp1359
g61
(dp1360
g81
g82
ssg70
g1354
sg63
(lp1361
S'http_referer'
p1362
asbag56
(g77
g58
NtRp1363
(dp1364
g61
(dp1365
g88
g89
ssg70
g1354
sg63
(lp1366
S':'
asbag56
(g77
g58
NtRp1367
(dp1368
g61
(dp1369
sg70
g1354
sg63
(lp1370
g56
(g57
g58
NtRp1371
(dp1372
g61
(dp1373
g69
I4
ssg70
g1367
sg63
(lp1374
S'http://localhost:8000/synopsis/information/new/column/8'
p1375
asbasbasbag56
(g72
g58
NtRp1376
(dp1377
g61
(dp1378
sg70
g1018
sg63
(lp1379
g56
(g77
g58
NtRp1380
(dp1381
g61
(dp1382
g81
g82
ssg70
g1376
sg63
(lp1383
S'http_user_agent'
p1384
asbag56
(g77
g58
NtRp1385
(dp1386
g61
(dp1387
g88
g89
ssg70
g1376
sg63
(lp1388
S':'
asbag56
(g77
g58
NtRp1389
(dp1390
g61
(dp1391
sg70
g1376
sg63
(lp1392
g56
(g57
g58
NtRp1393
(dp1394
g61
(dp1395
g69
I4
ssg70
g1389
sg63
(lp1396
S'Mozilla/5.0 (Ubuntu; X11; Linux x86_64; rv:9.0.1) Gecko/20100101 Firefox/9.0.1'
p1397
asbasbasbag56
(g72
g58
NtRp1398
(dp1399
g61
(dp1400
sg70
g1018
sg63
(lp1401
g56
(g77
g58
NtRp1402
(dp1403
g61
(dp1404
g81
g82
ssg70
g1398
sg63
(lp1405
S'is_jython'
p1406
asbag56
(g77
g58
NtRp1407
(dp1408
g61
(dp1409
g88
g89
ssg70
g1398
sg63
(lp1410
S':'
asbag56
(g77
g58
NtRp1411
(dp1412
g61
(dp1413
sg70
g1398
sg63
(lp1414
g56
(g57
g58
NtRp1415
(dp1416
g61
(dp1417
g69
I4
ssg70
g1411
sg63
(lp1418
g99
asbasbasbag56
(g72
g58
NtRp1419
(dp1420
g61
(dp1421
sg70
g1018
sg63
(lp1422
g56
(g77
g58
NtRp1423
(dp1424
g61
(dp1425
g81
g82
ssg70
g1419
sg63
(lp1426
S'path_info'
p1427
asbag56
(g77
g58
NtRp1428
(dp1429
g61
(dp1430
g88
g89
ssg70
g1419
sg63
(lp1431
S':'
asbag56
(g77
g58
NtRp1432
(dp1433
g61
(dp1434
sg70
g1419
sg63
(lp1435
g56
(g57
g58
NtRp1436
(dp1437
g61
(dp1438
g69
I4
ssg70
g1432
sg63
(lp1439
S'/synopsis/information/publication/8'
p1440
asbasbasbag56
(g72
g58
NtRp1441
(dp1442
g61
(dp1443
sg70
g1018
sg63
(lp1444
g56
(g77
g58
NtRp1445
(dp1446
g61
(dp1447
g81
g82
ssg70
g1441
sg63
(lp1448
S'query_string'
p1449
asbag56
(g77
g58
NtRp1450
(dp1451
g61
(dp1452
g88
g89
ssg70
g1441
sg63
(lp1453
S':'
asbag56
(g77
g58
NtRp1454
(dp1455
g61
(dp1456
sg70
g1441
sg63
(lp1457
g56
(g57
g58
NtRp1458
(dp1459
g61
(dp1460
g69
I4
ssg70
g1454
sg63
(lp1461
S''
asbasbasbag56
(g72
g58
NtRp1462
(dp1463
g61
(dp1464
sg70
g1018
sg63
(lp1465
g56
(g77
g58
NtRp1466
(dp1467
g61
(dp1468
g81
g82
ssg70
g1462
sg63
(lp1469
S'remote_addr'
p1470
asbag56
(g77
g58
NtRp1471
(dp1472
g61
(dp1473
g88
g89
ssg70
g1462
sg63
(lp1474
S':'
asbag56
(g77
g58
NtRp1475
(dp1476
g61
(dp1477
sg70
g1462
sg63
(lp1478
g56
(g57
g58
NtRp1479
(dp1480
g61
(dp1481
g69
I4
ssg70
g1475
sg63
(lp1482
g201
asbasbasbag56
(g72
g58
NtRp1483
(dp1484
g61
(dp1485
sg70
g1018
sg63
(lp1486
g56
(g77
g58
NtRp1487
(dp1488
g61
(dp1489
g81
g82
ssg70
g1483
sg63
(lp1490
S'remote_port'
p1491
asbag56
(g77
g58
NtRp1492
(dp1493
g61
(dp1494
g88
g89
ssg70
g1483
sg63
(lp1495
S':'
asbag56
(g77
g58
NtRp1496
(dp1497
g61
(dp1498
sg70
g1483
sg63
(lp1499
g56
(g57
g58
NtRp1500
(dp1501
g61
(dp1502
g69
I4
ssg70
g1496
sg63
(lp1503
S'60576'
p1504
asbasbasbag56
(g72
g58
NtRp1505
(dp1506
g61
(dp1507
sg70
g1018
sg63
(lp1508
g56
(g77
g58
NtRp1509
(dp1510
g61
(dp1511
g81
g82
ssg70
g1505
sg63
(lp1512
S'request_method'
p1513
asbag56
(g77
g58
NtRp1514
(dp1515
g61
(dp1516
g88
g89
ssg70
g1505
sg63
(lp1517
S':'
asbag56
(g77
g58
NtRp1518
(dp1519
g61
(dp1520
sg70
g1505
sg63
(lp1521
g56
(g57
g58
NtRp1522
(dp1523
g61
(dp1524
g69
I4
ssg70
g1518
sg63
(lp1525
S'GET'
p1526
asbasbasbag56
(g72
g58
NtRp1527
(dp1528
g61
(dp1529
sg70
g1018
sg63
(lp1530
g56
(g77
g58
NtRp1531
(dp1532
g61
(dp1533
g81
g82
ssg70
g1527
sg63
(lp1534
S'script_name'
p1535
asbag56
(g77
g58
NtRp1536
(dp1537
g61
(dp1538
g88
g89
ssg70
g1527
sg63
(lp1539
S':'
asbag56
(g77
g58
NtRp1540
(dp1541
g61
(dp1542
sg70
g1527
sg63
(lp1543
g56
(g57
g58
NtRp1544
(dp1545
g61
(dp1546
g69
I4
ssg70
g1540
sg63
(lp1547
S''
asbasbasbag56
(g72
g58
NtRp1548
(dp1549
g61
(dp1550
sg70
g1018
sg63
(lp1551
g56
(g77
g58
NtRp1552
(dp1553
g61
(dp1554
g81
g82
ssg70
g1548
sg63
(lp1555
S'server_name'
p1556
asbag56
(g77
g58
NtRp1557
(dp1558
g61
(dp1559
g88
g89
ssg70
g1548
sg63
(lp1560
S':'
asbag56
(g77
g58
NtRp1561
(dp1562
g61
(dp1563
sg70
g1548
sg63
(lp1564
g56
(g57
g58
NtRp1565
(dp1566
g61
(dp1567
g69
I4
ssg70
g1561
sg63
(lp1568
S'kaique-Pine-Trail-M'
p1569
asbasbasbag56
(g72
g58
NtRp1570
(dp1571
g61
(dp1572
sg70
g1018
sg63
(lp1573
g56
(g77
g58
NtRp1574
(dp1575
g61
(dp1576
g81
g82
ssg70
g1570
sg63
(lp1577
S'server_port'
p1578
asbag56
(g77
g58
NtRp1579
(dp1580
g61
(dp1581
g88
g89
ssg70
g1570
sg63
(lp1582
S':'
asbag56
(g77
g58
NtRp1583
(dp1584
g61
(dp1585
sg70
g1570
sg63
(lp1586
g56
(g57
g58
NtRp1587
(dp1588
g61
(dp1589
g69
I4
ssg70
g1583
sg63
(lp1590
S'8000'
p1591
asbasbasbag56
(g72
g58
NtRp1592
(dp1593
g61
(dp1594
sg70
g1018
sg63
(lp1595
g56
(g77
g58
NtRp1596
(dp1597
g61
(dp1598
g81
g82
ssg70
g1592
sg63
(lp1599
S'server_protocol'
p1600
asbag56
(g77
g58
NtRp1601
(dp1602
g61
(dp1603
g88
g89
ssg70
g1592
sg63
(lp1604
S':'
asbag56
(g77
g58
NtRp1605
(dp1606
g61
(dp1607
sg70
g1592
sg63
(lp1608
g56
(g57
g58
NtRp1609
(dp1610
g61
(dp1611
g69
I4
ssg70
g1605
sg63
(lp1612
S'HTTP/1.1'
p1613
asbasbasbag56
(g72
g58
NtRp1614
(dp1615
g61
(dp1616
sg70
g1018
sg63
(lp1617
g56
(g77
g58
NtRp1618
(dp1619
g61
(dp1620
g81
g82
ssg70
g1614
sg63
(lp1621
S'server_software'
p1622
asbag56
(g77
g58
NtRp1623
(dp1624
g61
(dp1625
g88
g89
ssg70
g1614
sg63
(lp1626
S':'
asbag56
(g77
g58
NtRp1627
(dp1628
g61
(dp1629
sg70
g1614
sg63
(lp1630
g56
(g57
g58
NtRp1631
(dp1632
g61
(dp1633
g69
I4
ssg70
g1627
sg63
(lp1634
S'Rocket 1.2.4'
p1635
asbasbasbag56
(g72
g58
NtRp1636
(dp1637
g61
(dp1638
sg70
g1018
sg63
(lp1639
g56
(g77
g58
NtRp1640
(dp1641
g61
(dp1642
g81
g82
ssg70
g1636
sg63
(lp1643
S'web2py_crontype'
p1644
asbag56
(g77
g58
NtRp1645
(dp1646
g61
(dp1647
g88
g89
ssg70
g1636
sg63
(lp1648
S':'
asbag56
(g77
g58
NtRp1649
(dp1650
g61
(dp1651
sg70
g1636
sg63
(lp1652
g56
(g57
g58
NtRp1653
(dp1654
g61
(dp1655
g69
I4
ssg70
g1649
sg63
(lp1656
S'hard'
p1657
asbasbasbag56
(g72
g58
NtRp1658
(dp1659
g61
(dp1660
sg70
g1018
sg63
(lp1661
g56
(g77
g58
NtRp1662
(dp1663
g61
(dp1664
g81
g82
ssg70
g1658
sg63
(lp1665
S'web2py_path'
p1666
asbag56
(g77
g58
NtRp1667
(dp1668
g61
(dp1669
g88
g89
ssg70
g1658
sg63
(lp1670
S':'
asbag56
(g77
g58
NtRp1671
(dp1672
g61
(dp1673
sg70
g1658
sg63
(lp1674
g56
(g57
g58
NtRp1675
(dp1676
g61
(dp1677
g69
I4
ssg70
g1671
sg63
(lp1678
g1065
asbasbasbag56
(g72
g58
NtRp1679
(dp1680
g61
(dp1681
sg70
g1018
sg63
(lp1682
g56
(g77
g58
NtRp1683
(dp1684
g61
(dp1685
g81
g82
ssg70
g1679
sg63
(lp1686
S'web2py_version'
p1687
asbag56
(g77
g58
NtRp1688
(dp1689
g61
(dp1690
g88
g89
ssg70
g1679
sg63
(lp1691
S':'
asbag56
(g77
g58
NtRp1692
(dp1693
g61
(dp1694
sg70
g1679
sg63
(lp1695
g56
(g57
g58
NtRp1696
(dp1697
g61
(dp1698
g69
I4
ssg70
g1692
sg63
(lp1699
g56
(g65
g58
NtRp1700
(dp1701
g61
(dp1702
g69
I3
ssg70
Nsg63
(lp1703
g56
(g72
g58
NtRp1704
(dp1705
g61
(dp1706
sg70
g1700
sg63
(lp1707
g56
(g77
g58
NtRp1708
(dp1709
g61
(dp1710
sg70
g1704
sg63
(lp1711
g56
(g57
g58
NtRp1712
(dp1713
g61
(dp1714
g69
I3
ssg70
g1708
sg63
(lp1715
S'1'
asbasbasbag56
(g72
g58
NtRp1716
(dp1717
g61
(dp1718
sg70
g1700
sg63
(lp1719
g56
(g77
g58
NtRp1720
(dp1721
g61
(dp1722
sg70
g1716
sg63
(lp1723
g56
(g57
g58
NtRp1724
(dp1725
g61
(dp1726
g69
I3
ssg70
g1720
sg63
(lp1727
S'99'
p1728
asbasbasbag56
(g72
g58
NtRp1729
(dp1730
g61
(dp1731
sg70
g1700
sg63
(lp1732
g56
(g77
g58
NtRp1733
(dp1734
g61
(dp1735
sg70
g1729
sg63
(lp1736
g56
(g57
g58
NtRp1737
(dp1738
g61
(dp1739
g69
I3
ssg70
g1733
sg63
(lp1740
S'2'
asbasbasbag56
(g72
g58
NtRp1741
(dp1742
g61
(dp1743
sg70
g1700
sg63
(lp1744
g56
(g77
g58
NtRp1745
(dp1746
g61
(dp1747
sg70
g1741
sg63
(lp1748
g56
(g57
g58
NtRp1749
(dp1750
g61
(dp1751
g69
I3
ssg70
g1745
sg63
(lp1752
S'datetime.datetime(2011, 9, 26, 6, 55, 33)'
p1753
asbasbasbag56
(g72
g58
NtRp1754
(dp1755
g61
(dp1756
sg70
g1700
sg63
(lp1757
g56
(g77
g58
NtRp1758
(dp1759
g61
(dp1760
sg70
g1754
sg63
(lp1761
g56
(g57
g58
NtRp1762
(dp1763
g61
(dp1764
g69
I3
ssg70
g1758
sg63
(lp1765
S'stable'
p1766
asbasbasbasbasbasbasbag56
(g72
g58
NtRp1767
(dp1768
g61
(dp1769
sg70
g1018
sg63
(lp1770
g56
(g77
g58
NtRp1771
(dp1772
g61
(dp1773
g81
g82
ssg70
g1767
sg63
(lp1774
S'wsgi_errors'
p1775
asbag56
(g77
g58
NtRp1776
(dp1777
g61
(dp1778
g88
g89
ssg70
g1767
sg63
(lp1779
S':'
asbag56
(g77
g58
NtRp1780
(dp1781
g61
(dp1782
sg70
g1767
sg63
(lp1783
g56
(g57
g58
NtRp1784
(dp1785
g61
(dp1786
g69
I4
ssg70
g1780
sg63
(lp1787
S"<open file '<stderr>', mode 'w' at 0x7f6fd5c71270>"
p1788
asbasbasbag56
(g72
g58
NtRp1789
(dp1790
g61
(dp1791
sg70
g1018
sg63
(lp1792
g56
(g77
g58
NtRp1793
(dp1794
g61
(dp1795
g81
g82
ssg70
g1789
sg63
(lp1796
S'wsgi_file_wrapper'
p1797
asbag56
(g77
g58
NtRp1798
(dp1799
g61
(dp1800
g88
g89
ssg70
g1789
sg63
(lp1801
S':'
asbag56
(g77
g58
NtRp1802
(dp1803
g61
(dp1804
sg70
g1789
sg63
(lp1805
g56
(g57
g58
NtRp1806
(dp1807
g61
(dp1808
g69
I4
ssg70
g1802
sg63
(lp1809
S'<class wsgiref.util.FileWrapper at 0x183def0>'
p1810
asbasbasbag56
(g72
g58
NtRp1811
(dp1812
g61
(dp1813
sg70
g1018
sg63
(lp1814
g56
(g77
g58
NtRp1815
(dp1816
g61
(dp1817
g81
g82
ssg70
g1811
sg63
(lp1818
S'wsgi_input'
p1819
asbag56
(g77
g58
NtRp1820
(dp1821
g61
(dp1822
g88
g89
ssg70
g1811
sg63
(lp1823
S':'
asbag56
(g77
g58
NtRp1824
(dp1825
g61
(dp1826
sg70
g1811
sg63
(lp1827
g56
(g57
g58
NtRp1828
(dp1829
g61
(dp1830
g69
I4
ssg70
g1824
sg63
(lp1831
S'<socket._fileobject object at 0x1c41550>'
p1832
asbasbasbag56
(g72
g58
NtRp1833
(dp1834
g61
(dp1835
sg70
g1018
sg63
(lp1836
g56
(g77
g58
NtRp1837
(dp1838
g61
(dp1839
g81
g82
ssg70
g1833
sg63
(lp1840
S'wsgi_multiprocess'
p1841
asbag56
(g77
g58
NtRp1842
(dp1843
g61
(dp1844
g88
g89
ssg70
g1833
sg63
(lp1845
S':'
asbag56
(g77
g58
NtRp1846
(dp1847
g61
(dp1848
sg70
g1833
sg63
(lp1849
g56
(g57
g58
NtRp1850
(dp1851
g61
(dp1852
g69
I4
ssg70
g1846
sg63
(lp1853
g99
asbasbasbag56
(g72
g58
NtRp1854
(dp1855
g61
(dp1856
sg70
g1018
sg63
(lp1857
g56
(g77
g58
NtRp1858
(dp1859
g61
(dp1860
g81
g82
ssg70
g1854
sg63
(lp1861
S'wsgi_multithread'
p1862
asbag56
(g77
g58
NtRp1863
(dp1864
g61
(dp1865
g88
g89
ssg70
g1854
sg63
(lp1866
S':'
asbag56
(g77
g58
NtRp1867
(dp1868
g61
(dp1869
sg70
g1854
sg63
(lp1870
g56
(g57
g58
NtRp1871
(dp1872
g61
(dp1873
g69
I4
ssg70
g1867
sg63
(lp1874
S'True'
p1875
asbasbasbag56
(g72
g58
NtRp1876
(dp1877
g61
(dp1878
sg70
g1018
sg63
(lp1879
g56
(g77
g58
NtRp1880
(dp1881
g61
(dp1882
g81
g82
ssg70
g1876
sg63
(lp1883
S'wsgi_run_once'
p1884
asbag56
(g77
g58
NtRp1885
(dp1886
g61
(dp1887
g88
g89
ssg70
g1876
sg63
(lp1888
S':'
asbag56
(g77
g58
NtRp1889
(dp1890
g61
(dp1891
sg70
g1876
sg63
(lp1892
g56
(g57
g58
NtRp1893
(dp1894
g61
(dp1895
g69
I4
ssg70
g1889
sg63
(lp1896
g99
asbasbasbag56
(g72
g58
NtRp1897
(dp1898
g61
(dp1899
sg70
g1018
sg63
(lp1900
g56
(g77
g58
NtRp1901
(dp1902
g61
(dp1903
g81
g82
ssg70
g1897
sg63
(lp1904
S'wsgi_url_scheme'
p1905
asbag56
(g77
g58
NtRp1906
(dp1907
g61
(dp1908
g88
g89
ssg70
g1897
sg63
(lp1909
S':'
asbag56
(g77
g58
NtRp1910
(dp1911
g61
(dp1912
sg70
g1897
sg63
(lp1913
g56
(g57
g58
NtRp1914
(dp1915
g61
(dp1916
g69
I4
ssg70
g1910
sg63
(lp1917
S'http'
p1918
asbasbasbag56
(g72
g58
NtRp1919
(dp1920
g61
(dp1921
sg70
g1018
sg63
(lp1922
g56
(g77
g58
NtRp1923
(dp1924
g61
(dp1925
g81
g82
ssg70
g1919
sg63
(lp1926
S'wsgi_version'
p1927
asbag56
(g77
g58
NtRp1928
(dp1929
g61
(dp1930
g88
g89
ssg70
g1919
sg63
(lp1931
S':'
asbag56
(g77
g58
NtRp1932
(dp1933
g61
(dp1934
sg70
g1919
sg63
(lp1935
g56
(g57
g58
NtRp1936
(dp1937
g61
(dp1938
g69
I4
ssg70
g1932
sg63
(lp1939
g56
(g65
g58
NtRp1940
(dp1941
g61
(dp1942
g69
I3
ssg70
Nsg63
(lp1943
g56
(g72
g58
NtRp1944
(dp1945
g61
(dp1946
sg70
g1940
sg63
(lp1947
g56
(g77
g58
NtRp1948
(dp1949
g61
(dp1950
sg70
g1944
sg63
(lp1951
g56
(g57
g58
NtRp1952
(dp1953
g61
(dp1954
g69
I3
ssg70
g1948
sg63
(lp1955
S'1'
asbasbasbag56
(g72
g58
NtRp1956
(dp1957
g61
(dp1958
sg70
g1940
sg63
(lp1959
g56
(g77
g58
NtRp1960
(dp1961
g61
(dp1962
sg70
g1956
sg63
(lp1963
g56
(g57
g58
NtRp1964
(dp1965
g61
(dp1966
g69
I3
ssg70
g1960
sg63
(lp1967
S'0'
asbasbasbasbasbasbasbasbasbasbasbag56
(g72
g58
NtRp1968
(dp1969
g61
(dp1970
sg70
g66
sg63
(lp1971
g56
(g77
g58
NtRp1972
(dp1973
g61
(dp1974
g81
g82
ssg70
g1968
sg63
(lp1975
S'extension'
p1976
asbag56
(g77
g58
NtRp1977
(dp1978
g61
(dp1979
g88
g89
ssg70
g1968
sg63
(lp1980
S':'
asbag56
(g77
g58
NtRp1981
(dp1982
g61
(dp1983
sg70
g1968
sg63
(lp1984
g56
(g57
g58
NtRp1985
(dp1986
g61
(dp1987
g69
I5
ssg70
g1981
sg63
(lp1988
S'html'
p1989
asbasbasbag56
(g72
g58
NtRp1990
(dp1991
g61
(dp1992
sg70
g66
sg63
(lp1993
g56
(g77
g58
NtRp1994
(dp1995
g61
(dp1996
g81
g82
ssg70
g1990
sg63
(lp1997
S'folder'
p1998
asbag56
(g77
g58
NtRp1999
(dp2000
g61
(dp2001
g88
g89
ssg70
g1990
sg63
(lp2002
S':'
asbag56
(g77
g58
NtRp2003
(dp2004
g61
(dp2005
sg70
g1990
sg63
(lp2006
g56
(g57
g58
NtRp2007
(dp2008
g61
(dp2009
g69
I5
ssg70
g2003
sg63
(lp2010
S'/home/kaique/Projects/web2py/applications/synopsis/'
p2011
asbasbasbag56
(g72
g58
NtRp2012
(dp2013
g61
(dp2014
sg70
g66
sg63
(lp2015
g56
(g77
g58
NtRp2016
(dp2017
g61
(dp2018
g81
g82
ssg70
g2012
sg63
(lp2019
S'function'
p2020
asbag56
(g77
g58
NtRp2021
(dp2022
g61
(dp2023
g88
g89
ssg70
g2012
sg63
(lp2024
S':'
asbag56
(g77
g58
NtRp2025
(dp2026
g61
(dp2027
sg70
g2012
sg63
(lp2028
g56
(g57
g58
NtRp2029
(dp2030
g61
(dp2031
g69
I5
ssg70
g2025
sg63
(lp2032
S'publication'
p2033
asbasbasbag56
(g72
g58
NtRp2034
(dp2035
g61
(dp2036
sg70
g66
sg63
(lp2037
g56
(g77
g58
NtRp2038
(dp2039
g61
(dp2040
g81
g82
ssg70
g2034
sg63
(lp2041
S'get_vars'
p2042
asbag56
(g77
g58
NtRp2043
(dp2044
g61
(dp2045
g88
g89
ssg70
g2034
sg63
(lp2046
S':'
asbag56
(g77
g58
NtRp2047
(dp2048
g61
(dp2049
sg70
g2034
sg63
(lp2050
g56
(g57
g58
NtRp2051
(dp2052
g61
(dp2053
g69
I5
ssg70
g2047
sg63
(lp2054
g56
(g65
g58
NtRp2055
(dp2056
g61
(dp2057
g69
I4
ssg70
Nsg63
(lp2058
sbasbasbasbag56
(g72
g58
NtRp2059
(dp2060
g61
(dp2061
sg70
g66
sg63
(lp2062
g56
(g77
g58
NtRp2063
(dp2064
g61
(dp2065
g81
g82
ssg70
g2059
sg63
(lp2066
S'global_settings'
p2067
asbag56
(g77
g58
NtRp2068
(dp2069
g61
(dp2070
g88
g89
ssg70
g2059
sg63
(lp2071
S':'
asbag56
(g77
g58
NtRp2072
(dp2073
g61
(dp2074
sg70
g2059
sg63
(lp2075
g56
(g57
g58
NtRp2076
(dp2077
g61
(dp2078
g69
I5
ssg70
g2072
sg63
(lp2079
g56
(g65
g58
NtRp2080
(dp2081
g61
(dp2082
g69
I4
ssg70
Nsg63
(lp2083
g56
(g72
g58
NtRp2084
(dp2085
g61
(dp2086
sg70
g2080
sg63
(lp2087
g56
(g77
g58
NtRp2088
(dp2089
g61
(dp2090
g81
g82
ssg70
g2084
sg63
(lp2091
g1030
asbag56
(g77
g58
NtRp2092
(dp2093
g61
(dp2094
g88
g89
ssg70
g2084
sg63
(lp2095
S':'
asbag56
(g77
g58
NtRp2096
(dp2097
g61
(dp2098
sg70
g2084
sg63
(lp2099
g56
(g57
g58
NtRp2100
(dp2101
g61
(dp2102
g69
I4
ssg70
g2096
sg63
(lp2103
S"set(['/home/kaique/Projects/web2py/applications/welcome/', '/home/kaique/Projects/web2py/applications/synopsis/'])"
p2104
asbasbasbag56
(g72
g58
NtRp2105
(dp2106
g61
(dp2107
sg70
g2080
sg63
(lp2108
g56
(g77
g58
NtRp2109
(dp2110
g61
(dp2111
g81
g82
ssg70
g2105
sg63
(lp2112
g1052
asbag56
(g77
g58
NtRp2113
(dp2114
g61
(dp2115
g88
g89
ssg70
g2105
sg63
(lp2116
S':'
asbag56
(g77
g58
NtRp2117
(dp2118
g61
(dp2119
sg70
g2105
sg63
(lp2120
g56
(g57
g58
NtRp2121
(dp2122
g61
(dp2123
g69
I4
ssg70
g2117
sg63
(lp2124
g1065
asbasbasbag56
(g72
g58
NtRp2125
(dp2126
g61
(dp2127
sg70
g2080
sg63
(lp2128
g56
(g77
g58
NtRp2129
(dp2130
g61
(dp2131
g81
g82
ssg70
g2125
sg63
(lp2132
g1074
asbag56
(g77
g58
NtRp2133
(dp2134
g61
(dp2135
g88
g89
ssg70
g2125
sg63
(lp2136
S':'
asbag56
(g77
g58
NtRp2137
(dp2138
g61
(dp2139
sg70
g2125
sg63
(lp2140
g56
(g57
g58
NtRp2141
(dp2142
g61
(dp2143
g69
I4
ssg70
g2137
sg63
(lp2144
g56
(g65
g58
NtRp2145
(dp2146
g61
(dp2147
g69
I3
ssg70
Nsg63
(lp2148
sbasbasbasbag56
(g72
g58
NtRp2149
(dp2150
g61
(dp2151
sg70
g2080
sg63
(lp2152
g56
(g77
g58
NtRp2153
(dp2154
g61
(dp2155
g81
g82
ssg70
g2149
sg63
(lp2156
g1099
asbag56
(g77
g58
NtRp2157
(dp2158
g61
(dp2159
g88
g89
ssg70
g2149
sg63
(lp2160
S':'
asbag56
(g77
g58
NtRp2161
(dp2162
g61
(dp2163
sg70
g2149
sg63
(lp2164
g56
(g57
g58
NtRp2165
(dp2166
g61
(dp2167
g69
I4
ssg70
g2161
sg63
(lp2168
S"<Values at 0x1986950: {'verbose': False, 'ip': '127.0.0.1', 'shutdown_timeout': 5, 'taskbar': False, 'nocron': False, 'pid_filename': 'httpserver.pid', 'maxthreads': None, 'softcron': False, 'server_name': 'kaique-Pine-Trail-M', 'bpython': False, 'nogui': False, 'port': 8000, 'extcron': False, 'debuglevel': 30, 'test': None, 'folder': '/home/kaique/Projects/web2py', 'config': '', 'import_models': False, 'winservice': '', 'shell': None, 'run': '', 'log_filename': 'httpserver.log', 'args': [''], 'ssl_ca_certificate': None, 'scheduler': None, 'profiler_filename': None, 'ssl_private_key': '', 'password': 'dev', 'request_queue_size': 5, 'ssl_certificate': '', 'cronjob': False, 'plain': False, 'quiet': False, 'interfaces': None, 'minthreads': None, 'timeout': 10, 'numthreads': None, 'nobanner': False}>"
p2169
asbasbasbag56
(g72
g58
NtRp2170
(dp2171
g61
(dp2172
sg70
g2080
sg63
(lp2173
g56
(g77
g58
NtRp2174
(dp2175
g61
(dp2176
g81
g82
ssg70
g2170
sg63
(lp2177
g1121
asbag56
(g77
g58
NtRp2178
(dp2179
g61
(dp2180
g88
g89
ssg70
g2170
sg63
(lp2181
S':'
asbag56
(g77
g58
NtRp2182
(dp2183
g61
(dp2184
sg70
g2170
sg63
(lp2185
g56
(g57
g58
NtRp2186
(dp2187
g61
(dp2188
g69
I4
ssg70
g2182
sg63
(lp2189
S'set([])'
p2190
asbasbasbag56
(g72
g58
NtRp2191
(dp2192
g61
(dp2193
sg70
g2080
sg63
(lp2194
g56
(g77
g58
NtRp2195
(dp2196
g61
(dp2197
g81
g82
ssg70
g2191
sg63
(lp2198
g1143
asbag56
(g77
g58
NtRp2199
(dp2200
g61
(dp2201
g88
g89
ssg70
g2191
sg63
(lp2202
S':'
asbag56
(g77
g58
NtRp2203
(dp2204
g61
(dp2205
sg70
g2191
sg63
(lp2206
g56
(g57
g58
NtRp2207
(dp2208
g61
(dp2209
g69
I4
ssg70
g2203
sg63
(lp2210
g99
asbasbasbag56
(g72
g58
NtRp2211
(dp2212
g61
(dp2213
sg70
g2080
sg63
(lp2214
g56
(g77
g58
NtRp2215
(dp2216
g61
(dp2217
g81
g82
ssg70
g2211
sg63
(lp2218
g1164
asbag56
(g77
g58
NtRp2219
(dp2220
g61
(dp2221
g88
g89
ssg70
g2211
sg63
(lp2222
S':'
asbag56
(g77
g58
NtRp2223
(dp2224
g61
(dp2225
sg70
g2211
sg63
(lp2226
g56
(g57
g58
NtRp2227
(dp2228
g61
(dp2229
g69
I4
ssg70
g2223
sg63
(lp2230
g1177
asbasbasbag56
(g72
g58
NtRp2231
(dp2232
g61
(dp2233
sg70
g2080
sg63
(lp2234
g56
(g77
g58
NtRp2235
(dp2236
g61
(dp2237
g81
g82
ssg70
g2231
sg63
(lp2238
g1406
asbag56
(g77
g58
NtRp2239
(dp2240
g61
(dp2241
g88
g89
ssg70
g2231
sg63
(lp2242
S':'
asbag56
(g77
g58
NtRp2243
(dp2244
g61
(dp2245
sg70
g2231
sg63
(lp2246
g56
(g57
g58
NtRp2247
(dp2248
g61
(dp2249
g69
I4
ssg70
g2243
sg63
(lp2250
g99
asbasbasbag56
(g72
g58
NtRp2251
(dp2252
g61
(dp2253
sg70
g2080
sg63
(lp2254
g56
(g77
g58
NtRp2255
(dp2256
g61
(dp2257
g81
g82
ssg70
g2251
sg63
(lp2258
g1644
asbag56
(g77
g58
NtRp2259
(dp2260
g61
(dp2261
g88
g89
ssg70
g2251
sg63
(lp2262
S':'
asbag56
(g77
g58
NtRp2263
(dp2264
g61
(dp2265
sg70
g2251
sg63
(lp2266
g56
(g57
g58
NtRp2267
(dp2268
g61
(dp2269
g69
I4
ssg70
g2263
sg63
(lp2270
g1657
asbasbasbag56
(g72
g58
NtRp2271
(dp2272
g61
(dp2273
sg70
g2080
sg63
(lp2274
g56
(g77
g58
NtRp2275
(dp2276
g61
(dp2277
g81
g82
ssg70
g2271
sg63
(lp2278
g1687
asbag56
(g77
g58
NtRp2279
(dp2280
g61
(dp2281
g88
g89
ssg70
g2271
sg63
(lp2282
S':'
asbag56
(g77
g58
NtRp2283
(dp2284
g61
(dp2285
sg70
g2271
sg63
(lp2286
g56
(g57
g58
NtRp2287
(dp2288
g61
(dp2289
g69
I4
ssg70
g2283
sg63
(lp2290
g56
(g65
g58
NtRp2291
(dp2292
g61
(dp2293
g69
I3
ssg70
Nsg63
(lp2294
g56
(g72
g58
NtRp2295
(dp2296
g61
(dp2297
sg70
g2291
sg63
(lp2298
g56
(g77
g58
NtRp2299
(dp2300
g61
(dp2301
sg70
g2295
sg63
(lp2302
g56
(g57
g58
NtRp2303
(dp2304
g61
(dp2305
g69
I3
ssg70
g2299
sg63
(lp2306
S'1'
asbasbasbag56
(g72
g58
NtRp2307
(dp2308
g61
(dp2309
sg70
g2291
sg63
(lp2310
g56
(g77
g58
NtRp2311
(dp2312
g61
(dp2313
sg70
g2307
sg63
(lp2314
g56
(g57
g58
NtRp2315
(dp2316
g61
(dp2317
g69
I3
ssg70
g2311
sg63
(lp2318
S'99'
p2319
asbasbasbag56
(g72
g58
NtRp2320
(dp2321
g61
(dp2322
sg70
g2291
sg63
(lp2323
g56
(g77
g58
NtRp2324
(dp2325
g61
(dp2326
sg70
g2320
sg63
(lp2327
g56
(g57
g58
NtRp2328
(dp2329
g61
(dp2330
g69
I3
ssg70
g2324
sg63
(lp2331
S'2'
asbasbasbag56
(g72
g58
NtRp2332
(dp2333
g61
(dp2334
sg70
g2291
sg63
(lp2335
g56
(g77
g58
NtRp2336
(dp2337
g61
(dp2338
sg70
g2332
sg63
(lp2339
g56
(g57
g58
NtRp2340
(dp2341
g61
(dp2342
g69
I3
ssg70
g2336
sg63
(lp2343
S'datetime.datetime(2011, 9, 26, 6, 55, 33)'
p2344
asbasbasbag56
(g72
g58
NtRp2345
(dp2346
g61
(dp2347
sg70
g2291
sg63
(lp2348
g56
(g77
g58
NtRp2349
(dp2350
g61
(dp2351
sg70
g2345
sg63
(lp2352
g56
(g57
g58
NtRp2353
(dp2354
g61
(dp2355
g69
I3
ssg70
g2349
sg63
(lp2356
g1766
asbasbasbasbasbasbasbasbasbasbasbag56
(g72
g58
NtRp2357
(dp2358
g61
(dp2359
sg70
g66
sg63
(lp2360
g56
(g77
g58
NtRp2361
(dp2362
g61
(dp2363
g81
g82
ssg70
g2357
sg63
(lp2364
S'is_https'
p2365
asbag56
(g77
g58
NtRp2366
(dp2367
g61
(dp2368
g88
g89
ssg70
g2357
sg63
(lp2369
S':'
asbag56
(g77
g58
NtRp2370
(dp2371
g61
(dp2372
sg70
g2357
sg63
(lp2373
g56
(g57
g58
NtRp2374
(dp2375
g61
(dp2376
g69
I5
ssg70
g2370
sg63
(lp2377
g99
asbasbasbag56
(g72
g58
NtRp2378
(dp2379
g61
(dp2380
sg70
g66
sg63
(lp2381
g56
(g77
g58
NtRp2382
(dp2383
g61
(dp2384
g81
g82
ssg70
g2378
sg63
(lp2385
S'is_local'
p2386
asbag56
(g77
g58
NtRp2387
(dp2388
g61
(dp2389
g88
g89
ssg70
g2378
sg63
(lp2390
S':'
asbag56
(g77
g58
NtRp2391
(dp2392
g61
(dp2393
sg70
g2378
sg63
(lp2394
g56
(g57
g58
NtRp2395
(dp2396
g61
(dp2397
g69
I5
ssg70
g2391
sg63
(lp2398
g1875
asbasbasbag56
(g72
g58
NtRp2399
(dp2400
g61
(dp2401
sg70
g66
sg63
(lp2402
g56
(g77
g58
NtRp2403
(dp2404
g61
(dp2405
g81
g82
ssg70
g2399
sg63
(lp2406
S'is_restful'
p2407
asbag56
(g77
g58
NtRp2408
(dp2409
g61
(dp2410
g88
g89
ssg70
g2399
sg63
(lp2411
S':'
asbag56
(g77
g58
NtRp2412
(dp2413
g61
(dp2414
sg70
g2399
sg63
(lp2415
g56
(g57
g58
NtRp2416
(dp2417
g61
(dp2418
g69
I5
ssg70
g2412
sg63
(lp2419
g99
asbasbasbag56
(g72
g58
NtRp2420
(dp2421
g61
(dp2422
sg70
g66
sg63
(lp2423
g56
(g77
g58
NtRp2424
(dp2425
g61
(dp2426
g81
g82
ssg70
g2420
sg63
(lp2427
S'now'
p2428
asbag56
(g77
g58
NtRp2429
(dp2430
g61
(dp2431
g88
g89
ssg70
g2420
sg63
(lp2432
S':'
asbag56
(g77
g58
NtRp2433
(dp2434
g61
(dp2435
sg70
g2420
sg63
(lp2436
g56
(g57
g58
NtRp2437
(dp2438
g61
(dp2439
g69
I5
ssg70
g2433
sg63
(lp2440
S'datetime.datetime(2012, 1, 13, 22, 18, 57, 706232)'
p2441
asbasbasbag56
(g72
g58
NtRp2442
(dp2443
g61
(dp2444
sg70
g66
sg63
(lp2445
g56
(g77
g58
NtRp2446
(dp2447
g61
(dp2448
g81
g82
ssg70
g2442
sg63
(lp2449
S'post_vars'
p2450
asbag56
(g77
g58
NtRp2451
(dp2452
g61
(dp2453
g88
g89
ssg70
g2442
sg63
(lp2454
S':'
asbag56
(g77
g58
NtRp2455
(dp2456
g61
(dp2457
sg70
g2442
sg63
(lp2458
g56
(g57
g58
NtRp2459
(dp2460
g61
(dp2461
g69
I5
ssg70
g2455
sg63
(lp2462
g56
(g65
g58
NtRp2463
(dp2464
g61
(dp2465
g69
I4
ssg70
Nsg63
(lp2466
sbasbasbasbag56
(g72
g58
NtRp2467
(dp2468
g61
(dp2469
sg70
g66
sg63
(lp2470
g56
(g77
g58
NtRp2471
(dp2472
g61
(dp2473
g81
g82
ssg70
g2467
sg63
(lp2474
S'raw_args'
p2475
asbag56
(g77
g58
NtRp2476
(dp2477
g61
(dp2478
g88
g89
ssg70
g2467
sg63
(lp2479
S':'
asbag56
(g77
g58
NtRp2480
(dp2481
g61
(dp2482
sg70
g2467
sg63
(lp2483
g56
(g57
g58
NtRp2484
(dp2485
g61
(dp2486
g69
I5
ssg70
g2480
sg63
(lp2487
S'8'
asbasbasbag56
(g72
g58
NtRp2488
(dp2489
g61
(dp2490
sg70
g66
sg63
(lp2491
g56
(g77
g58
NtRp2492
(dp2493
g61
(dp2494
g81
g82
ssg70
g2488
sg63
(lp2495
S'url'
p2496
asbag56
(g77
g58
NtRp2497
(dp2498
g61
(dp2499
g88
g89
ssg70
g2488
sg63
(lp2500
S':'
asbag56
(g77
g58
NtRp2501
(dp2502
g61
(dp2503
sg70
g2488
sg63
(lp2504
g56
(g57
g58
NtRp2505
(dp2506
g61
(dp2507
g69
I5
ssg70
g2501
sg63
(lp2508
S'/synopsis/information/publication/8'
p2509
asbasbasbag56
(g72
g58
NtRp2510
(dp2511
g61
(dp2512
sg70
g66
sg63
(lp2513
g56
(g77
g58
NtRp2514
(dp2515
g61
(dp2516
g81
g82
ssg70
g2510
sg63
(lp2517
S'utcnow'
p2518
asbag56
(g77
g58
NtRp2519
(dp2520
g61
(dp2521
g88
g89
ssg70
g2510
sg63
(lp2522
S':'
asbag56
(g77
g58
NtRp2523
(dp2524
g61
(dp2525
sg70
g2510
sg63
(lp2526
g56
(g57
g58
NtRp2527
(dp2528
g61
(dp2529
g69
I5
ssg70
g2523
sg63
(lp2530
S'datetime.datetime(2012, 1, 14, 0, 18, 57, 706309)'
p2531
asbasbasbag56
(g72
g58
NtRp2532
(dp2533
g61
(dp2534
sg70
g66
sg63
(lp2535
g56
(g77
g58
NtRp2536
(dp2537
g61
(dp2538
g81
g82
ssg70
g2532
sg63
(lp2539
S'uuid'
p2540
asbag56
(g77
g58
NtRp2541
(dp2542
g61
(dp2543
g88
g89
ssg70
g2532
sg63
(lp2544
S':'
asbag56
(g77
g58
NtRp2545
(dp2546
g61
(dp2547
sg70
g2532
sg63
(lp2548
g56
(g57
g58
NtRp2549
(dp2550
g61
(dp2551
g69
I5
ssg70
g2545
sg63
(lp2552
S'synopsis/127.0.0.1.2012-01-13.22-18-57.5c1c14cb-a267-4153-9936-4eb88a49082b'
p2553
asbasbasbag56
(g72
g58
NtRp2554
(dp2555
g61
(dp2556
sg70
g66
sg63
(lp2557
g56
(g77
g58
NtRp2558
(dp2559
g61
(dp2560
g81
g82
ssg70
g2554
sg63
(lp2561
S'vars'
p2562
asbag56
(g77
g58
NtRp2563
(dp2564
g61
(dp2565
g88
g89
ssg70
g2554
sg63
(lp2566
S':'
asbag56
(g77
g58
NtRp2567
(dp2568
g61
(dp2569
sg70
g2554
sg63
(lp2570
g56
(g57
g58
NtRp2571
(dp2572
g61
(dp2573
g69
I5
ssg70
g2567
sg63
(lp2574
g56
(g65
g58
NtRp2575
(dp2576
g61
(dp2577
g69
I4
ssg70
Nsg63
(lp2578
sbasbasbasbag56
(g72
g58
NtRp2579
(dp2580
g61
(dp2581
sg70
g66
sg63
(lp2582
g56
(g77
g58
NtRp2583
(dp2584
g61
(dp2585
g81
g82
ssg70
g2579
sg63
(lp2586
S'wsgi'
p2587
asbag56
(g77
g58
NtRp2588
(dp2589
g61
(dp2590
g88
g89
ssg70
g2579
sg63
(lp2591
S':'
asbag56
(g77
g58
NtRp2592
(dp2593
g61
(dp2594
sg70
g2579
sg63
(lp2595
g56
(g57
g58
NtRp2596
(dp2597
g61
(dp2598
g69
I5
ssg70
g2592
sg63
(lp2599
g56
(g65
g58
NtRp2600
(dp2601
g61
(dp2602
g69
I4
ssg70
Nsg63
(lp2603
g56
(g72
g58
NtRp2604
(dp2605
g61
(dp2606
sg70
g2600
sg63
(lp2607
g56
(g77
g58
NtRp2608
(dp2609
g61
(dp2610
g81
g82
ssg70
g2604
sg63
(lp2611
S'environ'
p2612
asbag56
(g77
g58
NtRp2613
(dp2614
g61
(dp2615
g88
g89
ssg70
g2604
sg63
(lp2616
S':'
asbag56
(g77
g58
NtRp2617
(dp2618
g61
(dp2619
sg70
g2604
sg63
(lp2620
g56
(g57
g58
NtRp2621
(dp2622
g61
(dp2623
g69
I4
ssg70
g2617
sg63
(lp2624
g56
(g65
g58
NtRp2625
(dp2626
g61
(dp2627
g69
I3
ssg70
Nsg63
(lp2628
g56
(g72
g58
NtRp2629
(dp2630
g61
(dp2631
sg70
g2625
sg63
(lp2632
g56
(g77
g58
NtRp2633
(dp2634
g61
(dp2635
g81
g82
ssg70
g2629
sg63
(lp2636
S'HTTP_ACCEPT'
p2637
asbag56
(g77
g58
NtRp2638
(dp2639
g61
(dp2640
g88
g89
ssg70
g2629
sg63
(lp2641
S':'
asbag56
(g77
g58
NtRp2642
(dp2643
g61
(dp2644
sg70
g2629
sg63
(lp2645
g56
(g57
g58
NtRp2646
(dp2647
g61
(dp2648
g69
I3
ssg70
g2642
sg63
(lp2649
g1199
asbasbasbag56
(g72
g58
NtRp2650
(dp2651
g61
(dp2652
sg70
g2625
sg63
(lp2653
g56
(g77
g58
NtRp2654
(dp2655
g61
(dp2656
g81
g82
ssg70
g2650
sg63
(lp2657
S'HTTP_ACCEPT_CHARSET'
p2658
asbag56
(g77
g58
NtRp2659
(dp2660
g61
(dp2661
g88
g89
ssg70
g2650
sg63
(lp2662
S':'
asbag56
(g77
g58
NtRp2663
(dp2664
g61
(dp2665
sg70
g2650
sg63
(lp2666
g56
(g57
g58
NtRp2667
(dp2668
g61
(dp2669
g69
I3
ssg70
g2663
sg63
(lp2670
g1221
asbasbasbag56
(g72
g58
NtRp2671
(dp2672
g61
(dp2673
sg70
g2625
sg63
(lp2674
g56
(g77
g58
NtRp2675
(dp2676
g61
(dp2677
g81
g82
ssg70
g2671
sg63
(lp2678
S'HTTP_ACCEPT_ENCODING'
p2679
asbag56
(g77
g58
NtRp2680
(dp2681
g61
(dp2682
g88
g89
ssg70
g2671
sg63
(lp2683
S':'
asbag56
(g77
g58
NtRp2684
(dp2685
g61
(dp2686
sg70
g2671
sg63
(lp2687
g56
(g57
g58
NtRp2688
(dp2689
g61
(dp2690
g69
I3
ssg70
g2684
sg63
(lp2691
g1243
asbasbasbag56
(g72
g58
NtRp2692
(dp2693
g61
(dp2694
sg70
g2625
sg63
(lp2695
g56
(g77
g58
NtRp2696
(dp2697
g61
(dp2698
g81
g82
ssg70
g2692
sg63
(lp2699
S'HTTP_ACCEPT_LANGUAGE'
p2700
asbag56
(g77
g58
NtRp2701
(dp2702
g61
(dp2703
g88
g89
ssg70
g2692
sg63
(lp2704
S':'
asbag56
(g77
g58
NtRp2705
(dp2706
g61
(dp2707
sg70
g2692
sg63
(lp2708
g56
(g57
g58
NtRp2709
(dp2710
g61
(dp2711
g69
I3
ssg70
g2705
sg63
(lp2712
g1265
asbasbasbag56
(g72
g58
NtRp2713
(dp2714
g61
(dp2715
sg70
g2625
sg63
(lp2716
g56
(g77
g58
NtRp2717
(dp2718
g61
(dp2719
g81
g82
ssg70
g2713
sg63
(lp2720
S'HTTP_CACHE_CONTROL'
p2721
asbag56
(g77
g58
NtRp2722
(dp2723
g61
(dp2724
g88
g89
ssg70
g2713
sg63
(lp2725
S':'
asbag56
(g77
g58
NtRp2726
(dp2727
g61
(dp2728
sg70
g2713
sg63
(lp2729
g56
(g57
g58
NtRp2730
(dp2731
g61
(dp2732
g69
I3
ssg70
g2726
sg63
(lp2733
g1287
asbasbasbag56
(g72
g58
NtRp2734
(dp2735
g61
(dp2736
sg70
g2625
sg63
(lp2737
g56
(g77
g58
NtRp2738
(dp2739
g61
(dp2740
g81
g82
ssg70
g2734
sg63
(lp2741
S'HTTP_CONNECTION'
p2742
asbag56
(g77
g58
NtRp2743
(dp2744
g61
(dp2745
g88
g89
ssg70
g2734
sg63
(lp2746
S':'
asbag56
(g77
g58
NtRp2747
(dp2748
g61
(dp2749
sg70
g2734
sg63
(lp2750
g56
(g57
g58
NtRp2751
(dp2752
g61
(dp2753
g69
I3
ssg70
g2747
sg63
(lp2754
g1309
asbasbasbag56
(g72
g58
NtRp2755
(dp2756
g61
(dp2757
sg70
g2625
sg63
(lp2758
g56
(g77
g58
NtRp2759
(dp2760
g61
(dp2761
g81
g82
ssg70
g2755
sg63
(lp2762
S'HTTP_COOKIE'
p2763
asbag56
(g77
g58
NtRp2764
(dp2765
g61
(dp2766
g88
g89
ssg70
g2755
sg63
(lp2767
S':'
asbag56
(g77
g58
NtRp2768
(dp2769
g61
(dp2770
sg70
g2755
sg63
(lp2771
g56
(g57
g58
NtRp2772
(dp2773
g61
(dp2774
g69
I3
ssg70
g2768
sg63
(lp2775
g1331
asbasbasbag56
(g72
g58
NtRp2776
(dp2777
g61
(dp2778
sg70
g2625
sg63
(lp2779
g56
(g77
g58
NtRp2780
(dp2781
g61
(dp2782
g81
g82
ssg70
g2776
sg63
(lp2783
S'HTTP_HOST'
p2784
asbag56
(g77
g58
NtRp2785
(dp2786
g61
(dp2787
g88
g89
ssg70
g2776
sg63
(lp2788
S':'
asbag56
(g77
g58
NtRp2789
(dp2790
g61
(dp2791
sg70
g2776
sg63
(lp2792
g56
(g57
g58
NtRp2793
(dp2794
g61
(dp2795
g69
I3
ssg70
g2789
sg63
(lp2796
g1353
asbasbasbag56
(g72
g58
NtRp2797
(dp2798
g61
(dp2799
sg70
g2625
sg63
(lp2800
g56
(g77
g58
NtRp2801
(dp2802
g61
(dp2803
g81
g82
ssg70
g2797
sg63
(lp2804
S'HTTP_REFERER'
p2805
asbag56
(g77
g58
NtRp2806
(dp2807
g61
(dp2808
g88
g89
ssg70
g2797
sg63
(lp2809
S':'
asbag56
(g77
g58
NtRp2810
(dp2811
g61
(dp2812
sg70
g2797
sg63
(lp2813
g56
(g57
g58
NtRp2814
(dp2815
g61
(dp2816
g69
I3
ssg70
g2810
sg63
(lp2817
g1375
asbasbasbag56
(g72
g58
NtRp2818
(dp2819
g61
(dp2820
sg70
g2625
sg63
(lp2821
g56
(g77
g58
NtRp2822
(dp2823
g61
(dp2824
g81
g82
ssg70
g2818
sg63
(lp2825
S'HTTP_USER_AGENT'
p2826
asbag56
(g77
g58
NtRp2827
(dp2828
g61
(dp2829
g88
g89
ssg70
g2818
sg63
(lp2830
S':'
asbag56
(g77
g58
NtRp2831
(dp2832
g61
(dp2833
sg70
g2818
sg63
(lp2834
g56
(g57
g58
NtRp2835
(dp2836
g61
(dp2837
g69
I3
ssg70
g2831
sg63
(lp2838
g1397
asbasbasbag56
(g72
g58
NtRp2839
(dp2840
g61
(dp2841
sg70
g2625
sg63
(lp2842
g56
(g77
g58
NtRp2843
(dp2844
g61
(dp2845
g81
g82
ssg70
g2839
sg63
(lp2846
S'PATH_INFO'
p2847
asbag56
(g77
g58
NtRp2848
(dp2849
g61
(dp2850
g88
g89
ssg70
g2839
sg63
(lp2851
S':'
asbag56
(g77
g58
NtRp2852
(dp2853
g61
(dp2854
sg70
g2839
sg63
(lp2855
g56
(g57
g58
NtRp2856
(dp2857
g61
(dp2858
g69
I3
ssg70
g2852
sg63
(lp2859
g1440
asbasbasbag56
(g72
g58
NtRp2860
(dp2861
g61
(dp2862
sg70
g2625
sg63
(lp2863
g56
(g77
g58
NtRp2864
(dp2865
g61
(dp2866
g81
g82
ssg70
g2860
sg63
(lp2867
S'QUERY_STRING'
p2868
asbag56
(g77
g58
NtRp2869
(dp2870
g61
(dp2871
g88
g89
ssg70
g2860
sg63
(lp2872
S':'
asbag56
(g77
g58
NtRp2873
(dp2874
g61
(dp2875
sg70
g2860
sg63
(lp2876
g56
(g57
g58
NtRp2877
(dp2878
g61
(dp2879
g69
I3
ssg70
g2873
sg63
(lp2880
S''
asbasbasbag56
(g72
g58
NtRp2881
(dp2882
g61
(dp2883
sg70
g2625
sg63
(lp2884
g56
(g77
g58
NtRp2885
(dp2886
g61
(dp2887
g81
g82
ssg70
g2881
sg63
(lp2888
S'REMOTE_ADDR'
p2889
asbag56
(g77
g58
NtRp2890
(dp2891
g61
(dp2892
g88
g89
ssg70
g2881
sg63
(lp2893
S':'
asbag56
(g77
g58
NtRp2894
(dp2895
g61
(dp2896
sg70
g2881
sg63
(lp2897
g56
(g57
g58
NtRp2898
(dp2899
g61
(dp2900
g69
I3
ssg70
g2894
sg63
(lp2901
g201
asbasbasbag56
(g72
g58
NtRp2902
(dp2903
g61
(dp2904
sg70
g2625
sg63
(lp2905
g56
(g77
g58
NtRp2906
(dp2907
g61
(dp2908
g81
g82
ssg70
g2902
sg63
(lp2909
S'REMOTE_PORT'
p2910
asbag56
(g77
g58
NtRp2911
(dp2912
g61
(dp2913
g88
g89
ssg70
g2902
sg63
(lp2914
S':'
asbag56
(g77
g58
NtRp2915
(dp2916
g61
(dp2917
sg70
g2902
sg63
(lp2918
g56
(g57
g58
NtRp2919
(dp2920
g61
(dp2921
g69
I3
ssg70
g2915
sg63
(lp2922
g1504
asbasbasbag56
(g72
g58
NtRp2923
(dp2924
g61
(dp2925
sg70
g2625
sg63
(lp2926
g56
(g77
g58
NtRp2927
(dp2928
g61
(dp2929
g81
g82
ssg70
g2923
sg63
(lp2930
S'REQUEST_METHOD'
p2931
asbag56
(g77
g58
NtRp2932
(dp2933
g61
(dp2934
g88
g89
ssg70
g2923
sg63
(lp2935
S':'
asbag56
(g77
g58
NtRp2936
(dp2937
g61
(dp2938
sg70
g2923
sg63
(lp2939
g56
(g57
g58
NtRp2940
(dp2941
g61
(dp2942
g69
I3
ssg70
g2936
sg63
(lp2943
g1526
asbasbasbag56
(g72
g58
NtRp2944
(dp2945
g61
(dp2946
sg70
g2625
sg63
(lp2947
g56
(g77
g58
NtRp2948
(dp2949
g61
(dp2950
g81
g82
ssg70
g2944
sg63
(lp2951
S'SCRIPT_NAME'
p2952
asbag56
(g77
g58
NtRp2953
(dp2954
g61
(dp2955
g88
g89
ssg70
g2944
sg63
(lp2956
S':'
asbag56
(g77
g58
NtRp2957
(dp2958
g61
(dp2959
sg70
g2944
sg63
(lp2960
g56
(g57
g58
NtRp2961
(dp2962
g61
(dp2963
g69
I3
ssg70
g2957
sg63
(lp2964
S''
asbasbasbag56
(g72
g58
NtRp2965
(dp2966
g61
(dp2967
sg70
g2625
sg63
(lp2968
g56
(g77
g58
NtRp2969
(dp2970
g61
(dp2971
g81
g82
ssg70
g2965
sg63
(lp2972
S'SERVER_NAME'
p2973
asbag56
(g77
g58
NtRp2974
(dp2975
g61
(dp2976
g88
g89
ssg70
g2965
sg63
(lp2977
S':'
asbag56
(g77
g58
NtRp2978
(dp2979
g61
(dp2980
sg70
g2965
sg63
(lp2981
g56
(g57
g58
NtRp2982
(dp2983
g61
(dp2984
g69
I3
ssg70
g2978
sg63
(lp2985
g1569
asbasbasbag56
(g72
g58
NtRp2986
(dp2987
g61
(dp2988
sg70
g2625
sg63
(lp2989
g56
(g77
g58
NtRp2990
(dp2991
g61
(dp2992
g81
g82
ssg70
g2986
sg63
(lp2993
S'SERVER_PORT'
p2994
asbag56
(g77
g58
NtRp2995
(dp2996
g61
(dp2997
g88
g89
ssg70
g2986
sg63
(lp2998
S':'
asbag56
(g77
g58
NtRp2999
(dp3000
g61
(dp3001
sg70
g2986
sg63
(lp3002
g56
(g57
g58
NtRp3003
(dp3004
g61
(dp3005
g69
I3
ssg70
g2999
sg63
(lp3006
g1591
asbasbasbag56
(g72
g58
NtRp3007
(dp3008
g61
(dp3009
sg70
g2625
sg63
(lp3010
g56
(g77
g58
NtRp3011
(dp3012
g61
(dp3013
g81
g82
ssg70
g3007
sg63
(lp3014
S'SERVER_PROTOCOL'
p3015
asbag56
(g77
g58
NtRp3016
(dp3017
g61
(dp3018
g88
g89
ssg70
g3007
sg63
(lp3019
S':'
asbag56
(g77
g58
NtRp3020
(dp3021
g61
(dp3022
sg70
g3007
sg63
(lp3023
g56
(g57
g58
NtRp3024
(dp3025
g61
(dp3026
g69
I3
ssg70
g3020
sg63
(lp3027
g1613
asbasbasbag56
(g72
g58
NtRp3028
(dp3029
g61
(dp3030
sg70
g2625
sg63
(lp3031
g56
(g77
g58
NtRp3032
(dp3033
g61
(dp3034
g81
g82
ssg70
g3028
sg63
(lp3035
S'SERVER_SOFTWARE'
p3036
asbag56
(g77
g58
NtRp3037
(dp3038
g61
(dp3039
g88
g89
ssg70
g3028
sg63
(lp3040
S':'
asbag56
(g77
g58
NtRp3041
(dp3042
g61
(dp3043
sg70
g3028
sg63
(lp3044
g56
(g57
g58
NtRp3045
(dp3046
g61
(dp3047
g69
I3
ssg70
g3041
sg63
(lp3048
g1635
asbasbasbag56
(g72
g58
NtRp3049
(dp3050
g61
(dp3051
sg70
g2625
sg63
(lp3052
g56
(g77
g58
NtRp3053
(dp3054
g61
(dp3055
g81
g82
ssg70
g3049
sg63
(lp3056
S'wsgi.errors'
p3057
asbag56
(g77
g58
NtRp3058
(dp3059
g61
(dp3060
g88
g89
ssg70
g3049
sg63
(lp3061
S':'
asbag56
(g77
g58
NtRp3062
(dp3063
g61
(dp3064
sg70
g3049
sg63
(lp3065
g56
(g57
g58
NtRp3066
(dp3067
g61
(dp3068
g69
I3
ssg70
g3062
sg63
(lp3069
S"<open file '<stderr>', mode 'w' at 0x7f6fd5c71270>"
p3070
asbasbasbag56
(g72
g58
NtRp3071
(dp3072
g61
(dp3073
sg70
g2625
sg63
(lp3074
g56
(g77
g58
NtRp3075
(dp3076
g61
(dp3077
g81
g82
ssg70
g3071
sg63
(lp3078
S'wsgi.file_wrapper'
p3079
asbag56
(g77
g58
NtRp3080
(dp3081
g61
(dp3082
g88
g89
ssg70
g3071
sg63
(lp3083
S':'
asbag56
(g77
g58
NtRp3084
(dp3085
g61
(dp3086
sg70
g3071
sg63
(lp3087
g56
(g57
g58
NtRp3088
(dp3089
g61
(dp3090
g69
I3
ssg70
g3084
sg63
(lp3091
S'<class wsgiref.util.FileWrapper at 0x183def0>'
p3092
asbasbasbag56
(g72
g58
NtRp3093
(dp3094
g61
(dp3095
sg70
g2625
sg63
(lp3096
g56
(g77
g58
NtRp3097
(dp3098
g61
(dp3099
g81
g82
ssg70
g3093
sg63
(lp3100
S'wsgi.input'
p3101
asbag56
(g77
g58
NtRp3102
(dp3103
g61
(dp3104
g88
g89
ssg70
g3093
sg63
(lp3105
S':'
asbag56
(g77
g58
NtRp3106
(dp3107
g61
(dp3108
sg70
g3093
sg63
(lp3109
g56
(g57
g58
NtRp3110
(dp3111
g61
(dp3112
g69
I3
ssg70
g3106
sg63
(lp3113
S'<cStringIO.StringO object at 0x1bead88>'
p3114
asbasbasbag56
(g72
g58
NtRp3115
(dp3116
g61
(dp3117
sg70
g2625
sg63
(lp3118
g56
(g77
g58
NtRp3119
(dp3120
g61
(dp3121
g81
g82
ssg70
g3115
sg63
(lp3122
S'wsgi.multiprocess'
p3123
asbag56
(g77
g58
NtRp3124
(dp3125
g61
(dp3126
g88
g89
ssg70
g3115
sg63
(lp3127
S':'
asbag56
(g77
g58
NtRp3128
(dp3129
g61
(dp3130
sg70
g3115
sg63
(lp3131
g56
(g57
g58
NtRp3132
(dp3133
g61
(dp3134
g69
I3
ssg70
g3128
sg63
(lp3135
g99
asbasbasbag56
(g72
g58
NtRp3136
(dp3137
g61
(dp3138
sg70
g2625
sg63
(lp3139
g56
(g77
g58
NtRp3140
(dp3141
g61
(dp3142
g81
g82
ssg70
g3136
sg63
(lp3143
S'wsgi.multithread'
p3144
asbag56
(g77
g58
NtRp3145
(dp3146
g61
(dp3147
g88
g89
ssg70
g3136
sg63
(lp3148
S':'
asbag56
(g77
g58
NtRp3149
(dp3150
g61
(dp3151
sg70
g3136
sg63
(lp3152
g56
(g57
g58
NtRp3153
(dp3154
g61
(dp3155
g69
I3
ssg70
g3149
sg63
(lp3156
g1875
asbasbasbag56
(g72
g58
NtRp3157
(dp3158
g61
(dp3159
sg70
g2625
sg63
(lp3160
g56
(g77
g58
NtRp3161
(dp3162
g61
(dp3163
g81
g82
ssg70
g3157
sg63
(lp3164
S'wsgi.run_once'
p3165
asbag56
(g77
g58
NtRp3166
(dp3167
g61
(dp3168
g88
g89
ssg70
g3157
sg63
(lp3169
S':'
asbag56
(g77
g58
NtRp3170
(dp3171
g61
(dp3172
sg70
g3157
sg63
(lp3173
g56
(g57
g58
NtRp3174
(dp3175
g61
(dp3176
g69
I3
ssg70
g3170
sg63
(lp3177
g99
asbasbasbag56
(g72
g58
NtRp3178
(dp3179
g61
(dp3180
sg70
g2625
sg63
(lp3181
g56
(g77
g58
NtRp3182
(dp3183
g61
(dp3184
g81
g82
ssg70
g3178
sg63
(lp3185
S'wsgi.url_scheme'
p3186
asbag56
(g77
g58
NtRp3187
(dp3188
g61
(dp3189
g88
g89
ssg70
g3178
sg63
(lp3190
S':'
asbag56
(g77
g58
NtRp3191
(dp3192
g61
(dp3193
sg70
g3178
sg63
(lp3194
g56
(g57
g58
NtRp3195
(dp3196
g61
(dp3197
g69
I3
ssg70
g3191
sg63
(lp3198
g1918
asbasbasbag56
(g72
g58
NtRp3199
(dp3200
g61
(dp3201
sg70
g2625
sg63
(lp3202
g56
(g77
g58
NtRp3203
(dp3204
g61
(dp3205
g81
g82
ssg70
g3199
sg63
(lp3206
S'wsgi.version'
p3207
asbag56
(g77
g58
NtRp3208
(dp3209
g61
(dp3210
g88
g89
ssg70
g3199
sg63
(lp3211
S':'
asbag56
(g77
g58
NtRp3212
(dp3213
g61
(dp3214
sg70
g3199
sg63
(lp3215
g56
(g57
g58
NtRp3216
(dp3217
g61
(dp3218
g69
I3
ssg70
g3212
sg63
(lp3219
S'1'
asbasbasbasbasbasbasbasbasbasbasbasbasbsS'frames'
p3220
(lp3221
(dp3222
S'file'
p3223
S'/home/kaique/Projects/web2py/gluon/restricted.py'
p3224
sS'dump'
p3225
(dp3226
S'environment'
p3227
S"{'A': <class 'gluon.html.A'>, 'Auth': <class 'gluon.tools.Auth'>, 'B': <class 'gluon.html.B'>, 'BEAUTIFY': <class 'gluon.html.BEAUTIFY'>, 'BODY': <class 'gluon.html.BODY'>, 'BR': <class 'gluon.html.BR'>, 'BUTTON': <class 'gluon.html.BUTTON'>, 'CAT': <class 'gluon.html.CAT'>, 'CENTER': <class 'gluon.html.CENTER'>, 'CLEANUP': <class 'gluon.validators.CLEANUP'>, ...}"
p3228
sS'ccode'
p3229
S'<code object <module> at 0x1b4f130, file "/home/...psis/views/information/publication.html", line 1>'
p3230
ssS'lnum'
p3231
I194
sS'lines'
p3232
(dp3233
I192
S'        else:'
p3234
sI193
S'            ccode = compile2(code,layer)'
p3235
sI194
S'        exec ccode in environment'
p3236
sI195
S'    except HTTP:'
p3237
sI196
S'        raise'
p3238
sI197
S'    except Exception, error:'
p3239
sI198
S'        # XXX Show exception in Wing IDE if running in debugger'
p3240
sI189
S'    try:'
p3241
sI190
S'        if type(code) == types.CodeType:'
p3242
sI191
S'            ccode = code'
p3243
ssS'call'
p3244
S'(code=\'response.write(\\\'<!DOCTYPE html>\\\\n<html lang="\\\', ...nse.write(\\\'\\\\n  </body>\\\\n</html>\\\\n\\\', escape=False)\', environment={\'A\': <class \'gluon.html.A\'>, \'Auth\': <class \'gluon.tools.Auth\'>, \'B\': <class \'gluon.html.B\'>, \'BEAUTIFY\': <class \'gluon.html.BEAUTIFY\'>, \'BODY\': <class \'gluon.html.BODY\'>, \'BR\': <class \'gluon.html.BR\'>, \'BUTTON\': <class \'gluon.html.BUTTON\'>, \'CAT\': <class \'gluon.html.CAT\'>, \'CENTER\': <class \'gluon.html.CENTER\'>, \'CLEANUP\': <class \'gluon.validators.CLEANUP\'>, ...}, layer=\'/home/kaique/Projects/web2py/applications/synopsis/views/information/publication.html\')'
p3245
sS'func'
p3246
S'restricted'
p3247
sa(dp3248
g3223
S'/home/kaique/Projects/web2py/applications/synopsis/views/information/publication.html'
p3249
sg3225
(dp3250
sg3231
I102
sg3232
(dp3251
I96
S'    for column in detail.column.select():'
p3252
sI97
S"        response.write('\\n\\t\\t\\t\\t\\t\\t\\t\\t<td>', escape=False)"
p3253
sI98
S"        response.write(A(column.title, _href=URL('new', args=['row', column.id])))"
p3254
sI99
S"        response.write('</td>\\n\\t\\t\\t\\t\\t\\t\\t', escape=False)"
p3255
sI100
S'        pass'
p3256
sI101
S"    response.write('\\t\\t\\t\\t\\t\\t\\t\\n\\t\\t\\t\\t\\t\\t</tr>\\n\\t\\t\\t\\t\\t</thead>\\n\\t\\t\\t\\t\\t<tbody>\\n\\t\\t\\t\\t\\t\\t\\t', escape=False)"
p3257
sI102
S'    response.write(column.count())'
p3258
sI103
S'    response.write(\'\\n\\t\\t\\t\\t\\t</tbody>\\n\\t\\t\\t\\t</table>\\n\\t\\t\\t\\t<div classs="quote">\\n\\t\\t\\t\\t\', escape=False)'
p3259
sI104
S'    for quote in detail.quote.select():'
p3260
sI105
S"        response.write('\\n\\t\\t\\t\\t\\t<p>', escape=False)"
p3261
sI106
S'        response.write(quote.content)'
p3262
sI107
S"        response.write('</p>\\n\\t\\t\\t\\t', escape=False)"
p3263
sI108
S'        pass'
p3264
sI109
S"    response.write('\\n\\t\\t\\t\\t</div>\\n\\t\\t\\t</div>\\n\\t\\t\\t', escape=False)"
p3265
sI110
S'    pass'
p3266
sI111
S"response.write('\\n\\t\\t</article>\\n\\t</section>\\n</div>\\n', escape=False)"
p3267
sI112
S"response.write(' \\n      </div>\\n      <!-- content -->\\n\\n      ', escape=False)"
p3268
sI93
S"        response.write(' ', escape=False)"
p3269
sI94
S'        pass'
p3270
sI95
S'    response.write(\'</h4>\\n\\t\\t\\t\\t<hr />\\n\\t\\t\\t</header>\\n\\t\\t\\t<div>\\t\\n\\t\\t\\t\\t<table style="border: 1px solid #ccc; margin: 10px 0 10px;">\\n\\t\\t\\t\\t\\t<thead>\\n\\t\\t\\t\\t\\t\\t<tr>\\n\\t\\t\\t\\t\\t\\t\\t\', escape=False)'
p3271
ssg3244
S'()'
p3272
sg3246
S'<module>'
p3273
sa(dp3274
g3223
S'/home/kaique/Projects/web2py/gluon/dal.py'
p3275
sg3225
(dp3276
S'self'
p3277
S"<Row {'updated_by': 1, 'title': 'Column 1', 'upd...d0>, 'row': <gluon.dal.Set object at 0x1c0e250>}>"
p3278
sS'key'
p3279
S"'count'"
p3280
ssg3231
I3851
sg3232
(dp3281
I3846
S''
sI3847
S'    def __setitem__(self, key, value):'
p3282
sI3848
S'        dict.__setitem__(self, str(key), value)'
p3283
sI3849
S''
sI3850
S'    def __getattr__(self, key):'
p3284
sI3851
S'        return self[key]'
p3285
sI3852
S''
sI3853
S'    def __setattr__(self, key, value):'
p3286
sI3854
S'        self[key] = value'
p3287
sI3855
S''
ssg3244
S"(self=<Row {'updated_by': 1, 'title': 'Column 1', 'upd...d0>, 'row': <gluon.dal.Set object at 0x1c0e250>}>, key='count')"
p3288
sg3246
S'__getattr__'
p3289
sa(dp3290
g3223
S'/home/kaique/Projects/web2py/gluon/dal.py'
p3291
sg3225
(dp3292
S'self'
p3293
S"<Row {'updated_by': 1, 'title': 'Column 1', 'upd...d0>, 'row': <gluon.dal.Set object at 0x1c0e250>}>"
p3294
sS'dict.__getitem__'
p3295
S"<method '__getitem__' of 'dict' objects>"
p3296
sS'key'
p3297
S"'count'"
p3298
sS'builtindict'
p3299
S"<type 'dict'>"
p3300
ssg3231
I3842
sg3232
(dp3301
I3840
S'            except (KeyError,TypeError):'
p3302
sI3841
S'                key = m.group(2)'
p3303
sI3842
S'        return dict.__getitem__(self, key)'
p3304
sI3843
S''
sI3844
S'    def __call__(self,key):'
p3305
sI3845
S'        return self.__getitem__(key)'
p3306
sI3846
S''
sI3837
S'        elif m:'
p3307
sI3838
S'            try:'
p3308
sI3839
S'                return dict.__getitem__(self, m.group(1))[m.group(2)]'
p3309
ssg3244
S"(self=<Row {'updated_by': 1, 'title': 'Column 1', 'upd...d0>, 'row': <gluon.dal.Set object at 0x1c0e250>}>, key='count')"
p3310
sg3246
g19
sasS'pyver'
p3311
S'Python 2.7.2+: /usr/bin/python'
p3312
sS'session'
p3313
g56
(g57
g58
NtRp3314
(dp3315
g61
(dp3316
sg63
(lp3317
g56
(g65
g58
NtRp3318
(dp3319
g61
(dp3320
g69
I5
ssg70
Nsg63
(lp3321
g56
(g72
g58
NtRp3322
(dp3323
g61
(dp3324
sg70
g3318
sg63
(lp3325
g56
(g77
g58
NtRp3326
(dp3327
g61
(dp3328
g81
g82
ssg70
g3322
sg63
(lp3329
S'auth'
p3330
asbag56
(g77
g58
NtRp3331
(dp3332
g61
(dp3333
g88
g89
ssg70
g3322
sg63
(lp3334
S':'
asbag56
(g77
g58
NtRp3335
(dp3336
g61
(dp3337
sg70
g3322
sg63
(lp3338
g56
(g57
g58
NtRp3339
(dp3340
g61
(dp3341
g69
I5
ssg70
g3335
sg63
(lp3342
g56
(g65
g58
NtRp3343
(dp3344
g61
(dp3345
g69
I4
ssg70
Nsg63
(lp3346
g56
(g72
g58
NtRp3347
(dp3348
g61
(dp3349
sg70
g3343
sg63
(lp3350
g56
(g77
g58
NtRp3351
(dp3352
g61
(dp3353
g81
g82
ssg70
g3347
sg63
(lp3354
S'expiration'
p3355
asbag56
(g77
g58
NtRp3356
(dp3357
g61
(dp3358
g88
g89
ssg70
g3347
sg63
(lp3359
S':'
asbag56
(g77
g58
NtRp3360
(dp3361
g61
(dp3362
sg70
g3347
sg63
(lp3363
g56
(g57
g58
NtRp3364
(dp3365
g61
(dp3366
g69
I4
ssg70
g3360
sg63
(lp3367
S'2592000'
p3368
asbasbasbag56
(g72
g58
NtRp3369
(dp3370
g61
(dp3371
sg70
g3343
sg63
(lp3372
g56
(g77
g58
NtRp3373
(dp3374
g61
(dp3375
g81
g82
ssg70
g3369
sg63
(lp3376
S'hmac_key'
p3377
asbag56
(g77
g58
NtRp3378
(dp3379
g61
(dp3380
g88
g89
ssg70
g3369
sg63
(lp3381
S':'
asbag56
(g77
g58
NtRp3382
(dp3383
g61
(dp3384
sg70
g3369
sg63
(lp3385
g56
(g57
g58
NtRp3386
(dp3387
g61
(dp3388
g69
I4
ssg70
g3382
sg63
(lp3389
S'63ff9364-0b36-492d-81fa-9c003e42e522'
p3390
asbasbasbag56
(g72
g58
NtRp3391
(dp3392
g61
(dp3393
sg70
g3343
sg63
(lp3394
g56
(g77
g58
NtRp3395
(dp3396
g61
(dp3397
g81
g82
ssg70
g3391
sg63
(lp3398
S'last_visit'
p3399
asbag56
(g77
g58
NtRp3400
(dp3401
g61
(dp3402
g88
g89
ssg70
g3391
sg63
(lp3403
S':'
asbag56
(g77
g58
NtRp3404
(dp3405
g61
(dp3406
sg70
g3391
sg63
(lp3407
g56
(g57
g58
NtRp3408
(dp3409
g61
(dp3410
g69
I4
ssg70
g3404
sg63
(lp3411
S'datetime.datetime(2012, 1, 13, 22, 9, 29, 822346)'
p3412
asbasbasbag56
(g72
g58
NtRp3413
(dp3414
g61
(dp3415
sg70
g3343
sg63
(lp3416
g56
(g77
g58
NtRp3417
(dp3418
g61
(dp3419
g81
g82
ssg70
g3413
sg63
(lp3420
S'remember'
p3421
asbag56
(g77
g58
NtRp3422
(dp3423
g61
(dp3424
g88
g89
ssg70
g3413
sg63
(lp3425
S':'
asbag56
(g77
g58
NtRp3426
(dp3427
g61
(dp3428
sg70
g3413
sg63
(lp3429
g56
(g57
g58
NtRp3430
(dp3431
g61
(dp3432
g69
I4
ssg70
g3426
sg63
(lp3433
g99
asbasbasbag56
(g72
g58
NtRp3434
(dp3435
g61
(dp3436
sg70
g3343
sg63
(lp3437
g56
(g77
g58
NtRp3438
(dp3439
g61
(dp3440
g81
g82
ssg70
g3434
sg63
(lp3441
S'user'
p3442
asbag56
(g77
g58
NtRp3443
(dp3444
g61
(dp3445
g88
g89
ssg70
g3434
sg63
(lp3446
S':'
asbag56
(g77
g58
NtRp3447
(dp3448
g61
(dp3449
sg70
g3434
sg63
(lp3450
g56
(g57
g58
NtRp3451
(dp3452
g61
(dp3453
g69
I4
ssg70
g3447
sg63
(lp3454
g56
(g65
g58
NtRp3455
(dp3456
g61
(dp3457
g69
I3
ssg70
Nsg63
(lp3458
g56
(g72
g58
NtRp3459
(dp3460
g61
(dp3461
sg70
g3455
sg63
(lp3462
g56
(g77
g58
NtRp3463
(dp3464
g61
(dp3465
g81
g82
ssg70
g3459
sg63
(lp3466
S'email'
p3467
asbag56
(g77
g58
NtRp3468
(dp3469
g61
(dp3470
g88
g89
ssg70
g3459
sg63
(lp3471
S':'
asbag56
(g77
g58
NtRp3472
(dp3473
g61
(dp3474
sg70
g3459
sg63
(lp3475
g56
(g57
g58
NtRp3476
(dp3477
g61
(dp3478
g69
I3
ssg70
g3472
sg63
(lp3479
S'kaique.developer@gmail.com'
p3480
asbasbasbag56
(g72
g58
NtRp3481
(dp3482
g61
(dp3483
sg70
g3455
sg63
(lp3484
g56
(g77
g58
NtRp3485
(dp3486
g61
(dp3487
g81
g82
ssg70
g3481
sg63
(lp3488
S'first_name'
p3489
asbag56
(g77
g58
NtRp3490
(dp3491
g61
(dp3492
g88
g89
ssg70
g3481
sg63
(lp3493
S':'
asbag56
(g77
g58
NtRp3494
(dp3495
g61
(dp3496
sg70
g3481
sg63
(lp3497
g56
(g57
g58
NtRp3498
(dp3499
g61
(dp3500
g69
I3
ssg70
g3494
sg63
(lp3501
S'kaique'
p3502
asbasbasbag56
(g72
g58
NtRp3503
(dp3504
g61
(dp3505
sg70
g3455
sg63
(lp3506
g56
(g77
g58
NtRp3507
(dp3508
g61
(dp3509
g81
g82
ssg70
g3503
sg63
(lp3510
S'id'
p3511
asbag56
(g77
g58
NtRp3512
(dp3513
g61
(dp3514
g88
g89
ssg70
g3503
sg63
(lp3515
S':'
asbag56
(g77
g58
NtRp3516
(dp3517
g61
(dp3518
sg70
g3503
sg63
(lp3519
g56
(g57
g58
NtRp3520
(dp3521
g61
(dp3522
g69
I3
ssg70
g3516
sg63
(lp3523
S'1'
asbasbasbag56
(g72
g58
NtRp3524
(dp3525
g61
(dp3526
sg70
g3455
sg63
(lp3527
g56
(g77
g58
NtRp3528
(dp3529
g61
(dp3530
g81
g82
ssg70
g3524
sg63
(lp3531
S'last_name'
p3532
asbag56
(g77
g58
NtRp3533
(dp3534
g61
(dp3535
g88
g89
ssg70
g3524
sg63
(lp3536
S':'
asbag56
(g77
g58
NtRp3537
(dp3538
g61
(dp3539
sg70
g3524
sg63
(lp3540
g56
(g57
g58
NtRp3541
(dp3542
g61
(dp3543
g69
I3
ssg70
g3537
sg63
(lp3544
S'silva'
p3545
asbasbasbag56
(g72
g58
NtRp3546
(dp3547
g61
(dp3548
sg70
g3455
sg63
(lp3549
g56
(g77
g58
NtRp3550
(dp3551
g61
(dp3552
g81
g82
ssg70
g3546
sg63
(lp3553
S'password'
p3554
asbag56
(g77
g58
NtRp3555
(dp3556
g61
(dp3557
g88
g89
ssg70
g3546
sg63
(lp3558
S':'
asbag56
(g77
g58
NtRp3559
(dp3560
g61
(dp3561
sg70
g3546
sg63
(lp3562
g56
(g57
g58
NtRp3563
(dp3564
g61
(dp3565
g69
I3
ssg70
g3559
sg63
(lp3566
S'72c6a018d62d3fb47d95389e4a062cd2'
p3567
asbasbasbag56
(g72
g58
NtRp3568
(dp3569
g61
(dp3570
sg70
g3455
sg63
(lp3571
g56
(g77
g58
NtRp3572
(dp3573
g61
(dp3574
g81
g82
ssg70
g3568
sg63
(lp3575
S'registration_key'
p3576
asbag56
(g77
g58
NtRp3577
(dp3578
g61
(dp3579
g88
g89
ssg70
g3568
sg63
(lp3580
S':'
asbag56
(g77
g58
NtRp3581
(dp3582
g61
(dp3583
sg70
g3568
sg63
(lp3584
g56
(g57
g58
NtRp3585
(dp3586
g61
(dp3587
g69
I3
ssg70
g3581
sg63
(lp3588
S''
asbasbasbag56
(g72
g58
NtRp3589
(dp3590
g61
(dp3591
sg70
g3455
sg63
(lp3592
g56
(g77
g58
NtRp3593
(dp3594
g61
(dp3595
g81
g82
ssg70
g3589
sg63
(lp3596
S'reset_password_key'
p3597
asbag56
(g77
g58
NtRp3598
(dp3599
g61
(dp3600
g88
g89
ssg70
g3589
sg63
(lp3601
S':'
asbag56
(g77
g58
NtRp3602
(dp3603
g61
(dp3604
sg70
g3589
sg63
(lp3605
g56
(g57
g58
NtRp3606
(dp3607
g61
(dp3608
g69
I3
ssg70
g3602
sg63
(lp3609
S''
asbasbasbasbasbasbasbasbasbasbasbag56
(g72
g58
NtRp3610
(dp3611
g61
(dp3612
sg70
g3318
sg63
(lp3613
g56
(g77
g58
NtRp3614
(dp3615
g61
(dp3616
g81
g82
ssg70
g3610
sg63
(lp3617
S'back'
p3618
asbag56
(g77
g58
NtRp3619
(dp3620
g61
(dp3621
g88
g89
ssg70
g3610
sg63
(lp3622
S':'
asbag56
(g77
g58
NtRp3623
(dp3624
g61
(dp3625
sg70
g3610
sg63
(lp3626
g56
(g57
g58
NtRp3627
(dp3628
g61
(dp3629
g69
I5
ssg70
g3623
sg63
(lp3630
S'8'
asbasbasbag56
(g72
g58
NtRp3631
(dp3632
g61
(dp3633
sg70
g3318
sg63
(lp3634
g56
(g77
g58
NtRp3635
(dp3636
g61
(dp3637
g81
g82
ssg70
g3631
sg63
(lp3638
S'index'
p3639
asbag56
(g77
g58
NtRp3640
(dp3641
g61
(dp3642
g88
g89
ssg70
g3631
sg63
(lp3643
S':'
asbag56
(g77
g58
NtRp3644
(dp3645
g61
(dp3646
sg70
g3631
sg63
(lp3647
g56
(g57
g58
NtRp3648
(dp3649
g61
(dp3650
g69
I5
ssg70
g3644
sg63
(lp3651
S'1'
asbasbasbasbasbsS'etype'
p3652
S"<type 'exceptions.KeyError'>"
p3653
sS'date'
p3654
S'Fri Jan 13 22:18:58 2012'
p3655
sS'response'
p3656
g56
(g57
g58
NtRp3657
(dp3658
g61
(dp3659
sg63
(lp3660
g56
(g65
g58
NtRp3661
(dp3662
g61
(dp3663
g69
I5
ssg70
Nsg63
(lp3664
g56
(g72
g58
NtRp3665
(dp3666
g61
(dp3667
sg70
g3661
sg63
(lp3668
g56
(g77
g58
NtRp3669
(dp3670
g61
(dp3671
g81
g82
ssg70
g3665
sg63
(lp3672
g166
asbag56
(g77
g58
NtRp3673
(dp3674
g61
(dp3675
g88
g89
ssg70
g3665
sg63
(lp3676
S':'
asbag56
(g77
g58
NtRp3677
(dp3678
g61
(dp3679
sg70
g3665
sg63
(lp3680
g56
(g57
g58
NtRp3681
(dp3682
g61
(dp3683
g69
I5
ssg70
g3677
sg63
(lp3684
S'<cStringIO.StringO object at 0x1ef59d0>'
p3685
asbasbasbag56
(g72
g58
NtRp3686
(dp3687
g61
(dp3688
sg70
g3661
sg63
(lp3689
g56
(g77
g58
NtRp3690
(dp3691
g61
(dp3692
g81
g82
ssg70
g3686
sg63
(lp3693
g232
asbag56
(g77
g58
NtRp3694
(dp3695
g61
(dp3696
g88
g89
ssg70
g3686
sg63
(lp3697
S':'
asbag56
(g77
g58
NtRp3698
(dp3699
g61
(dp3700
sg70
g3686
sg63
(lp3701
g56
(g57
g58
NtRp3702
(dp3703
g61
(dp3704
g69
I5
ssg70
g3698
sg63
(lp3705
g56
(g65
g58
NtRp3706
(dp3707
g61
(dp3708
g69
I4
ssg70
Nsg63
(lp3709
g56
(g72
g58
NtRp3710
(dp3711
g61
(dp3712
sg70
g3706
sg63
(lp3713
g56
(g77
g58
NtRp3714
(dp3715
g61
(dp3716
g81
g82
ssg70
g3710
sg63
(lp3717
S'session_id_synopsis'
p3718
asbag56
(g77
g58
NtRp3719
(dp3720
g61
(dp3721
g88
g89
ssg70
g3710
sg63
(lp3722
S':'
asbag56
(g77
g58
NtRp3723
(dp3724
g61
(dp3725
sg70
g3710
sg63
(lp3726
g56
(g57
g58
NtRp3727
(dp3728
g61
(dp3729
g69
I4
ssg70
g3723
sg63
(lp3730
g56
(g65
g58
NtRp3731
(dp3732
g61
(dp3733
g69
I3
ssg70
Nsg63
(lp3734
g56
(g72
g58
NtRp3735
(dp3736
g61
(dp3737
sg70
g3731
sg63
(lp3738
g56
(g77
g58
NtRp3739
(dp3740
g61
(dp3741
g81
g82
ssg70
g3735
sg63
(lp3742
g282
asbag56
(g77
g58
NtRp3743
(dp3744
g61
(dp3745
g88
g89
ssg70
g3735
sg63
(lp3746
S':'
asbag56
(g77
g58
NtRp3747
(dp3748
g61
(dp3749
sg70
g3735
sg63
(lp3750
g56
(g57
g58
NtRp3751
(dp3752
g61
(dp3753
g69
I3
ssg70
g3747
sg63
(lp3754
S''
asbasbasbag56
(g72
g58
NtRp3755
(dp3756
g61
(dp3757
sg70
g3731
sg63
(lp3758
g56
(g77
g58
NtRp3759
(dp3760
g61
(dp3761
g81
g82
ssg70
g3755
sg63
(lp3762
g303
asbag56
(g77
g58
NtRp3763
(dp3764
g61
(dp3765
g88
g89
ssg70
g3755
sg63
(lp3766
S':'
asbag56
(g77
g58
NtRp3767
(dp3768
g61
(dp3769
sg70
g3755
sg63
(lp3770
g56
(g57
g58
NtRp3771
(dp3772
g61
(dp3773
g69
I3
ssg70
g3767
sg63
(lp3774
S''
asbasbasbag56
(g72
g58
NtRp3775
(dp3776
g61
(dp3777
sg70
g3731
sg63
(lp3778
g56
(g77
g58
NtRp3779
(dp3780
g61
(dp3781
g81
g82
ssg70
g3775
sg63
(lp3782
g324
asbag56
(g77
g58
NtRp3783
(dp3784
g61
(dp3785
g88
g89
ssg70
g3775
sg63
(lp3786
S':'
asbag56
(g77
g58
NtRp3787
(dp3788
g61
(dp3789
sg70
g3775
sg63
(lp3790
g56
(g57
g58
NtRp3791
(dp3792
g61
(dp3793
g69
I3
ssg70
g3787
sg63
(lp3794
S''
asbasbasbag56
(g72
g58
NtRp3795
(dp3796
g61
(dp3797
sg70
g3731
sg63
(lp3798
g56
(g77
g58
NtRp3799
(dp3800
g61
(dp3801
g81
g82
ssg70
g3795
sg63
(lp3802
g345
asbag56
(g77
g58
NtRp3803
(dp3804
g61
(dp3805
g88
g89
ssg70
g3795
sg63
(lp3806
S':'
asbag56
(g77
g58
NtRp3807
(dp3808
g61
(dp3809
sg70
g3795
sg63
(lp3810
g56
(g57
g58
NtRp3811
(dp3812
g61
(dp3813
g69
I3
ssg70
g3807
sg63
(lp3814
S''
asbasbasbag56
(g72
g58
NtRp3815
(dp3816
g61
(dp3817
sg70
g3731
sg63
(lp3818
g56
(g77
g58
NtRp3819
(dp3820
g61
(dp3821
g81
g82
ssg70
g3815
sg63
(lp3822
g366
asbag56
(g77
g58
NtRp3823
(dp3824
g61
(dp3825
g88
g89
ssg70
g3815
sg63
(lp3826
S':'
asbag56
(g77
g58
NtRp3827
(dp3828
g61
(dp3829
sg70
g3815
sg63
(lp3830
g56
(g57
g58
NtRp3831
(dp3832
g61
(dp3833
g69
I3
ssg70
g3827
sg63
(lp3834
S''
asbasbasbag56
(g72
g58
NtRp3835
(dp3836
g61
(dp3837
sg70
g3731
sg63
(lp3838
g56
(g77
g58
NtRp3839
(dp3840
g61
(dp3841
g81
g82
ssg70
g3835
sg63
(lp3842
g387
asbag56
(g77
g58
NtRp3843
(dp3844
g61
(dp3845
g88
g89
ssg70
g3835
sg63
(lp3846
S':'
asbag56
(g77
g58
NtRp3847
(dp3848
g61
(dp3849
sg70
g3835
sg63
(lp3850
g56
(g57
g58
NtRp3851
(dp3852
g61
(dp3853
g69
I3
ssg70
g3847
sg63
(lp3854
S'/'
asbasbasbag56
(g72
g58
NtRp3855
(dp3856
g61
(dp3857
sg70
g3731
sg63
(lp3858
g56
(g77
g58
NtRp3859
(dp3860
g61
(dp3861
g81
g82
ssg70
g3855
sg63
(lp3862
g408
asbag56
(g77
g58
NtRp3863
(dp3864
g61
(dp3865
g88
g89
ssg70
g3855
sg63
(lp3866
S':'
asbag56
(g77
g58
NtRp3867
(dp3868
g61
(dp3869
sg70
g3855
sg63
(lp3870
g56
(g57
g58
NtRp3871
(dp3872
g61
(dp3873
g69
I3
ssg70
g3867
sg63
(lp3874
S''
asbasbasbag56
(g72
g58
NtRp3875
(dp3876
g61
(dp3877
sg70
g3731
sg63
(lp3878
g56
(g77
g58
NtRp3879
(dp3880
g61
(dp3881
g81
g82
ssg70
g3875
sg63
(lp3882
g429
asbag56
(g77
g58
NtRp3883
(dp3884
g61
(dp3885
g88
g89
ssg70
g3875
sg63
(lp3886
S':'
asbag56
(g77
g58
NtRp3887
(dp3888
g61
(dp3889
sg70
g3875
sg63
(lp3890
g56
(g57
g58
NtRp3891
(dp3892
g61
(dp3893
g69
I3
ssg70
g3887
sg63
(lp3894
S''
asbasbasbasbasbasbasbasbasbasbasbag56
(g72
g58
NtRp3895
(dp3896
g61
(dp3897
sg70
g3661
sg63
(lp3898
g56
(g77
g58
NtRp3899
(dp3900
g61
(dp3901
g81
g82
ssg70
g3895
sg63
(lp3902
S'files'
p3903
asbag56
(g77
g58
NtRp3904
(dp3905
g61
(dp3906
g88
g89
ssg70
g3895
sg63
(lp3907
S':'
asbag56
(g77
g58
NtRp3908
(dp3909
g61
(dp3910
sg70
g3895
sg63
(lp3911
g56
(g57
g58
NtRp3912
(dp3913
g61
(dp3914
g69
I5
ssg70
g3908
sg63
(lp3915
g56
(g65
g58
NtRp3916
(dp3917
g61
(dp3918
g69
I4
ssg70
Nsg63
(lp3919
g56
(g72
g58
NtRp3920
(dp3921
g61
(dp3922
sg70
g3916
sg63
(lp3923
g56
(g77
g58
NtRp3924
(dp3925
g61
(dp3926
sg70
g3920
sg63
(lp3927
g56
(g57
g58
NtRp3928
(dp3929
g61
(dp3930
g69
I4
ssg70
g3924
sg63
(lp3931
S'/synopsis/static/js/jquery.js'
p3932
asbasbasbag56
(g72
g58
NtRp3933
(dp3934
g61
(dp3935
sg70
g3916
sg63
(lp3936
g56
(g77
g58
NtRp3937
(dp3938
g61
(dp3939
sg70
g3933
sg63
(lp3940
g56
(g57
g58
NtRp3941
(dp3942
g61
(dp3943
g69
I4
ssg70
g3937
sg63
(lp3944
S'/synopsis/static/css/anytime.css'
p3945
asbasbasbag56
(g72
g58
NtRp3946
(dp3947
g61
(dp3948
sg70
g3916
sg63
(lp3949
g56
(g77
g58
NtRp3950
(dp3951
g61
(dp3952
sg70
g3946
sg63
(lp3953
g56
(g57
g58
NtRp3954
(dp3955
g61
(dp3956
g69
I4
ssg70
g3950
sg63
(lp3957
S'/synopsis/static/js/anytime.js'
p3958
asbasbasbag56
(g72
g58
NtRp3959
(dp3960
g61
(dp3961
sg70
g3916
sg63
(lp3962
g56
(g77
g58
NtRp3963
(dp3964
g61
(dp3965
sg70
g3959
sg63
(lp3966
g56
(g57
g58
NtRp3967
(dp3968
g61
(dp3969
g69
I4
ssg70
g3963
sg63
(lp3970
S'/synopsis/static/css/base.css'
p3971
asbasbasbag56
(g72
g58
NtRp3972
(dp3973
g61
(dp3974
sg70
g3916
sg63
(lp3975
g56
(g77
g58
NtRp3976
(dp3977
g61
(dp3978
sg70
g3972
sg63
(lp3979
g56
(g57
g58
NtRp3980
(dp3981
g61
(dp3982
g69
I4
ssg70
g3976
sg63
(lp3983
S'/synopsis/static/css/superfish.css'
p3984
asbasbasbag56
(g72
g58
NtRp3985
(dp3986
g61
(dp3987
sg70
g3916
sg63
(lp3988
g56
(g77
g58
NtRp3989
(dp3990
g61
(dp3991
sg70
g3985
sg63
(lp3992
g56
(g57
g58
NtRp3993
(dp3994
g61
(dp3995
g69
I4
ssg70
g3989
sg63
(lp3996
S'/synopsis/static/js/superfish.js'
p3997
asbasbasbasbasbasbasbag56
(g72
g58
NtRp3998
(dp3999
g61
(dp4000
sg70
g3661
sg63
(lp4001
g56
(g77
g58
NtRp4002
(dp4003
g61
(dp4004
g81
g82
ssg70
g3998
sg63
(lp4005
S'flash'
p4006
asbag56
(g77
g58
NtRp4007
(dp4008
g61
(dp4009
g88
g89
ssg70
g3998
sg63
(lp4010
S':'
asbag56
(g77
g58
NtRp4011
(dp4012
g61
(dp4013
sg70
g3998
sg63
(lp4014
g56
(g57
g58
NtRp4015
(dp4016
g61
(dp4017
g69
I5
ssg70
g4011
sg63
(lp4018
S''
asbasbasbag56
(g72
g58
NtRp4019
(dp4020
g61
(dp4021
sg70
g3661
sg63
(lp4022
g56
(g77
g58
NtRp4023
(dp4024
g61
(dp4025
g81
g82
ssg70
g4019
sg63
(lp4026
S'generic_patterns'
p4027
asbag56
(g77
g58
NtRp4028
(dp4029
g61
(dp4030
g88
g89
ssg70
g4019
sg63
(lp4031
S':'
asbag56
(g77
g58
NtRp4032
(dp4033
g61
(dp4034
sg70
g4019
sg63
(lp4035
g56
(g57
g58
NtRp4036
(dp4037
g61
(dp4038
g69
I5
ssg70
g4032
sg63
(lp4039
g56
(g65
g58
NtRp4040
(dp4041
g61
(dp4042
g69
I4
ssg70
Nsg63
(lp4043
g56
(g72
g58
NtRp4044
(dp4045
g61
(dp4046
sg70
g4040
sg63
(lp4047
g56
(g77
g58
NtRp4048
(dp4049
g61
(dp4050
sg70
g4044
sg63
(lp4051
g56
(g57
g58
NtRp4052
(dp4053
g61
(dp4054
g69
I4
ssg70
g4048
sg63
(lp4055
S'*'
asbasbasbasbasbasbasbag56
(g72
g58
NtRp4056
(dp4057
g61
(dp4058
sg70
g3661
sg63
(lp4059
g56
(g77
g58
NtRp4060
(dp4061
g61
(dp4062
g81
g82
ssg70
g4056
sg63
(lp4063
S'headers'
p4064
asbag56
(g77
g58
NtRp4065
(dp4066
g61
(dp4067
g88
g89
ssg70
g4056
sg63
(lp4068
S':'
asbag56
(g77
g58
NtRp4069
(dp4070
g61
(dp4071
sg70
g4056
sg63
(lp4072
g56
(g57
g58
NtRp4073
(dp4074
g61
(dp4075
g69
I5
ssg70
g4069
sg63
(lp4076
g56
(g65
g58
NtRp4077
(dp4078
g61
(dp4079
g69
I4
ssg70
Nsg63
(lp4080
g56
(g72
g58
NtRp4081
(dp4082
g61
(dp4083
sg70
g4077
sg63
(lp4084
g56
(g77
g58
NtRp4085
(dp4086
g61
(dp4087
g81
g82
ssg70
g4081
sg63
(lp4088
S'Cache-Control'
p4089
asbag56
(g77
g58
NtRp4090
(dp4091
g61
(dp4092
g88
g89
ssg70
g4081
sg63
(lp4093
S':'
asbag56
(g77
g58
NtRp4094
(dp4095
g61
(dp4096
sg70
g4081
sg63
(lp4097
g56
(g57
g58
NtRp4098
(dp4099
g61
(dp4100
g69
I4
ssg70
g4094
sg63
(lp4101
S'no-store, no-cache, must-revalidate, post-check=0, pre-check=0'
p4102
asbasbasbag56
(g72
g58
NtRp4103
(dp4104
g61
(dp4105
sg70
g4077
sg63
(lp4106
g56
(g77
g58
NtRp4107
(dp4108
g61
(dp4109
g81
g82
ssg70
g4103
sg63
(lp4110
S'Content-Type'
p4111
asbag56
(g77
g58
NtRp4112
(dp4113
g61
(dp4114
g88
g89
ssg70
g4103
sg63
(lp4115
S':'
asbag56
(g77
g58
NtRp4116
(dp4117
g61
(dp4118
sg70
g4103
sg63
(lp4119
g56
(g57
g58
NtRp4120
(dp4121
g61
(dp4122
g69
I4
ssg70
g4116
sg63
(lp4123
S'text/html; charset=utf-8'
p4124
asbasbasbag56
(g72
g58
NtRp4125
(dp4126
g61
(dp4127
sg70
g4077
sg63
(lp4128
g56
(g77
g58
NtRp4129
(dp4130
g61
(dp4131
g81
g82
ssg70
g4125
sg63
(lp4132
S'Expires'
p4133
asbag56
(g77
g58
NtRp4134
(dp4135
g61
(dp4136
g88
g89
ssg70
g4125
sg63
(lp4137
S':'
asbag56
(g77
g58
NtRp4138
(dp4139
g61
(dp4140
sg70
g4125
sg63
(lp4141
g56
(g57
g58
NtRp4142
(dp4143
g61
(dp4144
g69
I4
ssg70
g4138
sg63
(lp4145
S'Sat, 14 Jan 2012 00:18:57 GMT'
p4146
asbasbasbag56
(g72
g58
NtRp4147
(dp4148
g61
(dp4149
sg70
g4077
sg63
(lp4150
g56
(g77
g58
NtRp4151
(dp4152
g61
(dp4153
g81
g82
ssg70
g4147
sg63
(lp4154
S'Pragma'
p4155
asbag56
(g77
g58
NtRp4156
(dp4157
g61
(dp4158
g88
g89
ssg70
g4147
sg63
(lp4159
S':'
asbag56
(g77
g58
NtRp4160
(dp4161
g61
(dp4162
sg70
g4147
sg63
(lp4163
g56
(g57
g58
NtRp4164
(dp4165
g61
(dp4166
g69
I4
ssg70
g4160
sg63
(lp4167
S'no-cache'
p4168
asbasbasbag56
(g72
g58
NtRp4169
(dp4170
g61
(dp4171
sg70
g4077
sg63
(lp4172
g56
(g77
g58
NtRp4173
(dp4174
g61
(dp4175
g81
g82
ssg70
g4169
sg63
(lp4176
S'X-Powered-By'
p4177
asbag56
(g77
g58
NtRp4178
(dp4179
g61
(dp4180
g88
g89
ssg70
g4169
sg63
(lp4181
S':'
asbag56
(g77
g58
NtRp4182
(dp4183
g61
(dp4184
sg70
g4169
sg63
(lp4185
g56
(g57
g58
NtRp4186
(dp4187
g61
(dp4188
g69
I4
ssg70
g4182
sg63
(lp4189
S'web2py'
p4190
asbasbasbasbasbasbasbag56
(g72
g58
NtRp4191
(dp4192
g61
(dp4193
sg70
g3661
sg63
(lp4194
g56
(g77
g58
NtRp4195
(dp4196
g61
(dp4197
g81
g82
ssg70
g4191
sg63
(lp4198
S'menu'
p4199
asbag56
(g77
g58
NtRp4200
(dp4201
g61
(dp4202
g88
g89
ssg70
g4191
sg63
(lp4203
S':'
asbag56
(g77
g58
NtRp4204
(dp4205
g61
(dp4206
sg70
g4191
sg63
(lp4207
g56
(g57
g58
NtRp4208
(dp4209
g61
(dp4210
g69
I5
ssg70
g4204
sg63
(lp4211
g56
(g65
g58
NtRp4212
(dp4213
g61
(dp4214
g69
I4
ssg70
Nsg63
(lp4215
g56
(g72
g58
NtRp4216
(dp4217
g61
(dp4218
sg70
g4212
sg63
(lp4219
g56
(g77
g58
NtRp4220
(dp4221
g61
(dp4222
sg70
g4216
sg63
(lp4223
g56
(g57
g58
NtRp4224
(dp4225
g61
(dp4226
g69
I4
ssg70
g4220
sg63
(lp4227
g56
(g65
g58
NtRp4228
(dp4229
g61
(dp4230
g69
I3
ssg70
Nsg63
(lp4231
g56
(g72
g58
NtRp4232
(dp4233
g61
(dp4234
sg70
g4228
sg63
(lp4235
g56
(g77
g58
NtRp4236
(dp4237
g61
(dp4238
sg70
g4232
sg63
(lp4239
g56
(g57
g58
NtRp4240
(dp4241
g61
(dp4242
g69
I3
ssg70
g4236
sg63
(lp4243
cgluon.languages
lazyT_unpickle
p4244
(S't\x04\x00\x00\x00Home'
tRp4245
asbasbasbag56
(g72
g58
NtRp4246
(dp4247
g61
(dp4248
sg70
g4228
sg63
(lp4249
g56
(g77
g58
NtRp4250
(dp4251
g61
(dp4252
sg70
g4246
sg63
(lp4253
g56
(g57
g58
NtRp4254
(dp4255
g61
(dp4256
g69
I3
ssg70
g4250
sg63
(lp4257
g99
asbasbasbag56
(g72
g58
NtRp4258
(dp4259
g61
(dp4260
sg70
g4228
sg63
(lp4261
g56
(g77
g58
NtRp4262
(dp4263
g61
(dp4264
sg70
g4258
sg63
(lp4265
g56
(g57
g58
NtRp4266
(dp4267
g61
(dp4268
g69
I3
ssg70
g4262
sg63
(lp4269
S'/synopsis/default/index'
p4270
asbasbasbag56
(g72
g58
NtRp4271
(dp4272
g61
(dp4273
sg70
g4228
sg63
(lp4274
g56
(g77
g58
NtRp4275
(dp4276
g61
(dp4277
sg70
g4271
sg63
(lp4278
g56
(g57
g58
NtRp4279
(dp4280
g61
(dp4281
g69
I3
ssg70
g4275
sg63
(lp4282
g56
(g65
g58
NtRp4283
(dp4284
g61
(dp4285
g69
I2
ssg70
Nsg63
(lp4286
sbasbasbasbasbasbasbasbag56
(g72
g58
NtRp4287
(dp4288
g61
(dp4289
sg70
g4212
sg63
(lp4290
g56
(g77
g58
NtRp4291
(dp4292
g61
(dp4293
sg70
g4287
sg63
(lp4294
g56
(g57
g58
NtRp4295
(dp4296
g61
(dp4297
g69
I4
ssg70
g4291
sg63
(lp4298
g56
(g65
g58
NtRp4299
(dp4300
g61
(dp4301
g69
I3
ssg70
Nsg63
(lp4302
g56
(g72
g58
NtRp4303
(dp4304
g61
(dp4305
sg70
g4299
sg63
(lp4306
g56
(g77
g58
NtRp4307
(dp4308
g61
(dp4309
sg70
g4303
sg63
(lp4310
g56
(g57
g58
NtRp4311
(dp4312
g61
(dp4313
g69
I3
ssg70
g4307
sg63
(lp4314
g4244
(S't\x0b\x00\x00\x00Information'
tRp4315
asbasbasbag56
(g72
g58
NtRp4316
(dp4317
g61
(dp4318
sg70
g4299
sg63
(lp4319
g56
(g77
g58
NtRp4320
(dp4321
g61
(dp4322
sg70
g4316
sg63
(lp4323
g56
(g57
g58
NtRp4324
(dp4325
g61
(dp4326
g69
I3
ssg70
g4320
sg63
(lp4327
g99
asbasbasbag56
(g72
g58
NtRp4328
(dp4329
g61
(dp4330
sg70
g4299
sg63
(lp4331
g56
(g77
g58
NtRp4332
(dp4333
g61
(dp4334
sg70
g4328
sg63
(lp4335
g56
(g57
g58
NtRp4336
(dp4337
g61
(dp4338
g69
I3
ssg70
g4332
sg63
(lp4339
S'/synopsis/information/index'
p4340
asbasbasbag56
(g72
g58
NtRp4341
(dp4342
g61
(dp4343
sg70
g4299
sg63
(lp4344
g56
(g77
g58
NtRp4345
(dp4346
g61
(dp4347
sg70
g4341
sg63
(lp4348
g56
(g57
g58
NtRp4349
(dp4350
g61
(dp4351
g69
I3
ssg70
g4345
sg63
(lp4352
g56
(g65
g58
NtRp4353
(dp4354
g61
(dp4355
g69
I2
ssg70
Nsg63
(lp4356
sbasbasbasbasbasbasbasbag56
(g72
g58
NtRp4357
(dp4358
g61
(dp4359
sg70
g4212
sg63
(lp4360
g56
(g77
g58
NtRp4361
(dp4362
g61
(dp4363
sg70
g4357
sg63
(lp4364
g56
(g57
g58
NtRp4365
(dp4366
g61
(dp4367
g69
I4
ssg70
g4361
sg63
(lp4368
g56
(g65
g58
NtRp4369
(dp4370
g61
(dp4371
g69
I3
ssg70
Nsg63
(lp4372
g56
(g72
g58
NtRp4373
(dp4374
g61
(dp4375
sg70
g4369
sg63
(lp4376
g56
(g77
g58
NtRp4377
(dp4378
g61
(dp4379
sg70
g4373
sg63
(lp4380
g56
(g57
g58
NtRp4381
(dp4382
g61
(dp4383
g69
I3
ssg70
g4377
sg63
(lp4384
g4244
(S't\x05\x00\x00\x00About'
tRp4385
asbasbasbag56
(g72
g58
NtRp4386
(dp4387
g61
(dp4388
sg70
g4369
sg63
(lp4389
g56
(g77
g58
NtRp4390
(dp4391
g61
(dp4392
sg70
g4386
sg63
(lp4393
g56
(g57
g58
NtRp4394
(dp4395
g61
(dp4396
g69
I3
ssg70
g4390
sg63
(lp4397
g99
asbasbasbag56
(g72
g58
NtRp4398
(dp4399
g61
(dp4400
sg70
g4369
sg63
(lp4401
g56
(g77
g58
NtRp4402
(dp4403
g61
(dp4404
sg70
g4398
sg63
(lp4405
g56
(g57
g58
NtRp4406
(dp4407
g61
(dp4408
g69
I3
ssg70
g4402
sg63
(lp4409
S'/synopsis/about/index'
p4410
asbasbasbag56
(g72
g58
NtRp4411
(dp4412
g61
(dp4413
sg70
g4369
sg63
(lp4414
g56
(g77
g58
NtRp4415
(dp4416
g61
(dp4417
sg70
g4411
sg63
(lp4418
g56
(g57
g58
NtRp4419
(dp4420
g61
(dp4421
g69
I3
ssg70
g4415
sg63
(lp4422
g56
(g65
g58
NtRp4423
(dp4424
g61
(dp4425
g69
I2
ssg70
Nsg63
(lp4426
sbasbasbasbasbasbasbasbasbasbasbasbag56
(g72
g58
NtRp4427
(dp4428
g61
(dp4429
sg70
g3661
sg63
(lp4430
g56
(g77
g58
NtRp4431
(dp4432
g61
(dp4433
g81
g82
ssg70
g4427
sg63
(lp4434
S'meta'
p4435
asbag56
(g77
g58
NtRp4436
(dp4437
g61
(dp4438
g88
g89
ssg70
g4427
sg63
(lp4439
S':'
asbag56
(g77
g58
NtRp4440
(dp4441
g61
(dp4442
sg70
g4427
sg63
(lp4443
g56
(g57
g58
NtRp4444
(dp4445
g61
(dp4446
g69
I5
ssg70
g4440
sg63
(lp4447
g56
(g65
g58
NtRp4448
(dp4449
g61
(dp4450
g69
I4
ssg70
Nsg63
(lp4451
g56
(g72
g58
NtRp4452
(dp4453
g61
(dp4454
sg70
g4448
sg63
(lp4455
g56
(g77
g58
NtRp4456
(dp4457
g61
(dp4458
g81
g82
ssg70
g4452
sg63
(lp4459
S'author'
p4460
asbag56
(g77
g58
NtRp4461
(dp4462
g61
(dp4463
g88
g89
ssg70
g4452
sg63
(lp4464
S':'
asbag56
(g77
g58
NtRp4465
(dp4466
g61
(dp4467
sg70
g4452
sg63
(lp4468
g56
(g57
g58
NtRp4469
(dp4470
g61
(dp4471
g69
I4
ssg70
g4465
sg63
(lp4472
S'Your Name <you@example.com>'
p4473
asbasbasbag56
(g72
g58
NtRp4474
(dp4475
g61
(dp4476
sg70
g4448
sg63
(lp4477
g56
(g77
g58
NtRp4478
(dp4479
g61
(dp4480
g81
g82
ssg70
g4474
sg63
(lp4481
S'copyright'
p4482
asbag56
(g77
g58
NtRp4483
(dp4484
g61
(dp4485
g88
g89
ssg70
g4474
sg63
(lp4486
S':'
asbag56
(g77
g58
NtRp4487
(dp4488
g61
(dp4489
sg70
g4474
sg63
(lp4490
g56
(g57
g58
NtRp4491
(dp4492
g61
(dp4493
g69
I4
ssg70
g4487
sg63
(lp4494
S'Copyright 2011'
p4495
asbasbasbag56
(g72
g58
NtRp4496
(dp4497
g61
(dp4498
sg70
g4448
sg63
(lp4499
g56
(g77
g58
NtRp4500
(dp4501
g61
(dp4502
g81
g82
ssg70
g4496
sg63
(lp4503
S'description'
p4504
asbag56
(g77
g58
NtRp4505
(dp4506
g61
(dp4507
g88
g89
ssg70
g4496
sg63
(lp4508
S':'
asbag56
(g77
g58
NtRp4509
(dp4510
g61
(dp4511
sg70
g4496
sg63
(lp4512
g56
(g57
g58
NtRp4513
(dp4514
g61
(dp4515
g69
I4
ssg70
g4509
sg63
(lp4516
S'a cool new app'
p4517
asbasbasbag56
(g72
g58
NtRp4518
(dp4519
g61
(dp4520
sg70
g4448
sg63
(lp4521
g56
(g77
g58
NtRp4522
(dp4523
g61
(dp4524
g81
g82
ssg70
g4518
sg63
(lp4525
S'generator'
p4526
asbag56
(g77
g58
NtRp4527
(dp4528
g61
(dp4529
g88
g89
ssg70
g4518
sg63
(lp4530
S':'
asbag56
(g77
g58
NtRp4531
(dp4532
g61
(dp4533
sg70
g4518
sg63
(lp4534
g56
(g57
g58
NtRp4535
(dp4536
g61
(dp4537
g69
I4
ssg70
g4531
sg63
(lp4538
S'Web2py Web Framework'
p4539
asbasbasbag56
(g72
g58
NtRp4540
(dp4541
g61
(dp4542
sg70
g4448
sg63
(lp4543
g56
(g77
g58
NtRp4544
(dp4545
g61
(dp4546
g81
g82
ssg70
g4540
sg63
(lp4547
S'keywords'
p4548
asbag56
(g77
g58
NtRp4549
(dp4550
g61
(dp4551
g88
g89
ssg70
g4540
sg63
(lp4552
S':'
asbag56
(g77
g58
NtRp4553
(dp4554
g61
(dp4555
sg70
g4540
sg63
(lp4556
g56
(g57
g58
NtRp4557
(dp4558
g61
(dp4559
g69
I4
ssg70
g4553
sg63
(lp4560
S'web2py, python, framework'
p4561
asbasbasbasbasbasbasbag56
(g72
g58
NtRp4562
(dp4563
g61
(dp4564
sg70
g3661
sg63
(lp4565
g56
(g77
g58
NtRp4566
(dp4567
g61
(dp4568
g81
g82
ssg70
g4562
sg63
(lp4569
S'postprocessing'
p4570
asbag56
(g77
g58
NtRp4571
(dp4572
g61
(dp4573
g88
g89
ssg70
g4562
sg63
(lp4574
S':'
asbag56
(g77
g58
NtRp4575
(dp4576
g61
(dp4577
sg70
g4562
sg63
(lp4578
g56
(g57
g58
NtRp4579
(dp4580
g61
(dp4581
g69
I5
ssg70
g4575
sg63
(lp4582
g56
(g65
g58
NtRp4583
(dp4584
g61
(dp4585
g69
I4
ssg70
Nsg63
(lp4586
sbasbasbasbag56
(g72
g58
NtRp4587
(dp4588
g61
(dp4589
sg70
g3661
sg63
(lp4590
g56
(g77
g58
NtRp4591
(dp4592
g61
(dp4593
g81
g82
ssg70
g4587
sg63
(lp4594
S'session_file'
p4595
asbag56
(g77
g58
NtRp4596
(dp4597
g61
(dp4598
g88
g89
ssg70
g4587
sg63
(lp4599
S':'
asbag56
(g77
g58
NtRp4600
(dp4601
g61
(dp4602
sg70
g4587
sg63
(lp4603
g56
(g57
g58
NtRp4604
(dp4605
g61
(dp4606
g69
I5
ssg70
g4600
sg63
(lp4607
S"<open file '/home/kaique/Projects/web2py/applications/synopsis/sessions/127.0.0.1-22caa4ed-0448-4782-a756-bcb437fd81d3', mode 'rb+' at 0x1c248a0>"
p4608
asbasbasbag56
(g72
g58
NtRp4609
(dp4610
g61
(dp4611
sg70
g3661
sg63
(lp4612
g56
(g77
g58
NtRp4613
(dp4614
g61
(dp4615
g81
g82
ssg70
g4609
sg63
(lp4616
S'session_filename'
p4617
asbag56
(g77
g58
NtRp4618
(dp4619
g61
(dp4620
g88
g89
ssg70
g4609
sg63
(lp4621
S':'
asbag56
(g77
g58
NtRp4622
(dp4623
g61
(dp4624
sg70
g4609
sg63
(lp4625
g56
(g57
g58
NtRp4626
(dp4627
g61
(dp4628
g69
I5
ssg70
g4622
sg63
(lp4629
S'/home/kaique/Projects/web2py/applications/synopsis/sessions/127.0.0.1-22caa4ed-0448-4782-a756-bcb437fd81d3'
p4630
asbasbasbag56
(g72
g58
NtRp4631
(dp4632
g61
(dp4633
sg70
g3661
sg63
(lp4634
g56
(g77
g58
NtRp4635
(dp4636
g61
(dp4637
g81
g82
ssg70
g4631
sg63
(lp4638
S'session_id'
p4639
asbag56
(g77
g58
NtRp4640
(dp4641
g61
(dp4642
g88
g89
ssg70
g4631
sg63
(lp4643
S':'
asbag56
(g77
g58
NtRp4644
(dp4645
g61
(dp4646
sg70
g4631
sg63
(lp4647
g56
(g57
g58
NtRp4648
(dp4649
g61
(dp4650
g69
I5
ssg70
g4644
sg63
(lp4651
S'127.0.0.1-22caa4ed-0448-4782-a756-bcb437fd81d3'
p4652
asbasbasbag56
(g72
g58
NtRp4653
(dp4654
g61
(dp4655
sg70
g3661
sg63
(lp4656
g56
(g77
g58
NtRp4657
(dp4658
g61
(dp4659
g81
g82
ssg70
g4653
sg63
(lp4660
S'session_id_name'
p4661
asbag56
(g77
g58
NtRp4662
(dp4663
g61
(dp4664
g88
g89
ssg70
g4653
sg63
(lp4665
S':'
asbag56
(g77
g58
NtRp4666
(dp4667
g61
(dp4668
sg70
g4653
sg63
(lp4669
g56
(g57
g58
NtRp4670
(dp4671
g61
(dp4672
g69
I5
ssg70
g4666
sg63
(lp4673
g3718
asbasbasbag56
(g72
g58
NtRp4674
(dp4675
g61
(dp4676
sg70
g3661
sg63
(lp4677
g56
(g77
g58
NtRp4678
(dp4679
g61
(dp4680
g81
g82
ssg70
g4674
sg63
(lp4681
S'session_locked'
p4682
asbag56
(g77
g58
NtRp4683
(dp4684
g61
(dp4685
g88
g89
ssg70
g4674
sg63
(lp4686
S':'
asbag56
(g77
g58
NtRp4687
(dp4688
g61
(dp4689
sg70
g4674
sg63
(lp4690
g56
(g57
g58
NtRp4691
(dp4692
g61
(dp4693
g69
I5
ssg70
g4687
sg63
(lp4694
g1875
asbasbasbag56
(g72
g58
NtRp4695
(dp4696
g61
(dp4697
sg70
g3661
sg63
(lp4698
g56
(g77
g58
NtRp4699
(dp4700
g61
(dp4701
g81
g82
ssg70
g4695
sg63
(lp4702
S'session_new'
p4703
asbag56
(g77
g58
NtRp4704
(dp4705
g61
(dp4706
g88
g89
ssg70
g4695
sg63
(lp4707
S':'
asbag56
(g77
g58
NtRp4708
(dp4709
g61
(dp4710
sg70
g4695
sg63
(lp4711
g56
(g57
g58
NtRp4712
(dp4713
g61
(dp4714
g69
I5
ssg70
g4708
sg63
(lp4715
g99
asbasbasbag56
(g72
g58
NtRp4716
(dp4717
g61
(dp4718
sg70
g3661
sg63
(lp4719
g56
(g77
g58
NtRp4720
(dp4721
g61
(dp4722
g81
g82
ssg70
g4716
sg63
(lp4723
S'status'
p4724
asbag56
(g77
g58
NtRp4725
(dp4726
g61
(dp4727
g88
g89
ssg70
g4716
sg63
(lp4728
S':'
asbag56
(g77
g58
NtRp4729
(dp4730
g61
(dp4731
sg70
g4716
sg63
(lp4732
g56
(g57
g58
NtRp4733
(dp4734
g61
(dp4735
g69
I5
ssg70
g4729
sg63
(lp4736
S'200'
p4737
asbasbasbag56
(g72
g58
NtRp4738
(dp4739
g61
(dp4740
sg70
g3661
sg63
(lp4741
g56
(g77
g58
NtRp4742
(dp4743
g61
(dp4744
g81
g82
ssg70
g4738
sg63
(lp4745
S'subtitle'
p4746
asbag56
(g77
g58
NtRp4747
(dp4748
g61
(dp4749
g88
g89
ssg70
g4738
sg63
(lp4750
S':'
asbag56
(g77
g58
NtRp4751
(dp4752
g61
(dp4753
sg70
g4738
sg63
(lp4754
g56
(g57
g58
NtRp4755
(dp4756
g61
(dp4757
g69
I5
ssg70
g4751
sg63
(lp4758
g4244
(S's\x0f\x00\x00\x00Personalize-me!'
tRp4759
asbasbasbag56
(g72
g58
NtRp4760
(dp4761
g61
(dp4762
sg70
g3661
sg63
(lp4763
g56
(g77
g58
NtRp4764
(dp4765
g61
(dp4766
g81
g82
ssg70
g4760
sg63
(lp4767
S'title'
p4768
asbag56
(g77
g58
NtRp4769
(dp4770
g61
(dp4771
g88
g89
ssg70
g4760
sg63
(lp4772
S':'
asbag56
(g77
g58
NtRp4773
(dp4774
g61
(dp4775
sg70
g4760
sg63
(lp4776
g56
(g57
g58
NtRp4777
(dp4778
g61
(dp4779
g69
I5
ssg70
g4773
sg63
(lp4780
g121
asbasbasbag56
(g72
g58
NtRp4781
(dp4782
g61
(dp4783
sg70
g3661
sg63
(lp4784
g56
(g77
g58
NtRp4785
(dp4786
g61
(dp4787
g81
g82
ssg70
g4781
sg63
(lp4788
g2540
asbag56
(g77
g58
NtRp4789
(dp4790
g61
(dp4791
g88
g89
ssg70
g4781
sg63
(lp4792
S':'
asbag56
(g77
g58
NtRp4793
(dp4794
g61
(dp4795
sg70
g4781
sg63
(lp4796
g56
(g57
g58
NtRp4797
(dp4798
g61
(dp4799
g69
I5
ssg70
g4793
sg63
(lp4800
g2553
asbasbasbag56
(g72
g58
NtRp4801
(dp4802
g61
(dp4803
sg70
g3661
sg63
(lp4804
g56
(g77
g58
NtRp4805
(dp4806
g61
(dp4807
g81
g82
ssg70
g4801
sg63
(lp4808
S'view'
p4809
asbag56
(g77
g58
NtRp4810
(dp4811
g61
(dp4812
g88
g89
ssg70
g4801
sg63
(lp4813
S':'
asbag56
(g77
g58
NtRp4814
(dp4815
g61
(dp4816
sg70
g4801
sg63
(lp4817
g56
(g57
g58
NtRp4818
(dp4819
g61
(dp4820
g69
I5
ssg70
g4814
sg63
(lp4821
S'information/publication.html'
p4822
asbasbasbasbasbsS'locals'
p4823
(dp4824
S'self'
p4825
S"<Row {'updated_by': 1, 'title': 'Column 1', 'upd...d0>, 'row': <gluon.dal.Set object at 0x1c0e250>}>"
p4826
sS'm'
S'None'
p4827
sS'key'
p4828
S"'count'"
p4829
sssS'traceback'
p4830
S'Traceback (most recent call last):\n  File "/home/kaique/Projects/web2py/gluon/restricted.py", line 194, in restricted\n    exec ccode in environment\n  File "/home/kaique/Projects/web2py/applications/synopsis/views/information/publication.html", line 102, in <module>\n  File "/home/kaique/Projects/web2py/gluon/dal.py", line 3851, in __getattr__\n    return self[key]\n  File "/home/kaique/Projects/web2py/gluon/dal.py", line 3842, in __getitem__\n    return dict.__getitem__(self, key)\nKeyError: \'count\'\n'
p4831
s.