(dp1
S'output'
p2
S''
sS'layer'
p3
S'/home/kaique/Projects/web2py/applications/synopsis/views/information/publication.html'
p4
sS'code'
p5
S'response.write(\'<!DOCTYPE html>\\n<html lang="\', escape=False)\nresponse.write(T.accepted_language or \'en\')\nresponse.write(\'" class="no-js"><!-- no-js need it for modernzr -->\\n  <head>\\n    \\n    <meta charset="utf-8" />        \\n    <!-- www.phpied.com/conditional-comments-block-downloads/ -->\\n    <!--[if IE]>\\n      <!-- Always force latest IE rendering engine \\n       (even in intranet) & Chrome Frame \\n       Remove this if you use the .htaccess -->\\n      <meta http-equiv="X-UA-Compatible" content="IE=edge,chrome=1">\\n    <![endif]-->    \\n\\n    <title>\', escape=False)\nresponse.write(response.title or request.application)\nresponse.write(\'</title>\\n    \\n    <!-- http://dev.w3.org/html5/markup/meta.name.html -->\\n    <meta name="application-name" content="\', escape=False)\nresponse.write(request.application)\nresponse.write(\'" /> \\n    \\n    <!-- Speaking of Google, don\\\'t forget to set your site up: \\n     http://google.com/webmasters -->\\n    <meta name="google-site-verification" content="" />\\n    \\n    <!--  Mobile Viewport Fix\\n      j.mp/mobileviewport & davidbcalhoun.com/2010/viewport-metatag \\n      device-width: Occupy full width of the screen in its current orientation\\n      initial-scale = 1.0 retains dimensions instead of zooming out if page height > device height\\n      maximum-scale = 1.0 retains dimensions instead of zooming in if page width < device width\\n      -->\\n    <meta name="viewport" content="width=device-width, initial-scale=1.0, maximum-scale=1.0">\\n    \\n    <!-- Place favicon.ico and apple-touch-icon.png in the root of your domain and delete these references -->\\n    <link rel="shortcut icon" href="\', escape=False)\nresponse.write(URL(\'static\',\'favicon.ico\'))\nresponse.write(\'" type="image/x-icon">\\n    <link rel="apple-touch-icon" href="\', escape=False)\nresponse.write(URL(\'static\',\'favicon.png\'))\nresponse.write(\'">\\n\\n    <!-- For the less-enabled mobile browsers like Opera Mini -->\\n    <link rel="stylesheet" media="handheld" href="\', escape=False)\nresponse.write(URL(\'static\',\'css/handheld.css\'))\nresponse.write(\'">\\n    \\n    <!-- All JavaScript at the bottom, except for Modernizr which enables HTML5 elements & feature detects -->\\n    <script src="\', escape=False)\nresponse.write(URL(\'static\',\'js/modernizr-1.7.min.js\'))\nresponse.write(\'"></script>\\n    \\n    \', escape=False)\n#------  require CSS and JS files for this page (read info in base.css) ------\nresponse.write(\'\\n    \', escape=False)\nresponse.files.append(URL(\'static\',\'css/base.css\'))\nresponse.write(\'\\n    \', escape=False)\nresponse.files.append(URL(\'static\',\'css/superfish.css\'))\nresponse.write(\'\\n    \', escape=False)\nresponse.files.append(URL(\'static\',\'js/superfish.js\'))\nresponse.write(\'\\n    \', escape=False)\n#------ include web2py specific js code (jquery, calendar, form stuff) ------\nresponse.write(\'\\n    \', escape=False)\nresponse.files.insert(0,URL(\'static\',\'js/jquery.js\'))\nresponse.files.insert(1,URL(\'static\',\'css/anytime.css\'))\nresponse.files.insert(2,URL(\'static\',\'js/anytime.js\'))\nresponse.include_meta()\nresponse.include_files()\nresponse.write(\'\\n<script type="text/javascript"><!--\\n    // These variables are used by the web2py_ajax_init function in web2py_ajax.js (which is loaded below).\\n    var w2p_ajax_confirm_message = "\', escape=False)\nresponse.write(T(\'Are you sure you want to delete this object?\'))\nresponse.write(\'";\\n    var w2p_ajax_date_format = "\', escape=False)\nresponse.write(T(\'%Y-%m-%d\'))\nresponse.write(\'";\\n    var w2p_ajax_datetime_format = "\', escape=False)\nresponse.write(T(\'%Y-%m-%d %H:%M:%S\'))\nresponse.write(\'";\\n    //--></script>\\n    <script src="\', escape=False)\nresponse.write(URL(\'static\',\'js/web2py_ajax.js\'))\nresponse.write(\'" type="text/javascript"></script>\\n\', escape=False)\nresponse.write(\'\\n\\n    \', escape=False)\n#using sidebars need to know what sidebar you want to use\n#prior of using it, because of static width size of content, you can use\n#left_sidebar, right_sidebar, both or none (False left and right)\nleft_sidebar_enabled = globals().get(\'left_sidebar_enabled\',False)\nright_sidebar_enabled = globals().get(\'right_sidebar_enabled\',False)\nif left_sidebar_enabled and right_sidebar_enabled: width_content=\'63%\'\nelif left_sidebar_enabled != right_sidebar_enabled: width_content=\'740px\'\nelse: width_content=\'100%\'\nif left_sidebar_enabled: left_sidebar_style = \'style="display: block;"\'\nelse: left_sidebar_style = \'style="display: none;"\'\nif right_sidebar_enabled: right_sidebar_style = \'style="display: block;"\'\nelse: right_sidebar_style = \'style="display: none;"\'\nstyle_content = \'style="width: %s"\' % width_content\nresponse.write(\'\\n    \\n    <!-- uncomment here to load jquery-ui -->\\n    \\n    <link rel="stylesheet" href="http://ajax.googleapis.com/ajax/libs/jqueryui/1.8.16/themes/base/jquery-ui.css" type="text/css" media="all" />\\n    <script src="http://ajax.googleapis.com/ajax/libs/jqueryui/1.8.16/jquery-ui.min.js" type="text/javascript"></script>\\n    \\n   <!-- uncomment to load jquery-ui -->\\n    \\n    \\n  </head>\\n  \\n  <!-- paulirish.com/2008/conditional-stylesheets-vs-css-hacks-answer-neither/ -->  \\n  <!--[if lt IE 7 ]> <body class="ie6"> <![endif]-->\\n  <!--[if IE 7 ]>    <body class="ie7"> <![endif]-->\\n  <!--[if IE 8 ]>    <body class="ie8"> <![endif]-->\\n  <!--[if IE 9 ]>    <body class="ie9"> <![endif]-->\\n  <!--[if (gt IE 9)|!(IE)]><!--> <body> <!--<![endif]-->\\n    \\n    <div class="flash">\', escape=False)\nresponse.write(response.flash or \'\')\nresponse.write(\'</div> <!-- notification div -->\\n\\n        \\n\\n    <div id="container">                        \\n      \\n      <div id="wrapper">        \\n      \', escape=False)\ntry:\n    response.write(auth.navbar(action=URL(\'default\',\'user\')))\nexcept:pass\nresponse.write(\'\\n    \\n    <div id="header"> <!-- header and login nav -->\\n      \', escape=False)\nresponse.write(\' <!-- this is default header -->\\n      \\n      <h1>\\n        <span id="appname">\', escape=False)\nresponse.write(request.application.capitalize())\nresponse.write(\'</span>App\\n      </h1>\\n      <div style="clear: both;"></div><!-- Clear the divs -->\\n      \', escape=False)\nresponse.write(\'\\n    </div><!-- header  -->\\n    \\n    <div id="statusbar"><!-- statusbar is menu zone -->\\n      \', escape=False)\nresponse.write(\' <!-- this is default statusbar -->\\n      \', escape=False)\n#------ superfish menu ------\nresponse.write(\'\\n      \', escape=False)\nresponse.write(MENU(response.menu,_class=\'sf-menu\'))\nresponse.write(\'\\n      <script type="text/javascript">\\n        jQuery(document).ready(function(){\\n        jQuery(\\\'ul.sf-menu\\\').superfish();});\\n      </script>\\n\\n      <!-- AddToAny BEGIN -->\\n      <div style="padding: 7px; float:right;" class="a2a_kit a2a_default_style"><a class="a2a_dd" href="http://www.addtoany.com/share_save">Share</a></div><script type="text/javascript" src="http://static.addtoany.com/menu/page.js"></script>\\n      <!-- AddToAny END -->\\n\\n      <div style="clear: both;"></div><!-- Clear the divs -->   \\n      \', escape=False)\nresponse.write(\'               \\n    </div><!-- statusbar -->\\n    \\n    <div id="page"> <!-- Here my central body -->     \\n\\n      \', escape=False)\nif left_sidebar_enabled:\n    response.write(\'\\n          <div id="left_sidebar" \', escape=False)\n    response.write(XML(left_sidebar_style))\n    response.write(\' >\\n            <div style="padding: 4px;">\\n          \', escape=False)\n    response.write(\'Content Left Sidebar\', escape=False)\n    response.write(\'       \\n            </div>\\n          </div><!-- left_sidebar -->\\n      \', escape=False)\n    pass\nresponse.write(\'\\n\\n      <!-- content -->\\n      <div id="content" \', escape=False)\nresponse.write(XML(style_content))\nresponse.write(\' >\\n        \', escape=False)\nresponse.write(\'\\n\\n<div class="content">\\n\\t<section>\\n\\t\\t<article>\\n\\t\\t\\t\', escape=False)\nfor detail in publication:\n    response.write(\'\\n\\t\\t\\t<header>\\n\\t\\t\\t\\t\', escape=False)\n    response.write(A( T(\'Go to publications\'), _href=URL(\'profile\', args=[session.index]) ))\n    response.write(\' |\\n\\t\\t\\t\\t\', escape=False)\n    response.write(A( T(\'Insert a quote\'), _href=URL(\'new\', args=[\'quote\', request.args[0]]) ))\n    response.write(\' |\\n\\t\\t\\t\\t\', escape=False)\n    response.write(A(T(\'Insert a new column\'), _href=URL(\'new\', args=[\'column\', request.args[0]]) ))\n    response.write(\'\\n\\t\\t\\t\\t<hr />\\n\\t\\t\\t\\t<h1>\', escape=False)\n    response.write(detail.title)\n    response.write(\'</h1>\\n\\t\\t\\t\\t<h4 style="font-weight: 200;">\', escape=False)\n    if detail.sub_title:\n        response.write(\' \', escape=False)\n        response.write(detail.sub_title)\n        response.write(\' \', escape=False)\n        pass\n    response.write(\'</h4>\\n\\t\\t\\t\\t<hr />\\n\\t\\t\\t</header>\\n\\t\\t\\t<div>\\t\\n\\t\\t\\t\\t<table style="border: 1px solid #ccc; margin: 10px 0 10px;">\\n\\t\\t\\t\\t\\t<thead>\\n\\t\\t\\t\\t\\t\\t<tr>\\n\\t\\t\\t\\t\\t\\t\\t\', escape=False)\n    for column in detail.column.select():\n        response.write(\'\\n\\t\\t\\t\\t\\t\\t\\t\\t<td>\', escape=False)\n        response.write(A(column.title, _href=URL(\'new\', args=[\'row\', column.id])))\n        response.write(\'</td>\\n\\t\\t\\t\\t\\t\\t\\t\', escape=False)\n        pass\n    response.write(\'\\t\\t\\t\\t\\t\\t\\t\\n\\t\\t\\t\\t\\t\\t</tr>\\n\\t\\t\\t\\t\\t</thead>\\n\\t\\t\\t\\t\\t<tbody>\\n\\t\\t\\t\\t\\t\\t\', escape=False)\n    columns = [column for column in detail.column.select()]\n    response.write(\'\\n\\t\\t\\t\\t\\t\\t\', escape=False)\n    rows = [row for row in columns.row.select()]\n    response.write(\'\\n\\t\\t\\t\\t\\t\\t\', escape=False)\n    lines = {}\n    response.write(\'\\n\\t\\t\\t\\t\\t\\t\\n\\t\\t\\t\\t\\t\\t\', escape=False)\n    lines_n = detail.column.count() / columns.row.count()\n    response.write(\'\\n\\t\\t\\t\\t\\t\\t\', escape=False)\n    lines_n = (lines_n == 0) if 1 else lines_n\n    response.write(\'\\n\\t\\t\\t\\t\\t\\t\\n\\t\\t\\t\\t\\t\\t\', escape=False)\n    response.write(lines_n)\n    response.write(\'\\n\\t\\t\\t\\t\\t\\t\\n\\t\\t\\t\\t\\t\\t\', escape=False)\n    for column in columns:\n        response.write(\'\\n\\t\\t\\t\\t\\t\\t\\t\', escape=False)\n        if not lines.has_key(column.id):\n            response.write(\'\\n\\t\\t\\t\\t\\t\\t\\t\\t\', escape=False)\n            lines[column.id] = TR()\n            response.write(\'\\n\\t\\t\\t\\t\\t\\t\\t\', escape=False)\n            pass\n        response.write(\'\\n\\t\\t\\t\\t\\t\\t\\t\', escape=False)\n        #for row in column.row.select():\n        response.write(\'\\n\\t\\t\\t\\t\\t\\t\\t\\t\', escape=False)\n        #if lines.has_key(column.id):\n        response.write(\'\\n\\t\\t\\t\\t\\t\\t\\t\\t\\t\', escape=False)\n        #lines[row.column_id].append( row.content )\n        response.write(\'\\n\\t\\t\\t\\t\\t\\t\\t\\t\', escape=False)\n        #pass\n        response.write(\'\\n\\t\\t\\t\\t\\t\\t\\t\', escape=False)\n        #pass\n        response.write(\'\\n\\t\\t\\t\\t\\t\\t\', escape=False)\n        pass\n    response.write(\'\\n\\t\\t\\t\\t\\t\\t\\n\\t\\t\\t\\t\\t\\t\', escape=False)\n    for line in lines:\n        response.write(\'\\n\\t\\t\\t\\t\\t\\t\\t\', escape=False)\n        response.write(lines[line])\n        response.write(\'\\n\\t\\t\\t\\t\\t\\t\', escape=False)\n        pass\n    response.write(\'\\n\\t\\t\\t\\t\\t</tbody>\\n\\t\\t\\t\\t</table>\\n\\t\\t\\t\\t<div classs="quote">\\n\\t\\t\\t\\t\', escape=False)\n    quotes = [quote for quote in detail.quote.select()]\n    response.write(\'\\n\\t\\t\\t\\t\', escape=False)\n    if quotes:\n        response.write(\'\\n\\t\\t\\t\\t\\t\', escape=False)\n        quotes.reverse()\n        response.write(\'\\n\\t\\t\\t\\t\\t\', escape=False)\n        response.write(quotes[0].content)\n        response.write(\'\\n\\t\\t\\t\\t\', escape=False)\n        pass\n    response.write(\'\\n\\t\\t\\t\\t</div>\\n\\t\\t\\t</div>\\n\\t\\t\\t\', escape=False)\n    pass\nresponse.write(\'\\n\\t\\t</article>\\n\\t</section>\\n</div>\\n\', escape=False)\nresponse.write(\' \\n      </div>\\n      <!-- content -->\\n\\n      \', escape=False)\nif right_sidebar_enabled:\n    response.write(\'\\n          <div id="right_sidebar" \', escape=False)\n    response.write(XML(right_sidebar_style))\n    response.write(\' >\\n            <div style="padding: 4px;">\\n              \', escape=False)\n    response.write(\'Content Right Sidebar\', escape=False)\n    response.write(\'\\n            </div>\\n      </div><!-- right_sidebar -->\\n          \', escape=False)\n    pass\nresponse.write(\'\\n\\n\\n      <div style="clear: both;"></div><!-- Clear the divs -->\\n      \\n    </div><!-- page -->                         \\n    \\n    <div id="footer">\\n      \', escape=False)\nresponse.write(\' <!-- this is default footer -->\\n      <a href="http://www.web2py.com/" style="float: left; padding-right: 6px;">\\n        <img src="\', escape=False)\nresponse.write(URL(\'static\',\'images/poweredby.png\'))\nresponse.write(\'"/>\\n      </a>\\n      \', escape=False)\nresponse.write(T(\'Copyright\'))\nresponse.write(\' &#169; 2011               \\n      <div style="clear: both;"></div><!-- Clear the divs -->\\n      \', escape=False)\nresponse.write(\'\\n\\n    </div><!-- footer -->           \\n      </div><!-- wrapper -->\\n    </div><!-- container -->        \\n    \\n    <!--[if lt IE 7 ]>\\n    <script src="\', escape=False)\nresponse.write(URL(\'static\',\'js/dd_belatedpng.js\'))\nresponse.write(\'"></script>\\n    <script> DD_belatedPNG.fix(\\\'img, .png_bg\\\'); //fix any <img> or .png_bg background-images </script>\\n    <![endif]-->\\n    \', escape=False)\nif response.google_analytics_id:\n    response.write("<script>/* http://mathiasbynens.be/notes/async-analytics-snippet */ var _gaq=[[\'_setAccount\',\'", escape=False)\n    response.write(response.google_analyitics_id)\n    response.write("\'],[\'_trackPageview\']];(function(d,t){var g=d.createElement(t),s=d.getElementsByTagName(t)[0];g.src=\'//www.google-analytics.com/ga.js\';s.parentNode.insertBefore(g,s)}(document,\'script\')) </script>", escape=False)\n    pass\nresponse.write(\'\\n  </body>\\n</html>\\n\', escape=False)'
p6
sS'snapshot'
p7
(dp8
S'exception'
p9
(dp10
S'__hash__'
p11
S"<method-wrapper '__hash__' of exceptions.AttributeError object>"
p12
sS'__setattr__'
p13
S"<method-wrapper '__setattr__' of exceptions.AttributeError object>"
p14
sS'__reduce_ex__'
p15
S'<built-in method __reduce_ex__ of exceptions.AttributeError object>'
p16
sS'__getslice__'
p17
S"<method-wrapper '__getslice__' of exceptions.AttributeError object>"
p18
sS'__getitem__'
p19
S"<method-wrapper '__getitem__' of exceptions.AttributeError object>"
p20
sS'__setstate__'
p21
S'<built-in method __setstate__ of exceptions.AttributeError object>'
p22
sS'args'
p23
S'("\'list\' object has no attribute \'row\'",)'
p24
sS'__reduce__'
p25
S'<built-in method __reduce__ of exceptions.AttributeError object>'
p26
sS'__str__'
p27
S"<method-wrapper '__str__' of exceptions.AttributeError object>"
p28
sS'__format__'
p29
S'<built-in method __format__ of exceptions.AttributeError object>'
p30
sS'__getattribute__'
p31
S"<method-wrapper '__getattribute__' of exceptions.AttributeError object>"
p32
sS'__class__'
p33
S"<type 'exceptions.AttributeError'>"
p34
sS'__unicode__'
p35
S'<built-in method __unicode__ of exceptions.AttributeError object>'
p36
sS'__delattr__'
p37
S"<method-wrapper '__delattr__' of exceptions.AttributeError object>"
p38
sS'__subclasshook__'
p39
S'<built-in method __subclasshook__ of type object>'
p40
sS'__repr__'
p41
S"<method-wrapper '__repr__' of exceptions.AttributeError object>"
p42
sS'__dict__'
p43
S'{}'
p44
sS'__sizeof__'
p45
S'<built-in method __sizeof__ of exceptions.AttributeError object>'
p46
sS'__doc__'
p47
S"'Attribute not found.'"
p48
sS'__init__'
p49
S"<method-wrapper '__init__' of exceptions.AttributeError object>"
p50
sS'__new__'
p51
S'<built-in method __new__ of type object>'
p52
ssS'evalue'
p53
S"'list' object has no attribute 'row'"
p54
sS'request'
p55
ccopy_reg
_reconstructor
p56
(cgluon.html
BEAUTIFY
p57
c__builtin__
object
p58
NtRp59
(dp60
S'attributes'
p61
(dp62
sS'components'
p63
(lp64
g56
(cgluon.html
TABLE
p65
g58
NtRp66
(dp67
g61
(dp68
S'level'
p69
I5
ssS'parent'
p70
Nsg63
(lp71
g56
(cgluon.html
TR
p72
g58
NtRp73
(dp74
g61
(dp75
sg70
g66
sg63
(lp76
g56
(cgluon.html
TD
p77
g58
NtRp78
(dp79
g61
(dp80
S'_style'
p81
S'font-weight:bold;'
p82
ssg70
g73
sg63
(lp83
S'ajax'
p84
asbag56
(g77
g58
NtRp85
(dp86
g61
(dp87
S'_valign'
p88
S'top'
p89
ssg70
g73
sg63
(lp90
S':'
asbag56
(g77
g58
NtRp91
(dp92
g61
(dp93
sg70
g73
sg63
(lp94
g56
(g57
g58
NtRp95
(dp96
g61
(dp97
g69
I5
ssg70
g91
sg63
(lp98
S'False'
p99
asbasbasbag56
(g72
g58
NtRp100
(dp101
g61
(dp102
sg70
g66
sg63
(lp103
g56
(g77
g58
NtRp104
(dp105
g61
(dp106
g81
g82
ssg70
g100
sg63
(lp107
S'application'
p108
asbag56
(g77
g58
NtRp109
(dp110
g61
(dp111
g88
g89
ssg70
g100
sg63
(lp112
S':'
asbag56
(g77
g58
NtRp113
(dp114
g61
(dp115
sg70
g100
sg63
(lp116
g56
(g57
g58
NtRp117
(dp118
g61
(dp119
g69
I5
ssg70
g113
sg63
(lp120
S'synopsis'
p121
asbasbasbag56
(g72
g58
NtRp122
(dp123
g61
(dp124
sg70
g66
sg63
(lp125
g56
(g77
g58
NtRp126
(dp127
g61
(dp128
g81
g82
ssg70
g122
sg63
(lp129
g23
asbag56
(g77
g58
NtRp130
(dp131
g61
(dp132
g88
g89
ssg70
g122
sg63
(lp133
S':'
asbag56
(g77
g58
NtRp134
(dp135
g61
(dp136
sg70
g122
sg63
(lp137
g56
(g57
g58
NtRp138
(dp139
g61
(dp140
g69
I5
ssg70
g134
sg63
(lp141
g56
(g65
g58
NtRp142
(dp143
g61
(dp144
g69
I4
ssg70
Nsg63
(lp145
g56
(g72
g58
NtRp146
(dp147
g61
(dp148
sg70
g142
sg63
(lp149
g56
(g77
g58
NtRp150
(dp151
g61
(dp152
sg70
g146
sg63
(lp153
g56
(g57
g58
NtRp154
(dp155
g61
(dp156
g69
I4
ssg70
g150
sg63
(lp157
S'9'
asbasbasbasbasbasbasbag56
(g72
g58
NtRp158
(dp159
g61
(dp160
sg70
g66
sg63
(lp161
g56
(g77
g58
NtRp162
(dp163
g61
(dp164
g81
g82
ssg70
g158
sg63
(lp165
S'body'
p166
asbag56
(g77
g58
NtRp167
(dp168
g61
(dp169
g88
g89
ssg70
g158
sg63
(lp170
S':'
asbag56
(g77
g58
NtRp171
(dp172
g61
(dp173
sg70
g158
sg63
(lp174
g56
(g57
g58
NtRp175
(dp176
g61
(dp177
g69
I5
ssg70
g171
sg63
(lp178
S'<cStringIO.StringO object at 0x28887a0>'
p179
asbasbasbag56
(g72
g58
NtRp180
(dp181
g61
(dp182
sg70
g66
sg63
(lp183
g56
(g77
g58
NtRp184
(dp185
g61
(dp186
g81
g82
ssg70
g180
sg63
(lp187
S'client'
p188
asbag56
(g77
g58
NtRp189
(dp190
g61
(dp191
g88
g89
ssg70
g180
sg63
(lp192
S':'
asbag56
(g77
g58
NtRp193
(dp194
g61
(dp195
sg70
g180
sg63
(lp196
g56
(g57
g58
NtRp197
(dp198
g61
(dp199
g69
I5
ssg70
g193
sg63
(lp200
S'127.0.0.1'
p201
asbasbasbag56
(g72
g58
NtRp202
(dp203
g61
(dp204
sg70
g66
sg63
(lp205
g56
(g77
g58
NtRp206
(dp207
g61
(dp208
g81
g82
ssg70
g202
sg63
(lp209
S'controller'
p210
asbag56
(g77
g58
NtRp211
(dp212
g61
(dp213
g88
g89
ssg70
g202
sg63
(lp214
S':'
asbag56
(g77
g58
NtRp215
(dp216
g61
(dp217
sg70
g202
sg63
(lp218
g56
(g57
g58
NtRp219
(dp220
g61
(dp221
g69
I5
ssg70
g215
sg63
(lp222
S'information'
p223
asbasbasbag56
(g72
g58
NtRp224
(dp225
g61
(dp226
sg70
g66
sg63
(lp227
g56
(g77
g58
NtRp228
(dp229
g61
(dp230
g81
g82
ssg70
g224
sg63
(lp231
S'cookies'
p232
asbag56
(g77
g58
NtRp233
(dp234
g61
(dp235
g88
g89
ssg70
g224
sg63
(lp236
S':'
asbag56
(g77
g58
NtRp237
(dp238
g61
(dp239
sg70
g224
sg63
(lp240
g56
(g57
g58
NtRp241
(dp242
g61
(dp243
g69
I5
ssg70
g237
sg63
(lp244
g56
(g65
g58
NtRp245
(dp246
g61
(dp247
g69
I4
ssg70
Nsg63
(lp248
g56
(g72
g58
NtRp249
(dp250
g61
(dp251
sg70
g245
sg63
(lp252
g56
(g77
g58
NtRp253
(dp254
g61
(dp255
g81
g82
ssg70
g249
sg63
(lp256
S'session_id_admin'
p257
asbag56
(g77
g58
NtRp258
(dp259
g61
(dp260
g88
g89
ssg70
g249
sg63
(lp261
S':'
asbag56
(g77
g58
NtRp262
(dp263
g61
(dp264
sg70
g249
sg63
(lp265
g56
(g57
g58
NtRp266
(dp267
g61
(dp268
g69
I4
ssg70
g262
sg63
(lp269
g56
(g65
g58
NtRp270
(dp271
g61
(dp272
g69
I3
ssg70
Nsg63
(lp273
g56
(g72
g58
NtRp274
(dp275
g61
(dp276
sg70
g270
sg63
(lp277
g56
(g77
g58
NtRp278
(dp279
g61
(dp280
g81
g82
ssg70
g274
sg63
(lp281
S'comment'
p282
asbag56
(g77
g58
NtRp283
(dp284
g61
(dp285
g88
g89
ssg70
g274
sg63
(lp286
S':'
asbag56
(g77
g58
NtRp287
(dp288
g61
(dp289
sg70
g274
sg63
(lp290
g56
(g57
g58
NtRp291
(dp292
g61
(dp293
g69
I3
ssg70
g287
sg63
(lp294
S''
asbasbasbag56
(g72
g58
NtRp295
(dp296
g61
(dp297
sg70
g270
sg63
(lp298
g56
(g77
g58
NtRp299
(dp300
g61
(dp301
g81
g82
ssg70
g295
sg63
(lp302
S'domain'
p303
asbag56
(g77
g58
NtRp304
(dp305
g61
(dp306
g88
g89
ssg70
g295
sg63
(lp307
S':'
asbag56
(g77
g58
NtRp308
(dp309
g61
(dp310
sg70
g295
sg63
(lp311
g56
(g57
g58
NtRp312
(dp313
g61
(dp314
g69
I3
ssg70
g308
sg63
(lp315
S''
asbasbasbag56
(g72
g58
NtRp316
(dp317
g61
(dp318
sg70
g270
sg63
(lp319
g56
(g77
g58
NtRp320
(dp321
g61
(dp322
g81
g82
ssg70
g316
sg63
(lp323
S'expires'
p324
asbag56
(g77
g58
NtRp325
(dp326
g61
(dp327
g88
g89
ssg70
g316
sg63
(lp328
S':'
asbag56
(g77
g58
NtRp329
(dp330
g61
(dp331
sg70
g316
sg63
(lp332
g56
(g57
g58
NtRp333
(dp334
g61
(dp335
g69
I3
ssg70
g329
sg63
(lp336
S''
asbasbasbag56
(g72
g58
NtRp337
(dp338
g61
(dp339
sg70
g270
sg63
(lp340
g56
(g77
g58
NtRp341
(dp342
g61
(dp343
g81
g82
ssg70
g337
sg63
(lp344
S'httponly'
p345
asbag56
(g77
g58
NtRp346
(dp347
g61
(dp348
g88
g89
ssg70
g337
sg63
(lp349
S':'
asbag56
(g77
g58
NtRp350
(dp351
g61
(dp352
sg70
g337
sg63
(lp353
g56
(g57
g58
NtRp354
(dp355
g61
(dp356
g69
I3
ssg70
g350
sg63
(lp357
S''
asbasbasbag56
(g72
g58
NtRp358
(dp359
g61
(dp360
sg70
g270
sg63
(lp361
g56
(g77
g58
NtRp362
(dp363
g61
(dp364
g81
g82
ssg70
g358
sg63
(lp365
S'max-age'
p366
asbag56
(g77
g58
NtRp367
(dp368
g61
(dp369
g88
g89
ssg70
g358
sg63
(lp370
S':'
asbag56
(g77
g58
NtRp371
(dp372
g61
(dp373
sg70
g358
sg63
(lp374
g56
(g57
g58
NtRp375
(dp376
g61
(dp377
g69
I3
ssg70
g371
sg63
(lp378
S''
asbasbasbag56
(g72
g58
NtRp379
(dp380
g61
(dp381
sg70
g270
sg63
(lp382
g56
(g77
g58
NtRp383
(dp384
g61
(dp385
g81
g82
ssg70
g379
sg63
(lp386
S'path'
p387
asbag56
(g77
g58
NtRp388
(dp389
g61
(dp390
g88
g89
ssg70
g379
sg63
(lp391
S':'
asbag56
(g77
g58
NtRp392
(dp393
g61
(dp394
sg70
g379
sg63
(lp395
g56
(g57
g58
NtRp396
(dp397
g61
(dp398
g69
I3
ssg70
g392
sg63
(lp399
S''
asbasbasbag56
(g72
g58
NtRp400
(dp401
g61
(dp402
sg70
g270
sg63
(lp403
g56
(g77
g58
NtRp404
(dp405
g61
(dp406
g81
g82
ssg70
g400
sg63
(lp407
S'secure'
p408
asbag56
(g77
g58
NtRp409
(dp410
g61
(dp411
g88
g89
ssg70
g400
sg63
(lp412
S':'
asbag56
(g77
g58
NtRp413
(dp414
g61
(dp415
sg70
g400
sg63
(lp416
g56
(g57
g58
NtRp417
(dp418
g61
(dp419
g69
I3
ssg70
g413
sg63
(lp420
S''
asbasbasbag56
(g72
g58
NtRp421
(dp422
g61
(dp423
sg70
g270
sg63
(lp424
g56
(g77
g58
NtRp425
(dp426
g61
(dp427
g81
g82
ssg70
g421
sg63
(lp428
S'version'
p429
asbag56
(g77
g58
NtRp430
(dp431
g61
(dp432
g88
g89
ssg70
g421
sg63
(lp433
S':'
asbag56
(g77
g58
NtRp434
(dp435
g61
(dp436
sg70
g421
sg63
(lp437
g56
(g57
g58
NtRp438
(dp439
g61
(dp440
g69
I3
ssg70
g434
sg63
(lp441
S''
asbasbasbasbasbasbasbag56
(g72
g58
NtRp442
(dp443
g61
(dp444
sg70
g245
sg63
(lp445
g56
(g77
g58
NtRp446
(dp447
g61
(dp448
g81
g82
ssg70
g442
sg63
(lp449
S'session_id_synopsis'
p450
asbag56
(g77
g58
NtRp451
(dp452
g61
(dp453
g88
g89
ssg70
g442
sg63
(lp454
S':'
asbag56
(g77
g58
NtRp455
(dp456
g61
(dp457
sg70
g442
sg63
(lp458
g56
(g57
g58
NtRp459
(dp460
g61
(dp461
g69
I4
ssg70
g455
sg63
(lp462
g56
(g65
g58
NtRp463
(dp464
g61
(dp465
g69
I3
ssg70
Nsg63
(lp466
g56
(g72
g58
NtRp467
(dp468
g61
(dp469
sg70
g463
sg63
(lp470
g56
(g77
g58
NtRp471
(dp472
g61
(dp473
g81
g82
ssg70
g467
sg63
(lp474
g282
asbag56
(g77
g58
NtRp475
(dp476
g61
(dp477
g88
g89
ssg70
g467
sg63
(lp478
S':'
asbag56
(g77
g58
NtRp479
(dp480
g61
(dp481
sg70
g467
sg63
(lp482
g56
(g57
g58
NtRp483
(dp484
g61
(dp485
g69
I3
ssg70
g479
sg63
(lp486
S''
asbasbasbag56
(g72
g58
NtRp487
(dp488
g61
(dp489
sg70
g463
sg63
(lp490
g56
(g77
g58
NtRp491
(dp492
g61
(dp493
g81
g82
ssg70
g487
sg63
(lp494
g303
asbag56
(g77
g58
NtRp495
(dp496
g61
(dp497
g88
g89
ssg70
g487
sg63
(lp498
S':'
asbag56
(g77
g58
NtRp499
(dp500
g61
(dp501
sg70
g487
sg63
(lp502
g56
(g57
g58
NtRp503
(dp504
g61
(dp505
g69
I3
ssg70
g499
sg63
(lp506
S''
asbasbasbag56
(g72
g58
NtRp507
(dp508
g61
(dp509
sg70
g463
sg63
(lp510
g56
(g77
g58
NtRp511
(dp512
g61
(dp513
g81
g82
ssg70
g507
sg63
(lp514
g324
asbag56
(g77
g58
NtRp515
(dp516
g61
(dp517
g88
g89
ssg70
g507
sg63
(lp518
S':'
asbag56
(g77
g58
NtRp519
(dp520
g61
(dp521
sg70
g507
sg63
(lp522
g56
(g57
g58
NtRp523
(dp524
g61
(dp525
g69
I3
ssg70
g519
sg63
(lp526
S''
asbasbasbag56
(g72
g58
NtRp527
(dp528
g61
(dp529
sg70
g463
sg63
(lp530
g56
(g77
g58
NtRp531
(dp532
g61
(dp533
g81
g82
ssg70
g527
sg63
(lp534
g345
asbag56
(g77
g58
NtRp535
(dp536
g61
(dp537
g88
g89
ssg70
g527
sg63
(lp538
S':'
asbag56
(g77
g58
NtRp539
(dp540
g61
(dp541
sg70
g527
sg63
(lp542
g56
(g57
g58
NtRp543
(dp544
g61
(dp545
g69
I3
ssg70
g539
sg63
(lp546
S''
asbasbasbag56
(g72
g58
NtRp547
(dp548
g61
(dp549
sg70
g463
sg63
(lp550
g56
(g77
g58
NtRp551
(dp552
g61
(dp553
g81
g82
ssg70
g547
sg63
(lp554
g366
asbag56
(g77
g58
NtRp555
(dp556
g61
(dp557
g88
g89
ssg70
g547
sg63
(lp558
S':'
asbag56
(g77
g58
NtRp559
(dp560
g61
(dp561
sg70
g547
sg63
(lp562
g56
(g57
g58
NtRp563
(dp564
g61
(dp565
g69
I3
ssg70
g559
sg63
(lp566
S''
asbasbasbag56
(g72
g58
NtRp567
(dp568
g61
(dp569
sg70
g463
sg63
(lp570
g56
(g77
g58
NtRp571
(dp572
g61
(dp573
g81
g82
ssg70
g567
sg63
(lp574
g387
asbag56
(g77
g58
NtRp575
(dp576
g61
(dp577
g88
g89
ssg70
g567
sg63
(lp578
S':'
asbag56
(g77
g58
NtRp579
(dp580
g61
(dp581
sg70
g567
sg63
(lp582
g56
(g57
g58
NtRp583
(dp584
g61
(dp585
g69
I3
ssg70
g579
sg63
(lp586
S''
asbasbasbag56
(g72
g58
NtRp587
(dp588
g61
(dp589
sg70
g463
sg63
(lp590
g56
(g77
g58
NtRp591
(dp592
g61
(dp593
g81
g82
ssg70
g587
sg63
(lp594
g408
asbag56
(g77
g58
NtRp595
(dp596
g61
(dp597
g88
g89
ssg70
g587
sg63
(lp598
S':'
asbag56
(g77
g58
NtRp599
(dp600
g61
(dp601
sg70
g587
sg63
(lp602
g56
(g57
g58
NtRp603
(dp604
g61
(dp605
g69
I3
ssg70
g599
sg63
(lp606
S''
asbasbasbag56
(g72
g58
NtRp607
(dp608
g61
(dp609
sg70
g463
sg63
(lp610
g56
(g77
g58
NtRp611
(dp612
g61
(dp613
g81
g82
ssg70
g607
sg63
(lp614
g429
asbag56
(g77
g58
NtRp615
(dp616
g61
(dp617
g88
g89
ssg70
g607
sg63
(lp618
S':'
asbag56
(g77
g58
NtRp619
(dp620
g61
(dp621
sg70
g607
sg63
(lp622
g56
(g57
g58
NtRp623
(dp624
g61
(dp625
g69
I3
ssg70
g619
sg63
(lp626
S''
asbasbasbasbasbasbasbasbasbasbasbag56
(g72
g58
NtRp627
(dp628
g61
(dp629
sg70
g66
sg63
(lp630
g56
(g77
g58
NtRp631
(dp632
g61
(dp633
g81
g82
ssg70
g627
sg63
(lp634
S'env'
p635
asbag56
(g77
g58
NtRp636
(dp637
g61
(dp638
g88
g89
ssg70
g627
sg63
(lp639
S':'
asbag56
(g77
g58
NtRp640
(dp641
g61
(dp642
sg70
g627
sg63
(lp643
g56
(g57
g58
NtRp644
(dp645
g61
(dp646
g69
I5
ssg70
g640
sg63
(lp647
g56
(g65
g58
NtRp648
(dp649
g61
(dp650
g69
I4
ssg70
Nsg63
(lp651
g56
(g72
g58
NtRp652
(dp653
g61
(dp654
sg70
g648
sg63
(lp655
g56
(g77
g58
NtRp656
(dp657
g61
(dp658
g81
g82
ssg70
g652
sg63
(lp659
S'app_folders'
p660
asbag56
(g77
g58
NtRp661
(dp662
g61
(dp663
g88
g89
ssg70
g652
sg63
(lp664
S':'
asbag56
(g77
g58
NtRp665
(dp666
g61
(dp667
sg70
g652
sg63
(lp668
g56
(g57
g58
NtRp669
(dp670
g61
(dp671
g69
I4
ssg70
g665
sg63
(lp672
S"set(['/home/kaique/Projects/web2py/applications/synopsis/', '/home/kaique/Projects/web2py/applications/admin/'])"
p673
asbasbasbag56
(g72
g58
NtRp674
(dp675
g61
(dp676
sg70
g648
sg63
(lp677
g56
(g77
g58
NtRp678
(dp679
g61
(dp680
g81
g82
ssg70
g674
sg63
(lp681
S'applications_parent'
p682
asbag56
(g77
g58
NtRp683
(dp684
g61
(dp685
g88
g89
ssg70
g674
sg63
(lp686
S':'
asbag56
(g77
g58
NtRp687
(dp688
g61
(dp689
sg70
g674
sg63
(lp690
g56
(g57
g58
NtRp691
(dp692
g61
(dp693
g69
I4
ssg70
g687
sg63
(lp694
S'/home/kaique/Projects/web2py'
p695
asbasbasbag56
(g72
g58
NtRp696
(dp697
g61
(dp698
sg70
g648
sg63
(lp699
g56
(g77
g58
NtRp700
(dp701
g61
(dp702
g81
g82
ssg70
g696
sg63
(lp703
S'cmd_args'
p704
asbag56
(g77
g58
NtRp705
(dp706
g61
(dp707
g88
g89
ssg70
g696
sg63
(lp708
S':'
asbag56
(g77
g58
NtRp709
(dp710
g61
(dp711
sg70
g696
sg63
(lp712
g56
(g57
g58
NtRp713
(dp714
g61
(dp715
g69
I4
ssg70
g709
sg63
(lp716
g56
(g65
g58
NtRp717
(dp718
g61
(dp719
g69
I3
ssg70
Nsg63
(lp720
sbasbasbasbag56
(g72
g58
NtRp721
(dp722
g61
(dp723
sg70
g648
sg63
(lp724
g56
(g77
g58
NtRp725
(dp726
g61
(dp727
g81
g82
ssg70
g721
sg63
(lp728
S'cmd_options'
p729
asbag56
(g77
g58
NtRp730
(dp731
g61
(dp732
g88
g89
ssg70
g721
sg63
(lp733
S':'
asbag56
(g77
g58
NtRp734
(dp735
g61
(dp736
sg70
g721
sg63
(lp737
g56
(g57
g58
NtRp738
(dp739
g61
(dp740
g69
I4
ssg70
g734
sg63
(lp741
S"<Values at 0x228d950: {'verbose': False, 'ip': '127.0.0.1', 'shutdown_timeout': 5, 'taskbar': False, 'nocron': False, 'pid_filename': 'httpserver.pid', 'maxthreads': None, 'softcron': False, 'server_name': 'kaique-Pine-Trail-M', 'bpython': False, 'nogui': False, 'port': 8000, 'extcron': False, 'debuglevel': 30, 'test': None, 'folder': '/home/kaique/Projects/web2py', 'config': '', 'import_models': False, 'winservice': '', 'shell': None, 'run': '', 'log_filename': 'httpserver.log', 'args': [''], 'ssl_ca_certificate': None, 'scheduler': None, 'profiler_filename': None, 'ssl_private_key': '', 'password': 'dev', 'request_queue_size': 5, 'ssl_certificate': '', 'cronjob': False, 'plain': False, 'quiet': False, 'interfaces': None, 'minthreads': None, 'timeout': 10, 'numthreads': None, 'nobanner': False}>"
p742
asbasbasbag56
(g72
g58
NtRp743
(dp744
g61
(dp745
sg70
g648
sg63
(lp746
g56
(g77
g58
NtRp747
(dp748
g61
(dp749
g81
g82
ssg70
g743
sg63
(lp750
S'db_sessions'
p751
asbag56
(g77
g58
NtRp752
(dp753
g61
(dp754
g88
g89
ssg70
g743
sg63
(lp755
S':'
asbag56
(g77
g58
NtRp756
(dp757
g61
(dp758
sg70
g743
sg63
(lp759
g56
(g57
g58
NtRp760
(dp761
g61
(dp762
g69
I4
ssg70
g756
sg63
(lp763
S'set([])'
p764
asbasbasbag56
(g72
g58
NtRp765
(dp766
g61
(dp767
sg70
g648
sg63
(lp768
g56
(g77
g58
NtRp769
(dp770
g61
(dp771
g81
g82
ssg70
g765
sg63
(lp772
S'debugging'
p773
asbag56
(g77
g58
NtRp774
(dp775
g61
(dp776
g88
g89
ssg70
g765
sg63
(lp777
S':'
asbag56
(g77
g58
NtRp778
(dp779
g61
(dp780
sg70
g765
sg63
(lp781
g56
(g57
g58
NtRp782
(dp783
g61
(dp784
g69
I4
ssg70
g778
sg63
(lp785
g99
asbasbasbag56
(g72
g58
NtRp786
(dp787
g61
(dp788
sg70
g648
sg63
(lp789
g56
(g77
g58
NtRp790
(dp791
g61
(dp792
g81
g82
ssg70
g786
sg63
(lp793
S'gluon_parent'
p794
asbag56
(g77
g58
NtRp795
(dp796
g61
(dp797
g88
g89
ssg70
g786
sg63
(lp798
S':'
asbag56
(g77
g58
NtRp799
(dp800
g61
(dp801
sg70
g786
sg63
(lp802
g56
(g57
g58
NtRp803
(dp804
g61
(dp805
g69
I4
ssg70
g799
sg63
(lp806
S'/home/kaique/Projects/web2py'
p807
asbasbasbag56
(g72
g58
NtRp808
(dp809
g61
(dp810
sg70
g648
sg63
(lp811
g56
(g77
g58
NtRp812
(dp813
g61
(dp814
g81
g82
ssg70
g808
sg63
(lp815
S'http_accept'
p816
asbag56
(g77
g58
NtRp817
(dp818
g61
(dp819
g88
g89
ssg70
g808
sg63
(lp820
S':'
asbag56
(g77
g58
NtRp821
(dp822
g61
(dp823
sg70
g808
sg63
(lp824
g56
(g57
g58
NtRp825
(dp826
g61
(dp827
g69
I4
ssg70
g821
sg63
(lp828
S'text/html,application/xhtml+xml,application/xml;q=0.9,*/*;q=0.8'
p829
asbasbasbag56
(g72
g58
NtRp830
(dp831
g61
(dp832
sg70
g648
sg63
(lp833
g56
(g77
g58
NtRp834
(dp835
g61
(dp836
g81
g82
ssg70
g830
sg63
(lp837
S'http_accept_charset'
p838
asbag56
(g77
g58
NtRp839
(dp840
g61
(dp841
g88
g89
ssg70
g830
sg63
(lp842
S':'
asbag56
(g77
g58
NtRp843
(dp844
g61
(dp845
sg70
g830
sg63
(lp846
g56
(g57
g58
NtRp847
(dp848
g61
(dp849
g69
I4
ssg70
g843
sg63
(lp850
S'UTF-8,*;q=0.5'
p851
asbasbasbag56
(g72
g58
NtRp852
(dp853
g61
(dp854
sg70
g648
sg63
(lp855
g56
(g77
g58
NtRp856
(dp857
g61
(dp858
g81
g82
ssg70
g852
sg63
(lp859
S'http_accept_encoding'
p860
asbag56
(g77
g58
NtRp861
(dp862
g61
(dp863
g88
g89
ssg70
g852
sg63
(lp864
S':'
asbag56
(g77
g58
NtRp865
(dp866
g61
(dp867
sg70
g852
sg63
(lp868
g56
(g57
g58
NtRp869
(dp870
g61
(dp871
g69
I4
ssg70
g865
sg63
(lp872
S'gzip,deflate,sdch'
p873
asbasbasbag56
(g72
g58
NtRp874
(dp875
g61
(dp876
sg70
g648
sg63
(lp877
g56
(g77
g58
NtRp878
(dp879
g61
(dp880
g81
g82
ssg70
g874
sg63
(lp881
S'http_accept_language'
p882
asbag56
(g77
g58
NtRp883
(dp884
g61
(dp885
g88
g89
ssg70
g874
sg63
(lp886
S':'
asbag56
(g77
g58
NtRp887
(dp888
g61
(dp889
sg70
g874
sg63
(lp890
g56
(g57
g58
NtRp891
(dp892
g61
(dp893
g69
I4
ssg70
g887
sg63
(lp894
S'pt-BR,pt;q=0.8,en-US;q=0.6,en;q=0.4'
p895
asbasbasbag56
(g72
g58
NtRp896
(dp897
g61
(dp898
sg70
g648
sg63
(lp899
g56
(g77
g58
NtRp900
(dp901
g61
(dp902
g81
g82
ssg70
g896
sg63
(lp903
S'http_cache_control'
p904
asbag56
(g77
g58
NtRp905
(dp906
g61
(dp907
g88
g89
ssg70
g896
sg63
(lp908
S':'
asbag56
(g77
g58
NtRp909
(dp910
g61
(dp911
sg70
g896
sg63
(lp912
g56
(g57
g58
NtRp913
(dp914
g61
(dp915
g69
I4
ssg70
g909
sg63
(lp916
S'max-age=0'
p917
asbasbasbag56
(g72
g58
NtRp918
(dp919
g61
(dp920
sg70
g648
sg63
(lp921
g56
(g77
g58
NtRp922
(dp923
g61
(dp924
g81
g82
ssg70
g918
sg63
(lp925
S'http_connection'
p926
asbag56
(g77
g58
NtRp927
(dp928
g61
(dp929
g88
g89
ssg70
g918
sg63
(lp930
S':'
asbag56
(g77
g58
NtRp931
(dp932
g61
(dp933
sg70
g918
sg63
(lp934
g56
(g57
g58
NtRp935
(dp936
g61
(dp937
g69
I4
ssg70
g931
sg63
(lp938
S'keep-alive'
p939
asbasbasbag56
(g72
g58
NtRp940
(dp941
g61
(dp942
sg70
g648
sg63
(lp943
g56
(g77
g58
NtRp944
(dp945
g61
(dp946
g81
g82
ssg70
g940
sg63
(lp947
S'http_cookie'
p948
asbag56
(g77
g58
NtRp949
(dp950
g61
(dp951
g88
g89
ssg70
g940
sg63
(lp952
S':'
asbag56
(g77
g58
NtRp953
(dp954
g61
(dp955
sg70
g940
sg63
(lp956
g56
(g57
g58
NtRp957
(dp958
g61
(dp959
g69
I4
ssg70
g953
sg63
(lp960
S'session_id_synopsis=127.0.0.1-ea15d85f-607d-4f64-bdf1-d7c474a4e0c4; session_id_admin=127.0.0.1-4e86946d-c0fa-4d4f-b7b9-dd71486e6bc6'
p961
asbasbasbag56
(g72
g58
NtRp962
(dp963
g61
(dp964
sg70
g648
sg63
(lp965
g56
(g77
g58
NtRp966
(dp967
g61
(dp968
g81
g82
ssg70
g962
sg63
(lp969
S'http_host'
p970
asbag56
(g77
g58
NtRp971
(dp972
g61
(dp973
g88
g89
ssg70
g962
sg63
(lp974
S':'
asbag56
(g77
g58
NtRp975
(dp976
g61
(dp977
sg70
g962
sg63
(lp978
g56
(g57
g58
NtRp979
(dp980
g61
(dp981
g69
I4
ssg70
g975
sg63
(lp982
S'localhost:8000'
p983
asbasbasbag56
(g72
g58
NtRp984
(dp985
g61
(dp986
sg70
g648
sg63
(lp987
g56
(g77
g58
NtRp988
(dp989
g61
(dp990
g81
g82
ssg70
g984
sg63
(lp991
S'http_referer'
p992
asbag56
(g77
g58
NtRp993
(dp994
g61
(dp995
g88
g89
ssg70
g984
sg63
(lp996
S':'
asbag56
(g77
g58
NtRp997
(dp998
g61
(dp999
sg70
g984
sg63
(lp1000
g56
(g57
g58
NtRp1001
(dp1002
g61
(dp1003
g69
I4
ssg70
g997
sg63
(lp1004
S'http://localhost:8000/synopsis/information/new/row/9'
p1005
asbasbasbag56
(g72
g58
NtRp1006
(dp1007
g61
(dp1008
sg70
g648
sg63
(lp1009
g56
(g77
g58
NtRp1010
(dp1011
g61
(dp1012
g81
g82
ssg70
g1006
sg63
(lp1013
S'http_user_agent'
p1014
asbag56
(g77
g58
NtRp1015
(dp1016
g61
(dp1017
g88
g89
ssg70
g1006
sg63
(lp1018
S':'
asbag56
(g77
g58
NtRp1019
(dp1020
g61
(dp1021
sg70
g1006
sg63
(lp1022
g56
(g57
g58
NtRp1023
(dp1024
g61
(dp1025
g69
I4
ssg70
g1019
sg63
(lp1026
S'Mozilla/5.0 (X11; Linux x86_64) AppleWebKit/535.7 (KHTML, like Gecko) Chrome/16.0.912.75 Safari/535.7'
p1027
asbasbasbag56
(g72
g58
NtRp1028
(dp1029
g61
(dp1030
sg70
g648
sg63
(lp1031
g56
(g77
g58
NtRp1032
(dp1033
g61
(dp1034
g81
g82
ssg70
g1028
sg63
(lp1035
S'is_jython'
p1036
asbag56
(g77
g58
NtRp1037
(dp1038
g61
(dp1039
g88
g89
ssg70
g1028
sg63
(lp1040
S':'
asbag56
(g77
g58
NtRp1041
(dp1042
g61
(dp1043
sg70
g1028
sg63
(lp1044
g56
(g57
g58
NtRp1045
(dp1046
g61
(dp1047
g69
I4
ssg70
g1041
sg63
(lp1048
g99
asbasbasbag56
(g72
g58
NtRp1049
(dp1050
g61
(dp1051
sg70
g648
sg63
(lp1052
g56
(g77
g58
NtRp1053
(dp1054
g61
(dp1055
g81
g82
ssg70
g1049
sg63
(lp1056
S'path_info'
p1057
asbag56
(g77
g58
NtRp1058
(dp1059
g61
(dp1060
g88
g89
ssg70
g1049
sg63
(lp1061
S':'
asbag56
(g77
g58
NtRp1062
(dp1063
g61
(dp1064
sg70
g1049
sg63
(lp1065
g56
(g57
g58
NtRp1066
(dp1067
g61
(dp1068
g69
I4
ssg70
g1062
sg63
(lp1069
S'/synopsis/information/publication/9'
p1070
asbasbasbag56
(g72
g58
NtRp1071
(dp1072
g61
(dp1073
sg70
g648
sg63
(lp1074
g56
(g77
g58
NtRp1075
(dp1076
g61
(dp1077
g81
g82
ssg70
g1071
sg63
(lp1078
S'query_string'
p1079
asbag56
(g77
g58
NtRp1080
(dp1081
g61
(dp1082
g88
g89
ssg70
g1071
sg63
(lp1083
S':'
asbag56
(g77
g58
NtRp1084
(dp1085
g61
(dp1086
sg70
g1071
sg63
(lp1087
g56
(g57
g58
NtRp1088
(dp1089
g61
(dp1090
g69
I4
ssg70
g1084
sg63
(lp1091
S''
asbasbasbag56
(g72
g58
NtRp1092
(dp1093
g61
(dp1094
sg70
g648
sg63
(lp1095
g56
(g77
g58
NtRp1096
(dp1097
g61
(dp1098
g81
g82
ssg70
g1092
sg63
(lp1099
S'remote_addr'
p1100
asbag56
(g77
g58
NtRp1101
(dp1102
g61
(dp1103
g88
g89
ssg70
g1092
sg63
(lp1104
S':'
asbag56
(g77
g58
NtRp1105
(dp1106
g61
(dp1107
sg70
g1092
sg63
(lp1108
g56
(g57
g58
NtRp1109
(dp1110
g61
(dp1111
g69
I4
ssg70
g1105
sg63
(lp1112
g201
asbasbasbag56
(g72
g58
NtRp1113
(dp1114
g61
(dp1115
sg70
g648
sg63
(lp1116
g56
(g77
g58
NtRp1117
(dp1118
g61
(dp1119
g81
g82
ssg70
g1113
sg63
(lp1120
S'remote_port'
p1121
asbag56
(g77
g58
NtRp1122
(dp1123
g61
(dp1124
g88
g89
ssg70
g1113
sg63
(lp1125
S':'
asbag56
(g77
g58
NtRp1126
(dp1127
g61
(dp1128
sg70
g1113
sg63
(lp1129
g56
(g57
g58
NtRp1130
(dp1131
g61
(dp1132
g69
I4
ssg70
g1126
sg63
(lp1133
S'41559'
p1134
asbasbasbag56
(g72
g58
NtRp1135
(dp1136
g61
(dp1137
sg70
g648
sg63
(lp1138
g56
(g77
g58
NtRp1139
(dp1140
g61
(dp1141
g81
g82
ssg70
g1135
sg63
(lp1142
S'request_method'
p1143
asbag56
(g77
g58
NtRp1144
(dp1145
g61
(dp1146
g88
g89
ssg70
g1135
sg63
(lp1147
S':'
asbag56
(g77
g58
NtRp1148
(dp1149
g61
(dp1150
sg70
g1135
sg63
(lp1151
g56
(g57
g58
NtRp1152
(dp1153
g61
(dp1154
g69
I4
ssg70
g1148
sg63
(lp1155
S'GET'
p1156
asbasbasbag56
(g72
g58
NtRp1157
(dp1158
g61
(dp1159
sg70
g648
sg63
(lp1160
g56
(g77
g58
NtRp1161
(dp1162
g61
(dp1163
g81
g82
ssg70
g1157
sg63
(lp1164
S'script_name'
p1165
asbag56
(g77
g58
NtRp1166
(dp1167
g61
(dp1168
g88
g89
ssg70
g1157
sg63
(lp1169
S':'
asbag56
(g77
g58
NtRp1170
(dp1171
g61
(dp1172
sg70
g1157
sg63
(lp1173
g56
(g57
g58
NtRp1174
(dp1175
g61
(dp1176
g69
I4
ssg70
g1170
sg63
(lp1177
S''
asbasbasbag56
(g72
g58
NtRp1178
(dp1179
g61
(dp1180
sg70
g648
sg63
(lp1181
g56
(g77
g58
NtRp1182
(dp1183
g61
(dp1184
g81
g82
ssg70
g1178
sg63
(lp1185
S'server_name'
p1186
asbag56
(g77
g58
NtRp1187
(dp1188
g61
(dp1189
g88
g89
ssg70
g1178
sg63
(lp1190
S':'
asbag56
(g77
g58
NtRp1191
(dp1192
g61
(dp1193
sg70
g1178
sg63
(lp1194
g56
(g57
g58
NtRp1195
(dp1196
g61
(dp1197
g69
I4
ssg70
g1191
sg63
(lp1198
S'kaique-Pine-Trail-M'
p1199
asbasbasbag56
(g72
g58
NtRp1200
(dp1201
g61
(dp1202
sg70
g648
sg63
(lp1203
g56
(g77
g58
NtRp1204
(dp1205
g61
(dp1206
g81
g82
ssg70
g1200
sg63
(lp1207
S'server_port'
p1208
asbag56
(g77
g58
NtRp1209
(dp1210
g61
(dp1211
g88
g89
ssg70
g1200
sg63
(lp1212
S':'
asbag56
(g77
g58
NtRp1213
(dp1214
g61
(dp1215
sg70
g1200
sg63
(lp1216
g56
(g57
g58
NtRp1217
(dp1218
g61
(dp1219
g69
I4
ssg70
g1213
sg63
(lp1220
S'8000'
p1221
asbasbasbag56
(g72
g58
NtRp1222
(dp1223
g61
(dp1224
sg70
g648
sg63
(lp1225
g56
(g77
g58
NtRp1226
(dp1227
g61
(dp1228
g81
g82
ssg70
g1222
sg63
(lp1229
S'server_protocol'
p1230
asbag56
(g77
g58
NtRp1231
(dp1232
g61
(dp1233
g88
g89
ssg70
g1222
sg63
(lp1234
S':'
asbag56
(g77
g58
NtRp1235
(dp1236
g61
(dp1237
sg70
g1222
sg63
(lp1238
g56
(g57
g58
NtRp1239
(dp1240
g61
(dp1241
g69
I4
ssg70
g1235
sg63
(lp1242
S'HTTP/1.1'
p1243
asbasbasbag56
(g72
g58
NtRp1244
(dp1245
g61
(dp1246
sg70
g648
sg63
(lp1247
g56
(g77
g58
NtRp1248
(dp1249
g61
(dp1250
g81
g82
ssg70
g1244
sg63
(lp1251
S'server_software'
p1252
asbag56
(g77
g58
NtRp1253
(dp1254
g61
(dp1255
g88
g89
ssg70
g1244
sg63
(lp1256
S':'
asbag56
(g77
g58
NtRp1257
(dp1258
g61
(dp1259
sg70
g1244
sg63
(lp1260
g56
(g57
g58
NtRp1261
(dp1262
g61
(dp1263
g69
I4
ssg70
g1257
sg63
(lp1264
S'Rocket 1.2.4'
p1265
asbasbasbag56
(g72
g58
NtRp1266
(dp1267
g61
(dp1268
sg70
g648
sg63
(lp1269
g56
(g77
g58
NtRp1270
(dp1271
g61
(dp1272
g81
g82
ssg70
g1266
sg63
(lp1273
S'web2py_crontype'
p1274
asbag56
(g77
g58
NtRp1275
(dp1276
g61
(dp1277
g88
g89
ssg70
g1266
sg63
(lp1278
S':'
asbag56
(g77
g58
NtRp1279
(dp1280
g61
(dp1281
sg70
g1266
sg63
(lp1282
g56
(g57
g58
NtRp1283
(dp1284
g61
(dp1285
g69
I4
ssg70
g1279
sg63
(lp1286
S'hard'
p1287
asbasbasbag56
(g72
g58
NtRp1288
(dp1289
g61
(dp1290
sg70
g648
sg63
(lp1291
g56
(g77
g58
NtRp1292
(dp1293
g61
(dp1294
g81
g82
ssg70
g1288
sg63
(lp1295
S'web2py_path'
p1296
asbag56
(g77
g58
NtRp1297
(dp1298
g61
(dp1299
g88
g89
ssg70
g1288
sg63
(lp1300
S':'
asbag56
(g77
g58
NtRp1301
(dp1302
g61
(dp1303
sg70
g1288
sg63
(lp1304
g56
(g57
g58
NtRp1305
(dp1306
g61
(dp1307
g69
I4
ssg70
g1301
sg63
(lp1308
g695
asbasbasbag56
(g72
g58
NtRp1309
(dp1310
g61
(dp1311
sg70
g648
sg63
(lp1312
g56
(g77
g58
NtRp1313
(dp1314
g61
(dp1315
g81
g82
ssg70
g1309
sg63
(lp1316
S'web2py_version'
p1317
asbag56
(g77
g58
NtRp1318
(dp1319
g61
(dp1320
g88
g89
ssg70
g1309
sg63
(lp1321
S':'
asbag56
(g77
g58
NtRp1322
(dp1323
g61
(dp1324
sg70
g1309
sg63
(lp1325
g56
(g57
g58
NtRp1326
(dp1327
g61
(dp1328
g69
I4
ssg70
g1322
sg63
(lp1329
g56
(g65
g58
NtRp1330
(dp1331
g61
(dp1332
g69
I3
ssg70
Nsg63
(lp1333
g56
(g72
g58
NtRp1334
(dp1335
g61
(dp1336
sg70
g1330
sg63
(lp1337
g56
(g77
g58
NtRp1338
(dp1339
g61
(dp1340
sg70
g1334
sg63
(lp1341
g56
(g57
g58
NtRp1342
(dp1343
g61
(dp1344
g69
I3
ssg70
g1338
sg63
(lp1345
S'1'
asbasbasbag56
(g72
g58
NtRp1346
(dp1347
g61
(dp1348
sg70
g1330
sg63
(lp1349
g56
(g77
g58
NtRp1350
(dp1351
g61
(dp1352
sg70
g1346
sg63
(lp1353
g56
(g57
g58
NtRp1354
(dp1355
g61
(dp1356
g69
I3
ssg70
g1350
sg63
(lp1357
S'99'
p1358
asbasbasbag56
(g72
g58
NtRp1359
(dp1360
g61
(dp1361
sg70
g1330
sg63
(lp1362
g56
(g77
g58
NtRp1363
(dp1364
g61
(dp1365
sg70
g1359
sg63
(lp1366
g56
(g57
g58
NtRp1367
(dp1368
g61
(dp1369
g69
I3
ssg70
g1363
sg63
(lp1370
S'2'
asbasbasbag56
(g72
g58
NtRp1371
(dp1372
g61
(dp1373
sg70
g1330
sg63
(lp1374
g56
(g77
g58
NtRp1375
(dp1376
g61
(dp1377
sg70
g1371
sg63
(lp1378
g56
(g57
g58
NtRp1379
(dp1380
g61
(dp1381
g69
I3
ssg70
g1375
sg63
(lp1382
S'datetime.datetime(2011, 9, 26, 6, 55, 33)'
p1383
asbasbasbag56
(g72
g58
NtRp1384
(dp1385
g61
(dp1386
sg70
g1330
sg63
(lp1387
g56
(g77
g58
NtRp1388
(dp1389
g61
(dp1390
sg70
g1384
sg63
(lp1391
g56
(g57
g58
NtRp1392
(dp1393
g61
(dp1394
g69
I3
ssg70
g1388
sg63
(lp1395
S'stable'
p1396
asbasbasbasbasbasbasbag56
(g72
g58
NtRp1397
(dp1398
g61
(dp1399
sg70
g648
sg63
(lp1400
g56
(g77
g58
NtRp1401
(dp1402
g61
(dp1403
g81
g82
ssg70
g1397
sg63
(lp1404
S'wsgi_errors'
p1405
asbag56
(g77
g58
NtRp1406
(dp1407
g61
(dp1408
g88
g89
ssg70
g1397
sg63
(lp1409
S':'
asbag56
(g77
g58
NtRp1410
(dp1411
g61
(dp1412
sg70
g1397
sg63
(lp1413
g56
(g57
g58
NtRp1414
(dp1415
g61
(dp1416
g69
I4
ssg70
g1410
sg63
(lp1417
S"<open file '<stderr>', mode 'w' at 0x7f041f2b1270>"
p1418
asbasbasbag56
(g72
g58
NtRp1419
(dp1420
g61
(dp1421
sg70
g648
sg63
(lp1422
g56
(g77
g58
NtRp1423
(dp1424
g61
(dp1425
g81
g82
ssg70
g1419
sg63
(lp1426
S'wsgi_file_wrapper'
p1427
asbag56
(g77
g58
NtRp1428
(dp1429
g61
(dp1430
g88
g89
ssg70
g1419
sg63
(lp1431
S':'
asbag56
(g77
g58
NtRp1432
(dp1433
g61
(dp1434
sg70
g1419
sg63
(lp1435
g56
(g57
g58
NtRp1436
(dp1437
g61
(dp1438
g69
I4
ssg70
g1432
sg63
(lp1439
S'<class wsgiref.util.FileWrapper at 0x2144ef0>'
p1440
asbasbasbag56
(g72
g58
NtRp1441
(dp1442
g61
(dp1443
sg70
g648
sg63
(lp1444
g56
(g77
g58
NtRp1445
(dp1446
g61
(dp1447
g81
g82
ssg70
g1441
sg63
(lp1448
S'wsgi_input'
p1449
asbag56
(g77
g58
NtRp1450
(dp1451
g61
(dp1452
g88
g89
ssg70
g1441
sg63
(lp1453
S':'
asbag56
(g77
g58
NtRp1454
(dp1455
g61
(dp1456
sg70
g1441
sg63
(lp1457
g56
(g57
g58
NtRp1458
(dp1459
g61
(dp1460
g69
I4
ssg70
g1454
sg63
(lp1461
S'<socket._fileobject object at 0x278e850>'
p1462
asbasbasbag56
(g72
g58
NtRp1463
(dp1464
g61
(dp1465
sg70
g648
sg63
(lp1466
g56
(g77
g58
NtRp1467
(dp1468
g61
(dp1469
g81
g82
ssg70
g1463
sg63
(lp1470
S'wsgi_multiprocess'
p1471
asbag56
(g77
g58
NtRp1472
(dp1473
g61
(dp1474
g88
g89
ssg70
g1463
sg63
(lp1475
S':'
asbag56
(g77
g58
NtRp1476
(dp1477
g61
(dp1478
sg70
g1463
sg63
(lp1479
g56
(g57
g58
NtRp1480
(dp1481
g61
(dp1482
g69
I4
ssg70
g1476
sg63
(lp1483
g99
asbasbasbag56
(g72
g58
NtRp1484
(dp1485
g61
(dp1486
sg70
g648
sg63
(lp1487
g56
(g77
g58
NtRp1488
(dp1489
g61
(dp1490
g81
g82
ssg70
g1484
sg63
(lp1491
S'wsgi_multithread'
p1492
asbag56
(g77
g58
NtRp1493
(dp1494
g61
(dp1495
g88
g89
ssg70
g1484
sg63
(lp1496
S':'
asbag56
(g77
g58
NtRp1497
(dp1498
g61
(dp1499
sg70
g1484
sg63
(lp1500
g56
(g57
g58
NtRp1501
(dp1502
g61
(dp1503
g69
I4
ssg70
g1497
sg63
(lp1504
S'True'
p1505
asbasbasbag56
(g72
g58
NtRp1506
(dp1507
g61
(dp1508
sg70
g648
sg63
(lp1509
g56
(g77
g58
NtRp1510
(dp1511
g61
(dp1512
g81
g82
ssg70
g1506
sg63
(lp1513
S'wsgi_run_once'
p1514
asbag56
(g77
g58
NtRp1515
(dp1516
g61
(dp1517
g88
g89
ssg70
g1506
sg63
(lp1518
S':'
asbag56
(g77
g58
NtRp1519
(dp1520
g61
(dp1521
sg70
g1506
sg63
(lp1522
g56
(g57
g58
NtRp1523
(dp1524
g61
(dp1525
g69
I4
ssg70
g1519
sg63
(lp1526
g99
asbasbasbag56
(g72
g58
NtRp1527
(dp1528
g61
(dp1529
sg70
g648
sg63
(lp1530
g56
(g77
g58
NtRp1531
(dp1532
g61
(dp1533
g81
g82
ssg70
g1527
sg63
(lp1534
S'wsgi_url_scheme'
p1535
asbag56
(g77
g58
NtRp1536
(dp1537
g61
(dp1538
g88
g89
ssg70
g1527
sg63
(lp1539
S':'
asbag56
(g77
g58
NtRp1540
(dp1541
g61
(dp1542
sg70
g1527
sg63
(lp1543
g56
(g57
g58
NtRp1544
(dp1545
g61
(dp1546
g69
I4
ssg70
g1540
sg63
(lp1547
S'http'
p1548
asbasbasbag56
(g72
g58
NtRp1549
(dp1550
g61
(dp1551
sg70
g648
sg63
(lp1552
g56
(g77
g58
NtRp1553
(dp1554
g61
(dp1555
g81
g82
ssg70
g1549
sg63
(lp1556
S'wsgi_version'
p1557
asbag56
(g77
g58
NtRp1558
(dp1559
g61
(dp1560
g88
g89
ssg70
g1549
sg63
(lp1561
S':'
asbag56
(g77
g58
NtRp1562
(dp1563
g61
(dp1564
sg70
g1549
sg63
(lp1565
g56
(g57
g58
NtRp1566
(dp1567
g61
(dp1568
g69
I4
ssg70
g1562
sg63
(lp1569
g56
(g65
g58
NtRp1570
(dp1571
g61
(dp1572
g69
I3
ssg70
Nsg63
(lp1573
g56
(g72
g58
NtRp1574
(dp1575
g61
(dp1576
sg70
g1570
sg63
(lp1577
g56
(g77
g58
NtRp1578
(dp1579
g61
(dp1580
sg70
g1574
sg63
(lp1581
g56
(g57
g58
NtRp1582
(dp1583
g61
(dp1584
g69
I3
ssg70
g1578
sg63
(lp1585
S'1'
asbasbasbag56
(g72
g58
NtRp1586
(dp1587
g61
(dp1588
sg70
g1570
sg63
(lp1589
g56
(g77
g58
NtRp1590
(dp1591
g61
(dp1592
sg70
g1586
sg63
(lp1593
g56
(g57
g58
NtRp1594
(dp1595
g61
(dp1596
g69
I3
ssg70
g1590
sg63
(lp1597
S'0'
asbasbasbasbasbasbasbasbasbasbasbag56
(g72
g58
NtRp1598
(dp1599
g61
(dp1600
sg70
g66
sg63
(lp1601
g56
(g77
g58
NtRp1602
(dp1603
g61
(dp1604
g81
g82
ssg70
g1598
sg63
(lp1605
S'extension'
p1606
asbag56
(g77
g58
NtRp1607
(dp1608
g61
(dp1609
g88
g89
ssg70
g1598
sg63
(lp1610
S':'
asbag56
(g77
g58
NtRp1611
(dp1612
g61
(dp1613
sg70
g1598
sg63
(lp1614
g56
(g57
g58
NtRp1615
(dp1616
g61
(dp1617
g69
I5
ssg70
g1611
sg63
(lp1618
S'html'
p1619
asbasbasbag56
(g72
g58
NtRp1620
(dp1621
g61
(dp1622
sg70
g66
sg63
(lp1623
g56
(g77
g58
NtRp1624
(dp1625
g61
(dp1626
g81
g82
ssg70
g1620
sg63
(lp1627
S'folder'
p1628
asbag56
(g77
g58
NtRp1629
(dp1630
g61
(dp1631
g88
g89
ssg70
g1620
sg63
(lp1632
S':'
asbag56
(g77
g58
NtRp1633
(dp1634
g61
(dp1635
sg70
g1620
sg63
(lp1636
g56
(g57
g58
NtRp1637
(dp1638
g61
(dp1639
g69
I5
ssg70
g1633
sg63
(lp1640
S'/home/kaique/Projects/web2py/applications/synopsis/'
p1641
asbasbasbag56
(g72
g58
NtRp1642
(dp1643
g61
(dp1644
sg70
g66
sg63
(lp1645
g56
(g77
g58
NtRp1646
(dp1647
g61
(dp1648
g81
g82
ssg70
g1642
sg63
(lp1649
S'function'
p1650
asbag56
(g77
g58
NtRp1651
(dp1652
g61
(dp1653
g88
g89
ssg70
g1642
sg63
(lp1654
S':'
asbag56
(g77
g58
NtRp1655
(dp1656
g61
(dp1657
sg70
g1642
sg63
(lp1658
g56
(g57
g58
NtRp1659
(dp1660
g61
(dp1661
g69
I5
ssg70
g1655
sg63
(lp1662
S'publication'
p1663
asbasbasbag56
(g72
g58
NtRp1664
(dp1665
g61
(dp1666
sg70
g66
sg63
(lp1667
g56
(g77
g58
NtRp1668
(dp1669
g61
(dp1670
g81
g82
ssg70
g1664
sg63
(lp1671
S'get_vars'
p1672
asbag56
(g77
g58
NtRp1673
(dp1674
g61
(dp1675
g88
g89
ssg70
g1664
sg63
(lp1676
S':'
asbag56
(g77
g58
NtRp1677
(dp1678
g61
(dp1679
sg70
g1664
sg63
(lp1680
g56
(g57
g58
NtRp1681
(dp1682
g61
(dp1683
g69
I5
ssg70
g1677
sg63
(lp1684
g56
(g65
g58
NtRp1685
(dp1686
g61
(dp1687
g69
I4
ssg70
Nsg63
(lp1688
sbasbasbasbag56
(g72
g58
NtRp1689
(dp1690
g61
(dp1691
sg70
g66
sg63
(lp1692
g56
(g77
g58
NtRp1693
(dp1694
g61
(dp1695
g81
g82
ssg70
g1689
sg63
(lp1696
S'global_settings'
p1697
asbag56
(g77
g58
NtRp1698
(dp1699
g61
(dp1700
g88
g89
ssg70
g1689
sg63
(lp1701
S':'
asbag56
(g77
g58
NtRp1702
(dp1703
g61
(dp1704
sg70
g1689
sg63
(lp1705
g56
(g57
g58
NtRp1706
(dp1707
g61
(dp1708
g69
I5
ssg70
g1702
sg63
(lp1709
g56
(g65
g58
NtRp1710
(dp1711
g61
(dp1712
g69
I4
ssg70
Nsg63
(lp1713
g56
(g72
g58
NtRp1714
(dp1715
g61
(dp1716
sg70
g1710
sg63
(lp1717
g56
(g77
g58
NtRp1718
(dp1719
g61
(dp1720
g81
g82
ssg70
g1714
sg63
(lp1721
g660
asbag56
(g77
g58
NtRp1722
(dp1723
g61
(dp1724
g88
g89
ssg70
g1714
sg63
(lp1725
S':'
asbag56
(g77
g58
NtRp1726
(dp1727
g61
(dp1728
sg70
g1714
sg63
(lp1729
g56
(g57
g58
NtRp1730
(dp1731
g61
(dp1732
g69
I4
ssg70
g1726
sg63
(lp1733
S"set(['/home/kaique/Projects/web2py/applications/synopsis/', '/home/kaique/Projects/web2py/applications/admin/'])"
p1734
asbasbasbag56
(g72
g58
NtRp1735
(dp1736
g61
(dp1737
sg70
g1710
sg63
(lp1738
g56
(g77
g58
NtRp1739
(dp1740
g61
(dp1741
g81
g82
ssg70
g1735
sg63
(lp1742
g682
asbag56
(g77
g58
NtRp1743
(dp1744
g61
(dp1745
g88
g89
ssg70
g1735
sg63
(lp1746
S':'
asbag56
(g77
g58
NtRp1747
(dp1748
g61
(dp1749
sg70
g1735
sg63
(lp1750
g56
(g57
g58
NtRp1751
(dp1752
g61
(dp1753
g69
I4
ssg70
g1747
sg63
(lp1754
g695
asbasbasbag56
(g72
g58
NtRp1755
(dp1756
g61
(dp1757
sg70
g1710
sg63
(lp1758
g56
(g77
g58
NtRp1759
(dp1760
g61
(dp1761
g81
g82
ssg70
g1755
sg63
(lp1762
g704
asbag56
(g77
g58
NtRp1763
(dp1764
g61
(dp1765
g88
g89
ssg70
g1755
sg63
(lp1766
S':'
asbag56
(g77
g58
NtRp1767
(dp1768
g61
(dp1769
sg70
g1755
sg63
(lp1770
g56
(g57
g58
NtRp1771
(dp1772
g61
(dp1773
g69
I4
ssg70
g1767
sg63
(lp1774
g56
(g65
g58
NtRp1775
(dp1776
g61
(dp1777
g69
I3
ssg70
Nsg63
(lp1778
sbasbasbasbag56
(g72
g58
NtRp1779
(dp1780
g61
(dp1781
sg70
g1710
sg63
(lp1782
g56
(g77
g58
NtRp1783
(dp1784
g61
(dp1785
g81
g82
ssg70
g1779
sg63
(lp1786
g729
asbag56
(g77
g58
NtRp1787
(dp1788
g61
(dp1789
g88
g89
ssg70
g1779
sg63
(lp1790
S':'
asbag56
(g77
g58
NtRp1791
(dp1792
g61
(dp1793
sg70
g1779
sg63
(lp1794
g56
(g57
g58
NtRp1795
(dp1796
g61
(dp1797
g69
I4
ssg70
g1791
sg63
(lp1798
S"<Values at 0x228d950: {'verbose': False, 'ip': '127.0.0.1', 'shutdown_timeout': 5, 'taskbar': False, 'nocron': False, 'pid_filename': 'httpserver.pid', 'maxthreads': None, 'softcron': False, 'server_name': 'kaique-Pine-Trail-M', 'bpython': False, 'nogui': False, 'port': 8000, 'extcron': False, 'debuglevel': 30, 'test': None, 'folder': '/home/kaique/Projects/web2py', 'config': '', 'import_models': False, 'winservice': '', 'shell': None, 'run': '', 'log_filename': 'httpserver.log', 'args': [''], 'ssl_ca_certificate': None, 'scheduler': None, 'profiler_filename': None, 'ssl_private_key': '', 'password': 'dev', 'request_queue_size': 5, 'ssl_certificate': '', 'cronjob': False, 'plain': False, 'quiet': False, 'interfaces': None, 'minthreads': None, 'timeout': 10, 'numthreads': None, 'nobanner': False}>"
p1799
asbasbasbag56
(g72
g58
NtRp1800
(dp1801
g61
(dp1802
sg70
g1710
sg63
(lp1803
g56
(g77
g58
NtRp1804
(dp1805
g61
(dp1806
g81
g82
ssg70
g1800
sg63
(lp1807
g751
asbag56
(g77
g58
NtRp1808
(dp1809
g61
(dp1810
g88
g89
ssg70
g1800
sg63
(lp1811
S':'
asbag56
(g77
g58
NtRp1812
(dp1813
g61
(dp1814
sg70
g1800
sg63
(lp1815
g56
(g57
g58
NtRp1816
(dp1817
g61
(dp1818
g69
I4
ssg70
g1812
sg63
(lp1819
S'set([])'
p1820
asbasbasbag56
(g72
g58
NtRp1821
(dp1822
g61
(dp1823
sg70
g1710
sg63
(lp1824
g56
(g77
g58
NtRp1825
(dp1826
g61
(dp1827
g81
g82
ssg70
g1821
sg63
(lp1828
g773
asbag56
(g77
g58
NtRp1829
(dp1830
g61
(dp1831
g88
g89
ssg70
g1821
sg63
(lp1832
S':'
asbag56
(g77
g58
NtRp1833
(dp1834
g61
(dp1835
sg70
g1821
sg63
(lp1836
g56
(g57
g58
NtRp1837
(dp1838
g61
(dp1839
g69
I4
ssg70
g1833
sg63
(lp1840
g99
asbasbasbag56
(g72
g58
NtRp1841
(dp1842
g61
(dp1843
sg70
g1710
sg63
(lp1844
g56
(g77
g58
NtRp1845
(dp1846
g61
(dp1847
g81
g82
ssg70
g1841
sg63
(lp1848
g794
asbag56
(g77
g58
NtRp1849
(dp1850
g61
(dp1851
g88
g89
ssg70
g1841
sg63
(lp1852
S':'
asbag56
(g77
g58
NtRp1853
(dp1854
g61
(dp1855
sg70
g1841
sg63
(lp1856
g56
(g57
g58
NtRp1857
(dp1858
g61
(dp1859
g69
I4
ssg70
g1853
sg63
(lp1860
g807
asbasbasbag56
(g72
g58
NtRp1861
(dp1862
g61
(dp1863
sg70
g1710
sg63
(lp1864
g56
(g77
g58
NtRp1865
(dp1866
g61
(dp1867
g81
g82
ssg70
g1861
sg63
(lp1868
g1036
asbag56
(g77
g58
NtRp1869
(dp1870
g61
(dp1871
g88
g89
ssg70
g1861
sg63
(lp1872
S':'
asbag56
(g77
g58
NtRp1873
(dp1874
g61
(dp1875
sg70
g1861
sg63
(lp1876
g56
(g57
g58
NtRp1877
(dp1878
g61
(dp1879
g69
I4
ssg70
g1873
sg63
(lp1880
g99
asbasbasbag56
(g72
g58
NtRp1881
(dp1882
g61
(dp1883
sg70
g1710
sg63
(lp1884
g56
(g77
g58
NtRp1885
(dp1886
g61
(dp1887
g81
g82
ssg70
g1881
sg63
(lp1888
g1274
asbag56
(g77
g58
NtRp1889
(dp1890
g61
(dp1891
g88
g89
ssg70
g1881
sg63
(lp1892
S':'
asbag56
(g77
g58
NtRp1893
(dp1894
g61
(dp1895
sg70
g1881
sg63
(lp1896
g56
(g57
g58
NtRp1897
(dp1898
g61
(dp1899
g69
I4
ssg70
g1893
sg63
(lp1900
g1287
asbasbasbag56
(g72
g58
NtRp1901
(dp1902
g61
(dp1903
sg70
g1710
sg63
(lp1904
g56
(g77
g58
NtRp1905
(dp1906
g61
(dp1907
g81
g82
ssg70
g1901
sg63
(lp1908
g1317
asbag56
(g77
g58
NtRp1909
(dp1910
g61
(dp1911
g88
g89
ssg70
g1901
sg63
(lp1912
S':'
asbag56
(g77
g58
NtRp1913
(dp1914
g61
(dp1915
sg70
g1901
sg63
(lp1916
g56
(g57
g58
NtRp1917
(dp1918
g61
(dp1919
g69
I4
ssg70
g1913
sg63
(lp1920
g56
(g65
g58
NtRp1921
(dp1922
g61
(dp1923
g69
I3
ssg70
Nsg63
(lp1924
g56
(g72
g58
NtRp1925
(dp1926
g61
(dp1927
sg70
g1921
sg63
(lp1928
g56
(g77
g58
NtRp1929
(dp1930
g61
(dp1931
sg70
g1925
sg63
(lp1932
g56
(g57
g58
NtRp1933
(dp1934
g61
(dp1935
g69
I3
ssg70
g1929
sg63
(lp1936
S'1'
asbasbasbag56
(g72
g58
NtRp1937
(dp1938
g61
(dp1939
sg70
g1921
sg63
(lp1940
g56
(g77
g58
NtRp1941
(dp1942
g61
(dp1943
sg70
g1937
sg63
(lp1944
g56
(g57
g58
NtRp1945
(dp1946
g61
(dp1947
g69
I3
ssg70
g1941
sg63
(lp1948
S'99'
p1949
asbasbasbag56
(g72
g58
NtRp1950
(dp1951
g61
(dp1952
sg70
g1921
sg63
(lp1953
g56
(g77
g58
NtRp1954
(dp1955
g61
(dp1956
sg70
g1950
sg63
(lp1957
g56
(g57
g58
NtRp1958
(dp1959
g61
(dp1960
g69
I3
ssg70
g1954
sg63
(lp1961
S'2'
asbasbasbag56
(g72
g58
NtRp1962
(dp1963
g61
(dp1964
sg70
g1921
sg63
(lp1965
g56
(g77
g58
NtRp1966
(dp1967
g61
(dp1968
sg70
g1962
sg63
(lp1969
g56
(g57
g58
NtRp1970
(dp1971
g61
(dp1972
g69
I3
ssg70
g1966
sg63
(lp1973
S'datetime.datetime(2011, 9, 26, 6, 55, 33)'
p1974
asbasbasbag56
(g72
g58
NtRp1975
(dp1976
g61
(dp1977
sg70
g1921
sg63
(lp1978
g56
(g77
g58
NtRp1979
(dp1980
g61
(dp1981
sg70
g1975
sg63
(lp1982
g56
(g57
g58
NtRp1983
(dp1984
g61
(dp1985
g69
I3
ssg70
g1979
sg63
(lp1986
g1396
asbasbasbasbasbasbasbasbasbasbasbag56
(g72
g58
NtRp1987
(dp1988
g61
(dp1989
sg70
g66
sg63
(lp1990
g56
(g77
g58
NtRp1991
(dp1992
g61
(dp1993
g81
g82
ssg70
g1987
sg63
(lp1994
S'is_https'
p1995
asbag56
(g77
g58
NtRp1996
(dp1997
g61
(dp1998
g88
g89
ssg70
g1987
sg63
(lp1999
S':'
asbag56
(g77
g58
NtRp2000
(dp2001
g61
(dp2002
sg70
g1987
sg63
(lp2003
g56
(g57
g58
NtRp2004
(dp2005
g61
(dp2006
g69
I5
ssg70
g2000
sg63
(lp2007
g99
asbasbasbag56
(g72
g58
NtRp2008
(dp2009
g61
(dp2010
sg70
g66
sg63
(lp2011
g56
(g77
g58
NtRp2012
(dp2013
g61
(dp2014
g81
g82
ssg70
g2008
sg63
(lp2015
S'is_local'
p2016
asbag56
(g77
g58
NtRp2017
(dp2018
g61
(dp2019
g88
g89
ssg70
g2008
sg63
(lp2020
S':'
asbag56
(g77
g58
NtRp2021
(dp2022
g61
(dp2023
sg70
g2008
sg63
(lp2024
g56
(g57
g58
NtRp2025
(dp2026
g61
(dp2027
g69
I5
ssg70
g2021
sg63
(lp2028
g1505
asbasbasbag56
(g72
g58
NtRp2029
(dp2030
g61
(dp2031
sg70
g66
sg63
(lp2032
g56
(g77
g58
NtRp2033
(dp2034
g61
(dp2035
g81
g82
ssg70
g2029
sg63
(lp2036
S'is_restful'
p2037
asbag56
(g77
g58
NtRp2038
(dp2039
g61
(dp2040
g88
g89
ssg70
g2029
sg63
(lp2041
S':'
asbag56
(g77
g58
NtRp2042
(dp2043
g61
(dp2044
sg70
g2029
sg63
(lp2045
g56
(g57
g58
NtRp2046
(dp2047
g61
(dp2048
g69
I5
ssg70
g2042
sg63
(lp2049
g99
asbasbasbag56
(g72
g58
NtRp2050
(dp2051
g61
(dp2052
sg70
g66
sg63
(lp2053
g56
(g77
g58
NtRp2054
(dp2055
g61
(dp2056
g81
g82
ssg70
g2050
sg63
(lp2057
S'now'
p2058
asbag56
(g77
g58
NtRp2059
(dp2060
g61
(dp2061
g88
g89
ssg70
g2050
sg63
(lp2062
S':'
asbag56
(g77
g58
NtRp2063
(dp2064
g61
(dp2065
sg70
g2050
sg63
(lp2066
g56
(g57
g58
NtRp2067
(dp2068
g61
(dp2069
g69
I5
ssg70
g2063
sg63
(lp2070
S'datetime.datetime(2012, 1, 16, 11, 5, 58, 545033)'
p2071
asbasbasbag56
(g72
g58
NtRp2072
(dp2073
g61
(dp2074
sg70
g66
sg63
(lp2075
g56
(g77
g58
NtRp2076
(dp2077
g61
(dp2078
g81
g82
ssg70
g2072
sg63
(lp2079
S'post_vars'
p2080
asbag56
(g77
g58
NtRp2081
(dp2082
g61
(dp2083
g88
g89
ssg70
g2072
sg63
(lp2084
S':'
asbag56
(g77
g58
NtRp2085
(dp2086
g61
(dp2087
sg70
g2072
sg63
(lp2088
g56
(g57
g58
NtRp2089
(dp2090
g61
(dp2091
g69
I5
ssg70
g2085
sg63
(lp2092
g56
(g65
g58
NtRp2093
(dp2094
g61
(dp2095
g69
I4
ssg70
Nsg63
(lp2096
sbasbasbasbag56
(g72
g58
NtRp2097
(dp2098
g61
(dp2099
sg70
g66
sg63
(lp2100
g56
(g77
g58
NtRp2101
(dp2102
g61
(dp2103
g81
g82
ssg70
g2097
sg63
(lp2104
S'raw_args'
p2105
asbag56
(g77
g58
NtRp2106
(dp2107
g61
(dp2108
g88
g89
ssg70
g2097
sg63
(lp2109
S':'
asbag56
(g77
g58
NtRp2110
(dp2111
g61
(dp2112
sg70
g2097
sg63
(lp2113
g56
(g57
g58
NtRp2114
(dp2115
g61
(dp2116
g69
I5
ssg70
g2110
sg63
(lp2117
S'9'
asbasbasbag56
(g72
g58
NtRp2118
(dp2119
g61
(dp2120
sg70
g66
sg63
(lp2121
g56
(g77
g58
NtRp2122
(dp2123
g61
(dp2124
g81
g82
ssg70
g2118
sg63
(lp2125
S'url'
p2126
asbag56
(g77
g58
NtRp2127
(dp2128
g61
(dp2129
g88
g89
ssg70
g2118
sg63
(lp2130
S':'
asbag56
(g77
g58
NtRp2131
(dp2132
g61
(dp2133
sg70
g2118
sg63
(lp2134
g56
(g57
g58
NtRp2135
(dp2136
g61
(dp2137
g69
I5
ssg70
g2131
sg63
(lp2138
S'/synopsis/information/publication/9'
p2139
asbasbasbag56
(g72
g58
NtRp2140
(dp2141
g61
(dp2142
sg70
g66
sg63
(lp2143
g56
(g77
g58
NtRp2144
(dp2145
g61
(dp2146
g81
g82
ssg70
g2140
sg63
(lp2147
S'utcnow'
p2148
asbag56
(g77
g58
NtRp2149
(dp2150
g61
(dp2151
g88
g89
ssg70
g2140
sg63
(lp2152
S':'
asbag56
(g77
g58
NtRp2153
(dp2154
g61
(dp2155
sg70
g2140
sg63
(lp2156
g56
(g57
g58
NtRp2157
(dp2158
g61
(dp2159
g69
I5
ssg70
g2153
sg63
(lp2160
S'datetime.datetime(2012, 1, 16, 13, 5, 58, 545121)'
p2161
asbasbasbag56
(g72
g58
NtRp2162
(dp2163
g61
(dp2164
sg70
g66
sg63
(lp2165
g56
(g77
g58
NtRp2166
(dp2167
g61
(dp2168
g81
g82
ssg70
g2162
sg63
(lp2169
S'uuid'
p2170
asbag56
(g77
g58
NtRp2171
(dp2172
g61
(dp2173
g88
g89
ssg70
g2162
sg63
(lp2174
S':'
asbag56
(g77
g58
NtRp2175
(dp2176
g61
(dp2177
sg70
g2162
sg63
(lp2178
g56
(g57
g58
NtRp2179
(dp2180
g61
(dp2181
g69
I5
ssg70
g2175
sg63
(lp2182
S'synopsis/127.0.0.1.2012-01-16.11-05-58.ce8bc260-b91f-457a-a790-6083dbd49529'
p2183
asbasbasbag56
(g72
g58
NtRp2184
(dp2185
g61
(dp2186
sg70
g66
sg63
(lp2187
g56
(g77
g58
NtRp2188
(dp2189
g61
(dp2190
g81
g82
ssg70
g2184
sg63
(lp2191
S'vars'
p2192
asbag56
(g77
g58
NtRp2193
(dp2194
g61
(dp2195
g88
g89
ssg70
g2184
sg63
(lp2196
S':'
asbag56
(g77
g58
NtRp2197
(dp2198
g61
(dp2199
sg70
g2184
sg63
(lp2200
g56
(g57
g58
NtRp2201
(dp2202
g61
(dp2203
g69
I5
ssg70
g2197
sg63
(lp2204
g56
(g65
g58
NtRp2205
(dp2206
g61
(dp2207
g69
I4
ssg70
Nsg63
(lp2208
sbasbasbasbag56
(g72
g58
NtRp2209
(dp2210
g61
(dp2211
sg70
g66
sg63
(lp2212
g56
(g77
g58
NtRp2213
(dp2214
g61
(dp2215
g81
g82
ssg70
g2209
sg63
(lp2216
S'wsgi'
p2217
asbag56
(g77
g58
NtRp2218
(dp2219
g61
(dp2220
g88
g89
ssg70
g2209
sg63
(lp2221
S':'
asbag56
(g77
g58
NtRp2222
(dp2223
g61
(dp2224
sg70
g2209
sg63
(lp2225
g56
(g57
g58
NtRp2226
(dp2227
g61
(dp2228
g69
I5
ssg70
g2222
sg63
(lp2229
g56
(g65
g58
NtRp2230
(dp2231
g61
(dp2232
g69
I4
ssg70
Nsg63
(lp2233
g56
(g72
g58
NtRp2234
(dp2235
g61
(dp2236
sg70
g2230
sg63
(lp2237
g56
(g77
g58
NtRp2238
(dp2239
g61
(dp2240
g81
g82
ssg70
g2234
sg63
(lp2241
S'environ'
p2242
asbag56
(g77
g58
NtRp2243
(dp2244
g61
(dp2245
g88
g89
ssg70
g2234
sg63
(lp2246
S':'
asbag56
(g77
g58
NtRp2247
(dp2248
g61
(dp2249
sg70
g2234
sg63
(lp2250
g56
(g57
g58
NtRp2251
(dp2252
g61
(dp2253
g69
I4
ssg70
g2247
sg63
(lp2254
g56
(g65
g58
NtRp2255
(dp2256
g61
(dp2257
g69
I3
ssg70
Nsg63
(lp2258
g56
(g72
g58
NtRp2259
(dp2260
g61
(dp2261
sg70
g2255
sg63
(lp2262
g56
(g77
g58
NtRp2263
(dp2264
g61
(dp2265
g81
g82
ssg70
g2259
sg63
(lp2266
S'HTTP_ACCEPT'
p2267
asbag56
(g77
g58
NtRp2268
(dp2269
g61
(dp2270
g88
g89
ssg70
g2259
sg63
(lp2271
S':'
asbag56
(g77
g58
NtRp2272
(dp2273
g61
(dp2274
sg70
g2259
sg63
(lp2275
g56
(g57
g58
NtRp2276
(dp2277
g61
(dp2278
g69
I3
ssg70
g2272
sg63
(lp2279
g829
asbasbasbag56
(g72
g58
NtRp2280
(dp2281
g61
(dp2282
sg70
g2255
sg63
(lp2283
g56
(g77
g58
NtRp2284
(dp2285
g61
(dp2286
g81
g82
ssg70
g2280
sg63
(lp2287
S'HTTP_ACCEPT_CHARSET'
p2288
asbag56
(g77
g58
NtRp2289
(dp2290
g61
(dp2291
g88
g89
ssg70
g2280
sg63
(lp2292
S':'
asbag56
(g77
g58
NtRp2293
(dp2294
g61
(dp2295
sg70
g2280
sg63
(lp2296
g56
(g57
g58
NtRp2297
(dp2298
g61
(dp2299
g69
I3
ssg70
g2293
sg63
(lp2300
g851
asbasbasbag56
(g72
g58
NtRp2301
(dp2302
g61
(dp2303
sg70
g2255
sg63
(lp2304
g56
(g77
g58
NtRp2305
(dp2306
g61
(dp2307
g81
g82
ssg70
g2301
sg63
(lp2308
S'HTTP_ACCEPT_ENCODING'
p2309
asbag56
(g77
g58
NtRp2310
(dp2311
g61
(dp2312
g88
g89
ssg70
g2301
sg63
(lp2313
S':'
asbag56
(g77
g58
NtRp2314
(dp2315
g61
(dp2316
sg70
g2301
sg63
(lp2317
g56
(g57
g58
NtRp2318
(dp2319
g61
(dp2320
g69
I3
ssg70
g2314
sg63
(lp2321
g873
asbasbasbag56
(g72
g58
NtRp2322
(dp2323
g61
(dp2324
sg70
g2255
sg63
(lp2325
g56
(g77
g58
NtRp2326
(dp2327
g61
(dp2328
g81
g82
ssg70
g2322
sg63
(lp2329
S'HTTP_ACCEPT_LANGUAGE'
p2330
asbag56
(g77
g58
NtRp2331
(dp2332
g61
(dp2333
g88
g89
ssg70
g2322
sg63
(lp2334
S':'
asbag56
(g77
g58
NtRp2335
(dp2336
g61
(dp2337
sg70
g2322
sg63
(lp2338
g56
(g57
g58
NtRp2339
(dp2340
g61
(dp2341
g69
I3
ssg70
g2335
sg63
(lp2342
g895
asbasbasbag56
(g72
g58
NtRp2343
(dp2344
g61
(dp2345
sg70
g2255
sg63
(lp2346
g56
(g77
g58
NtRp2347
(dp2348
g61
(dp2349
g81
g82
ssg70
g2343
sg63
(lp2350
S'HTTP_CACHE_CONTROL'
p2351
asbag56
(g77
g58
NtRp2352
(dp2353
g61
(dp2354
g88
g89
ssg70
g2343
sg63
(lp2355
S':'
asbag56
(g77
g58
NtRp2356
(dp2357
g61
(dp2358
sg70
g2343
sg63
(lp2359
g56
(g57
g58
NtRp2360
(dp2361
g61
(dp2362
g69
I3
ssg70
g2356
sg63
(lp2363
g917
asbasbasbag56
(g72
g58
NtRp2364
(dp2365
g61
(dp2366
sg70
g2255
sg63
(lp2367
g56
(g77
g58
NtRp2368
(dp2369
g61
(dp2370
g81
g82
ssg70
g2364
sg63
(lp2371
S'HTTP_CONNECTION'
p2372
asbag56
(g77
g58
NtRp2373
(dp2374
g61
(dp2375
g88
g89
ssg70
g2364
sg63
(lp2376
S':'
asbag56
(g77
g58
NtRp2377
(dp2378
g61
(dp2379
sg70
g2364
sg63
(lp2380
g56
(g57
g58
NtRp2381
(dp2382
g61
(dp2383
g69
I3
ssg70
g2377
sg63
(lp2384
g939
asbasbasbag56
(g72
g58
NtRp2385
(dp2386
g61
(dp2387
sg70
g2255
sg63
(lp2388
g56
(g77
g58
NtRp2389
(dp2390
g61
(dp2391
g81
g82
ssg70
g2385
sg63
(lp2392
S'HTTP_COOKIE'
p2393
asbag56
(g77
g58
NtRp2394
(dp2395
g61
(dp2396
g88
g89
ssg70
g2385
sg63
(lp2397
S':'
asbag56
(g77
g58
NtRp2398
(dp2399
g61
(dp2400
sg70
g2385
sg63
(lp2401
g56
(g57
g58
NtRp2402
(dp2403
g61
(dp2404
g69
I3
ssg70
g2398
sg63
(lp2405
g961
asbasbasbag56
(g72
g58
NtRp2406
(dp2407
g61
(dp2408
sg70
g2255
sg63
(lp2409
g56
(g77
g58
NtRp2410
(dp2411
g61
(dp2412
g81
g82
ssg70
g2406
sg63
(lp2413
S'HTTP_HOST'
p2414
asbag56
(g77
g58
NtRp2415
(dp2416
g61
(dp2417
g88
g89
ssg70
g2406
sg63
(lp2418
S':'
asbag56
(g77
g58
NtRp2419
(dp2420
g61
(dp2421
sg70
g2406
sg63
(lp2422
g56
(g57
g58
NtRp2423
(dp2424
g61
(dp2425
g69
I3
ssg70
g2419
sg63
(lp2426
g983
asbasbasbag56
(g72
g58
NtRp2427
(dp2428
g61
(dp2429
sg70
g2255
sg63
(lp2430
g56
(g77
g58
NtRp2431
(dp2432
g61
(dp2433
g81
g82
ssg70
g2427
sg63
(lp2434
S'HTTP_REFERER'
p2435
asbag56
(g77
g58
NtRp2436
(dp2437
g61
(dp2438
g88
g89
ssg70
g2427
sg63
(lp2439
S':'
asbag56
(g77
g58
NtRp2440
(dp2441
g61
(dp2442
sg70
g2427
sg63
(lp2443
g56
(g57
g58
NtRp2444
(dp2445
g61
(dp2446
g69
I3
ssg70
g2440
sg63
(lp2447
g1005
asbasbasbag56
(g72
g58
NtRp2448
(dp2449
g61
(dp2450
sg70
g2255
sg63
(lp2451
g56
(g77
g58
NtRp2452
(dp2453
g61
(dp2454
g81
g82
ssg70
g2448
sg63
(lp2455
S'HTTP_USER_AGENT'
p2456
asbag56
(g77
g58
NtRp2457
(dp2458
g61
(dp2459
g88
g89
ssg70
g2448
sg63
(lp2460
S':'
asbag56
(g77
g58
NtRp2461
(dp2462
g61
(dp2463
sg70
g2448
sg63
(lp2464
g56
(g57
g58
NtRp2465
(dp2466
g61
(dp2467
g69
I3
ssg70
g2461
sg63
(lp2468
g1027
asbasbasbag56
(g72
g58
NtRp2469
(dp2470
g61
(dp2471
sg70
g2255
sg63
(lp2472
g56
(g77
g58
NtRp2473
(dp2474
g61
(dp2475
g81
g82
ssg70
g2469
sg63
(lp2476
S'PATH_INFO'
p2477
asbag56
(g77
g58
NtRp2478
(dp2479
g61
(dp2480
g88
g89
ssg70
g2469
sg63
(lp2481
S':'
asbag56
(g77
g58
NtRp2482
(dp2483
g61
(dp2484
sg70
g2469
sg63
(lp2485
g56
(g57
g58
NtRp2486
(dp2487
g61
(dp2488
g69
I3
ssg70
g2482
sg63
(lp2489
g1070
asbasbasbag56
(g72
g58
NtRp2490
(dp2491
g61
(dp2492
sg70
g2255
sg63
(lp2493
g56
(g77
g58
NtRp2494
(dp2495
g61
(dp2496
g81
g82
ssg70
g2490
sg63
(lp2497
S'QUERY_STRING'
p2498
asbag56
(g77
g58
NtRp2499
(dp2500
g61
(dp2501
g88
g89
ssg70
g2490
sg63
(lp2502
S':'
asbag56
(g77
g58
NtRp2503
(dp2504
g61
(dp2505
sg70
g2490
sg63
(lp2506
g56
(g57
g58
NtRp2507
(dp2508
g61
(dp2509
g69
I3
ssg70
g2503
sg63
(lp2510
S''
asbasbasbag56
(g72
g58
NtRp2511
(dp2512
g61
(dp2513
sg70
g2255
sg63
(lp2514
g56
(g77
g58
NtRp2515
(dp2516
g61
(dp2517
g81
g82
ssg70
g2511
sg63
(lp2518
S'REMOTE_ADDR'
p2519
asbag56
(g77
g58
NtRp2520
(dp2521
g61
(dp2522
g88
g89
ssg70
g2511
sg63
(lp2523
S':'
asbag56
(g77
g58
NtRp2524
(dp2525
g61
(dp2526
sg70
g2511
sg63
(lp2527
g56
(g57
g58
NtRp2528
(dp2529
g61
(dp2530
g69
I3
ssg70
g2524
sg63
(lp2531
g201
asbasbasbag56
(g72
g58
NtRp2532
(dp2533
g61
(dp2534
sg70
g2255
sg63
(lp2535
g56
(g77
g58
NtRp2536
(dp2537
g61
(dp2538
g81
g82
ssg70
g2532
sg63
(lp2539
S'REMOTE_PORT'
p2540
asbag56
(g77
g58
NtRp2541
(dp2542
g61
(dp2543
g88
g89
ssg70
g2532
sg63
(lp2544
S':'
asbag56
(g77
g58
NtRp2545
(dp2546
g61
(dp2547
sg70
g2532
sg63
(lp2548
g56
(g57
g58
NtRp2549
(dp2550
g61
(dp2551
g69
I3
ssg70
g2545
sg63
(lp2552
g1134
asbasbasbag56
(g72
g58
NtRp2553
(dp2554
g61
(dp2555
sg70
g2255
sg63
(lp2556
g56
(g77
g58
NtRp2557
(dp2558
g61
(dp2559
g81
g82
ssg70
g2553
sg63
(lp2560
S'REQUEST_METHOD'
p2561
asbag56
(g77
g58
NtRp2562
(dp2563
g61
(dp2564
g88
g89
ssg70
g2553
sg63
(lp2565
S':'
asbag56
(g77
g58
NtRp2566
(dp2567
g61
(dp2568
sg70
g2553
sg63
(lp2569
g56
(g57
g58
NtRp2570
(dp2571
g61
(dp2572
g69
I3
ssg70
g2566
sg63
(lp2573
g1156
asbasbasbag56
(g72
g58
NtRp2574
(dp2575
g61
(dp2576
sg70
g2255
sg63
(lp2577
g56
(g77
g58
NtRp2578
(dp2579
g61
(dp2580
g81
g82
ssg70
g2574
sg63
(lp2581
S'SCRIPT_NAME'
p2582
asbag56
(g77
g58
NtRp2583
(dp2584
g61
(dp2585
g88
g89
ssg70
g2574
sg63
(lp2586
S':'
asbag56
(g77
g58
NtRp2587
(dp2588
g61
(dp2589
sg70
g2574
sg63
(lp2590
g56
(g57
g58
NtRp2591
(dp2592
g61
(dp2593
g69
I3
ssg70
g2587
sg63
(lp2594
S''
asbasbasbag56
(g72
g58
NtRp2595
(dp2596
g61
(dp2597
sg70
g2255
sg63
(lp2598
g56
(g77
g58
NtRp2599
(dp2600
g61
(dp2601
g81
g82
ssg70
g2595
sg63
(lp2602
S'SERVER_NAME'
p2603
asbag56
(g77
g58
NtRp2604
(dp2605
g61
(dp2606
g88
g89
ssg70
g2595
sg63
(lp2607
S':'
asbag56
(g77
g58
NtRp2608
(dp2609
g61
(dp2610
sg70
g2595
sg63
(lp2611
g56
(g57
g58
NtRp2612
(dp2613
g61
(dp2614
g69
I3
ssg70
g2608
sg63
(lp2615
g1199
asbasbasbag56
(g72
g58
NtRp2616
(dp2617
g61
(dp2618
sg70
g2255
sg63
(lp2619
g56
(g77
g58
NtRp2620
(dp2621
g61
(dp2622
g81
g82
ssg70
g2616
sg63
(lp2623
S'SERVER_PORT'
p2624
asbag56
(g77
g58
NtRp2625
(dp2626
g61
(dp2627
g88
g89
ssg70
g2616
sg63
(lp2628
S':'
asbag56
(g77
g58
NtRp2629
(dp2630
g61
(dp2631
sg70
g2616
sg63
(lp2632
g56
(g57
g58
NtRp2633
(dp2634
g61
(dp2635
g69
I3
ssg70
g2629
sg63
(lp2636
g1221
asbasbasbag56
(g72
g58
NtRp2637
(dp2638
g61
(dp2639
sg70
g2255
sg63
(lp2640
g56
(g77
g58
NtRp2641
(dp2642
g61
(dp2643
g81
g82
ssg70
g2637
sg63
(lp2644
S'SERVER_PROTOCOL'
p2645
asbag56
(g77
g58
NtRp2646
(dp2647
g61
(dp2648
g88
g89
ssg70
g2637
sg63
(lp2649
S':'
asbag56
(g77
g58
NtRp2650
(dp2651
g61
(dp2652
sg70
g2637
sg63
(lp2653
g56
(g57
g58
NtRp2654
(dp2655
g61
(dp2656
g69
I3
ssg70
g2650
sg63
(lp2657
g1243
asbasbasbag56
(g72
g58
NtRp2658
(dp2659
g61
(dp2660
sg70
g2255
sg63
(lp2661
g56
(g77
g58
NtRp2662
(dp2663
g61
(dp2664
g81
g82
ssg70
g2658
sg63
(lp2665
S'SERVER_SOFTWARE'
p2666
asbag56
(g77
g58
NtRp2667
(dp2668
g61
(dp2669
g88
g89
ssg70
g2658
sg63
(lp2670
S':'
asbag56
(g77
g58
NtRp2671
(dp2672
g61
(dp2673
sg70
g2658
sg63
(lp2674
g56
(g57
g58
NtRp2675
(dp2676
g61
(dp2677
g69
I3
ssg70
g2671
sg63
(lp2678
g1265
asbasbasbag56
(g72
g58
NtRp2679
(dp2680
g61
(dp2681
sg70
g2255
sg63
(lp2682
g56
(g77
g58
NtRp2683
(dp2684
g61
(dp2685
g81
g82
ssg70
g2679
sg63
(lp2686
S'wsgi.errors'
p2687
asbag56
(g77
g58
NtRp2688
(dp2689
g61
(dp2690
g88
g89
ssg70
g2679
sg63
(lp2691
S':'
asbag56
(g77
g58
NtRp2692
(dp2693
g61
(dp2694
sg70
g2679
sg63
(lp2695
g56
(g57
g58
NtRp2696
(dp2697
g61
(dp2698
g69
I3
ssg70
g2692
sg63
(lp2699
S"<open file '<stderr>', mode 'w' at 0x7f041f2b1270>"
p2700
asbasbasbag56
(g72
g58
NtRp2701
(dp2702
g61
(dp2703
sg70
g2255
sg63
(lp2704
g56
(g77
g58
NtRp2705
(dp2706
g61
(dp2707
g81
g82
ssg70
g2701
sg63
(lp2708
S'wsgi.file_wrapper'
p2709
asbag56
(g77
g58
NtRp2710
(dp2711
g61
(dp2712
g88
g89
ssg70
g2701
sg63
(lp2713
S':'
asbag56
(g77
g58
NtRp2714
(dp2715
g61
(dp2716
sg70
g2701
sg63
(lp2717
g56
(g57
g58
NtRp2718
(dp2719
g61
(dp2720
g69
I3
ssg70
g2714
sg63
(lp2721
S'<class wsgiref.util.FileWrapper at 0x2144ef0>'
p2722
asbasbasbag56
(g72
g58
NtRp2723
(dp2724
g61
(dp2725
sg70
g2255
sg63
(lp2726
g56
(g77
g58
NtRp2727
(dp2728
g61
(dp2729
g81
g82
ssg70
g2723
sg63
(lp2730
S'wsgi.input'
p2731
asbag56
(g77
g58
NtRp2732
(dp2733
g61
(dp2734
g88
g89
ssg70
g2723
sg63
(lp2735
S':'
asbag56
(g77
g58
NtRp2736
(dp2737
g61
(dp2738
sg70
g2723
sg63
(lp2739
g56
(g57
g58
NtRp2740
(dp2741
g61
(dp2742
g69
I3
ssg70
g2736
sg63
(lp2743
S'<cStringIO.StringO object at 0x28887a0>'
p2744
asbasbasbag56
(g72
g58
NtRp2745
(dp2746
g61
(dp2747
sg70
g2255
sg63
(lp2748
g56
(g77
g58
NtRp2749
(dp2750
g61
(dp2751
g81
g82
ssg70
g2745
sg63
(lp2752
S'wsgi.multiprocess'
p2753
asbag56
(g77
g58
NtRp2754
(dp2755
g61
(dp2756
g88
g89
ssg70
g2745
sg63
(lp2757
S':'
asbag56
(g77
g58
NtRp2758
(dp2759
g61
(dp2760
sg70
g2745
sg63
(lp2761
g56
(g57
g58
NtRp2762
(dp2763
g61
(dp2764
g69
I3
ssg70
g2758
sg63
(lp2765
g99
asbasbasbag56
(g72
g58
NtRp2766
(dp2767
g61
(dp2768
sg70
g2255
sg63
(lp2769
g56
(g77
g58
NtRp2770
(dp2771
g61
(dp2772
g81
g82
ssg70
g2766
sg63
(lp2773
S'wsgi.multithread'
p2774
asbag56
(g77
g58
NtRp2775
(dp2776
g61
(dp2777
g88
g89
ssg70
g2766
sg63
(lp2778
S':'
asbag56
(g77
g58
NtRp2779
(dp2780
g61
(dp2781
sg70
g2766
sg63
(lp2782
g56
(g57
g58
NtRp2783
(dp2784
g61
(dp2785
g69
I3
ssg70
g2779
sg63
(lp2786
g1505
asbasbasbag56
(g72
g58
NtRp2787
(dp2788
g61
(dp2789
sg70
g2255
sg63
(lp2790
g56
(g77
g58
NtRp2791
(dp2792
g61
(dp2793
g81
g82
ssg70
g2787
sg63
(lp2794
S'wsgi.run_once'
p2795
asbag56
(g77
g58
NtRp2796
(dp2797
g61
(dp2798
g88
g89
ssg70
g2787
sg63
(lp2799
S':'
asbag56
(g77
g58
NtRp2800
(dp2801
g61
(dp2802
sg70
g2787
sg63
(lp2803
g56
(g57
g58
NtRp2804
(dp2805
g61
(dp2806
g69
I3
ssg70
g2800
sg63
(lp2807
g99
asbasbasbag56
(g72
g58
NtRp2808
(dp2809
g61
(dp2810
sg70
g2255
sg63
(lp2811
g56
(g77
g58
NtRp2812
(dp2813
g61
(dp2814
g81
g82
ssg70
g2808
sg63
(lp2815
S'wsgi.url_scheme'
p2816
asbag56
(g77
g58
NtRp2817
(dp2818
g61
(dp2819
g88
g89
ssg70
g2808
sg63
(lp2820
S':'
asbag56
(g77
g58
NtRp2821
(dp2822
g61
(dp2823
sg70
g2808
sg63
(lp2824
g56
(g57
g58
NtRp2825
(dp2826
g61
(dp2827
g69
I3
ssg70
g2821
sg63
(lp2828
g1548
asbasbasbag56
(g72
g58
NtRp2829
(dp2830
g61
(dp2831
sg70
g2255
sg63
(lp2832
g56
(g77
g58
NtRp2833
(dp2834
g61
(dp2835
g81
g82
ssg70
g2829
sg63
(lp2836
S'wsgi.version'
p2837
asbag56
(g77
g58
NtRp2838
(dp2839
g61
(dp2840
g88
g89
ssg70
g2829
sg63
(lp2841
S':'
asbag56
(g77
g58
NtRp2842
(dp2843
g61
(dp2844
sg70
g2829
sg63
(lp2845
g56
(g57
g58
NtRp2846
(dp2847
g61
(dp2848
g69
I3
ssg70
g2842
sg63
(lp2849
S'1'
asbasbasbasbasbasbasbasbasbasbasbasbasbsS'frames'
p2850
(lp2851
(dp2852
S'file'
p2853
S'/home/kaique/Projects/web2py/gluon/restricted.py'
p2854
sS'dump'
p2855
(dp2856
S'environment'
p2857
S"{'A': <class 'gluon.html.A'>, 'Auth': <class 'gluon.tools.Auth'>, 'B': <class 'gluon.html.B'>, 'BEAUTIFY': <class 'gluon.html.BEAUTIFY'>, 'BODY': <class 'gluon.html.BODY'>, 'BR': <class 'gluon.html.BR'>, 'BUTTON': <class 'gluon.html.BUTTON'>, 'CAT': <class 'gluon.html.CAT'>, 'CENTER': <class 'gluon.html.CENTER'>, 'CLEANUP': <class 'gluon.validators.CLEANUP'>, ...}"
p2858
sS'ccode'
p2859
S'<code object <module> at 0x7f041f21ccb0, file "/...psis/views/information/publication.html", line 1>'
p2860
ssS'lnum'
p2861
I194
sS'lines'
p2862
(dp2863
I192
S'        else:'
p2864
sI193
S'            ccode = compile2(code,layer)'
p2865
sI194
S'        exec ccode in environment'
p2866
sI195
S'    except HTTP:'
p2867
sI196
S'        raise'
p2868
sI197
S'    except Exception, error:'
p2869
sI198
S'        # XXX Show exception in Wing IDE if running in debugger'
p2870
sI189
S'    try:'
p2871
sI190
S'        if type(code) == types.CodeType:'
p2872
sI191
S'            ccode = code'
p2873
ssS'call'
p2874
S'(code=\'response.write(\\\'<!DOCTYPE html>\\\\n<html lang="\\\', ...nse.write(\\\'\\\\n  </body>\\\\n</html>\\\\n\\\', escape=False)\', environment={\'A\': <class \'gluon.html.A\'>, \'Auth\': <class \'gluon.tools.Auth\'>, \'B\': <class \'gluon.html.B\'>, \'BEAUTIFY\': <class \'gluon.html.BEAUTIFY\'>, \'BODY\': <class \'gluon.html.BODY\'>, \'BR\': <class \'gluon.html.BR\'>, \'BUTTON\': <class \'gluon.html.BUTTON\'>, \'CAT\': <class \'gluon.html.CAT\'>, \'CENTER\': <class \'gluon.html.CENTER\'>, \'CLEANUP\': <class \'gluon.validators.CLEANUP\'>, ...}, layer=\'/home/kaique/Projects/web2py/applications/synopsis/views/information/publication.html\')'
p2875
sS'func'
p2876
S'restricted'
p2877
sa(dp2878
g2853
S'/home/kaique/Projects/web2py/applications/synopsis/views/information/publication.html'
p2879
sg2855
(dp2880
sg2861
I106
sg2862
(dp2881
I97
S'    response.write(\'</h4>\\n\\t\\t\\t\\t<hr />\\n\\t\\t\\t</header>\\n\\t\\t\\t<div>\\t\\n\\t\\t\\t\\t<table style="border: 1px solid #ccc; margin: 10px 0 10px;">\\n\\t\\t\\t\\t\\t<thead>\\n\\t\\t\\t\\t\\t\\t<tr>\\n\\t\\t\\t\\t\\t\\t\\t\', escape=False)'
p2882
sI98
S'    for column in detail.column.select():'
p2883
sI99
S"        response.write('\\n\\t\\t\\t\\t\\t\\t\\t\\t<td>', escape=False)"
p2884
sI100
S"        response.write(A(column.title, _href=URL('new', args=['row', column.id])))"
p2885
sI101
S"        response.write('</td>\\n\\t\\t\\t\\t\\t\\t\\t', escape=False)"
p2886
sI102
S'        pass'
p2887
sI103
S"    response.write('\\t\\t\\t\\t\\t\\t\\t\\n\\t\\t\\t\\t\\t\\t</tr>\\n\\t\\t\\t\\t\\t</thead>\\n\\t\\t\\t\\t\\t<tbody>\\n\\t\\t\\t\\t\\t\\t', escape=False)"
p2888
sI104
S'    columns = [column for column in detail.column.select()]'
p2889
sI105
S"    response.write('\\n\\t\\t\\t\\t\\t\\t', escape=False)"
p2890
sI106
S'    rows = [row for row in columns.row.select()]'
p2891
sI107
S"    response.write('\\n\\t\\t\\t\\t\\t\\t', escape=False)"
p2892
sI108
S'    lines = {}'
p2893
sI109
S"    response.write('\\n\\t\\t\\t\\t\\t\\t\\n\\t\\t\\t\\t\\t\\t', escape=False)"
p2894
sI110
S'    lines_n = detail.column.count() / columns.row.count()'
p2895
sI111
S"    response.write('\\n\\t\\t\\t\\t\\t\\t', escape=False)"
p2896
sI112
S'    lines_n = (lines_n == 0) if 1 else lines_n'
p2897
sI113
S"    response.write('\\n\\t\\t\\t\\t\\t\\t\\n\\t\\t\\t\\t\\t\\t', escape=False)"
p2898
sI114
S'    response.write(lines_n)'
p2899
sI115
S"    response.write('\\n\\t\\t\\t\\t\\t\\t\\n\\t\\t\\t\\t\\t\\t', escape=False)"
p2900
sI116
S'    for column in columns:'
p2901
ssg2874
S'()'
p2902
sg2876
S'<module>'
p2903
sasS'pyver'
p2904
S'Python 2.7.2+: /usr/bin/python'
p2905
sS'session'
p2906
g56
(g57
g58
NtRp2907
(dp2908
g61
(dp2909
sg63
(lp2910
g56
(g65
g58
NtRp2911
(dp2912
g61
(dp2913
g69
I5
ssg70
Nsg63
(lp2914
g56
(g72
g58
NtRp2915
(dp2916
g61
(dp2917
sg70
g2911
sg63
(lp2918
g56
(g77
g58
NtRp2919
(dp2920
g61
(dp2921
g81
g82
ssg70
g2915
sg63
(lp2922
S'auth'
p2923
asbag56
(g77
g58
NtRp2924
(dp2925
g61
(dp2926
g88
g89
ssg70
g2915
sg63
(lp2927
S':'
asbag56
(g77
g58
NtRp2928
(dp2929
g61
(dp2930
sg70
g2915
sg63
(lp2931
g56
(g57
g58
NtRp2932
(dp2933
g61
(dp2934
g69
I5
ssg70
g2928
sg63
(lp2935
g56
(g65
g58
NtRp2936
(dp2937
g61
(dp2938
g69
I4
ssg70
Nsg63
(lp2939
g56
(g72
g58
NtRp2940
(dp2941
g61
(dp2942
sg70
g2936
sg63
(lp2943
g56
(g77
g58
NtRp2944
(dp2945
g61
(dp2946
g81
g82
ssg70
g2940
sg63
(lp2947
S'expiration'
p2948
asbag56
(g77
g58
NtRp2949
(dp2950
g61
(dp2951
g88
g89
ssg70
g2940
sg63
(lp2952
S':'
asbag56
(g77
g58
NtRp2953
(dp2954
g61
(dp2955
sg70
g2940
sg63
(lp2956
g56
(g57
g58
NtRp2957
(dp2958
g61
(dp2959
g69
I4
ssg70
g2953
sg63
(lp2960
S'2592000'
p2961
asbasbasbag56
(g72
g58
NtRp2962
(dp2963
g61
(dp2964
sg70
g2936
sg63
(lp2965
g56
(g77
g58
NtRp2966
(dp2967
g61
(dp2968
g81
g82
ssg70
g2962
sg63
(lp2969
S'hmac_key'
p2970
asbag56
(g77
g58
NtRp2971
(dp2972
g61
(dp2973
g88
g89
ssg70
g2962
sg63
(lp2974
S':'
asbag56
(g77
g58
NtRp2975
(dp2976
g61
(dp2977
sg70
g2962
sg63
(lp2978
g56
(g57
g58
NtRp2979
(dp2980
g61
(dp2981
g69
I4
ssg70
g2975
sg63
(lp2982
S'd467a3d7-fff5-4961-86db-279a0d896d41'
p2983
asbasbasbag56
(g72
g58
NtRp2984
(dp2985
g61
(dp2986
sg70
g2936
sg63
(lp2987
g56
(g77
g58
NtRp2988
(dp2989
g61
(dp2990
g81
g82
ssg70
g2984
sg63
(lp2991
S'last_visit'
p2992
asbag56
(g77
g58
NtRp2993
(dp2994
g61
(dp2995
g88
g89
ssg70
g2984
sg63
(lp2996
S':'
asbag56
(g77
g58
NtRp2997
(dp2998
g61
(dp2999
sg70
g2984
sg63
(lp3000
g56
(g57
g58
NtRp3001
(dp3002
g61
(dp3003
g69
I4
ssg70
g2997
sg63
(lp3004
S'datetime.datetime(2012, 1, 16, 8, 54, 37, 459818)'
p3005
asbasbasbag56
(g72
g58
NtRp3006
(dp3007
g61
(dp3008
sg70
g2936
sg63
(lp3009
g56
(g77
g58
NtRp3010
(dp3011
g61
(dp3012
g81
g82
ssg70
g3006
sg63
(lp3013
S'remember'
p3014
asbag56
(g77
g58
NtRp3015
(dp3016
g61
(dp3017
g88
g89
ssg70
g3006
sg63
(lp3018
S':'
asbag56
(g77
g58
NtRp3019
(dp3020
g61
(dp3021
sg70
g3006
sg63
(lp3022
g56
(g57
g58
NtRp3023
(dp3024
g61
(dp3025
g69
I4
ssg70
g3019
sg63
(lp3026
g99
asbasbasbag56
(g72
g58
NtRp3027
(dp3028
g61
(dp3029
sg70
g2936
sg63
(lp3030
g56
(g77
g58
NtRp3031
(dp3032
g61
(dp3033
g81
g82
ssg70
g3027
sg63
(lp3034
S'user'
p3035
asbag56
(g77
g58
NtRp3036
(dp3037
g61
(dp3038
g88
g89
ssg70
g3027
sg63
(lp3039
S':'
asbag56
(g77
g58
NtRp3040
(dp3041
g61
(dp3042
sg70
g3027
sg63
(lp3043
g56
(g57
g58
NtRp3044
(dp3045
g61
(dp3046
g69
I4
ssg70
g3040
sg63
(lp3047
g56
(g65
g58
NtRp3048
(dp3049
g61
(dp3050
g69
I3
ssg70
Nsg63
(lp3051
g56
(g72
g58
NtRp3052
(dp3053
g61
(dp3054
sg70
g3048
sg63
(lp3055
g56
(g77
g58
NtRp3056
(dp3057
g61
(dp3058
g81
g82
ssg70
g3052
sg63
(lp3059
S'email'
p3060
asbag56
(g77
g58
NtRp3061
(dp3062
g61
(dp3063
g88
g89
ssg70
g3052
sg63
(lp3064
S':'
asbag56
(g77
g58
NtRp3065
(dp3066
g61
(dp3067
sg70
g3052
sg63
(lp3068
g56
(g57
g58
NtRp3069
(dp3070
g61
(dp3071
g69
I3
ssg70
g3065
sg63
(lp3072
S'kaique.developer@gmail.com'
p3073
asbasbasbag56
(g72
g58
NtRp3074
(dp3075
g61
(dp3076
sg70
g3048
sg63
(lp3077
g56
(g77
g58
NtRp3078
(dp3079
g61
(dp3080
g81
g82
ssg70
g3074
sg63
(lp3081
S'first_name'
p3082
asbag56
(g77
g58
NtRp3083
(dp3084
g61
(dp3085
g88
g89
ssg70
g3074
sg63
(lp3086
S':'
asbag56
(g77
g58
NtRp3087
(dp3088
g61
(dp3089
sg70
g3074
sg63
(lp3090
g56
(g57
g58
NtRp3091
(dp3092
g61
(dp3093
g69
I3
ssg70
g3087
sg63
(lp3094
S'kaique'
p3095
asbasbasbag56
(g72
g58
NtRp3096
(dp3097
g61
(dp3098
sg70
g3048
sg63
(lp3099
g56
(g77
g58
NtRp3100
(dp3101
g61
(dp3102
g81
g82
ssg70
g3096
sg63
(lp3103
S'id'
p3104
asbag56
(g77
g58
NtRp3105
(dp3106
g61
(dp3107
g88
g89
ssg70
g3096
sg63
(lp3108
S':'
asbag56
(g77
g58
NtRp3109
(dp3110
g61
(dp3111
sg70
g3096
sg63
(lp3112
g56
(g57
g58
NtRp3113
(dp3114
g61
(dp3115
g69
I3
ssg70
g3109
sg63
(lp3116
S'1'
asbasbasbag56
(g72
g58
NtRp3117
(dp3118
g61
(dp3119
sg70
g3048
sg63
(lp3120
g56
(g77
g58
NtRp3121
(dp3122
g61
(dp3123
g81
g82
ssg70
g3117
sg63
(lp3124
S'last_name'
p3125
asbag56
(g77
g58
NtRp3126
(dp3127
g61
(dp3128
g88
g89
ssg70
g3117
sg63
(lp3129
S':'
asbag56
(g77
g58
NtRp3130
(dp3131
g61
(dp3132
sg70
g3117
sg63
(lp3133
g56
(g57
g58
NtRp3134
(dp3135
g61
(dp3136
g69
I3
ssg70
g3130
sg63
(lp3137
S'silva'
p3138
asbasbasbag56
(g72
g58
NtRp3139
(dp3140
g61
(dp3141
sg70
g3048
sg63
(lp3142
g56
(g77
g58
NtRp3143
(dp3144
g61
(dp3145
g81
g82
ssg70
g3139
sg63
(lp3146
S'password'
p3147
asbag56
(g77
g58
NtRp3148
(dp3149
g61
(dp3150
g88
g89
ssg70
g3139
sg63
(lp3151
S':'
asbag56
(g77
g58
NtRp3152
(dp3153
g61
(dp3154
sg70
g3139
sg63
(lp3155
g56
(g57
g58
NtRp3156
(dp3157
g61
(dp3158
g69
I3
ssg70
g3152
sg63
(lp3159
S'72c6a018d62d3fb47d95389e4a062cd2'
p3160
asbasbasbag56
(g72
g58
NtRp3161
(dp3162
g61
(dp3163
sg70
g3048
sg63
(lp3164
g56
(g77
g58
NtRp3165
(dp3166
g61
(dp3167
g81
g82
ssg70
g3161
sg63
(lp3168
S'registration_key'
p3169
asbag56
(g77
g58
NtRp3170
(dp3171
g61
(dp3172
g88
g89
ssg70
g3161
sg63
(lp3173
S':'
asbag56
(g77
g58
NtRp3174
(dp3175
g61
(dp3176
sg70
g3161
sg63
(lp3177
g56
(g57
g58
NtRp3178
(dp3179
g61
(dp3180
g69
I3
ssg70
g3174
sg63
(lp3181
S''
asbasbasbag56
(g72
g58
NtRp3182
(dp3183
g61
(dp3184
sg70
g3048
sg63
(lp3185
g56
(g77
g58
NtRp3186
(dp3187
g61
(dp3188
g81
g82
ssg70
g3182
sg63
(lp3189
S'reset_password_key'
p3190
asbag56
(g77
g58
NtRp3191
(dp3192
g61
(dp3193
g88
g89
ssg70
g3182
sg63
(lp3194
S':'
asbag56
(g77
g58
NtRp3195
(dp3196
g61
(dp3197
sg70
g3182
sg63
(lp3198
g56
(g57
g58
NtRp3199
(dp3200
g61
(dp3201
g69
I3
ssg70
g3195
sg63
(lp3202
S''
asbasbasbasbasbasbasbasbasbasbasbag56
(g72
g58
NtRp3203
(dp3204
g61
(dp3205
sg70
g2911
sg63
(lp3206
g56
(g77
g58
NtRp3207
(dp3208
g61
(dp3209
g81
g82
ssg70
g3203
sg63
(lp3210
S'back'
p3211
asbag56
(g77
g58
NtRp3212
(dp3213
g61
(dp3214
g88
g89
ssg70
g3203
sg63
(lp3215
S':'
asbag56
(g77
g58
NtRp3216
(dp3217
g61
(dp3218
sg70
g3203
sg63
(lp3219
g56
(g57
g58
NtRp3220
(dp3221
g61
(dp3222
g69
I5
ssg70
g3216
sg63
(lp3223
S'9'
asbasbasbag56
(g72
g58
NtRp3224
(dp3225
g61
(dp3226
sg70
g2911
sg63
(lp3227
g56
(g77
g58
NtRp3228
(dp3229
g61
(dp3230
g81
g82
ssg70
g3224
sg63
(lp3231
S'index'
p3232
asbag56
(g77
g58
NtRp3233
(dp3234
g61
(dp3235
g88
g89
ssg70
g3224
sg63
(lp3236
S':'
asbag56
(g77
g58
NtRp3237
(dp3238
g61
(dp3239
sg70
g3224
sg63
(lp3240
g56
(g57
g58
NtRp3241
(dp3242
g61
(dp3243
g69
I5
ssg70
g3237
sg63
(lp3244
S'1'
asbasbasbasbasbsS'etype'
p3245
S"<type 'exceptions.AttributeError'>"
p3246
sS'date'
p3247
S'Mon Jan 16 11:05:58 2012'
p3248
sS'response'
p3249
g56
(g57
g58
NtRp3250
(dp3251
g61
(dp3252
sg63
(lp3253
g56
(g65
g58
NtRp3254
(dp3255
g61
(dp3256
g69
I5
ssg70
Nsg63
(lp3257
g56
(g72
g58
NtRp3258
(dp3259
g61
(dp3260
sg70
g3254
sg63
(lp3261
g56
(g77
g58
NtRp3262
(dp3263
g61
(dp3264
g81
g82
ssg70
g3258
sg63
(lp3265
g166
asbag56
(g77
g58
NtRp3266
(dp3267
g61
(dp3268
g88
g89
ssg70
g3258
sg63
(lp3269
S':'
asbag56
(g77
g58
NtRp3270
(dp3271
g61
(dp3272
sg70
g3258
sg63
(lp3273
g56
(g57
g58
NtRp3274
(dp3275
g61
(dp3276
g69
I5
ssg70
g3270
sg63
(lp3277
S'<cStringIO.StringO object at 0x2888340>'
p3278
asbasbasbag56
(g72
g58
NtRp3279
(dp3280
g61
(dp3281
sg70
g3254
sg63
(lp3282
g56
(g77
g58
NtRp3283
(dp3284
g61
(dp3285
g81
g82
ssg70
g3279
sg63
(lp3286
g232
asbag56
(g77
g58
NtRp3287
(dp3288
g61
(dp3289
g88
g89
ssg70
g3279
sg63
(lp3290
S':'
asbag56
(g77
g58
NtRp3291
(dp3292
g61
(dp3293
sg70
g3279
sg63
(lp3294
g56
(g57
g58
NtRp3295
(dp3296
g61
(dp3297
g69
I5
ssg70
g3291
sg63
(lp3298
g56
(g65
g58
NtRp3299
(dp3300
g61
(dp3301
g69
I4
ssg70
Nsg63
(lp3302
g56
(g72
g58
NtRp3303
(dp3304
g61
(dp3305
sg70
g3299
sg63
(lp3306
g56
(g77
g58
NtRp3307
(dp3308
g61
(dp3309
g81
g82
ssg70
g3303
sg63
(lp3310
S'session_id_synopsis'
p3311
asbag56
(g77
g58
NtRp3312
(dp3313
g61
(dp3314
g88
g89
ssg70
g3303
sg63
(lp3315
S':'
asbag56
(g77
g58
NtRp3316
(dp3317
g61
(dp3318
sg70
g3303
sg63
(lp3319
g56
(g57
g58
NtRp3320
(dp3321
g61
(dp3322
g69
I4
ssg70
g3316
sg63
(lp3323
g56
(g65
g58
NtRp3324
(dp3325
g61
(dp3326
g69
I3
ssg70
Nsg63
(lp3327
g56
(g72
g58
NtRp3328
(dp3329
g61
(dp3330
sg70
g3324
sg63
(lp3331
g56
(g77
g58
NtRp3332
(dp3333
g61
(dp3334
g81
g82
ssg70
g3328
sg63
(lp3335
g282
asbag56
(g77
g58
NtRp3336
(dp3337
g61
(dp3338
g88
g89
ssg70
g3328
sg63
(lp3339
S':'
asbag56
(g77
g58
NtRp3340
(dp3341
g61
(dp3342
sg70
g3328
sg63
(lp3343
g56
(g57
g58
NtRp3344
(dp3345
g61
(dp3346
g69
I3
ssg70
g3340
sg63
(lp3347
S''
asbasbasbag56
(g72
g58
NtRp3348
(dp3349
g61
(dp3350
sg70
g3324
sg63
(lp3351
g56
(g77
g58
NtRp3352
(dp3353
g61
(dp3354
g81
g82
ssg70
g3348
sg63
(lp3355
g303
asbag56
(g77
g58
NtRp3356
(dp3357
g61
(dp3358
g88
g89
ssg70
g3348
sg63
(lp3359
S':'
asbag56
(g77
g58
NtRp3360
(dp3361
g61
(dp3362
sg70
g3348
sg63
(lp3363
g56
(g57
g58
NtRp3364
(dp3365
g61
(dp3366
g69
I3
ssg70
g3360
sg63
(lp3367
S''
asbasbasbag56
(g72
g58
NtRp3368
(dp3369
g61
(dp3370
sg70
g3324
sg63
(lp3371
g56
(g77
g58
NtRp3372
(dp3373
g61
(dp3374
g81
g82
ssg70
g3368
sg63
(lp3375
g324
asbag56
(g77
g58
NtRp3376
(dp3377
g61
(dp3378
g88
g89
ssg70
g3368
sg63
(lp3379
S':'
asbag56
(g77
g58
NtRp3380
(dp3381
g61
(dp3382
sg70
g3368
sg63
(lp3383
g56
(g57
g58
NtRp3384
(dp3385
g61
(dp3386
g69
I3
ssg70
g3380
sg63
(lp3387
S''
asbasbasbag56
(g72
g58
NtRp3388
(dp3389
g61
(dp3390
sg70
g3324
sg63
(lp3391
g56
(g77
g58
NtRp3392
(dp3393
g61
(dp3394
g81
g82
ssg70
g3388
sg63
(lp3395
g345
asbag56
(g77
g58
NtRp3396
(dp3397
g61
(dp3398
g88
g89
ssg70
g3388
sg63
(lp3399
S':'
asbag56
(g77
g58
NtRp3400
(dp3401
g61
(dp3402
sg70
g3388
sg63
(lp3403
g56
(g57
g58
NtRp3404
(dp3405
g61
(dp3406
g69
I3
ssg70
g3400
sg63
(lp3407
S''
asbasbasbag56
(g72
g58
NtRp3408
(dp3409
g61
(dp3410
sg70
g3324
sg63
(lp3411
g56
(g77
g58
NtRp3412
(dp3413
g61
(dp3414
g81
g82
ssg70
g3408
sg63
(lp3415
g366
asbag56
(g77
g58
NtRp3416
(dp3417
g61
(dp3418
g88
g89
ssg70
g3408
sg63
(lp3419
S':'
asbag56
(g77
g58
NtRp3420
(dp3421
g61
(dp3422
sg70
g3408
sg63
(lp3423
g56
(g57
g58
NtRp3424
(dp3425
g61
(dp3426
g69
I3
ssg70
g3420
sg63
(lp3427
S''
asbasbasbag56
(g72
g58
NtRp3428
(dp3429
g61
(dp3430
sg70
g3324
sg63
(lp3431
g56
(g77
g58
NtRp3432
(dp3433
g61
(dp3434
g81
g82
ssg70
g3428
sg63
(lp3435
g387
asbag56
(g77
g58
NtRp3436
(dp3437
g61
(dp3438
g88
g89
ssg70
g3428
sg63
(lp3439
S':'
asbag56
(g77
g58
NtRp3440
(dp3441
g61
(dp3442
sg70
g3428
sg63
(lp3443
g56
(g57
g58
NtRp3444
(dp3445
g61
(dp3446
g69
I3
ssg70
g3440
sg63
(lp3447
S'/'
asbasbasbag56
(g72
g58
NtRp3448
(dp3449
g61
(dp3450
sg70
g3324
sg63
(lp3451
g56
(g77
g58
NtRp3452
(dp3453
g61
(dp3454
g81
g82
ssg70
g3448
sg63
(lp3455
g408
asbag56
(g77
g58
NtRp3456
(dp3457
g61
(dp3458
g88
g89
ssg70
g3448
sg63
(lp3459
S':'
asbag56
(g77
g58
NtRp3460
(dp3461
g61
(dp3462
sg70
g3448
sg63
(lp3463
g56
(g57
g58
NtRp3464
(dp3465
g61
(dp3466
g69
I3
ssg70
g3460
sg63
(lp3467
S''
asbasbasbag56
(g72
g58
NtRp3468
(dp3469
g61
(dp3470
sg70
g3324
sg63
(lp3471
g56
(g77
g58
NtRp3472
(dp3473
g61
(dp3474
g81
g82
ssg70
g3468
sg63
(lp3475
g429
asbag56
(g77
g58
NtRp3476
(dp3477
g61
(dp3478
g88
g89
ssg70
g3468
sg63
(lp3479
S':'
asbag56
(g77
g58
NtRp3480
(dp3481
g61
(dp3482
sg70
g3468
sg63
(lp3483
g56
(g57
g58
NtRp3484
(dp3485
g61
(dp3486
g69
I3
ssg70
g3480
sg63
(lp3487
S''
asbasbasbasbasbasbasbasbasbasbasbag56
(g72
g58
NtRp3488
(dp3489
g61
(dp3490
sg70
g3254
sg63
(lp3491
g56
(g77
g58
NtRp3492
(dp3493
g61
(dp3494
g81
g82
ssg70
g3488
sg63
(lp3495
S'files'
p3496
asbag56
(g77
g58
NtRp3497
(dp3498
g61
(dp3499
g88
g89
ssg70
g3488
sg63
(lp3500
S':'
asbag56
(g77
g58
NtRp3501
(dp3502
g61
(dp3503
sg70
g3488
sg63
(lp3504
g56
(g57
g58
NtRp3505
(dp3506
g61
(dp3507
g69
I5
ssg70
g3501
sg63
(lp3508
g56
(g65
g58
NtRp3509
(dp3510
g61
(dp3511
g69
I4
ssg70
Nsg63
(lp3512
g56
(g72
g58
NtRp3513
(dp3514
g61
(dp3515
sg70
g3509
sg63
(lp3516
g56
(g77
g58
NtRp3517
(dp3518
g61
(dp3519
sg70
g3513
sg63
(lp3520
g56
(g57
g58
NtRp3521
(dp3522
g61
(dp3523
g69
I4
ssg70
g3517
sg63
(lp3524
S'/synopsis/static/js/jquery.js'
p3525
asbasbasbag56
(g72
g58
NtRp3526
(dp3527
g61
(dp3528
sg70
g3509
sg63
(lp3529
g56
(g77
g58
NtRp3530
(dp3531
g61
(dp3532
sg70
g3526
sg63
(lp3533
g56
(g57
g58
NtRp3534
(dp3535
g61
(dp3536
g69
I4
ssg70
g3530
sg63
(lp3537
S'/synopsis/static/css/anytime.css'
p3538
asbasbasbag56
(g72
g58
NtRp3539
(dp3540
g61
(dp3541
sg70
g3509
sg63
(lp3542
g56
(g77
g58
NtRp3543
(dp3544
g61
(dp3545
sg70
g3539
sg63
(lp3546
g56
(g57
g58
NtRp3547
(dp3548
g61
(dp3549
g69
I4
ssg70
g3543
sg63
(lp3550
S'/synopsis/static/js/anytime.js'
p3551
asbasbasbag56
(g72
g58
NtRp3552
(dp3553
g61
(dp3554
sg70
g3509
sg63
(lp3555
g56
(g77
g58
NtRp3556
(dp3557
g61
(dp3558
sg70
g3552
sg63
(lp3559
g56
(g57
g58
NtRp3560
(dp3561
g61
(dp3562
g69
I4
ssg70
g3556
sg63
(lp3563
S'/synopsis/static/css/base.css'
p3564
asbasbasbag56
(g72
g58
NtRp3565
(dp3566
g61
(dp3567
sg70
g3509
sg63
(lp3568
g56
(g77
g58
NtRp3569
(dp3570
g61
(dp3571
sg70
g3565
sg63
(lp3572
g56
(g57
g58
NtRp3573
(dp3574
g61
(dp3575
g69
I4
ssg70
g3569
sg63
(lp3576
S'/synopsis/static/css/superfish.css'
p3577
asbasbasbag56
(g72
g58
NtRp3578
(dp3579
g61
(dp3580
sg70
g3509
sg63
(lp3581
g56
(g77
g58
NtRp3582
(dp3583
g61
(dp3584
sg70
g3578
sg63
(lp3585
g56
(g57
g58
NtRp3586
(dp3587
g61
(dp3588
g69
I4
ssg70
g3582
sg63
(lp3589
S'/synopsis/static/js/superfish.js'
p3590
asbasbasbasbasbasbasbag56
(g72
g58
NtRp3591
(dp3592
g61
(dp3593
sg70
g3254
sg63
(lp3594
g56
(g77
g58
NtRp3595
(dp3596
g61
(dp3597
g81
g82
ssg70
g3591
sg63
(lp3598
S'flash'
p3599
asbag56
(g77
g58
NtRp3600
(dp3601
g61
(dp3602
g88
g89
ssg70
g3591
sg63
(lp3603
S':'
asbag56
(g77
g58
NtRp3604
(dp3605
g61
(dp3606
sg70
g3591
sg63
(lp3607
g56
(g57
g58
NtRp3608
(dp3609
g61
(dp3610
g69
I5
ssg70
g3604
sg63
(lp3611
S''
asbasbasbag56
(g72
g58
NtRp3612
(dp3613
g61
(dp3614
sg70
g3254
sg63
(lp3615
g56
(g77
g58
NtRp3616
(dp3617
g61
(dp3618
g81
g82
ssg70
g3612
sg63
(lp3619
S'generic_patterns'
p3620
asbag56
(g77
g58
NtRp3621
(dp3622
g61
(dp3623
g88
g89
ssg70
g3612
sg63
(lp3624
S':'
asbag56
(g77
g58
NtRp3625
(dp3626
g61
(dp3627
sg70
g3612
sg63
(lp3628
g56
(g57
g58
NtRp3629
(dp3630
g61
(dp3631
g69
I5
ssg70
g3625
sg63
(lp3632
g56
(g65
g58
NtRp3633
(dp3634
g61
(dp3635
g69
I4
ssg70
Nsg63
(lp3636
g56
(g72
g58
NtRp3637
(dp3638
g61
(dp3639
sg70
g3633
sg63
(lp3640
g56
(g77
g58
NtRp3641
(dp3642
g61
(dp3643
sg70
g3637
sg63
(lp3644
g56
(g57
g58
NtRp3645
(dp3646
g61
(dp3647
g69
I4
ssg70
g3641
sg63
(lp3648
S'*'
asbasbasbasbasbasbasbag56
(g72
g58
NtRp3649
(dp3650
g61
(dp3651
sg70
g3254
sg63
(lp3652
g56
(g77
g58
NtRp3653
(dp3654
g61
(dp3655
g81
g82
ssg70
g3649
sg63
(lp3656
S'headers'
p3657
asbag56
(g77
g58
NtRp3658
(dp3659
g61
(dp3660
g88
g89
ssg70
g3649
sg63
(lp3661
S':'
asbag56
(g77
g58
NtRp3662
(dp3663
g61
(dp3664
sg70
g3649
sg63
(lp3665
g56
(g57
g58
NtRp3666
(dp3667
g61
(dp3668
g69
I5
ssg70
g3662
sg63
(lp3669
g56
(g65
g58
NtRp3670
(dp3671
g61
(dp3672
g69
I4
ssg70
Nsg63
(lp3673
g56
(g72
g58
NtRp3674
(dp3675
g61
(dp3676
sg70
g3670
sg63
(lp3677
g56
(g77
g58
NtRp3678
(dp3679
g61
(dp3680
g81
g82
ssg70
g3674
sg63
(lp3681
S'Cache-Control'
p3682
asbag56
(g77
g58
NtRp3683
(dp3684
g61
(dp3685
g88
g89
ssg70
g3674
sg63
(lp3686
S':'
asbag56
(g77
g58
NtRp3687
(dp3688
g61
(dp3689
sg70
g3674
sg63
(lp3690
g56
(g57
g58
NtRp3691
(dp3692
g61
(dp3693
g69
I4
ssg70
g3687
sg63
(lp3694
S'no-store, no-cache, must-revalidate, post-check=0, pre-check=0'
p3695
asbasbasbag56
(g72
g58
NtRp3696
(dp3697
g61
(dp3698
sg70
g3670
sg63
(lp3699
g56
(g77
g58
NtRp3700
(dp3701
g61
(dp3702
g81
g82
ssg70
g3696
sg63
(lp3703
S'Content-Type'
p3704
asbag56
(g77
g58
NtRp3705
(dp3706
g61
(dp3707
g88
g89
ssg70
g3696
sg63
(lp3708
S':'
asbag56
(g77
g58
NtRp3709
(dp3710
g61
(dp3711
sg70
g3696
sg63
(lp3712
g56
(g57
g58
NtRp3713
(dp3714
g61
(dp3715
g69
I4
ssg70
g3709
sg63
(lp3716
S'text/html; charset=utf-8'
p3717
asbasbasbag56
(g72
g58
NtRp3718
(dp3719
g61
(dp3720
sg70
g3670
sg63
(lp3721
g56
(g77
g58
NtRp3722
(dp3723
g61
(dp3724
g81
g82
ssg70
g3718
sg63
(lp3725
S'Expires'
p3726
asbag56
(g77
g58
NtRp3727
(dp3728
g61
(dp3729
g88
g89
ssg70
g3718
sg63
(lp3730
S':'
asbag56
(g77
g58
NtRp3731
(dp3732
g61
(dp3733
sg70
g3718
sg63
(lp3734
g56
(g57
g58
NtRp3735
(dp3736
g61
(dp3737
g69
I4
ssg70
g3731
sg63
(lp3738
S'Mon, 16 Jan 2012 13:05:58 GMT'
p3739
asbasbasbag56
(g72
g58
NtRp3740
(dp3741
g61
(dp3742
sg70
g3670
sg63
(lp3743
g56
(g77
g58
NtRp3744
(dp3745
g61
(dp3746
g81
g82
ssg70
g3740
sg63
(lp3747
S'Pragma'
p3748
asbag56
(g77
g58
NtRp3749
(dp3750
g61
(dp3751
g88
g89
ssg70
g3740
sg63
(lp3752
S':'
asbag56
(g77
g58
NtRp3753
(dp3754
g61
(dp3755
sg70
g3740
sg63
(lp3756
g56
(g57
g58
NtRp3757
(dp3758
g61
(dp3759
g69
I4
ssg70
g3753
sg63
(lp3760
S'no-cache'
p3761
asbasbasbag56
(g72
g58
NtRp3762
(dp3763
g61
(dp3764
sg70
g3670
sg63
(lp3765
g56
(g77
g58
NtRp3766
(dp3767
g61
(dp3768
g81
g82
ssg70
g3762
sg63
(lp3769
S'X-Powered-By'
p3770
asbag56
(g77
g58
NtRp3771
(dp3772
g61
(dp3773
g88
g89
ssg70
g3762
sg63
(lp3774
S':'
asbag56
(g77
g58
NtRp3775
(dp3776
g61
(dp3777
sg70
g3762
sg63
(lp3778
g56
(g57
g58
NtRp3779
(dp3780
g61
(dp3781
g69
I4
ssg70
g3775
sg63
(lp3782
S'web2py'
p3783
asbasbasbasbasbasbasbag56
(g72
g58
NtRp3784
(dp3785
g61
(dp3786
sg70
g3254
sg63
(lp3787
g56
(g77
g58
NtRp3788
(dp3789
g61
(dp3790
g81
g82
ssg70
g3784
sg63
(lp3791
S'menu'
p3792
asbag56
(g77
g58
NtRp3793
(dp3794
g61
(dp3795
g88
g89
ssg70
g3784
sg63
(lp3796
S':'
asbag56
(g77
g58
NtRp3797
(dp3798
g61
(dp3799
sg70
g3784
sg63
(lp3800
g56
(g57
g58
NtRp3801
(dp3802
g61
(dp3803
g69
I5
ssg70
g3797
sg63
(lp3804
g56
(g65
g58
NtRp3805
(dp3806
g61
(dp3807
g69
I4
ssg70
Nsg63
(lp3808
g56
(g72
g58
NtRp3809
(dp3810
g61
(dp3811
sg70
g3805
sg63
(lp3812
g56
(g77
g58
NtRp3813
(dp3814
g61
(dp3815
sg70
g3809
sg63
(lp3816
g56
(g57
g58
NtRp3817
(dp3818
g61
(dp3819
g69
I4
ssg70
g3813
sg63
(lp3820
g56
(g65
g58
NtRp3821
(dp3822
g61
(dp3823
g69
I3
ssg70
Nsg63
(lp3824
g56
(g72
g58
NtRp3825
(dp3826
g61
(dp3827
sg70
g3821
sg63
(lp3828
g56
(g77
g58
NtRp3829
(dp3830
g61
(dp3831
sg70
g3825
sg63
(lp3832
g56
(g57
g58
NtRp3833
(dp3834
g61
(dp3835
g69
I3
ssg70
g3829
sg63
(lp3836
cgluon.languages
lazyT_unpickle
p3837
(S't\x04\x00\x00\x00Home'
tRp3838
asbasbasbag56
(g72
g58
NtRp3839
(dp3840
g61
(dp3841
sg70
g3821
sg63
(lp3842
g56
(g77
g58
NtRp3843
(dp3844
g61
(dp3845
sg70
g3839
sg63
(lp3846
g56
(g57
g58
NtRp3847
(dp3848
g61
(dp3849
g69
I3
ssg70
g3843
sg63
(lp3850
g99
asbasbasbag56
(g72
g58
NtRp3851
(dp3852
g61
(dp3853
sg70
g3821
sg63
(lp3854
g56
(g77
g58
NtRp3855
(dp3856
g61
(dp3857
sg70
g3851
sg63
(lp3858
g56
(g57
g58
NtRp3859
(dp3860
g61
(dp3861
g69
I3
ssg70
g3855
sg63
(lp3862
S'/synopsis/default/index'
p3863
asbasbasbag56
(g72
g58
NtRp3864
(dp3865
g61
(dp3866
sg70
g3821
sg63
(lp3867
g56
(g77
g58
NtRp3868
(dp3869
g61
(dp3870
sg70
g3864
sg63
(lp3871
g56
(g57
g58
NtRp3872
(dp3873
g61
(dp3874
g69
I3
ssg70
g3868
sg63
(lp3875
g56
(g65
g58
NtRp3876
(dp3877
g61
(dp3878
g69
I2
ssg70
Nsg63
(lp3879
sbasbasbasbasbasbasbasbag56
(g72
g58
NtRp3880
(dp3881
g61
(dp3882
sg70
g3805
sg63
(lp3883
g56
(g77
g58
NtRp3884
(dp3885
g61
(dp3886
sg70
g3880
sg63
(lp3887
g56
(g57
g58
NtRp3888
(dp3889
g61
(dp3890
g69
I4
ssg70
g3884
sg63
(lp3891
g56
(g65
g58
NtRp3892
(dp3893
g61
(dp3894
g69
I3
ssg70
Nsg63
(lp3895
g56
(g72
g58
NtRp3896
(dp3897
g61
(dp3898
sg70
g3892
sg63
(lp3899
g56
(g77
g58
NtRp3900
(dp3901
g61
(dp3902
sg70
g3896
sg63
(lp3903
g56
(g57
g58
NtRp3904
(dp3905
g61
(dp3906
g69
I3
ssg70
g3900
sg63
(lp3907
g3837
(S't\x0b\x00\x00\x00Information'
tRp3908
asbasbasbag56
(g72
g58
NtRp3909
(dp3910
g61
(dp3911
sg70
g3892
sg63
(lp3912
g56
(g77
g58
NtRp3913
(dp3914
g61
(dp3915
sg70
g3909
sg63
(lp3916
g56
(g57
g58
NtRp3917
(dp3918
g61
(dp3919
g69
I3
ssg70
g3913
sg63
(lp3920
g99
asbasbasbag56
(g72
g58
NtRp3921
(dp3922
g61
(dp3923
sg70
g3892
sg63
(lp3924
g56
(g77
g58
NtRp3925
(dp3926
g61
(dp3927
sg70
g3921
sg63
(lp3928
g56
(g57
g58
NtRp3929
(dp3930
g61
(dp3931
g69
I3
ssg70
g3925
sg63
(lp3932
S'/synopsis/information/index'
p3933
asbasbasbag56
(g72
g58
NtRp3934
(dp3935
g61
(dp3936
sg70
g3892
sg63
(lp3937
g56
(g77
g58
NtRp3938
(dp3939
g61
(dp3940
sg70
g3934
sg63
(lp3941
g56
(g57
g58
NtRp3942
(dp3943
g61
(dp3944
g69
I3
ssg70
g3938
sg63
(lp3945
g56
(g65
g58
NtRp3946
(dp3947
g61
(dp3948
g69
I2
ssg70
Nsg63
(lp3949
sbasbasbasbasbasbasbasbag56
(g72
g58
NtRp3950
(dp3951
g61
(dp3952
sg70
g3805
sg63
(lp3953
g56
(g77
g58
NtRp3954
(dp3955
g61
(dp3956
sg70
g3950
sg63
(lp3957
g56
(g57
g58
NtRp3958
(dp3959
g61
(dp3960
g69
I4
ssg70
g3954
sg63
(lp3961
g56
(g65
g58
NtRp3962
(dp3963
g61
(dp3964
g69
I3
ssg70
Nsg63
(lp3965
g56
(g72
g58
NtRp3966
(dp3967
g61
(dp3968
sg70
g3962
sg63
(lp3969
g56
(g77
g58
NtRp3970
(dp3971
g61
(dp3972
sg70
g3966
sg63
(lp3973
g56
(g57
g58
NtRp3974
(dp3975
g61
(dp3976
g69
I3
ssg70
g3970
sg63
(lp3977
g3837
(S't\x05\x00\x00\x00About'
tRp3978
asbasbasbag56
(g72
g58
NtRp3979
(dp3980
g61
(dp3981
sg70
g3962
sg63
(lp3982
g56
(g77
g58
NtRp3983
(dp3984
g61
(dp3985
sg70
g3979
sg63
(lp3986
g56
(g57
g58
NtRp3987
(dp3988
g61
(dp3989
g69
I3
ssg70
g3983
sg63
(lp3990
g99
asbasbasbag56
(g72
g58
NtRp3991
(dp3992
g61
(dp3993
sg70
g3962
sg63
(lp3994
g56
(g77
g58
NtRp3995
(dp3996
g61
(dp3997
sg70
g3991
sg63
(lp3998
g56
(g57
g58
NtRp3999
(dp4000
g61
(dp4001
g69
I3
ssg70
g3995
sg63
(lp4002
S'/synopsis/about/index'
p4003
asbasbasbag56
(g72
g58
NtRp4004
(dp4005
g61
(dp4006
sg70
g3962
sg63
(lp4007
g56
(g77
g58
NtRp4008
(dp4009
g61
(dp4010
sg70
g4004
sg63
(lp4011
g56
(g57
g58
NtRp4012
(dp4013
g61
(dp4014
g69
I3
ssg70
g4008
sg63
(lp4015
g56
(g65
g58
NtRp4016
(dp4017
g61
(dp4018
g69
I2
ssg70
Nsg63
(lp4019
sbasbasbasbasbasbasbasbasbasbasbasbag56
(g72
g58
NtRp4020
(dp4021
g61
(dp4022
sg70
g3254
sg63
(lp4023
g56
(g77
g58
NtRp4024
(dp4025
g61
(dp4026
g81
g82
ssg70
g4020
sg63
(lp4027
S'meta'
p4028
asbag56
(g77
g58
NtRp4029
(dp4030
g61
(dp4031
g88
g89
ssg70
g4020
sg63
(lp4032
S':'
asbag56
(g77
g58
NtRp4033
(dp4034
g61
(dp4035
sg70
g4020
sg63
(lp4036
g56
(g57
g58
NtRp4037
(dp4038
g61
(dp4039
g69
I5
ssg70
g4033
sg63
(lp4040
g56
(g65
g58
NtRp4041
(dp4042
g61
(dp4043
g69
I4
ssg70
Nsg63
(lp4044
g56
(g72
g58
NtRp4045
(dp4046
g61
(dp4047
sg70
g4041
sg63
(lp4048
g56
(g77
g58
NtRp4049
(dp4050
g61
(dp4051
g81
g82
ssg70
g4045
sg63
(lp4052
S'author'
p4053
asbag56
(g77
g58
NtRp4054
(dp4055
g61
(dp4056
g88
g89
ssg70
g4045
sg63
(lp4057
S':'
asbag56
(g77
g58
NtRp4058
(dp4059
g61
(dp4060
sg70
g4045
sg63
(lp4061
g56
(g57
g58
NtRp4062
(dp4063
g61
(dp4064
g69
I4
ssg70
g4058
sg63
(lp4065
S'Your Name <you@example.com>'
p4066
asbasbasbag56
(g72
g58
NtRp4067
(dp4068
g61
(dp4069
sg70
g4041
sg63
(lp4070
g56
(g77
g58
NtRp4071
(dp4072
g61
(dp4073
g81
g82
ssg70
g4067
sg63
(lp4074
S'copyright'
p4075
asbag56
(g77
g58
NtRp4076
(dp4077
g61
(dp4078
g88
g89
ssg70
g4067
sg63
(lp4079
S':'
asbag56
(g77
g58
NtRp4080
(dp4081
g61
(dp4082
sg70
g4067
sg63
(lp4083
g56
(g57
g58
NtRp4084
(dp4085
g61
(dp4086
g69
I4
ssg70
g4080
sg63
(lp4087
S'Copyright 2011'
p4088
asbasbasbag56
(g72
g58
NtRp4089
(dp4090
g61
(dp4091
sg70
g4041
sg63
(lp4092
g56
(g77
g58
NtRp4093
(dp4094
g61
(dp4095
g81
g82
ssg70
g4089
sg63
(lp4096
S'description'
p4097
asbag56
(g77
g58
NtRp4098
(dp4099
g61
(dp4100
g88
g89
ssg70
g4089
sg63
(lp4101
S':'
asbag56
(g77
g58
NtRp4102
(dp4103
g61
(dp4104
sg70
g4089
sg63
(lp4105
g56
(g57
g58
NtRp4106
(dp4107
g61
(dp4108
g69
I4
ssg70
g4102
sg63
(lp4109
S'a cool new app'
p4110
asbasbasbag56
(g72
g58
NtRp4111
(dp4112
g61
(dp4113
sg70
g4041
sg63
(lp4114
g56
(g77
g58
NtRp4115
(dp4116
g61
(dp4117
g81
g82
ssg70
g4111
sg63
(lp4118
S'generator'
p4119
asbag56
(g77
g58
NtRp4120
(dp4121
g61
(dp4122
g88
g89
ssg70
g4111
sg63
(lp4123
S':'
asbag56
(g77
g58
NtRp4124
(dp4125
g61
(dp4126
sg70
g4111
sg63
(lp4127
g56
(g57
g58
NtRp4128
(dp4129
g61
(dp4130
g69
I4
ssg70
g4124
sg63
(lp4131
S'Web2py Web Framework'
p4132
asbasbasbag56
(g72
g58
NtRp4133
(dp4134
g61
(dp4135
sg70
g4041
sg63
(lp4136
g56
(g77
g58
NtRp4137
(dp4138
g61
(dp4139
g81
g82
ssg70
g4133
sg63
(lp4140
S'keywords'
p4141
asbag56
(g77
g58
NtRp4142
(dp4143
g61
(dp4144
g88
g89
ssg70
g4133
sg63
(lp4145
S':'
asbag56
(g77
g58
NtRp4146
(dp4147
g61
(dp4148
sg70
g4133
sg63
(lp4149
g56
(g57
g58
NtRp4150
(dp4151
g61
(dp4152
g69
I4
ssg70
g4146
sg63
(lp4153
S'web2py, python, framework'
p4154
asbasbasbasbasbasbasbag56
(g72
g58
NtRp4155
(dp4156
g61
(dp4157
sg70
g3254
sg63
(lp4158
g56
(g77
g58
NtRp4159
(dp4160
g61
(dp4161
g81
g82
ssg70
g4155
sg63
(lp4162
S'postprocessing'
p4163
asbag56
(g77
g58
NtRp4164
(dp4165
g61
(dp4166
g88
g89
ssg70
g4155
sg63
(lp4167
S':'
asbag56
(g77
g58
NtRp4168
(dp4169
g61
(dp4170
sg70
g4155
sg63
(lp4171
g56
(g57
g58
NtRp4172
(dp4173
g61
(dp4174
g69
I5
ssg70
g4168
sg63
(lp4175
g56
(g65
g58
NtRp4176
(dp4177
g61
(dp4178
g69
I4
ssg70
Nsg63
(lp4179
sbasbasbasbag56
(g72
g58
NtRp4180
(dp4181
g61
(dp4182
sg70
g3254
sg63
(lp4183
g56
(g77
g58
NtRp4184
(dp4185
g61
(dp4186
g81
g82
ssg70
g4180
sg63
(lp4187
S'session_file'
p4188
asbag56
(g77
g58
NtRp4189
(dp4190
g61
(dp4191
g88
g89
ssg70
g4180
sg63
(lp4192
S':'
asbag56
(g77
g58
NtRp4193
(dp4194
g61
(dp4195
sg70
g4180
sg63
(lp4196
g56
(g57
g58
NtRp4197
(dp4198
g61
(dp4199
g69
I5
ssg70
g4193
sg63
(lp4200
S"<open file '/home/kaique/Projects/web2py/applications/synopsis/sessions/127.0.0.1-ea15d85f-607d-4f64-bdf1-d7c474a4e0c4', mode 'rb+' at 0x279a810>"
p4201
asbasbasbag56
(g72
g58
NtRp4202
(dp4203
g61
(dp4204
sg70
g3254
sg63
(lp4205
g56
(g77
g58
NtRp4206
(dp4207
g61
(dp4208
g81
g82
ssg70
g4202
sg63
(lp4209
S'session_filename'
p4210
asbag56
(g77
g58
NtRp4211
(dp4212
g61
(dp4213
g88
g89
ssg70
g4202
sg63
(lp4214
S':'
asbag56
(g77
g58
NtRp4215
(dp4216
g61
(dp4217
sg70
g4202
sg63
(lp4218
g56
(g57
g58
NtRp4219
(dp4220
g61
(dp4221
g69
I5
ssg70
g4215
sg63
(lp4222
S'/home/kaique/Projects/web2py/applications/synopsis/sessions/127.0.0.1-ea15d85f-607d-4f64-bdf1-d7c474a4e0c4'
p4223
asbasbasbag56
(g72
g58
NtRp4224
(dp4225
g61
(dp4226
sg70
g3254
sg63
(lp4227
g56
(g77
g58
NtRp4228
(dp4229
g61
(dp4230
g81
g82
ssg70
g4224
sg63
(lp4231
S'session_id'
p4232
asbag56
(g77
g58
NtRp4233
(dp4234
g61
(dp4235
g88
g89
ssg70
g4224
sg63
(lp4236
S':'
asbag56
(g77
g58
NtRp4237
(dp4238
g61
(dp4239
sg70
g4224
sg63
(lp4240
g56
(g57
g58
NtRp4241
(dp4242
g61
(dp4243
g69
I5
ssg70
g4237
sg63
(lp4244
S'127.0.0.1-ea15d85f-607d-4f64-bdf1-d7c474a4e0c4'
p4245
asbasbasbag56
(g72
g58
NtRp4246
(dp4247
g61
(dp4248
sg70
g3254
sg63
(lp4249
g56
(g77
g58
NtRp4250
(dp4251
g61
(dp4252
g81
g82
ssg70
g4246
sg63
(lp4253
S'session_id_name'
p4254
asbag56
(g77
g58
NtRp4255
(dp4256
g61
(dp4257
g88
g89
ssg70
g4246
sg63
(lp4258
S':'
asbag56
(g77
g58
NtRp4259
(dp4260
g61
(dp4261
sg70
g4246
sg63
(lp4262
g56
(g57
g58
NtRp4263
(dp4264
g61
(dp4265
g69
I5
ssg70
g4259
sg63
(lp4266
g3311
asbasbasbag56
(g72
g58
NtRp4267
(dp4268
g61
(dp4269
sg70
g3254
sg63
(lp4270
g56
(g77
g58
NtRp4271
(dp4272
g61
(dp4273
g81
g82
ssg70
g4267
sg63
(lp4274
S'session_locked'
p4275
asbag56
(g77
g58
NtRp4276
(dp4277
g61
(dp4278
g88
g89
ssg70
g4267
sg63
(lp4279
S':'
asbag56
(g77
g58
NtRp4280
(dp4281
g61
(dp4282
sg70
g4267
sg63
(lp4283
g56
(g57
g58
NtRp4284
(dp4285
g61
(dp4286
g69
I5
ssg70
g4280
sg63
(lp4287
g1505
asbasbasbag56
(g72
g58
NtRp4288
(dp4289
g61
(dp4290
sg70
g3254
sg63
(lp4291
g56
(g77
g58
NtRp4292
(dp4293
g61
(dp4294
g81
g82
ssg70
g4288
sg63
(lp4295
S'session_new'
p4296
asbag56
(g77
g58
NtRp4297
(dp4298
g61
(dp4299
g88
g89
ssg70
g4288
sg63
(lp4300
S':'
asbag56
(g77
g58
NtRp4301
(dp4302
g61
(dp4303
sg70
g4288
sg63
(lp4304
g56
(g57
g58
NtRp4305
(dp4306
g61
(dp4307
g69
I5
ssg70
g4301
sg63
(lp4308
g99
asbasbasbag56
(g72
g58
NtRp4309
(dp4310
g61
(dp4311
sg70
g3254
sg63
(lp4312
g56
(g77
g58
NtRp4313
(dp4314
g61
(dp4315
g81
g82
ssg70
g4309
sg63
(lp4316
S'status'
p4317
asbag56
(g77
g58
NtRp4318
(dp4319
g61
(dp4320
g88
g89
ssg70
g4309
sg63
(lp4321
S':'
asbag56
(g77
g58
NtRp4322
(dp4323
g61
(dp4324
sg70
g4309
sg63
(lp4325
g56
(g57
g58
NtRp4326
(dp4327
g61
(dp4328
g69
I5
ssg70
g4322
sg63
(lp4329
S'200'
p4330
asbasbasbag56
(g72
g58
NtRp4331
(dp4332
g61
(dp4333
sg70
g3254
sg63
(lp4334
g56
(g77
g58
NtRp4335
(dp4336
g61
(dp4337
g81
g82
ssg70
g4331
sg63
(lp4338
S'subtitle'
p4339
asbag56
(g77
g58
NtRp4340
(dp4341
g61
(dp4342
g88
g89
ssg70
g4331
sg63
(lp4343
S':'
asbag56
(g77
g58
NtRp4344
(dp4345
g61
(dp4346
sg70
g4331
sg63
(lp4347
g56
(g57
g58
NtRp4348
(dp4349
g61
(dp4350
g69
I5
ssg70
g4344
sg63
(lp4351
g3837
(S's\x0f\x00\x00\x00Personalize-me!'
tRp4352
asbasbasbag56
(g72
g58
NtRp4353
(dp4354
g61
(dp4355
sg70
g3254
sg63
(lp4356
g56
(g77
g58
NtRp4357
(dp4358
g61
(dp4359
g81
g82
ssg70
g4353
sg63
(lp4360
S'title'
p4361
asbag56
(g77
g58
NtRp4362
(dp4363
g61
(dp4364
g88
g89
ssg70
g4353
sg63
(lp4365
S':'
asbag56
(g77
g58
NtRp4366
(dp4367
g61
(dp4368
sg70
g4353
sg63
(lp4369
g56
(g57
g58
NtRp4370
(dp4371
g61
(dp4372
g69
I5
ssg70
g4366
sg63
(lp4373
g121
asbasbasbag56
(g72
g58
NtRp4374
(dp4375
g61
(dp4376
sg70
g3254
sg63
(lp4377
g56
(g77
g58
NtRp4378
(dp4379
g61
(dp4380
g81
g82
ssg70
g4374
sg63
(lp4381
g2170
asbag56
(g77
g58
NtRp4382
(dp4383
g61
(dp4384
g88
g89
ssg70
g4374
sg63
(lp4385
S':'
asbag56
(g77
g58
NtRp4386
(dp4387
g61
(dp4388
sg70
g4374
sg63
(lp4389
g56
(g57
g58
NtRp4390
(dp4391
g61
(dp4392
g69
I5
ssg70
g4386
sg63
(lp4393
g2183
asbasbasbag56
(g72
g58
NtRp4394
(dp4395
g61
(dp4396
sg70
g3254
sg63
(lp4397
g56
(g77
g58
NtRp4398
(dp4399
g61
(dp4400
g81
g82
ssg70
g4394
sg63
(lp4401
S'view'
p4402
asbag56
(g77
g58
NtRp4403
(dp4404
g61
(dp4405
g88
g89
ssg70
g4394
sg63
(lp4406
S':'
asbag56
(g77
g58
NtRp4407
(dp4408
g61
(dp4409
sg70
g4394
sg63
(lp4410
g56
(g57
g58
NtRp4411
(dp4412
g61
(dp4413
g69
I5
ssg70
g4407
sg63
(lp4414
S'information/publication.html'
p4415
asbasbasbasbasbsS'locals'
p4416
(dp4417
S'Service'
p4418
S"<class 'gluon.tools.Service'>"
p4419
sS'OBJECT'
p4420
S"<class 'gluon.html.OBJECT'>"
p4421
sS'SQLDB'
p4422
S"<class 'gluon.dal.DAL'>"
p4423
sg2906
S"<Storage {'index': '1', '_formkey[row/create]': ...a\\x8f}\\xf9\\xeeN\\x9f\\x08\\n\\x88\\x1f\\x06\\xe8\\x1fg'}>"
p4424
sS'LINK'
p4425
S"<class 'gluon.html.LINK'>"
p4426
sS'BR'
p4427
S"<class 'gluon.html.BR'>"
p4428
sS'local_import'
p4429
S'<function <lambda>>'
p4430
sS'OPTGROUP'
p4431
S"<class 'gluon.html.OPTGROUP'>"
p4432
sS'PRE'
p4433
S"<class 'gluon.html.PRE'>"
p4434
sS'IS_INT_IN_RANGE'
p4435
S"<class 'gluon.validators.IS_INT_IN_RANGE'>"
p4436
sS'left_sidebar_enabled'
p4437
g99
sS'IS_LOWER'
p4438
S"<class 'gluon.validators.IS_LOWER'>"
p4439
sS'IS_STRONG'
p4440
S"<class 'gluon.validators.IS_STRONG'>"
p4441
sS'cache'
p4442
S'<gluon.cache.Cache object>'
p4443
sS'IS_IN_DB'
p4444
S"<class 'gluon.validators.IS_IN_DB'>"
p4445
sS'TAG'
p4446
S'<gluon.html.__TAG__ object>'
p4447
sS'SQLField'
p4448
S"<class 'gluon.dal.Field'>"
p4449
sS'mail'
p4450
S'<gluon.tools.Mail object>'
p4451
sS'columns'
p4452
S"[<Row {'updated_by': 1, 'title': 'Title1', 'updat...60>, 'row': <gluon.dal.Set object at 0x2d9dd10>}>, <Row {'updated_by': 1, 'title': 'Title 2', 'upda...e8>, 'row': <gluon.dal.Set object at 0x2d9dd50>}>, <Row {'updated_by': 1, 'title': 'Column 3', 'upd...90>, 'row': <gluon.dal.Set object at 0x2d9de50>}>]"
p4453
sS'BODY'
p4454
S"<class 'gluon.html.BODY'>"
p4455
sS'IS_DATE_IN_RANGE'
p4456
S"<class 'gluon.validators.IS_DATE_IN_RANGE'>"
p4457
sS'TH'
p4458
S"<class 'gluon.html.TH'>"
p4459
sS'URL'
p4460
S'<function URL>'
p4461
sS'__file__'
p4462
S"'/home/kaique/Projects/web2py/applications/synopsis/views/information/publication.html'"
p4463
sS'db'
p4464
S"<DAL {'auth_event': <Table {'origin': <gluon.dal..., 'id': <gluon.dal.Field object at 0x254d110>}>}>"
p4465
sS'auth'
p4466
S'<gluon.tools.Auth object>'
p4467
sS'P'
S"<class 'gluon.html.P'>"
p4468
sS'TFOOT'
p4469
S"<class 'gluon.html.TFOOT'>"
p4470
sS'count_equals'
p4471
S'<function count_equals>'
p4472
sS'XHTML'
p4473
S"<class 'gluon.html.XHTML'>"
p4474
sS'ON'
p4475
g1505
sS'OL'
p4476
S"<class 'gluon.html.OL'>"
p4477
sS'TEXTAREA'
p4478
S"<class 'gluon.html.TEXTAREA'>"
p4479
sS'MENU'
p4480
S"<class 'gluon.html.MENU'>"
p4481
sS'LOAD'
p4482
S'<gluon.compileapp.LoadFactory object>'
p4483
sS'CODE'
p4484
S"<class 'gluon.html.CODE'>"
p4485
sS'HTTP'
p4486
S"<class 'gluon.http.HTTP'>"
p4487
sS'HR'
p4488
S"<class 'gluon.html.HR'>"
p4489
sS'IS_DATETIME'
p4490
S"<class 'gluon.validators.IS_DATETIME'>"
p4491
sS'HEAD'
p4492
S"<class 'gluon.html.HEAD'>"
p4493
sS'LABEL'
p4494
S"<class 'gluon.html.LABEL'>"
p4495
sS'CLEANUP'
p4496
S"<class 'gluon.validators.CLEANUP'>"
p4497
sS'plugins'
p4498
S'<gluon.tools.PluginManager object>'
p4499
sS'SELECT'
p4500
S"<class 'gluon.html.SELECT'>"
p4501
sS'use_janrain'
p4502
S'<function use_janrain>'
p4503
sS'CENTER'
p4504
S"<class 'gluon.html.CENTER'>"
p4505
sS'prettydate'
p4506
S'<function prettydate>'
p4507
sS'Crud'
p4508
S"<class 'gluon.tools.Crud'>"
p4509
sS'Auth'
p4510
S"<class 'gluon.tools.Auth'>"
p4511
sS'__builtins__'
p4512
S"{'ArithmeticError': <type 'exceptions.ArithmeticError'>, 'AssertionError': <type 'exceptions.AssertionError'>, 'AttributeError': <type 'exceptions.AttributeError'>, 'BaseException': <type 'exceptions.BaseException'>, 'BufferError': <type 'exceptions.BufferError'>, 'BytesWarning': <type 'exceptions.BytesWarning'>, 'DeprecationWarning': <type 'exceptions.DeprecationWarning'>, 'EOFError': <type 'exceptions.EOFError'>, 'Ellipsis': Ellipsis, 'EnvironmentError': <type 'exceptions.EnvironmentError'>, ...}"
p4513
sS'HTML'
p4514
S"<class 'gluon.html.HTML'>"
p4515
sS'SQLFORM'
p4516
S"<class 'gluon.sqlhtml.SQLFORM'>"
p4517
sS'EM'
p4518
S"<class 'gluon.html.EM'>"
p4519
sS'redirect'
p4520
S'<function redirect>'
p4521
sS'FIELDSET'
p4522
S"<class 'gluon.html.FIELDSET'>"
p4523
sS'IS_EQUAL_TO'
p4524
S"<class 'gluon.validators.IS_EQUAL_TO'>"
p4525
sS'embed64'
p4526
S'<function embed64>'
p4527
sS'IS_LIST_OF'
p4528
S"<class 'gluon.validators.IS_LIST_OF'>"
p4529
sS'INPUT'
p4530
S"<class 'gluon.html.INPUT'>"
p4531
sS'EMBED'
p4532
S"<class 'gluon.html.EMBED'>"
p4533
sS'FORM'
p4534
S"<class 'gluon.html.FORM'>"
p4535
sS'width_content'
p4536
S"'100%'"
p4537
sS'column'
p4538
S"<Row {'updated_by': 1, 'title': 'Column 3', 'upd...90>, 'row': <gluon.dal.Set object at 0x2d9de50>}>"
p4539
sS'H3'
p4540
S"<class 'gluon.html.H3'>"
p4541
sS'BUTTON'
p4542
S"<class 'gluon.html.BUTTON'>"
p4543
sS'H1'
p4544
S"<class 'gluon.html.H1'>"
p4545
sS'H6'
p4546
S"<class 'gluon.html.H6'>"
p4547
sS'H4'
p4548
S"<class 'gluon.html.H4'>"
p4549
sS'H5'
p4550
S"<class 'gluon.html.H5'>"
p4551
sS'UL'
p4552
S"<class 'gluon.html.UL'>"
p4553
sS'IS_UPPER'
p4554
S"<class 'gluon.validators.IS_UPPER'>"
p4555
sS'signature'
p4556
S"<Table {'ALL': <gluon.dal.SQLALL object at 0x247...0>, 'id': <gluon.dal.Field object at 0x2470910>}>"
p4557
sS'IS_TIME'
p4558
S"<class 'gluon.validators.IS_TIME'>"
p4559
sS'OPTION'
p4560
S"<class 'gluon.html.OPTION'>"
p4561
sS'TITLE'
p4562
S"<class 'gluon.html.TITLE'>"
p4563
sS'CRYPT'
p4564
S"<class 'gluon.validators.CRYPT'>"
p4565
sS'IS_EMPTY_OR'
p4566
S"<class 'gluon.validators.IS_EMPTY_OR'>"
p4567
sS'MARKMIN'
p4568
S"<class 'gluon.html.MARKMIN'>"
p4569
sS'COL'
p4570
S"<class 'gluon.html.COL'>"
p4571
sS'publication'
p4572
S'<gluon.dal.Rows object>'
p4573
sS'service'
p4574
S'<gluon.tools.Service object>'
p4575
sS'SCRIPT'
p4576
S"<class 'gluon.html.SCRIPT'>"
p4577
sS'TABLE'
p4578
S"<class 'gluon.html.TABLE'>"
p4579
sS'IS_IPV4'
p4580
S"<class 'gluon.validators.IS_IPV4'>"
p4581
sS'IS_LENGTH'
p4582
S"<class 'gluon.validators.IS_LENGTH'>"
p4583
sS'XML'
p4584
S"<class 'gluon.html.XML'>"
p4585
sS'B'
S"<class 'gluon.html.B'>"
p4586
sS'IMG'
p4587
S"<class 'gluon.html.IMG'>"
p4588
sS'SQLTABLE'
p4589
S"<class 'gluon.sqlhtml.SQLTABLE'>"
p4590
sS'IS_MATCH'
p4591
S"<class 'gluon.validators.IS_MATCH'>"
p4592
sS'IS_ALPHANUMERIC'
p4593
S"<class 'gluon.validators.IS_ALPHANUMERIC'>"
p4594
sS'SPAN'
p4595
S"<class 'gluon.html.SPAN'>"
p4596
sS'IS_SLUG'
p4597
S"<class 'gluon.validators.IS_SLUG'>"
p4598
sS'H2'
p4599
S"<class 'gluon.html.H2'>"
p4600
sS'BEAUTIFY'
p4601
S"<class 'gluon.html.BEAUTIFY'>"
p4602
sS'META'
p4603
S"<class 'gluon.html.META'>"
p4604
sS'IS_DATE'
p4605
S"<class 'gluon.validators.IS_DATE'>"
p4606
sS'IS_EMAIL'
p4607
S"<class 'gluon.validators.IS_EMAIL'>"
p4608
sS'IS_NOT_EMPTY'
p4609
S"<class 'gluon.validators.IS_NOT_EMPTY'>"
p4610
sS'IS_FLOAT_IN_RANGE'
p4611
S"<class 'gluon.validators.IS_FLOAT_IN_RANGE'>"
p4612
sS'TBODY'
p4613
S"<class 'gluon.html.TBODY'>"
p4614
sS'CAT'
p4615
S"<class 'gluon.html.CAT'>"
p4616
sS'Field'
p4617
S"<class 'gluon.dal.Field'>"
p4618
sS'DIV'
p4619
S"<class 'gluon.html.DIV'>"
p4620
sS'LEGEND'
p4621
S"<class 'gluon.html.LEGEND'>"
p4622
sS'COLGROUP'
p4623
S"<class 'gluon.html.COLGROUP'>"
p4624
sS'DAL'
p4625
S"<class 'gluon.dal.DAL'>"
p4626
sS'TT'
p4627
S"<class 'gluon.html.TT'>"
p4628
sS'TR'
p4629
S"<class 'gluon.html.TR'>"
p4630
sS'detail'
p4631
S"<Row {'updated_by': 1, 'title': 'No complete tes...elete_record': <function <lambda> at 0x256ccf8>}>"
p4632
sS'LI'
p4633
S"<class 'gluon.html.LI'>"
p4634
sS'right_sidebar_enabled'
p4635
g99
sS'IFRAME'
p4636
S"<class 'gluon.html.IFRAME'>"
p4637
sS'TD'
p4638
S"<class 'gluon.html.TD'>"
p4639
sS'PluginManager'
p4640
S"<class 'gluon.tools.PluginManager'>"
p4641
sS'IS_URL'
p4642
S"<class 'gluon.validators.IS_URL'>"
p4643
sS'A'
S"<class 'gluon.html.A'>"
p4644
sS'STYLE'
p4645
S"<class 'gluon.html.STYLE'>"
p4646
sS'IS_DATETIME_IN_RANGE'
p4647
S"<class 'gluon.validators.IS_DATETIME_IN_RANGE'>"
p4648
sS'IS_IMAGE'
p4649
S"<class 'gluon.validators.IS_IMAGE'>"
p4650
sS'I'
S"<class 'gluon.html.I'>"
p4651
sS'crud'
p4652
S'<gluon.tools.Crud object>'
p4653
sS'xmlescape'
p4654
S'<function xmlescape>'
p4655
sS'right_sidebar_style'
p4656
S'\'style="display: none;"\''
p4657
sS'IS_NOT_IN_DB'
p4658
S"<class 'gluon.validators.IS_NOT_IN_DB'>"
p4659
sg3249
S"<Storage {'body': <cStringIO.StringO object at 0...b1d758>, 'view': 'information/publication.html'}>"
p4660
sS'THEAD'
p4661
S"<class 'gluon.html.THEAD'>"
p4662
sS'IS_NULL_OR'
p4663
S"<class 'gluon.validators.IS_EMPTY_OR'>"
p4664
sS'left_sidebar_style'
p4665
S'\'style="display: none;"\''
p4666
sg55
S"<Storage {'body': <cStringIO.StringO object at 0..._vars': <Storage {}>, 'post_vars': <Storage {}>}>"
p4667
sS'IS_EXPR'
p4668
S"<class 'gluon.validators.IS_EXPR'>"
p4669
sS'T'
S'<gluon.languages.translator object>'
p4670
sS'IS_IN_SET'
p4671
S"<class 'gluon.validators.IS_IN_SET'>"
p4672
sS'IS_UPLOAD_FILENAME'
p4673
S"<class 'gluon.validators.IS_UPLOAD_FILENAME'>"
p4674
sS'style_content'
p4675
S'\'style="width: 100%"\''
p4676
sS'IS_DECIMAL_IN_RANGE'
p4677
S"<class 'gluon.validators.IS_DECIMAL_IN_RANGE'>"
p4678
sssS'traceback'
p4679
S'Traceback (most recent call last):\n  File "/home/kaique/Projects/web2py/gluon/restricted.py", line 194, in restricted\n    exec ccode in environment\n  File "/home/kaique/Projects/web2py/applications/synopsis/views/information/publication.html", line 106, in <module>\nAttributeError: \'list\' object has no attribute \'row\'\n'
p4680
s.