(dp1
S'output'
p2
S''
sS'layer'
p3
S'/home/kaique/Projects/web2py/applications/synopsis/views/information/publication.html'
p4
sS'code'
p5
S'response.write(\'<!DOCTYPE html>\\n<html lang="\', escape=False)\nresponse.write(T.accepted_language or \'en\')\nresponse.write(\'" class="no-js"><!-- no-js need it for modernzr -->\\n  <head>\\n    \\n    <meta charset="utf-8" />        \\n    <!-- www.phpied.com/conditional-comments-block-downloads/ -->\\n    <!--[if IE]>\\n      <!-- Always force latest IE rendering engine \\n       (even in intranet) & Chrome Frame \\n       Remove this if you use the .htaccess -->\\n      <meta http-equiv="X-UA-Compatible" content="IE=edge,chrome=1">\\n    <![endif]-->    \\n\\n    <title>\', escape=False)\nresponse.write(response.title or request.application)\nresponse.write(\'</title>\\n    \\n    <!-- http://dev.w3.org/html5/markup/meta.name.html -->\\n    <meta name="application-name" content="\', escape=False)\nresponse.write(request.application)\nresponse.write(\'" /> \\n    \\n    <!-- Speaking of Google, don\\\'t forget to set your site up: \\n     http://google.com/webmasters -->\\n    <meta name="google-site-verification" content="" />\\n    \\n    <!--  Mobile Viewport Fix\\n      j.mp/mobileviewport & davidbcalhoun.com/2010/viewport-metatag \\n      device-width: Occupy full width of the screen in its current orientation\\n      initial-scale = 1.0 retains dimensions instead of zooming out if page height > device height\\n      maximum-scale = 1.0 retains dimensions instead of zooming in if page width < device width\\n      -->\\n    <meta name="viewport" content="width=device-width, initial-scale=1.0, maximum-scale=1.0">\\n    \\n    <!-- Place favicon.ico and apple-touch-icon.png in the root of your domain and delete these references -->\\n    <link rel="shortcut icon" href="\', escape=False)\nresponse.write(URL(\'static\',\'favicon.ico\'))\nresponse.write(\'" type="image/x-icon">\\n    <link rel="apple-touch-icon" href="\', escape=False)\nresponse.write(URL(\'static\',\'favicon.png\'))\nresponse.write(\'">\\n\\n    <!-- For the less-enabled mobile browsers like Opera Mini -->\\n    <link rel="stylesheet" media="handheld" href="\', escape=False)\nresponse.write(URL(\'static\',\'css/handheld.css\'))\nresponse.write(\'">\\n    \\n    <!-- All JavaScript at the bottom, except for Modernizr which enables HTML5 elements & feature detects -->\\n    <script src="\', escape=False)\nresponse.write(URL(\'static\',\'js/modernizr-1.7.min.js\'))\nresponse.write(\'"></script>\\n    \\n    \', escape=False)\n#------  require CSS and JS files for this page (read info in base.css) ------\nresponse.write(\'\\n    \', escape=False)\nresponse.files.append(URL(\'static\',\'css/base.css\'))\nresponse.write(\'\\n    \', escape=False)\nresponse.files.append(URL(\'static\',\'css/superfish.css\'))\nresponse.write(\'\\n    \', escape=False)\nresponse.files.append(URL(\'static\',\'js/superfish.js\'))\nresponse.write(\'\\n    \', escape=False)\n#------ include web2py specific js code (jquery, calendar, form stuff) ------\nresponse.write(\'\\n    \', escape=False)\nresponse.files.insert(0,URL(\'static\',\'js/jquery.js\'))\nresponse.files.insert(1,URL(\'static\',\'css/anytime.css\'))\nresponse.files.insert(2,URL(\'static\',\'js/anytime.js\'))\nresponse.include_meta()\nresponse.include_files()\nresponse.write(\'\\n<script type="text/javascript"><!--\\n    // These variables are used by the web2py_ajax_init function in web2py_ajax.js (which is loaded below).\\n    var w2p_ajax_confirm_message = "\', escape=False)\nresponse.write(T(\'Are you sure you want to delete this object?\'))\nresponse.write(\'";\\n    var w2p_ajax_date_format = "\', escape=False)\nresponse.write(T(\'%Y-%m-%d\'))\nresponse.write(\'";\\n    var w2p_ajax_datetime_format = "\', escape=False)\nresponse.write(T(\'%Y-%m-%d %H:%M:%S\'))\nresponse.write(\'";\\n    //--></script>\\n    <script src="\', escape=False)\nresponse.write(URL(\'static\',\'js/web2py_ajax.js\'))\nresponse.write(\'" type="text/javascript"></script>\\n\', escape=False)\nresponse.write(\'\\n\\n    \', escape=False)\n#using sidebars need to know what sidebar you want to use\n#prior of using it, because of static width size of content, you can use\n#left_sidebar, right_sidebar, both or none (False left and right)\nleft_sidebar_enabled = globals().get(\'left_sidebar_enabled\',False)\nright_sidebar_enabled = globals().get(\'right_sidebar_enabled\',False)\nif left_sidebar_enabled and right_sidebar_enabled: width_content=\'63%\'\nelif left_sidebar_enabled != right_sidebar_enabled: width_content=\'740px\'\nelse: width_content=\'100%\'\nif left_sidebar_enabled: left_sidebar_style = \'style="display: block;"\'\nelse: left_sidebar_style = \'style="display: none;"\'\nif right_sidebar_enabled: right_sidebar_style = \'style="display: block;"\'\nelse: right_sidebar_style = \'style="display: none;"\'\nstyle_content = \'style="width: %s"\' % width_content\nresponse.write(\'\\n    \\n    <!-- uncomment here to load jquery-ui -->\\n    \\n    <link rel="stylesheet" href="http://ajax.googleapis.com/ajax/libs/jqueryui/1.8.16/themes/base/jquery-ui.css" type="text/css" media="all" />\\n    <script src="http://ajax.googleapis.com/ajax/libs/jqueryui/1.8.16/jquery-ui.min.js" type="text/javascript"></script>\\n    \\n   <!-- uncomment to load jquery-ui -->\\n    \\n    \\n  </head>\\n  \\n  <!-- paulirish.com/2008/conditional-stylesheets-vs-css-hacks-answer-neither/ -->  \\n  <!--[if lt IE 7 ]> <body class="ie6"> <![endif]-->\\n  <!--[if IE 7 ]>    <body class="ie7"> <![endif]-->\\n  <!--[if IE 8 ]>    <body class="ie8"> <![endif]-->\\n  <!--[if IE 9 ]>    <body class="ie9"> <![endif]-->\\n  <!--[if (gt IE 9)|!(IE)]><!--> <body> <!--<![endif]-->\\n    \\n    <div class="flash">\', escape=False)\nresponse.write(response.flash or \'\')\nresponse.write(\'</div> <!-- notification div -->\\n\\n        \\n\\n    <div id="container">                        \\n      \\n      <div id="wrapper">        \\n      \', escape=False)\ntry:\n    response.write(auth.navbar(action=URL(\'default\',\'user\')))\nexcept:pass\nresponse.write(\'\\n    \\n    <div id="header"> <!-- header and login nav -->\\n      \', escape=False)\nresponse.write(\' <!-- this is default header -->\\n      \\n      <h1>\\n        <span id="appname">\', escape=False)\nresponse.write(request.application.capitalize())\nresponse.write(\'</span>App\\n      </h1>\\n      <div style="clear: both;"></div><!-- Clear the divs -->\\n      \', escape=False)\nresponse.write(\'\\n    </div><!-- header  -->\\n    \\n    <div id="statusbar"><!-- statusbar is menu zone -->\\n      \', escape=False)\nresponse.write(\' <!-- this is default statusbar -->\\n      \', escape=False)\n#------ superfish menu ------\nresponse.write(\'\\n      \', escape=False)\nresponse.write(MENU(response.menu,_class=\'sf-menu\'))\nresponse.write(\'\\n      <script type="text/javascript">\\n        jQuery(document).ready(function(){\\n        jQuery(\\\'ul.sf-menu\\\').superfish();});\\n      </script>\\n\\n      <!-- AddToAny BEGIN -->\\n      <div style="padding: 7px; float:right;" class="a2a_kit a2a_default_style"><a class="a2a_dd" href="http://www.addtoany.com/share_save">Share</a></div><script type="text/javascript" src="http://static.addtoany.com/menu/page.js"></script>\\n      <!-- AddToAny END -->\\n\\n      <div style="clear: both;"></div><!-- Clear the divs -->   \\n      \', escape=False)\nresponse.write(\'               \\n    </div><!-- statusbar -->\\n    \\n    <div id="page"> <!-- Here my central body -->     \\n\\n      \', escape=False)\nif left_sidebar_enabled:\n    response.write(\'\\n          <div id="left_sidebar" \', escape=False)\n    response.write(XML(left_sidebar_style))\n    response.write(\' >\\n            <div style="padding: 4px;">\\n          \', escape=False)\n    response.write(\'Content Left Sidebar\', escape=False)\n    response.write(\'       \\n            </div>\\n          </div><!-- left_sidebar -->\\n      \', escape=False)\n    pass\nresponse.write(\'\\n\\n      <!-- content -->\\n      <div id="content" \', escape=False)\nresponse.write(XML(style_content))\nresponse.write(\' >\\n        \', escape=False)\nresponse.write(\'\\n\\n<div class="content">\\n\\t<section>\\n\\t\\t<article>\\n\\t\\t\\t\', escape=False)\nfor detail in publication:\n    response.write(\'\\n\\t\\t\\t<header>\\n\\t\\t\\t\\t\', escape=False)\n    response.write(A( T(\'Go to publications\'), _href=URL(\'information\', \'profile\', args=[session.index]) ))\n    response.write(\' |\\n\\t\\t\\t\\t\', escape=False)\n    response.write(A(T(\'Insert a new column\'), _href=URL(\'new\', args=[\'column\', request.args[0]]) ))\n    response.write(\'\\n\\t\\t\\t\\t<hr />\\n\\t\\t\\t\\t<h1>\', escape=False)\n    response.write(detail.title)\n    response.write(\'</h1>\\n\\t\\t\\t\\t<h4 style="font-weight: 200;">\', escape=False)\n    if detail.sub_title:\n        response.write(\' \', escape=False)\n        response.write(detail.sub_title)\n        response.write(\' \', escape=False)\n        pass\n    response.write(\'</h4>\\n\\t\\t\\t\\t<hr />\\n\\t\\t\\t</header>\\n\\t\\t\\t<div>\\t\\n\\t\\t\\t\\t<table style="border: 1px solid #ccc; margin: 10px 0 10px;">\\n\\t\\t\\t\\t\\t<thead>\\n\\t\\t\\t\\t\\t\\t<tr>\\n\\t\\t\\t\\t\\t\\t\\t\', escape=False)\n    for column in detail.column.select():\n        response.write(\'\\n\\t\\t\\t\\t\\t\\t\\t\\t<td>\', escape=False)\n        response.write(A(column.title, _href=URL(\'new\', args=[\'row\', column.id])))\n        response.write(\'</td>\\n\\t\\t\\t\\t\\t\\t\\t\', escape=False)\n        pass\n    response.write(\'\\t\\t\\t\\t\\t\\t\\t\\n\\t\\t\\t\\t\\t\\t</tr>\\n\\t\\t\\t\\t\\t</thead>\\n\\t\\t\\t\\t\\t<tbody>\\n\\t\\t\\t\\t\\t\\t\', escape=False)\n    lines = []\n    response.write(\'\\n\\t\\t\\t\\t\\t\\t\', escape=False)\n    ids = []\n    response.write(\'\\n\\t\\t\\t\\t\\t\\t\', escape=False)\n    for row in detail.column.select():\n        response.write(\'\\n\\t\\t\\t\\t\\t\\t\\t\', escape=False)\n        if not ids:\n            response.write(\'\\n\\t\\t\\t\\t\\t\\t\\t\\t\', escape=False)\n            ids.append(row.id)\n            response.write(\'\\n\\t\\t\\t\\t\\t\\t\\t\\t\', escape=False)\n            lines.append(TR(row.content))\n            response.write(\'\\n\\t\\t\\t\\t\\t\\t\\t\', escape=False)\n        elif row.id in ids:\n            response.write(\'\\n\\t\\t\\t\\t\\t\\t\\t\\t\', escape=False)\n            lines.append(TR(row.content))\n            response.write(\'\\n\\t\\t\\t\\t\\t\\t\\t\', escape=False)\n        elif row.id not in ids:\n            response.write(\'\\n\\t\\t\\t\\t\\t\\t\\t\\t\', escape=False)\n            lines[ids.index(row.id)].append(TD(row.content))\n            response.write(\'\\n\\t\\t\\t\\t\\t\\t\\t\', escape=False)\n            pass\n        response.write(\'\\n\\t\\t\\t\\t\\t\\t\', escape=False)\n        pass\n    response.write(\'\\n\\t\\t\\t\\t\\t\\t\\n\\t\\t\\t\\t\\t\\t\', escape=False)\n    for r in lines:\n        response.write(\'\\n\\t\\t\\t\\t\\t\\t\\t\', escape=False)\n        response.write(r)\n        response.write(\'\\n\\t\\t\\t\\t\\t\\t\', escape=False)\n        pass\n    response.write(\'\\n\\t\\t\\t\\t\\t</tbody>\\n\\t\\t\\t\\t</table>\\n\\t\\t\\t\\t<div classs="quote">\\n\\t\\t\\t\\t\', escape=False)\n    for quote in detail.quote.select():\n        response.write(\'\\n\\t\\t\\t\\t\\t<p>\', escape=False)\n        response.write(quote.content)\n        response.write(\'</p>\\n\\t\\t\\t\\t\', escape=False)\n        pass\n    response.write(\'\\n\\t\\t\\t\\t</div>\\n\\t\\t\\t</div>\\n\\t\\t\\t\', escape=False)\n    pass\nresponse.write(\'\\n\\t\\t</article>\\n\\t</section>\\n</div>\\n\', escape=False)\nresponse.write(\' \\n      </div>\\n      <!-- content -->\\n\\n      \', escape=False)\nif right_sidebar_enabled:\n    response.write(\'\\n          <div id="right_sidebar" \', escape=False)\n    response.write(XML(right_sidebar_style))\n    response.write(\' >\\n            <div style="padding: 4px;">\\n              \', escape=False)\n    response.write(\'Content Right Sidebar\', escape=False)\n    response.write(\'\\n            </div>\\n      </div><!-- right_sidebar -->\\n          \', escape=False)\n    pass\nresponse.write(\'\\n\\n\\n      <div style="clear: both;"></div><!-- Clear the divs -->\\n      \\n    </div><!-- page -->                         \\n    \\n    <div id="footer">\\n      \', escape=False)\nresponse.write(\' <!-- this is default footer -->\\n      <a href="http://www.web2py.com/" style="float: left; padding-right: 6px;">\\n        <img src="\', escape=False)\nresponse.write(URL(\'static\',\'images/poweredby.png\'))\nresponse.write(\'"/>\\n      </a>\\n      \', escape=False)\nresponse.write(T(\'Copyright\'))\nresponse.write(\' &#169; 2011               \\n      <div style="clear: both;"></div><!-- Clear the divs -->\\n      \', escape=False)\nresponse.write(\'\\n\\n    </div><!-- footer -->           \\n      </div><!-- wrapper -->\\n    </div><!-- container -->        \\n    \\n    <!--[if lt IE 7 ]>\\n    <script src="\', escape=False)\nresponse.write(URL(\'static\',\'js/dd_belatedpng.js\'))\nresponse.write(\'"></script>\\n    <script> DD_belatedPNG.fix(\\\'img, .png_bg\\\'); //fix any <img> or .png_bg background-images </script>\\n    <![endif]-->\\n    \', escape=False)\nif response.google_analytics_id:\n    response.write("<script>/* http://mathiasbynens.be/notes/async-analytics-snippet */ var _gaq=[[\'_setAccount\',\'", escape=False)\n    response.write(response.google_analyitics_id)\n    response.write("\'],[\'_trackPageview\']];(function(d,t){var g=d.createElement(t),s=d.getElementsByTagName(t)[0];g.src=\'//www.google-analytics.com/ga.js\';s.parentNode.insertBefore(g,s)}(document,\'script\')) </script>", escape=False)\n    pass\nresponse.write(\'\\n  </body>\\n</html>\\n\', escape=False)'
p6
sS'snapshot'
p7
(dp8
S'exception'
p9
(dp10
S'__hash__'
p11
S"<method-wrapper '__hash__' of exceptions.KeyError object>"
p12
sS'__setattr__'
p13
S"<method-wrapper '__setattr__' of exceptions.KeyError object>"
p14
sS'__reduce_ex__'
p15
S'<built-in method __reduce_ex__ of exceptions.KeyError object>'
p16
sS'__getslice__'
p17
S"<method-wrapper '__getslice__' of exceptions.KeyError object>"
p18
sS'__getitem__'
p19
S"<method-wrapper '__getitem__' of exceptions.KeyError object>"
p20
sS'__setstate__'
p21
S'<built-in method __setstate__ of exceptions.KeyError object>'
p22
sS'args'
p23
S"('content',)"
p24
sS'__reduce__'
p25
S'<built-in method __reduce__ of exceptions.KeyError object>'
p26
sS'__str__'
p27
S"<method-wrapper '__str__' of exceptions.KeyError object>"
p28
sS'__format__'
p29
S'<built-in method __format__ of exceptions.KeyError object>'
p30
sS'__getattribute__'
p31
S"<method-wrapper '__getattribute__' of exceptions.KeyError object>"
p32
sS'__class__'
p33
S"<type 'exceptions.KeyError'>"
p34
sS'__unicode__'
p35
S'<built-in method __unicode__ of exceptions.KeyError object>'
p36
sS'__delattr__'
p37
S"<method-wrapper '__delattr__' of exceptions.KeyError object>"
p38
sS'__subclasshook__'
p39
S'<built-in method __subclasshook__ of type object>'
p40
sS'__repr__'
p41
S"<method-wrapper '__repr__' of exceptions.KeyError object>"
p42
sS'__dict__'
p43
S'{}'
p44
sS'__sizeof__'
p45
S'<built-in method __sizeof__ of exceptions.KeyError object>'
p46
sS'__doc__'
p47
S"'Mapping key not found.'"
p48
sS'__init__'
p49
S"<method-wrapper '__init__' of exceptions.KeyError object>"
p50
sS'__new__'
p51
S'<built-in method __new__ of type object>'
p52
ssS'evalue'
p53
S"'content'"
p54
sS'request'
p55
ccopy_reg
_reconstructor
p56
(cgluon.html
BEAUTIFY
p57
c__builtin__
object
p58
NtRp59
(dp60
S'attributes'
p61
(dp62
sS'components'
p63
(lp64
g56
(cgluon.html
TABLE
p65
g58
NtRp66
(dp67
g61
(dp68
S'level'
p69
I5
ssS'parent'
p70
Nsg63
(lp71
g56
(cgluon.html
TR
p72
g58
NtRp73
(dp74
g61
(dp75
sg70
g66
sg63
(lp76
g56
(cgluon.html
TD
p77
g58
NtRp78
(dp79
g61
(dp80
S'_style'
p81
S'font-weight:bold;'
p82
ssg70
g73
sg63
(lp83
S'ajax'
p84
asbag56
(g77
g58
NtRp85
(dp86
g61
(dp87
S'_valign'
p88
S'top'
p89
ssg70
g73
sg63
(lp90
S':'
asbag56
(g77
g58
NtRp91
(dp92
g61
(dp93
sg70
g73
sg63
(lp94
g56
(g57
g58
NtRp95
(dp96
g61
(dp97
g69
I5
ssg70
g91
sg63
(lp98
S'False'
p99
asbasbasbag56
(g72
g58
NtRp100
(dp101
g61
(dp102
sg70
g66
sg63
(lp103
g56
(g77
g58
NtRp104
(dp105
g61
(dp106
g81
g82
ssg70
g100
sg63
(lp107
S'application'
p108
asbag56
(g77
g58
NtRp109
(dp110
g61
(dp111
g88
g89
ssg70
g100
sg63
(lp112
S':'
asbag56
(g77
g58
NtRp113
(dp114
g61
(dp115
sg70
g100
sg63
(lp116
g56
(g57
g58
NtRp117
(dp118
g61
(dp119
g69
I5
ssg70
g113
sg63
(lp120
S'synopsis'
p121
asbasbasbag56
(g72
g58
NtRp122
(dp123
g61
(dp124
sg70
g66
sg63
(lp125
g56
(g77
g58
NtRp126
(dp127
g61
(dp128
g81
g82
ssg70
g122
sg63
(lp129
g23
asbag56
(g77
g58
NtRp130
(dp131
g61
(dp132
g88
g89
ssg70
g122
sg63
(lp133
S':'
asbag56
(g77
g58
NtRp134
(dp135
g61
(dp136
sg70
g122
sg63
(lp137
g56
(g57
g58
NtRp138
(dp139
g61
(dp140
g69
I5
ssg70
g134
sg63
(lp141
g56
(g65
g58
NtRp142
(dp143
g61
(dp144
g69
I4
ssg70
Nsg63
(lp145
g56
(g72
g58
NtRp146
(dp147
g61
(dp148
sg70
g142
sg63
(lp149
g56
(g77
g58
NtRp150
(dp151
g61
(dp152
sg70
g146
sg63
(lp153
g56
(g57
g58
NtRp154
(dp155
g61
(dp156
g69
I4
ssg70
g150
sg63
(lp157
S'8'
asbasbasbasbasbasbasbag56
(g72
g58
NtRp158
(dp159
g61
(dp160
sg70
g66
sg63
(lp161
g56
(g77
g58
NtRp162
(dp163
g61
(dp164
g81
g82
ssg70
g158
sg63
(lp165
S'body'
p166
asbag56
(g77
g58
NtRp167
(dp168
g61
(dp169
g88
g89
ssg70
g158
sg63
(lp170
S':'
asbag56
(g77
g58
NtRp171
(dp172
g61
(dp173
sg70
g158
sg63
(lp174
g56
(g57
g58
NtRp175
(dp176
g61
(dp177
g69
I5
ssg70
g171
sg63
(lp178
S'<cStringIO.StringO object at 0x1ca1030>'
p179
asbasbasbag56
(g72
g58
NtRp180
(dp181
g61
(dp182
sg70
g66
sg63
(lp183
g56
(g77
g58
NtRp184
(dp185
g61
(dp186
g81
g82
ssg70
g180
sg63
(lp187
S'client'
p188
asbag56
(g77
g58
NtRp189
(dp190
g61
(dp191
g88
g89
ssg70
g180
sg63
(lp192
S':'
asbag56
(g77
g58
NtRp193
(dp194
g61
(dp195
sg70
g180
sg63
(lp196
g56
(g57
g58
NtRp197
(dp198
g61
(dp199
g69
I5
ssg70
g193
sg63
(lp200
S'127.0.0.1'
p201
asbasbasbag56
(g72
g58
NtRp202
(dp203
g61
(dp204
sg70
g66
sg63
(lp205
g56
(g77
g58
NtRp206
(dp207
g61
(dp208
g81
g82
ssg70
g202
sg63
(lp209
S'controller'
p210
asbag56
(g77
g58
NtRp211
(dp212
g61
(dp213
g88
g89
ssg70
g202
sg63
(lp214
S':'
asbag56
(g77
g58
NtRp215
(dp216
g61
(dp217
sg70
g202
sg63
(lp218
g56
(g57
g58
NtRp219
(dp220
g61
(dp221
g69
I5
ssg70
g215
sg63
(lp222
S'information'
p223
asbasbasbag56
(g72
g58
NtRp224
(dp225
g61
(dp226
sg70
g66
sg63
(lp227
g56
(g77
g58
NtRp228
(dp229
g61
(dp230
g81
g82
ssg70
g224
sg63
(lp231
S'cookies'
p232
asbag56
(g77
g58
NtRp233
(dp234
g61
(dp235
g88
g89
ssg70
g224
sg63
(lp236
S':'
asbag56
(g77
g58
NtRp237
(dp238
g61
(dp239
sg70
g224
sg63
(lp240
g56
(g57
g58
NtRp241
(dp242
g61
(dp243
g69
I5
ssg70
g237
sg63
(lp244
g56
(g65
g58
NtRp245
(dp246
g61
(dp247
g69
I4
ssg70
Nsg63
(lp248
g56
(g72
g58
NtRp249
(dp250
g61
(dp251
sg70
g245
sg63
(lp252
g56
(g77
g58
NtRp253
(dp254
g61
(dp255
g81
g82
ssg70
g249
sg63
(lp256
S'PHPSESSID'
p257
asbag56
(g77
g58
NtRp258
(dp259
g61
(dp260
g88
g89
ssg70
g249
sg63
(lp261
S':'
asbag56
(g77
g58
NtRp262
(dp263
g61
(dp264
sg70
g249
sg63
(lp265
g56
(g57
g58
NtRp266
(dp267
g61
(dp268
g69
I4
ssg70
g262
sg63
(lp269
g56
(g65
g58
NtRp270
(dp271
g61
(dp272
g69
I3
ssg70
Nsg63
(lp273
g56
(g72
g58
NtRp274
(dp275
g61
(dp276
sg70
g270
sg63
(lp277
g56
(g77
g58
NtRp278
(dp279
g61
(dp280
g81
g82
ssg70
g274
sg63
(lp281
S'comment'
p282
asbag56
(g77
g58
NtRp283
(dp284
g61
(dp285
g88
g89
ssg70
g274
sg63
(lp286
S':'
asbag56
(g77
g58
NtRp287
(dp288
g61
(dp289
sg70
g274
sg63
(lp290
g56
(g57
g58
NtRp291
(dp292
g61
(dp293
g69
I3
ssg70
g287
sg63
(lp294
S''
asbasbasbag56
(g72
g58
NtRp295
(dp296
g61
(dp297
sg70
g270
sg63
(lp298
g56
(g77
g58
NtRp299
(dp300
g61
(dp301
g81
g82
ssg70
g295
sg63
(lp302
S'domain'
p303
asbag56
(g77
g58
NtRp304
(dp305
g61
(dp306
g88
g89
ssg70
g295
sg63
(lp307
S':'
asbag56
(g77
g58
NtRp308
(dp309
g61
(dp310
sg70
g295
sg63
(lp311
g56
(g57
g58
NtRp312
(dp313
g61
(dp314
g69
I3
ssg70
g308
sg63
(lp315
S''
asbasbasbag56
(g72
g58
NtRp316
(dp317
g61
(dp318
sg70
g270
sg63
(lp319
g56
(g77
g58
NtRp320
(dp321
g61
(dp322
g81
g82
ssg70
g316
sg63
(lp323
S'expires'
p324
asbag56
(g77
g58
NtRp325
(dp326
g61
(dp327
g88
g89
ssg70
g316
sg63
(lp328
S':'
asbag56
(g77
g58
NtRp329
(dp330
g61
(dp331
sg70
g316
sg63
(lp332
g56
(g57
g58
NtRp333
(dp334
g61
(dp335
g69
I3
ssg70
g329
sg63
(lp336
S''
asbasbasbag56
(g72
g58
NtRp337
(dp338
g61
(dp339
sg70
g270
sg63
(lp340
g56
(g77
g58
NtRp341
(dp342
g61
(dp343
g81
g82
ssg70
g337
sg63
(lp344
S'httponly'
p345
asbag56
(g77
g58
NtRp346
(dp347
g61
(dp348
g88
g89
ssg70
g337
sg63
(lp349
S':'
asbag56
(g77
g58
NtRp350
(dp351
g61
(dp352
sg70
g337
sg63
(lp353
g56
(g57
g58
NtRp354
(dp355
g61
(dp356
g69
I3
ssg70
g350
sg63
(lp357
S''
asbasbasbag56
(g72
g58
NtRp358
(dp359
g61
(dp360
sg70
g270
sg63
(lp361
g56
(g77
g58
NtRp362
(dp363
g61
(dp364
g81
g82
ssg70
g358
sg63
(lp365
S'max-age'
p366
asbag56
(g77
g58
NtRp367
(dp368
g61
(dp369
g88
g89
ssg70
g358
sg63
(lp370
S':'
asbag56
(g77
g58
NtRp371
(dp372
g61
(dp373
sg70
g358
sg63
(lp374
g56
(g57
g58
NtRp375
(dp376
g61
(dp377
g69
I3
ssg70
g371
sg63
(lp378
S''
asbasbasbag56
(g72
g58
NtRp379
(dp380
g61
(dp381
sg70
g270
sg63
(lp382
g56
(g77
g58
NtRp383
(dp384
g61
(dp385
g81
g82
ssg70
g379
sg63
(lp386
S'path'
p387
asbag56
(g77
g58
NtRp388
(dp389
g61
(dp390
g88
g89
ssg70
g379
sg63
(lp391
S':'
asbag56
(g77
g58
NtRp392
(dp393
g61
(dp394
sg70
g379
sg63
(lp395
g56
(g57
g58
NtRp396
(dp397
g61
(dp398
g69
I3
ssg70
g392
sg63
(lp399
S''
asbasbasbag56
(g72
g58
NtRp400
(dp401
g61
(dp402
sg70
g270
sg63
(lp403
g56
(g77
g58
NtRp404
(dp405
g61
(dp406
g81
g82
ssg70
g400
sg63
(lp407
S'secure'
p408
asbag56
(g77
g58
NtRp409
(dp410
g61
(dp411
g88
g89
ssg70
g400
sg63
(lp412
S':'
asbag56
(g77
g58
NtRp413
(dp414
g61
(dp415
sg70
g400
sg63
(lp416
g56
(g57
g58
NtRp417
(dp418
g61
(dp419
g69
I3
ssg70
g413
sg63
(lp420
S''
asbasbasbag56
(g72
g58
NtRp421
(dp422
g61
(dp423
sg70
g270
sg63
(lp424
g56
(g77
g58
NtRp425
(dp426
g61
(dp427
g81
g82
ssg70
g421
sg63
(lp428
S'version'
p429
asbag56
(g77
g58
NtRp430
(dp431
g61
(dp432
g88
g89
ssg70
g421
sg63
(lp433
S':'
asbag56
(g77
g58
NtRp434
(dp435
g61
(dp436
sg70
g421
sg63
(lp437
g56
(g57
g58
NtRp438
(dp439
g61
(dp440
g69
I3
ssg70
g434
sg63
(lp441
S''
asbasbasbasbasbasbasbag56
(g72
g58
NtRp442
(dp443
g61
(dp444
sg70
g245
sg63
(lp445
g56
(g77
g58
NtRp446
(dp447
g61
(dp448
g81
g82
ssg70
g442
sg63
(lp449
S'currency'
p450
asbag56
(g77
g58
NtRp451
(dp452
g61
(dp453
g88
g89
ssg70
g442
sg63
(lp454
S':'
asbag56
(g77
g58
NtRp455
(dp456
g61
(dp457
sg70
g442
sg63
(lp458
g56
(g57
g58
NtRp459
(dp460
g61
(dp461
g69
I4
ssg70
g455
sg63
(lp462
g56
(g65
g58
NtRp463
(dp464
g61
(dp465
g69
I3
ssg70
Nsg63
(lp466
g56
(g72
g58
NtRp467
(dp468
g61
(dp469
sg70
g463
sg63
(lp470
g56
(g77
g58
NtRp471
(dp472
g61
(dp473
g81
g82
ssg70
g467
sg63
(lp474
g282
asbag56
(g77
g58
NtRp475
(dp476
g61
(dp477
g88
g89
ssg70
g467
sg63
(lp478
S':'
asbag56
(g77
g58
NtRp479
(dp480
g61
(dp481
sg70
g467
sg63
(lp482
g56
(g57
g58
NtRp483
(dp484
g61
(dp485
g69
I3
ssg70
g479
sg63
(lp486
S''
asbasbasbag56
(g72
g58
NtRp487
(dp488
g61
(dp489
sg70
g463
sg63
(lp490
g56
(g77
g58
NtRp491
(dp492
g61
(dp493
g81
g82
ssg70
g487
sg63
(lp494
g303
asbag56
(g77
g58
NtRp495
(dp496
g61
(dp497
g88
g89
ssg70
g487
sg63
(lp498
S':'
asbag56
(g77
g58
NtRp499
(dp500
g61
(dp501
sg70
g487
sg63
(lp502
g56
(g57
g58
NtRp503
(dp504
g61
(dp505
g69
I3
ssg70
g499
sg63
(lp506
S''
asbasbasbag56
(g72
g58
NtRp507
(dp508
g61
(dp509
sg70
g463
sg63
(lp510
g56
(g77
g58
NtRp511
(dp512
g61
(dp513
g81
g82
ssg70
g507
sg63
(lp514
g324
asbag56
(g77
g58
NtRp515
(dp516
g61
(dp517
g88
g89
ssg70
g507
sg63
(lp518
S':'
asbag56
(g77
g58
NtRp519
(dp520
g61
(dp521
sg70
g507
sg63
(lp522
g56
(g57
g58
NtRp523
(dp524
g61
(dp525
g69
I3
ssg70
g519
sg63
(lp526
S''
asbasbasbag56
(g72
g58
NtRp527
(dp528
g61
(dp529
sg70
g463
sg63
(lp530
g56
(g77
g58
NtRp531
(dp532
g61
(dp533
g81
g82
ssg70
g527
sg63
(lp534
g345
asbag56
(g77
g58
NtRp535
(dp536
g61
(dp537
g88
g89
ssg70
g527
sg63
(lp538
S':'
asbag56
(g77
g58
NtRp539
(dp540
g61
(dp541
sg70
g527
sg63
(lp542
g56
(g57
g58
NtRp543
(dp544
g61
(dp545
g69
I3
ssg70
g539
sg63
(lp546
S''
asbasbasbag56
(g72
g58
NtRp547
(dp548
g61
(dp549
sg70
g463
sg63
(lp550
g56
(g77
g58
NtRp551
(dp552
g61
(dp553
g81
g82
ssg70
g547
sg63
(lp554
g366
asbag56
(g77
g58
NtRp555
(dp556
g61
(dp557
g88
g89
ssg70
g547
sg63
(lp558
S':'
asbag56
(g77
g58
NtRp559
(dp560
g61
(dp561
sg70
g547
sg63
(lp562
g56
(g57
g58
NtRp563
(dp564
g61
(dp565
g69
I3
ssg70
g559
sg63
(lp566
S''
asbasbasbag56
(g72
g58
NtRp567
(dp568
g61
(dp569
sg70
g463
sg63
(lp570
g56
(g77
g58
NtRp571
(dp572
g61
(dp573
g81
g82
ssg70
g567
sg63
(lp574
g387
asbag56
(g77
g58
NtRp575
(dp576
g61
(dp577
g88
g89
ssg70
g567
sg63
(lp578
S':'
asbag56
(g77
g58
NtRp579
(dp580
g61
(dp581
sg70
g567
sg63
(lp582
g56
(g57
g58
NtRp583
(dp584
g61
(dp585
g69
I3
ssg70
g579
sg63
(lp586
S''
asbasbasbag56
(g72
g58
NtRp587
(dp588
g61
(dp589
sg70
g463
sg63
(lp590
g56
(g77
g58
NtRp591
(dp592
g61
(dp593
g81
g82
ssg70
g587
sg63
(lp594
g408
asbag56
(g77
g58
NtRp595
(dp596
g61
(dp597
g88
g89
ssg70
g587
sg63
(lp598
S':'
asbag56
(g77
g58
NtRp599
(dp600
g61
(dp601
sg70
g587
sg63
(lp602
g56
(g57
g58
NtRp603
(dp604
g61
(dp605
g69
I3
ssg70
g599
sg63
(lp606
S''
asbasbasbag56
(g72
g58
NtRp607
(dp608
g61
(dp609
sg70
g463
sg63
(lp610
g56
(g77
g58
NtRp611
(dp612
g61
(dp613
g81
g82
ssg70
g607
sg63
(lp614
g429
asbag56
(g77
g58
NtRp615
(dp616
g61
(dp617
g88
g89
ssg70
g607
sg63
(lp618
S':'
asbag56
(g77
g58
NtRp619
(dp620
g61
(dp621
sg70
g607
sg63
(lp622
g56
(g57
g58
NtRp623
(dp624
g61
(dp625
g69
I3
ssg70
g619
sg63
(lp626
S''
asbasbasbasbasbasbasbag56
(g72
g58
NtRp627
(dp628
g61
(dp629
sg70
g245
sg63
(lp630
g56
(g77
g58
NtRp631
(dp632
g61
(dp633
g81
g82
ssg70
g627
sg63
(lp634
S'session_id_admin'
p635
asbag56
(g77
g58
NtRp636
(dp637
g61
(dp638
g88
g89
ssg70
g627
sg63
(lp639
S':'
asbag56
(g77
g58
NtRp640
(dp641
g61
(dp642
sg70
g627
sg63
(lp643
g56
(g57
g58
NtRp644
(dp645
g61
(dp646
g69
I4
ssg70
g640
sg63
(lp647
g56
(g65
g58
NtRp648
(dp649
g61
(dp650
g69
I3
ssg70
Nsg63
(lp651
g56
(g72
g58
NtRp652
(dp653
g61
(dp654
sg70
g648
sg63
(lp655
g56
(g77
g58
NtRp656
(dp657
g61
(dp658
g81
g82
ssg70
g652
sg63
(lp659
g282
asbag56
(g77
g58
NtRp660
(dp661
g61
(dp662
g88
g89
ssg70
g652
sg63
(lp663
S':'
asbag56
(g77
g58
NtRp664
(dp665
g61
(dp666
sg70
g652
sg63
(lp667
g56
(g57
g58
NtRp668
(dp669
g61
(dp670
g69
I3
ssg70
g664
sg63
(lp671
S''
asbasbasbag56
(g72
g58
NtRp672
(dp673
g61
(dp674
sg70
g648
sg63
(lp675
g56
(g77
g58
NtRp676
(dp677
g61
(dp678
g81
g82
ssg70
g672
sg63
(lp679
g303
asbag56
(g77
g58
NtRp680
(dp681
g61
(dp682
g88
g89
ssg70
g672
sg63
(lp683
S':'
asbag56
(g77
g58
NtRp684
(dp685
g61
(dp686
sg70
g672
sg63
(lp687
g56
(g57
g58
NtRp688
(dp689
g61
(dp690
g69
I3
ssg70
g684
sg63
(lp691
S''
asbasbasbag56
(g72
g58
NtRp692
(dp693
g61
(dp694
sg70
g648
sg63
(lp695
g56
(g77
g58
NtRp696
(dp697
g61
(dp698
g81
g82
ssg70
g692
sg63
(lp699
g324
asbag56
(g77
g58
NtRp700
(dp701
g61
(dp702
g88
g89
ssg70
g692
sg63
(lp703
S':'
asbag56
(g77
g58
NtRp704
(dp705
g61
(dp706
sg70
g692
sg63
(lp707
g56
(g57
g58
NtRp708
(dp709
g61
(dp710
g69
I3
ssg70
g704
sg63
(lp711
S''
asbasbasbag56
(g72
g58
NtRp712
(dp713
g61
(dp714
sg70
g648
sg63
(lp715
g56
(g77
g58
NtRp716
(dp717
g61
(dp718
g81
g82
ssg70
g712
sg63
(lp719
g345
asbag56
(g77
g58
NtRp720
(dp721
g61
(dp722
g88
g89
ssg70
g712
sg63
(lp723
S':'
asbag56
(g77
g58
NtRp724
(dp725
g61
(dp726
sg70
g712
sg63
(lp727
g56
(g57
g58
NtRp728
(dp729
g61
(dp730
g69
I3
ssg70
g724
sg63
(lp731
S''
asbasbasbag56
(g72
g58
NtRp732
(dp733
g61
(dp734
sg70
g648
sg63
(lp735
g56
(g77
g58
NtRp736
(dp737
g61
(dp738
g81
g82
ssg70
g732
sg63
(lp739
g366
asbag56
(g77
g58
NtRp740
(dp741
g61
(dp742
g88
g89
ssg70
g732
sg63
(lp743
S':'
asbag56
(g77
g58
NtRp744
(dp745
g61
(dp746
sg70
g732
sg63
(lp747
g56
(g57
g58
NtRp748
(dp749
g61
(dp750
g69
I3
ssg70
g744
sg63
(lp751
S''
asbasbasbag56
(g72
g58
NtRp752
(dp753
g61
(dp754
sg70
g648
sg63
(lp755
g56
(g77
g58
NtRp756
(dp757
g61
(dp758
g81
g82
ssg70
g752
sg63
(lp759
g387
asbag56
(g77
g58
NtRp760
(dp761
g61
(dp762
g88
g89
ssg70
g752
sg63
(lp763
S':'
asbag56
(g77
g58
NtRp764
(dp765
g61
(dp766
sg70
g752
sg63
(lp767
g56
(g57
g58
NtRp768
(dp769
g61
(dp770
g69
I3
ssg70
g764
sg63
(lp771
S''
asbasbasbag56
(g72
g58
NtRp772
(dp773
g61
(dp774
sg70
g648
sg63
(lp775
g56
(g77
g58
NtRp776
(dp777
g61
(dp778
g81
g82
ssg70
g772
sg63
(lp779
g408
asbag56
(g77
g58
NtRp780
(dp781
g61
(dp782
g88
g89
ssg70
g772
sg63
(lp783
S':'
asbag56
(g77
g58
NtRp784
(dp785
g61
(dp786
sg70
g772
sg63
(lp787
g56
(g57
g58
NtRp788
(dp789
g61
(dp790
g69
I3
ssg70
g784
sg63
(lp791
S''
asbasbasbag56
(g72
g58
NtRp792
(dp793
g61
(dp794
sg70
g648
sg63
(lp795
g56
(g77
g58
NtRp796
(dp797
g61
(dp798
g81
g82
ssg70
g792
sg63
(lp799
g429
asbag56
(g77
g58
NtRp800
(dp801
g61
(dp802
g88
g89
ssg70
g792
sg63
(lp803
S':'
asbag56
(g77
g58
NtRp804
(dp805
g61
(dp806
sg70
g792
sg63
(lp807
g56
(g57
g58
NtRp808
(dp809
g61
(dp810
g69
I3
ssg70
g804
sg63
(lp811
S''
asbasbasbasbasbasbasbag56
(g72
g58
NtRp812
(dp813
g61
(dp814
sg70
g245
sg63
(lp815
g56
(g77
g58
NtRp816
(dp817
g61
(dp818
g81
g82
ssg70
g812
sg63
(lp819
S'session_id_synopsis'
p820
asbag56
(g77
g58
NtRp821
(dp822
g61
(dp823
g88
g89
ssg70
g812
sg63
(lp824
S':'
asbag56
(g77
g58
NtRp825
(dp826
g61
(dp827
sg70
g812
sg63
(lp828
g56
(g57
g58
NtRp829
(dp830
g61
(dp831
g69
I4
ssg70
g825
sg63
(lp832
g56
(g65
g58
NtRp833
(dp834
g61
(dp835
g69
I3
ssg70
Nsg63
(lp836
g56
(g72
g58
NtRp837
(dp838
g61
(dp839
sg70
g833
sg63
(lp840
g56
(g77
g58
NtRp841
(dp842
g61
(dp843
g81
g82
ssg70
g837
sg63
(lp844
g282
asbag56
(g77
g58
NtRp845
(dp846
g61
(dp847
g88
g89
ssg70
g837
sg63
(lp848
S':'
asbag56
(g77
g58
NtRp849
(dp850
g61
(dp851
sg70
g837
sg63
(lp852
g56
(g57
g58
NtRp853
(dp854
g61
(dp855
g69
I3
ssg70
g849
sg63
(lp856
S''
asbasbasbag56
(g72
g58
NtRp857
(dp858
g61
(dp859
sg70
g833
sg63
(lp860
g56
(g77
g58
NtRp861
(dp862
g61
(dp863
g81
g82
ssg70
g857
sg63
(lp864
g303
asbag56
(g77
g58
NtRp865
(dp866
g61
(dp867
g88
g89
ssg70
g857
sg63
(lp868
S':'
asbag56
(g77
g58
NtRp869
(dp870
g61
(dp871
sg70
g857
sg63
(lp872
g56
(g57
g58
NtRp873
(dp874
g61
(dp875
g69
I3
ssg70
g869
sg63
(lp876
S''
asbasbasbag56
(g72
g58
NtRp877
(dp878
g61
(dp879
sg70
g833
sg63
(lp880
g56
(g77
g58
NtRp881
(dp882
g61
(dp883
g81
g82
ssg70
g877
sg63
(lp884
g324
asbag56
(g77
g58
NtRp885
(dp886
g61
(dp887
g88
g89
ssg70
g877
sg63
(lp888
S':'
asbag56
(g77
g58
NtRp889
(dp890
g61
(dp891
sg70
g877
sg63
(lp892
g56
(g57
g58
NtRp893
(dp894
g61
(dp895
g69
I3
ssg70
g889
sg63
(lp896
S''
asbasbasbag56
(g72
g58
NtRp897
(dp898
g61
(dp899
sg70
g833
sg63
(lp900
g56
(g77
g58
NtRp901
(dp902
g61
(dp903
g81
g82
ssg70
g897
sg63
(lp904
g345
asbag56
(g77
g58
NtRp905
(dp906
g61
(dp907
g88
g89
ssg70
g897
sg63
(lp908
S':'
asbag56
(g77
g58
NtRp909
(dp910
g61
(dp911
sg70
g897
sg63
(lp912
g56
(g57
g58
NtRp913
(dp914
g61
(dp915
g69
I3
ssg70
g909
sg63
(lp916
S''
asbasbasbag56
(g72
g58
NtRp917
(dp918
g61
(dp919
sg70
g833
sg63
(lp920
g56
(g77
g58
NtRp921
(dp922
g61
(dp923
g81
g82
ssg70
g917
sg63
(lp924
g366
asbag56
(g77
g58
NtRp925
(dp926
g61
(dp927
g88
g89
ssg70
g917
sg63
(lp928
S':'
asbag56
(g77
g58
NtRp929
(dp930
g61
(dp931
sg70
g917
sg63
(lp932
g56
(g57
g58
NtRp933
(dp934
g61
(dp935
g69
I3
ssg70
g929
sg63
(lp936
S''
asbasbasbag56
(g72
g58
NtRp937
(dp938
g61
(dp939
sg70
g833
sg63
(lp940
g56
(g77
g58
NtRp941
(dp942
g61
(dp943
g81
g82
ssg70
g937
sg63
(lp944
g387
asbag56
(g77
g58
NtRp945
(dp946
g61
(dp947
g88
g89
ssg70
g937
sg63
(lp948
S':'
asbag56
(g77
g58
NtRp949
(dp950
g61
(dp951
sg70
g937
sg63
(lp952
g56
(g57
g58
NtRp953
(dp954
g61
(dp955
g69
I3
ssg70
g949
sg63
(lp956
S''
asbasbasbag56
(g72
g58
NtRp957
(dp958
g61
(dp959
sg70
g833
sg63
(lp960
g56
(g77
g58
NtRp961
(dp962
g61
(dp963
g81
g82
ssg70
g957
sg63
(lp964
g408
asbag56
(g77
g58
NtRp965
(dp966
g61
(dp967
g88
g89
ssg70
g957
sg63
(lp968
S':'
asbag56
(g77
g58
NtRp969
(dp970
g61
(dp971
sg70
g957
sg63
(lp972
g56
(g57
g58
NtRp973
(dp974
g61
(dp975
g69
I3
ssg70
g969
sg63
(lp976
S''
asbasbasbag56
(g72
g58
NtRp977
(dp978
g61
(dp979
sg70
g833
sg63
(lp980
g56
(g77
g58
NtRp981
(dp982
g61
(dp983
g81
g82
ssg70
g977
sg63
(lp984
g429
asbag56
(g77
g58
NtRp985
(dp986
g61
(dp987
g88
g89
ssg70
g977
sg63
(lp988
S':'
asbag56
(g77
g58
NtRp989
(dp990
g61
(dp991
sg70
g977
sg63
(lp992
g56
(g57
g58
NtRp993
(dp994
g61
(dp995
g69
I3
ssg70
g989
sg63
(lp996
S''
asbasbasbasbasbasbasbag56
(g72
g58
NtRp997
(dp998
g61
(dp999
sg70
g245
sg63
(lp1000
g56
(g77
g58
NtRp1001
(dp1002
g61
(dp1003
g81
g82
ssg70
g997
sg63
(lp1004
S'session_id_welcome'
p1005
asbag56
(g77
g58
NtRp1006
(dp1007
g61
(dp1008
g88
g89
ssg70
g997
sg63
(lp1009
S':'
asbag56
(g77
g58
NtRp1010
(dp1011
g61
(dp1012
sg70
g997
sg63
(lp1013
g56
(g57
g58
NtRp1014
(dp1015
g61
(dp1016
g69
I4
ssg70
g1010
sg63
(lp1017
g56
(g65
g58
NtRp1018
(dp1019
g61
(dp1020
g69
I3
ssg70
Nsg63
(lp1021
g56
(g72
g58
NtRp1022
(dp1023
g61
(dp1024
sg70
g1018
sg63
(lp1025
g56
(g77
g58
NtRp1026
(dp1027
g61
(dp1028
g81
g82
ssg70
g1022
sg63
(lp1029
g282
asbag56
(g77
g58
NtRp1030
(dp1031
g61
(dp1032
g88
g89
ssg70
g1022
sg63
(lp1033
S':'
asbag56
(g77
g58
NtRp1034
(dp1035
g61
(dp1036
sg70
g1022
sg63
(lp1037
g56
(g57
g58
NtRp1038
(dp1039
g61
(dp1040
g69
I3
ssg70
g1034
sg63
(lp1041
S''
asbasbasbag56
(g72
g58
NtRp1042
(dp1043
g61
(dp1044
sg70
g1018
sg63
(lp1045
g56
(g77
g58
NtRp1046
(dp1047
g61
(dp1048
g81
g82
ssg70
g1042
sg63
(lp1049
g303
asbag56
(g77
g58
NtRp1050
(dp1051
g61
(dp1052
g88
g89
ssg70
g1042
sg63
(lp1053
S':'
asbag56
(g77
g58
NtRp1054
(dp1055
g61
(dp1056
sg70
g1042
sg63
(lp1057
g56
(g57
g58
NtRp1058
(dp1059
g61
(dp1060
g69
I3
ssg70
g1054
sg63
(lp1061
S''
asbasbasbag56
(g72
g58
NtRp1062
(dp1063
g61
(dp1064
sg70
g1018
sg63
(lp1065
g56
(g77
g58
NtRp1066
(dp1067
g61
(dp1068
g81
g82
ssg70
g1062
sg63
(lp1069
g324
asbag56
(g77
g58
NtRp1070
(dp1071
g61
(dp1072
g88
g89
ssg70
g1062
sg63
(lp1073
S':'
asbag56
(g77
g58
NtRp1074
(dp1075
g61
(dp1076
sg70
g1062
sg63
(lp1077
g56
(g57
g58
NtRp1078
(dp1079
g61
(dp1080
g69
I3
ssg70
g1074
sg63
(lp1081
S''
asbasbasbag56
(g72
g58
NtRp1082
(dp1083
g61
(dp1084
sg70
g1018
sg63
(lp1085
g56
(g77
g58
NtRp1086
(dp1087
g61
(dp1088
g81
g82
ssg70
g1082
sg63
(lp1089
g345
asbag56
(g77
g58
NtRp1090
(dp1091
g61
(dp1092
g88
g89
ssg70
g1082
sg63
(lp1093
S':'
asbag56
(g77
g58
NtRp1094
(dp1095
g61
(dp1096
sg70
g1082
sg63
(lp1097
g56
(g57
g58
NtRp1098
(dp1099
g61
(dp1100
g69
I3
ssg70
g1094
sg63
(lp1101
S''
asbasbasbag56
(g72
g58
NtRp1102
(dp1103
g61
(dp1104
sg70
g1018
sg63
(lp1105
g56
(g77
g58
NtRp1106
(dp1107
g61
(dp1108
g81
g82
ssg70
g1102
sg63
(lp1109
g366
asbag56
(g77
g58
NtRp1110
(dp1111
g61
(dp1112
g88
g89
ssg70
g1102
sg63
(lp1113
S':'
asbag56
(g77
g58
NtRp1114
(dp1115
g61
(dp1116
sg70
g1102
sg63
(lp1117
g56
(g57
g58
NtRp1118
(dp1119
g61
(dp1120
g69
I3
ssg70
g1114
sg63
(lp1121
S''
asbasbasbag56
(g72
g58
NtRp1122
(dp1123
g61
(dp1124
sg70
g1018
sg63
(lp1125
g56
(g77
g58
NtRp1126
(dp1127
g61
(dp1128
g81
g82
ssg70
g1122
sg63
(lp1129
g387
asbag56
(g77
g58
NtRp1130
(dp1131
g61
(dp1132
g88
g89
ssg70
g1122
sg63
(lp1133
S':'
asbag56
(g77
g58
NtRp1134
(dp1135
g61
(dp1136
sg70
g1122
sg63
(lp1137
g56
(g57
g58
NtRp1138
(dp1139
g61
(dp1140
g69
I3
ssg70
g1134
sg63
(lp1141
S''
asbasbasbag56
(g72
g58
NtRp1142
(dp1143
g61
(dp1144
sg70
g1018
sg63
(lp1145
g56
(g77
g58
NtRp1146
(dp1147
g61
(dp1148
g81
g82
ssg70
g1142
sg63
(lp1149
g408
asbag56
(g77
g58
NtRp1150
(dp1151
g61
(dp1152
g88
g89
ssg70
g1142
sg63
(lp1153
S':'
asbag56
(g77
g58
NtRp1154
(dp1155
g61
(dp1156
sg70
g1142
sg63
(lp1157
g56
(g57
g58
NtRp1158
(dp1159
g61
(dp1160
g69
I3
ssg70
g1154
sg63
(lp1161
S''
asbasbasbag56
(g72
g58
NtRp1162
(dp1163
g61
(dp1164
sg70
g1018
sg63
(lp1165
g56
(g77
g58
NtRp1166
(dp1167
g61
(dp1168
g81
g82
ssg70
g1162
sg63
(lp1169
g429
asbag56
(g77
g58
NtRp1170
(dp1171
g61
(dp1172
g88
g89
ssg70
g1162
sg63
(lp1173
S':'
asbag56
(g77
g58
NtRp1174
(dp1175
g61
(dp1176
sg70
g1162
sg63
(lp1177
g56
(g57
g58
NtRp1178
(dp1179
g61
(dp1180
g69
I3
ssg70
g1174
sg63
(lp1181
S''
asbasbasbasbasbasbasbasbasbasbasbag56
(g72
g58
NtRp1182
(dp1183
g61
(dp1184
sg70
g66
sg63
(lp1185
g56
(g77
g58
NtRp1186
(dp1187
g61
(dp1188
g81
g82
ssg70
g1182
sg63
(lp1189
S'env'
p1190
asbag56
(g77
g58
NtRp1191
(dp1192
g61
(dp1193
g88
g89
ssg70
g1182
sg63
(lp1194
S':'
asbag56
(g77
g58
NtRp1195
(dp1196
g61
(dp1197
sg70
g1182
sg63
(lp1198
g56
(g57
g58
NtRp1199
(dp1200
g61
(dp1201
g69
I5
ssg70
g1195
sg63
(lp1202
g56
(g65
g58
NtRp1203
(dp1204
g61
(dp1205
g69
I4
ssg70
Nsg63
(lp1206
g56
(g72
g58
NtRp1207
(dp1208
g61
(dp1209
sg70
g1203
sg63
(lp1210
g56
(g77
g58
NtRp1211
(dp1212
g61
(dp1213
g81
g82
ssg70
g1207
sg63
(lp1214
S'app_folders'
p1215
asbag56
(g77
g58
NtRp1216
(dp1217
g61
(dp1218
g88
g89
ssg70
g1207
sg63
(lp1219
S':'
asbag56
(g77
g58
NtRp1220
(dp1221
g61
(dp1222
sg70
g1207
sg63
(lp1223
g56
(g57
g58
NtRp1224
(dp1225
g61
(dp1226
g69
I4
ssg70
g1220
sg63
(lp1227
S"set(['/home/kaique/Projects/web2py/applications/synopsis/', '/home/kaique/Projects/web2py/applications/admin/'])"
p1228
asbasbasbag56
(g72
g58
NtRp1229
(dp1230
g61
(dp1231
sg70
g1203
sg63
(lp1232
g56
(g77
g58
NtRp1233
(dp1234
g61
(dp1235
g81
g82
ssg70
g1229
sg63
(lp1236
S'applications_parent'
p1237
asbag56
(g77
g58
NtRp1238
(dp1239
g61
(dp1240
g88
g89
ssg70
g1229
sg63
(lp1241
S':'
asbag56
(g77
g58
NtRp1242
(dp1243
g61
(dp1244
sg70
g1229
sg63
(lp1245
g56
(g57
g58
NtRp1246
(dp1247
g61
(dp1248
g69
I4
ssg70
g1242
sg63
(lp1249
S'/home/kaique/Projects/web2py'
p1250
asbasbasbag56
(g72
g58
NtRp1251
(dp1252
g61
(dp1253
sg70
g1203
sg63
(lp1254
g56
(g77
g58
NtRp1255
(dp1256
g61
(dp1257
g81
g82
ssg70
g1251
sg63
(lp1258
S'cmd_args'
p1259
asbag56
(g77
g58
NtRp1260
(dp1261
g61
(dp1262
g88
g89
ssg70
g1251
sg63
(lp1263
S':'
asbag56
(g77
g58
NtRp1264
(dp1265
g61
(dp1266
sg70
g1251
sg63
(lp1267
g56
(g57
g58
NtRp1268
(dp1269
g61
(dp1270
g69
I4
ssg70
g1264
sg63
(lp1271
g56
(g65
g58
NtRp1272
(dp1273
g61
(dp1274
g69
I3
ssg70
Nsg63
(lp1275
sbasbasbasbag56
(g72
g58
NtRp1276
(dp1277
g61
(dp1278
sg70
g1203
sg63
(lp1279
g56
(g77
g58
NtRp1280
(dp1281
g61
(dp1282
g81
g82
ssg70
g1276
sg63
(lp1283
S'cmd_options'
p1284
asbag56
(g77
g58
NtRp1285
(dp1286
g61
(dp1287
g88
g89
ssg70
g1276
sg63
(lp1288
S':'
asbag56
(g77
g58
NtRp1289
(dp1290
g61
(dp1291
sg70
g1276
sg63
(lp1292
g56
(g57
g58
NtRp1293
(dp1294
g61
(dp1295
g69
I4
ssg70
g1289
sg63
(lp1296
S"<Values at 0x15f0950: {'verbose': False, 'ip': '127.0.0.1', 'shutdown_timeout': 5, 'taskbar': False, 'nocron': False, 'pid_filename': 'httpserver.pid', 'maxthreads': None, 'softcron': False, 'server_name': 'kaique-Pine-Trail-M', 'bpython': False, 'nogui': False, 'port': 8000, 'extcron': False, 'debuglevel': 30, 'test': None, 'folder': '/home/kaique/Projects/web2py', 'config': '', 'import_models': False, 'winservice': '', 'shell': None, 'run': '', 'log_filename': 'httpserver.log', 'args': [''], 'ssl_ca_certificate': None, 'scheduler': None, 'profiler_filename': None, 'ssl_private_key': '', 'password': 'dev', 'request_queue_size': 5, 'ssl_certificate': '', 'cronjob': False, 'plain': False, 'quiet': False, 'interfaces': None, 'minthreads': None, 'timeout': 10, 'numthreads': None, 'nobanner': False}>"
p1297
asbasbasbag56
(g72
g58
NtRp1298
(dp1299
g61
(dp1300
sg70
g1203
sg63
(lp1301
g56
(g77
g58
NtRp1302
(dp1303
g61
(dp1304
g81
g82
ssg70
g1298
sg63
(lp1305
S'db_sessions'
p1306
asbag56
(g77
g58
NtRp1307
(dp1308
g61
(dp1309
g88
g89
ssg70
g1298
sg63
(lp1310
S':'
asbag56
(g77
g58
NtRp1311
(dp1312
g61
(dp1313
sg70
g1298
sg63
(lp1314
g56
(g57
g58
NtRp1315
(dp1316
g61
(dp1317
g69
I4
ssg70
g1311
sg63
(lp1318
S'set([])'
p1319
asbasbasbag56
(g72
g58
NtRp1320
(dp1321
g61
(dp1322
sg70
g1203
sg63
(lp1323
g56
(g77
g58
NtRp1324
(dp1325
g61
(dp1326
g81
g82
ssg70
g1320
sg63
(lp1327
S'debugging'
p1328
asbag56
(g77
g58
NtRp1329
(dp1330
g61
(dp1331
g88
g89
ssg70
g1320
sg63
(lp1332
S':'
asbag56
(g77
g58
NtRp1333
(dp1334
g61
(dp1335
sg70
g1320
sg63
(lp1336
g56
(g57
g58
NtRp1337
(dp1338
g61
(dp1339
g69
I4
ssg70
g1333
sg63
(lp1340
g99
asbasbasbag56
(g72
g58
NtRp1341
(dp1342
g61
(dp1343
sg70
g1203
sg63
(lp1344
g56
(g77
g58
NtRp1345
(dp1346
g61
(dp1347
g81
g82
ssg70
g1341
sg63
(lp1348
S'gluon_parent'
p1349
asbag56
(g77
g58
NtRp1350
(dp1351
g61
(dp1352
g88
g89
ssg70
g1341
sg63
(lp1353
S':'
asbag56
(g77
g58
NtRp1354
(dp1355
g61
(dp1356
sg70
g1341
sg63
(lp1357
g56
(g57
g58
NtRp1358
(dp1359
g61
(dp1360
g69
I4
ssg70
g1354
sg63
(lp1361
S'/home/kaique/Projects/web2py'
p1362
asbasbasbag56
(g72
g58
NtRp1363
(dp1364
g61
(dp1365
sg70
g1203
sg63
(lp1366
g56
(g77
g58
NtRp1367
(dp1368
g61
(dp1369
g81
g82
ssg70
g1363
sg63
(lp1370
S'http_accept'
p1371
asbag56
(g77
g58
NtRp1372
(dp1373
g61
(dp1374
g88
g89
ssg70
g1363
sg63
(lp1375
S':'
asbag56
(g77
g58
NtRp1376
(dp1377
g61
(dp1378
sg70
g1363
sg63
(lp1379
g56
(g57
g58
NtRp1380
(dp1381
g61
(dp1382
g69
I4
ssg70
g1376
sg63
(lp1383
S'text/html,application/xhtml+xml,application/xml;q=0.9,*/*;q=0.8'
p1384
asbasbasbag56
(g72
g58
NtRp1385
(dp1386
g61
(dp1387
sg70
g1203
sg63
(lp1388
g56
(g77
g58
NtRp1389
(dp1390
g61
(dp1391
g81
g82
ssg70
g1385
sg63
(lp1392
S'http_accept_charset'
p1393
asbag56
(g77
g58
NtRp1394
(dp1395
g61
(dp1396
g88
g89
ssg70
g1385
sg63
(lp1397
S':'
asbag56
(g77
g58
NtRp1398
(dp1399
g61
(dp1400
sg70
g1385
sg63
(lp1401
g56
(g57
g58
NtRp1402
(dp1403
g61
(dp1404
g69
I4
ssg70
g1398
sg63
(lp1405
S'ISO-8859-1,utf-8;q=0.7,*;q=0.7'
p1406
asbasbasbag56
(g72
g58
NtRp1407
(dp1408
g61
(dp1409
sg70
g1203
sg63
(lp1410
g56
(g77
g58
NtRp1411
(dp1412
g61
(dp1413
g81
g82
ssg70
g1407
sg63
(lp1414
S'http_accept_encoding'
p1415
asbag56
(g77
g58
NtRp1416
(dp1417
g61
(dp1418
g88
g89
ssg70
g1407
sg63
(lp1419
S':'
asbag56
(g77
g58
NtRp1420
(dp1421
g61
(dp1422
sg70
g1407
sg63
(lp1423
g56
(g57
g58
NtRp1424
(dp1425
g61
(dp1426
g69
I4
ssg70
g1420
sg63
(lp1427
S'gzip, deflate'
p1428
asbasbasbag56
(g72
g58
NtRp1429
(dp1430
g61
(dp1431
sg70
g1203
sg63
(lp1432
g56
(g77
g58
NtRp1433
(dp1434
g61
(dp1435
g81
g82
ssg70
g1429
sg63
(lp1436
S'http_accept_language'
p1437
asbag56
(g77
g58
NtRp1438
(dp1439
g61
(dp1440
g88
g89
ssg70
g1429
sg63
(lp1441
S':'
asbag56
(g77
g58
NtRp1442
(dp1443
g61
(dp1444
sg70
g1429
sg63
(lp1445
g56
(g57
g58
NtRp1446
(dp1447
g61
(dp1448
g69
I4
ssg70
g1442
sg63
(lp1449
S'pt-br,pt;q=0.8,en-us;q=0.5,en;q=0.3'
p1450
asbasbasbag56
(g72
g58
NtRp1451
(dp1452
g61
(dp1453
sg70
g1203
sg63
(lp1454
g56
(g77
g58
NtRp1455
(dp1456
g61
(dp1457
g81
g82
ssg70
g1451
sg63
(lp1458
S'http_cache_control'
p1459
asbag56
(g77
g58
NtRp1460
(dp1461
g61
(dp1462
g88
g89
ssg70
g1451
sg63
(lp1463
S':'
asbag56
(g77
g58
NtRp1464
(dp1465
g61
(dp1466
sg70
g1451
sg63
(lp1467
g56
(g57
g58
NtRp1468
(dp1469
g61
(dp1470
g69
I4
ssg70
g1464
sg63
(lp1471
S'max-age=0'
p1472
asbasbasbag56
(g72
g58
NtRp1473
(dp1474
g61
(dp1475
sg70
g1203
sg63
(lp1476
g56
(g77
g58
NtRp1477
(dp1478
g61
(dp1479
g81
g82
ssg70
g1473
sg63
(lp1480
S'http_connection'
p1481
asbag56
(g77
g58
NtRp1482
(dp1483
g61
(dp1484
g88
g89
ssg70
g1473
sg63
(lp1485
S':'
asbag56
(g77
g58
NtRp1486
(dp1487
g61
(dp1488
sg70
g1473
sg63
(lp1489
g56
(g57
g58
NtRp1490
(dp1491
g61
(dp1492
g69
I4
ssg70
g1486
sg63
(lp1493
S'keep-alive'
p1494
asbasbasbag56
(g72
g58
NtRp1495
(dp1496
g61
(dp1497
sg70
g1203
sg63
(lp1498
g56
(g77
g58
NtRp1499
(dp1500
g61
(dp1501
g81
g82
ssg70
g1495
sg63
(lp1502
S'http_cookie'
p1503
asbag56
(g77
g58
NtRp1504
(dp1505
g61
(dp1506
g88
g89
ssg70
g1495
sg63
(lp1507
S':'
asbag56
(g77
g58
NtRp1508
(dp1509
g61
(dp1510
sg70
g1495
sg63
(lp1511
g56
(g57
g58
NtRp1512
(dp1513
g61
(dp1514
g69
I4
ssg70
g1508
sg63
(lp1515
S'currency=GBP; PHPSESSID=9p6ovvset7bb455bs5oc3eara3; session_id_welcome=127.0.0.1-2178f248-6721-4586-ae68-1cad380386a5; session_id_synopsis=127.0.0.1-22caa4ed-0448-4782-a756-bcb437fd81d3; session_id_admin=127.0.0.1-0b87d24d-feef-4771-9611-26979c7dbdf1'
p1516
asbasbasbag56
(g72
g58
NtRp1517
(dp1518
g61
(dp1519
sg70
g1203
sg63
(lp1520
g56
(g77
g58
NtRp1521
(dp1522
g61
(dp1523
g81
g82
ssg70
g1517
sg63
(lp1524
S'http_host'
p1525
asbag56
(g77
g58
NtRp1526
(dp1527
g61
(dp1528
g88
g89
ssg70
g1517
sg63
(lp1529
S':'
asbag56
(g77
g58
NtRp1530
(dp1531
g61
(dp1532
sg70
g1517
sg63
(lp1533
g56
(g57
g58
NtRp1534
(dp1535
g61
(dp1536
g69
I4
ssg70
g1530
sg63
(lp1537
S'localhost:8000'
p1538
asbasbasbag56
(g72
g58
NtRp1539
(dp1540
g61
(dp1541
sg70
g1203
sg63
(lp1542
g56
(g77
g58
NtRp1543
(dp1544
g61
(dp1545
g81
g82
ssg70
g1539
sg63
(lp1546
S'http_referer'
p1547
asbag56
(g77
g58
NtRp1548
(dp1549
g61
(dp1550
g88
g89
ssg70
g1539
sg63
(lp1551
S':'
asbag56
(g77
g58
NtRp1552
(dp1553
g61
(dp1554
sg70
g1539
sg63
(lp1555
g56
(g57
g58
NtRp1556
(dp1557
g61
(dp1558
g69
I4
ssg70
g1552
sg63
(lp1559
S'http://localhost:8000/synopsis/information/new/column/8'
p1560
asbasbasbag56
(g72
g58
NtRp1561
(dp1562
g61
(dp1563
sg70
g1203
sg63
(lp1564
g56
(g77
g58
NtRp1565
(dp1566
g61
(dp1567
g81
g82
ssg70
g1561
sg63
(lp1568
S'http_user_agent'
p1569
asbag56
(g77
g58
NtRp1570
(dp1571
g61
(dp1572
g88
g89
ssg70
g1561
sg63
(lp1573
S':'
asbag56
(g77
g58
NtRp1574
(dp1575
g61
(dp1576
sg70
g1561
sg63
(lp1577
g56
(g57
g58
NtRp1578
(dp1579
g61
(dp1580
g69
I4
ssg70
g1574
sg63
(lp1581
S'Mozilla/5.0 (Ubuntu; X11; Linux x86_64; rv:9.0.1) Gecko/20100101 Firefox/9.0.1'
p1582
asbasbasbag56
(g72
g58
NtRp1583
(dp1584
g61
(dp1585
sg70
g1203
sg63
(lp1586
g56
(g77
g58
NtRp1587
(dp1588
g61
(dp1589
g81
g82
ssg70
g1583
sg63
(lp1590
S'is_jython'
p1591
asbag56
(g77
g58
NtRp1592
(dp1593
g61
(dp1594
g88
g89
ssg70
g1583
sg63
(lp1595
S':'
asbag56
(g77
g58
NtRp1596
(dp1597
g61
(dp1598
sg70
g1583
sg63
(lp1599
g56
(g57
g58
NtRp1600
(dp1601
g61
(dp1602
g69
I4
ssg70
g1596
sg63
(lp1603
g99
asbasbasbag56
(g72
g58
NtRp1604
(dp1605
g61
(dp1606
sg70
g1203
sg63
(lp1607
g56
(g77
g58
NtRp1608
(dp1609
g61
(dp1610
g81
g82
ssg70
g1604
sg63
(lp1611
S'path_info'
p1612
asbag56
(g77
g58
NtRp1613
(dp1614
g61
(dp1615
g88
g89
ssg70
g1604
sg63
(lp1616
S':'
asbag56
(g77
g58
NtRp1617
(dp1618
g61
(dp1619
sg70
g1604
sg63
(lp1620
g56
(g57
g58
NtRp1621
(dp1622
g61
(dp1623
g69
I4
ssg70
g1617
sg63
(lp1624
S'/synopsis/information/publication/8'
p1625
asbasbasbag56
(g72
g58
NtRp1626
(dp1627
g61
(dp1628
sg70
g1203
sg63
(lp1629
g56
(g77
g58
NtRp1630
(dp1631
g61
(dp1632
g81
g82
ssg70
g1626
sg63
(lp1633
S'query_string'
p1634
asbag56
(g77
g58
NtRp1635
(dp1636
g61
(dp1637
g88
g89
ssg70
g1626
sg63
(lp1638
S':'
asbag56
(g77
g58
NtRp1639
(dp1640
g61
(dp1641
sg70
g1626
sg63
(lp1642
g56
(g57
g58
NtRp1643
(dp1644
g61
(dp1645
g69
I4
ssg70
g1639
sg63
(lp1646
S''
asbasbasbag56
(g72
g58
NtRp1647
(dp1648
g61
(dp1649
sg70
g1203
sg63
(lp1650
g56
(g77
g58
NtRp1651
(dp1652
g61
(dp1653
g81
g82
ssg70
g1647
sg63
(lp1654
S'remote_addr'
p1655
asbag56
(g77
g58
NtRp1656
(dp1657
g61
(dp1658
g88
g89
ssg70
g1647
sg63
(lp1659
S':'
asbag56
(g77
g58
NtRp1660
(dp1661
g61
(dp1662
sg70
g1647
sg63
(lp1663
g56
(g57
g58
NtRp1664
(dp1665
g61
(dp1666
g69
I4
ssg70
g1660
sg63
(lp1667
g201
asbasbasbag56
(g72
g58
NtRp1668
(dp1669
g61
(dp1670
sg70
g1203
sg63
(lp1671
g56
(g77
g58
NtRp1672
(dp1673
g61
(dp1674
g81
g82
ssg70
g1668
sg63
(lp1675
S'remote_port'
p1676
asbag56
(g77
g58
NtRp1677
(dp1678
g61
(dp1679
g88
g89
ssg70
g1668
sg63
(lp1680
S':'
asbag56
(g77
g58
NtRp1681
(dp1682
g61
(dp1683
sg70
g1668
sg63
(lp1684
g56
(g57
g58
NtRp1685
(dp1686
g61
(dp1687
g69
I4
ssg70
g1681
sg63
(lp1688
S'60597'
p1689
asbasbasbag56
(g72
g58
NtRp1690
(dp1691
g61
(dp1692
sg70
g1203
sg63
(lp1693
g56
(g77
g58
NtRp1694
(dp1695
g61
(dp1696
g81
g82
ssg70
g1690
sg63
(lp1697
S'request_method'
p1698
asbag56
(g77
g58
NtRp1699
(dp1700
g61
(dp1701
g88
g89
ssg70
g1690
sg63
(lp1702
S':'
asbag56
(g77
g58
NtRp1703
(dp1704
g61
(dp1705
sg70
g1690
sg63
(lp1706
g56
(g57
g58
NtRp1707
(dp1708
g61
(dp1709
g69
I4
ssg70
g1703
sg63
(lp1710
S'GET'
p1711
asbasbasbag56
(g72
g58
NtRp1712
(dp1713
g61
(dp1714
sg70
g1203
sg63
(lp1715
g56
(g77
g58
NtRp1716
(dp1717
g61
(dp1718
g81
g82
ssg70
g1712
sg63
(lp1719
S'script_name'
p1720
asbag56
(g77
g58
NtRp1721
(dp1722
g61
(dp1723
g88
g89
ssg70
g1712
sg63
(lp1724
S':'
asbag56
(g77
g58
NtRp1725
(dp1726
g61
(dp1727
sg70
g1712
sg63
(lp1728
g56
(g57
g58
NtRp1729
(dp1730
g61
(dp1731
g69
I4
ssg70
g1725
sg63
(lp1732
S''
asbasbasbag56
(g72
g58
NtRp1733
(dp1734
g61
(dp1735
sg70
g1203
sg63
(lp1736
g56
(g77
g58
NtRp1737
(dp1738
g61
(dp1739
g81
g82
ssg70
g1733
sg63
(lp1740
S'server_name'
p1741
asbag56
(g77
g58
NtRp1742
(dp1743
g61
(dp1744
g88
g89
ssg70
g1733
sg63
(lp1745
S':'
asbag56
(g77
g58
NtRp1746
(dp1747
g61
(dp1748
sg70
g1733
sg63
(lp1749
g56
(g57
g58
NtRp1750
(dp1751
g61
(dp1752
g69
I4
ssg70
g1746
sg63
(lp1753
S'kaique-Pine-Trail-M'
p1754
asbasbasbag56
(g72
g58
NtRp1755
(dp1756
g61
(dp1757
sg70
g1203
sg63
(lp1758
g56
(g77
g58
NtRp1759
(dp1760
g61
(dp1761
g81
g82
ssg70
g1755
sg63
(lp1762
S'server_port'
p1763
asbag56
(g77
g58
NtRp1764
(dp1765
g61
(dp1766
g88
g89
ssg70
g1755
sg63
(lp1767
S':'
asbag56
(g77
g58
NtRp1768
(dp1769
g61
(dp1770
sg70
g1755
sg63
(lp1771
g56
(g57
g58
NtRp1772
(dp1773
g61
(dp1774
g69
I4
ssg70
g1768
sg63
(lp1775
S'8000'
p1776
asbasbasbag56
(g72
g58
NtRp1777
(dp1778
g61
(dp1779
sg70
g1203
sg63
(lp1780
g56
(g77
g58
NtRp1781
(dp1782
g61
(dp1783
g81
g82
ssg70
g1777
sg63
(lp1784
S'server_protocol'
p1785
asbag56
(g77
g58
NtRp1786
(dp1787
g61
(dp1788
g88
g89
ssg70
g1777
sg63
(lp1789
S':'
asbag56
(g77
g58
NtRp1790
(dp1791
g61
(dp1792
sg70
g1777
sg63
(lp1793
g56
(g57
g58
NtRp1794
(dp1795
g61
(dp1796
g69
I4
ssg70
g1790
sg63
(lp1797
S'HTTP/1.1'
p1798
asbasbasbag56
(g72
g58
NtRp1799
(dp1800
g61
(dp1801
sg70
g1203
sg63
(lp1802
g56
(g77
g58
NtRp1803
(dp1804
g61
(dp1805
g81
g82
ssg70
g1799
sg63
(lp1806
S'server_software'
p1807
asbag56
(g77
g58
NtRp1808
(dp1809
g61
(dp1810
g88
g89
ssg70
g1799
sg63
(lp1811
S':'
asbag56
(g77
g58
NtRp1812
(dp1813
g61
(dp1814
sg70
g1799
sg63
(lp1815
g56
(g57
g58
NtRp1816
(dp1817
g61
(dp1818
g69
I4
ssg70
g1812
sg63
(lp1819
S'Rocket 1.2.4'
p1820
asbasbasbag56
(g72
g58
NtRp1821
(dp1822
g61
(dp1823
sg70
g1203
sg63
(lp1824
g56
(g77
g58
NtRp1825
(dp1826
g61
(dp1827
g81
g82
ssg70
g1821
sg63
(lp1828
S'web2py_crontype'
p1829
asbag56
(g77
g58
NtRp1830
(dp1831
g61
(dp1832
g88
g89
ssg70
g1821
sg63
(lp1833
S':'
asbag56
(g77
g58
NtRp1834
(dp1835
g61
(dp1836
sg70
g1821
sg63
(lp1837
g56
(g57
g58
NtRp1838
(dp1839
g61
(dp1840
g69
I4
ssg70
g1834
sg63
(lp1841
S'hard'
p1842
asbasbasbag56
(g72
g58
NtRp1843
(dp1844
g61
(dp1845
sg70
g1203
sg63
(lp1846
g56
(g77
g58
NtRp1847
(dp1848
g61
(dp1849
g81
g82
ssg70
g1843
sg63
(lp1850
S'web2py_path'
p1851
asbag56
(g77
g58
NtRp1852
(dp1853
g61
(dp1854
g88
g89
ssg70
g1843
sg63
(lp1855
S':'
asbag56
(g77
g58
NtRp1856
(dp1857
g61
(dp1858
sg70
g1843
sg63
(lp1859
g56
(g57
g58
NtRp1860
(dp1861
g61
(dp1862
g69
I4
ssg70
g1856
sg63
(lp1863
g1250
asbasbasbag56
(g72
g58
NtRp1864
(dp1865
g61
(dp1866
sg70
g1203
sg63
(lp1867
g56
(g77
g58
NtRp1868
(dp1869
g61
(dp1870
g81
g82
ssg70
g1864
sg63
(lp1871
S'web2py_version'
p1872
asbag56
(g77
g58
NtRp1873
(dp1874
g61
(dp1875
g88
g89
ssg70
g1864
sg63
(lp1876
S':'
asbag56
(g77
g58
NtRp1877
(dp1878
g61
(dp1879
sg70
g1864
sg63
(lp1880
g56
(g57
g58
NtRp1881
(dp1882
g61
(dp1883
g69
I4
ssg70
g1877
sg63
(lp1884
g56
(g65
g58
NtRp1885
(dp1886
g61
(dp1887
g69
I3
ssg70
Nsg63
(lp1888
g56
(g72
g58
NtRp1889
(dp1890
g61
(dp1891
sg70
g1885
sg63
(lp1892
g56
(g77
g58
NtRp1893
(dp1894
g61
(dp1895
sg70
g1889
sg63
(lp1896
g56
(g57
g58
NtRp1897
(dp1898
g61
(dp1899
g69
I3
ssg70
g1893
sg63
(lp1900
S'1'
asbasbasbag56
(g72
g58
NtRp1901
(dp1902
g61
(dp1903
sg70
g1885
sg63
(lp1904
g56
(g77
g58
NtRp1905
(dp1906
g61
(dp1907
sg70
g1901
sg63
(lp1908
g56
(g57
g58
NtRp1909
(dp1910
g61
(dp1911
g69
I3
ssg70
g1905
sg63
(lp1912
S'99'
p1913
asbasbasbag56
(g72
g58
NtRp1914
(dp1915
g61
(dp1916
sg70
g1885
sg63
(lp1917
g56
(g77
g58
NtRp1918
(dp1919
g61
(dp1920
sg70
g1914
sg63
(lp1921
g56
(g57
g58
NtRp1922
(dp1923
g61
(dp1924
g69
I3
ssg70
g1918
sg63
(lp1925
S'2'
asbasbasbag56
(g72
g58
NtRp1926
(dp1927
g61
(dp1928
sg70
g1885
sg63
(lp1929
g56
(g77
g58
NtRp1930
(dp1931
g61
(dp1932
sg70
g1926
sg63
(lp1933
g56
(g57
g58
NtRp1934
(dp1935
g61
(dp1936
g69
I3
ssg70
g1930
sg63
(lp1937
S'datetime.datetime(2011, 9, 26, 6, 55, 33)'
p1938
asbasbasbag56
(g72
g58
NtRp1939
(dp1940
g61
(dp1941
sg70
g1885
sg63
(lp1942
g56
(g77
g58
NtRp1943
(dp1944
g61
(dp1945
sg70
g1939
sg63
(lp1946
g56
(g57
g58
NtRp1947
(dp1948
g61
(dp1949
g69
I3
ssg70
g1943
sg63
(lp1950
S'stable'
p1951
asbasbasbasbasbasbasbag56
(g72
g58
NtRp1952
(dp1953
g61
(dp1954
sg70
g1203
sg63
(lp1955
g56
(g77
g58
NtRp1956
(dp1957
g61
(dp1958
g81
g82
ssg70
g1952
sg63
(lp1959
S'wsgi_errors'
p1960
asbag56
(g77
g58
NtRp1961
(dp1962
g61
(dp1963
g88
g89
ssg70
g1952
sg63
(lp1964
S':'
asbag56
(g77
g58
NtRp1965
(dp1966
g61
(dp1967
sg70
g1952
sg63
(lp1968
g56
(g57
g58
NtRp1969
(dp1970
g61
(dp1971
g69
I4
ssg70
g1965
sg63
(lp1972
S"<open file '<stderr>', mode 'w' at 0x7f587494c270>"
p1973
asbasbasbag56
(g72
g58
NtRp1974
(dp1975
g61
(dp1976
sg70
g1203
sg63
(lp1977
g56
(g77
g58
NtRp1978
(dp1979
g61
(dp1980
g81
g82
ssg70
g1974
sg63
(lp1981
S'wsgi_file_wrapper'
p1982
asbag56
(g77
g58
NtRp1983
(dp1984
g61
(dp1985
g88
g89
ssg70
g1974
sg63
(lp1986
S':'
asbag56
(g77
g58
NtRp1987
(dp1988
g61
(dp1989
sg70
g1974
sg63
(lp1990
g56
(g57
g58
NtRp1991
(dp1992
g61
(dp1993
g69
I4
ssg70
g1987
sg63
(lp1994
S'<class wsgiref.util.FileWrapper at 0x14a7ef0>'
p1995
asbasbasbag56
(g72
g58
NtRp1996
(dp1997
g61
(dp1998
sg70
g1203
sg63
(lp1999
g56
(g77
g58
NtRp2000
(dp2001
g61
(dp2002
g81
g82
ssg70
g1996
sg63
(lp2003
S'wsgi_input'
p2004
asbag56
(g77
g58
NtRp2005
(dp2006
g61
(dp2007
g88
g89
ssg70
g1996
sg63
(lp2008
S':'
asbag56
(g77
g58
NtRp2009
(dp2010
g61
(dp2011
sg70
g1996
sg63
(lp2012
g56
(g57
g58
NtRp2013
(dp2014
g61
(dp2015
g69
I4
ssg70
g2009
sg63
(lp2016
S'<socket._fileobject object at 0x1bedad0>'
p2017
asbasbasbag56
(g72
g58
NtRp2018
(dp2019
g61
(dp2020
sg70
g1203
sg63
(lp2021
g56
(g77
g58
NtRp2022
(dp2023
g61
(dp2024
g81
g82
ssg70
g2018
sg63
(lp2025
S'wsgi_multiprocess'
p2026
asbag56
(g77
g58
NtRp2027
(dp2028
g61
(dp2029
g88
g89
ssg70
g2018
sg63
(lp2030
S':'
asbag56
(g77
g58
NtRp2031
(dp2032
g61
(dp2033
sg70
g2018
sg63
(lp2034
g56
(g57
g58
NtRp2035
(dp2036
g61
(dp2037
g69
I4
ssg70
g2031
sg63
(lp2038
g99
asbasbasbag56
(g72
g58
NtRp2039
(dp2040
g61
(dp2041
sg70
g1203
sg63
(lp2042
g56
(g77
g58
NtRp2043
(dp2044
g61
(dp2045
g81
g82
ssg70
g2039
sg63
(lp2046
S'wsgi_multithread'
p2047
asbag56
(g77
g58
NtRp2048
(dp2049
g61
(dp2050
g88
g89
ssg70
g2039
sg63
(lp2051
S':'
asbag56
(g77
g58
NtRp2052
(dp2053
g61
(dp2054
sg70
g2039
sg63
(lp2055
g56
(g57
g58
NtRp2056
(dp2057
g61
(dp2058
g69
I4
ssg70
g2052
sg63
(lp2059
S'True'
p2060
asbasbasbag56
(g72
g58
NtRp2061
(dp2062
g61
(dp2063
sg70
g1203
sg63
(lp2064
g56
(g77
g58
NtRp2065
(dp2066
g61
(dp2067
g81
g82
ssg70
g2061
sg63
(lp2068
S'wsgi_run_once'
p2069
asbag56
(g77
g58
NtRp2070
(dp2071
g61
(dp2072
g88
g89
ssg70
g2061
sg63
(lp2073
S':'
asbag56
(g77
g58
NtRp2074
(dp2075
g61
(dp2076
sg70
g2061
sg63
(lp2077
g56
(g57
g58
NtRp2078
(dp2079
g61
(dp2080
g69
I4
ssg70
g2074
sg63
(lp2081
g99
asbasbasbag56
(g72
g58
NtRp2082
(dp2083
g61
(dp2084
sg70
g1203
sg63
(lp2085
g56
(g77
g58
NtRp2086
(dp2087
g61
(dp2088
g81
g82
ssg70
g2082
sg63
(lp2089
S'wsgi_url_scheme'
p2090
asbag56
(g77
g58
NtRp2091
(dp2092
g61
(dp2093
g88
g89
ssg70
g2082
sg63
(lp2094
S':'
asbag56
(g77
g58
NtRp2095
(dp2096
g61
(dp2097
sg70
g2082
sg63
(lp2098
g56
(g57
g58
NtRp2099
(dp2100
g61
(dp2101
g69
I4
ssg70
g2095
sg63
(lp2102
S'http'
p2103
asbasbasbag56
(g72
g58
NtRp2104
(dp2105
g61
(dp2106
sg70
g1203
sg63
(lp2107
g56
(g77
g58
NtRp2108
(dp2109
g61
(dp2110
g81
g82
ssg70
g2104
sg63
(lp2111
S'wsgi_version'
p2112
asbag56
(g77
g58
NtRp2113
(dp2114
g61
(dp2115
g88
g89
ssg70
g2104
sg63
(lp2116
S':'
asbag56
(g77
g58
NtRp2117
(dp2118
g61
(dp2119
sg70
g2104
sg63
(lp2120
g56
(g57
g58
NtRp2121
(dp2122
g61
(dp2123
g69
I4
ssg70
g2117
sg63
(lp2124
g56
(g65
g58
NtRp2125
(dp2126
g61
(dp2127
g69
I3
ssg70
Nsg63
(lp2128
g56
(g72
g58
NtRp2129
(dp2130
g61
(dp2131
sg70
g2125
sg63
(lp2132
g56
(g77
g58
NtRp2133
(dp2134
g61
(dp2135
sg70
g2129
sg63
(lp2136
g56
(g57
g58
NtRp2137
(dp2138
g61
(dp2139
g69
I3
ssg70
g2133
sg63
(lp2140
S'1'
asbasbasbag56
(g72
g58
NtRp2141
(dp2142
g61
(dp2143
sg70
g2125
sg63
(lp2144
g56
(g77
g58
NtRp2145
(dp2146
g61
(dp2147
sg70
g2141
sg63
(lp2148
g56
(g57
g58
NtRp2149
(dp2150
g61
(dp2151
g69
I3
ssg70
g2145
sg63
(lp2152
S'0'
asbasbasbasbasbasbasbasbasbasbasbag56
(g72
g58
NtRp2153
(dp2154
g61
(dp2155
sg70
g66
sg63
(lp2156
g56
(g77
g58
NtRp2157
(dp2158
g61
(dp2159
g81
g82
ssg70
g2153
sg63
(lp2160
S'extension'
p2161
asbag56
(g77
g58
NtRp2162
(dp2163
g61
(dp2164
g88
g89
ssg70
g2153
sg63
(lp2165
S':'
asbag56
(g77
g58
NtRp2166
(dp2167
g61
(dp2168
sg70
g2153
sg63
(lp2169
g56
(g57
g58
NtRp2170
(dp2171
g61
(dp2172
g69
I5
ssg70
g2166
sg63
(lp2173
S'html'
p2174
asbasbasbag56
(g72
g58
NtRp2175
(dp2176
g61
(dp2177
sg70
g66
sg63
(lp2178
g56
(g77
g58
NtRp2179
(dp2180
g61
(dp2181
g81
g82
ssg70
g2175
sg63
(lp2182
S'folder'
p2183
asbag56
(g77
g58
NtRp2184
(dp2185
g61
(dp2186
g88
g89
ssg70
g2175
sg63
(lp2187
S':'
asbag56
(g77
g58
NtRp2188
(dp2189
g61
(dp2190
sg70
g2175
sg63
(lp2191
g56
(g57
g58
NtRp2192
(dp2193
g61
(dp2194
g69
I5
ssg70
g2188
sg63
(lp2195
S'/home/kaique/Projects/web2py/applications/synopsis/'
p2196
asbasbasbag56
(g72
g58
NtRp2197
(dp2198
g61
(dp2199
sg70
g66
sg63
(lp2200
g56
(g77
g58
NtRp2201
(dp2202
g61
(dp2203
g81
g82
ssg70
g2197
sg63
(lp2204
S'function'
p2205
asbag56
(g77
g58
NtRp2206
(dp2207
g61
(dp2208
g88
g89
ssg70
g2197
sg63
(lp2209
S':'
asbag56
(g77
g58
NtRp2210
(dp2211
g61
(dp2212
sg70
g2197
sg63
(lp2213
g56
(g57
g58
NtRp2214
(dp2215
g61
(dp2216
g69
I5
ssg70
g2210
sg63
(lp2217
S'publication'
p2218
asbasbasbag56
(g72
g58
NtRp2219
(dp2220
g61
(dp2221
sg70
g66
sg63
(lp2222
g56
(g77
g58
NtRp2223
(dp2224
g61
(dp2225
g81
g82
ssg70
g2219
sg63
(lp2226
S'get_vars'
p2227
asbag56
(g77
g58
NtRp2228
(dp2229
g61
(dp2230
g88
g89
ssg70
g2219
sg63
(lp2231
S':'
asbag56
(g77
g58
NtRp2232
(dp2233
g61
(dp2234
sg70
g2219
sg63
(lp2235
g56
(g57
g58
NtRp2236
(dp2237
g61
(dp2238
g69
I5
ssg70
g2232
sg63
(lp2239
g56
(g65
g58
NtRp2240
(dp2241
g61
(dp2242
g69
I4
ssg70
Nsg63
(lp2243
sbasbasbasbag56
(g72
g58
NtRp2244
(dp2245
g61
(dp2246
sg70
g66
sg63
(lp2247
g56
(g77
g58
NtRp2248
(dp2249
g61
(dp2250
g81
g82
ssg70
g2244
sg63
(lp2251
S'global_settings'
p2252
asbag56
(g77
g58
NtRp2253
(dp2254
g61
(dp2255
g88
g89
ssg70
g2244
sg63
(lp2256
S':'
asbag56
(g77
g58
NtRp2257
(dp2258
g61
(dp2259
sg70
g2244
sg63
(lp2260
g56
(g57
g58
NtRp2261
(dp2262
g61
(dp2263
g69
I5
ssg70
g2257
sg63
(lp2264
g56
(g65
g58
NtRp2265
(dp2266
g61
(dp2267
g69
I4
ssg70
Nsg63
(lp2268
g56
(g72
g58
NtRp2269
(dp2270
g61
(dp2271
sg70
g2265
sg63
(lp2272
g56
(g77
g58
NtRp2273
(dp2274
g61
(dp2275
g81
g82
ssg70
g2269
sg63
(lp2276
g1215
asbag56
(g77
g58
NtRp2277
(dp2278
g61
(dp2279
g88
g89
ssg70
g2269
sg63
(lp2280
S':'
asbag56
(g77
g58
NtRp2281
(dp2282
g61
(dp2283
sg70
g2269
sg63
(lp2284
g56
(g57
g58
NtRp2285
(dp2286
g61
(dp2287
g69
I4
ssg70
g2281
sg63
(lp2288
S"set(['/home/kaique/Projects/web2py/applications/synopsis/', '/home/kaique/Projects/web2py/applications/admin/'])"
p2289
asbasbasbag56
(g72
g58
NtRp2290
(dp2291
g61
(dp2292
sg70
g2265
sg63
(lp2293
g56
(g77
g58
NtRp2294
(dp2295
g61
(dp2296
g81
g82
ssg70
g2290
sg63
(lp2297
g1237
asbag56
(g77
g58
NtRp2298
(dp2299
g61
(dp2300
g88
g89
ssg70
g2290
sg63
(lp2301
S':'
asbag56
(g77
g58
NtRp2302
(dp2303
g61
(dp2304
sg70
g2290
sg63
(lp2305
g56
(g57
g58
NtRp2306
(dp2307
g61
(dp2308
g69
I4
ssg70
g2302
sg63
(lp2309
g1250
asbasbasbag56
(g72
g58
NtRp2310
(dp2311
g61
(dp2312
sg70
g2265
sg63
(lp2313
g56
(g77
g58
NtRp2314
(dp2315
g61
(dp2316
g81
g82
ssg70
g2310
sg63
(lp2317
g1259
asbag56
(g77
g58
NtRp2318
(dp2319
g61
(dp2320
g88
g89
ssg70
g2310
sg63
(lp2321
S':'
asbag56
(g77
g58
NtRp2322
(dp2323
g61
(dp2324
sg70
g2310
sg63
(lp2325
g56
(g57
g58
NtRp2326
(dp2327
g61
(dp2328
g69
I4
ssg70
g2322
sg63
(lp2329
g56
(g65
g58
NtRp2330
(dp2331
g61
(dp2332
g69
I3
ssg70
Nsg63
(lp2333
sbasbasbasbag56
(g72
g58
NtRp2334
(dp2335
g61
(dp2336
sg70
g2265
sg63
(lp2337
g56
(g77
g58
NtRp2338
(dp2339
g61
(dp2340
g81
g82
ssg70
g2334
sg63
(lp2341
g1284
asbag56
(g77
g58
NtRp2342
(dp2343
g61
(dp2344
g88
g89
ssg70
g2334
sg63
(lp2345
S':'
asbag56
(g77
g58
NtRp2346
(dp2347
g61
(dp2348
sg70
g2334
sg63
(lp2349
g56
(g57
g58
NtRp2350
(dp2351
g61
(dp2352
g69
I4
ssg70
g2346
sg63
(lp2353
S"<Values at 0x15f0950: {'verbose': False, 'ip': '127.0.0.1', 'shutdown_timeout': 5, 'taskbar': False, 'nocron': False, 'pid_filename': 'httpserver.pid', 'maxthreads': None, 'softcron': False, 'server_name': 'kaique-Pine-Trail-M', 'bpython': False, 'nogui': False, 'port': 8000, 'extcron': False, 'debuglevel': 30, 'test': None, 'folder': '/home/kaique/Projects/web2py', 'config': '', 'import_models': False, 'winservice': '', 'shell': None, 'run': '', 'log_filename': 'httpserver.log', 'args': [''], 'ssl_ca_certificate': None, 'scheduler': None, 'profiler_filename': None, 'ssl_private_key': '', 'password': 'dev', 'request_queue_size': 5, 'ssl_certificate': '', 'cronjob': False, 'plain': False, 'quiet': False, 'interfaces': None, 'minthreads': None, 'timeout': 10, 'numthreads': None, 'nobanner': False}>"
p2354
asbasbasbag56
(g72
g58
NtRp2355
(dp2356
g61
(dp2357
sg70
g2265
sg63
(lp2358
g56
(g77
g58
NtRp2359
(dp2360
g61
(dp2361
g81
g82
ssg70
g2355
sg63
(lp2362
g1306
asbag56
(g77
g58
NtRp2363
(dp2364
g61
(dp2365
g88
g89
ssg70
g2355
sg63
(lp2366
S':'
asbag56
(g77
g58
NtRp2367
(dp2368
g61
(dp2369
sg70
g2355
sg63
(lp2370
g56
(g57
g58
NtRp2371
(dp2372
g61
(dp2373
g69
I4
ssg70
g2367
sg63
(lp2374
S'set([])'
p2375
asbasbasbag56
(g72
g58
NtRp2376
(dp2377
g61
(dp2378
sg70
g2265
sg63
(lp2379
g56
(g77
g58
NtRp2380
(dp2381
g61
(dp2382
g81
g82
ssg70
g2376
sg63
(lp2383
g1328
asbag56
(g77
g58
NtRp2384
(dp2385
g61
(dp2386
g88
g89
ssg70
g2376
sg63
(lp2387
S':'
asbag56
(g77
g58
NtRp2388
(dp2389
g61
(dp2390
sg70
g2376
sg63
(lp2391
g56
(g57
g58
NtRp2392
(dp2393
g61
(dp2394
g69
I4
ssg70
g2388
sg63
(lp2395
g99
asbasbasbag56
(g72
g58
NtRp2396
(dp2397
g61
(dp2398
sg70
g2265
sg63
(lp2399
g56
(g77
g58
NtRp2400
(dp2401
g61
(dp2402
g81
g82
ssg70
g2396
sg63
(lp2403
g1349
asbag56
(g77
g58
NtRp2404
(dp2405
g61
(dp2406
g88
g89
ssg70
g2396
sg63
(lp2407
S':'
asbag56
(g77
g58
NtRp2408
(dp2409
g61
(dp2410
sg70
g2396
sg63
(lp2411
g56
(g57
g58
NtRp2412
(dp2413
g61
(dp2414
g69
I4
ssg70
g2408
sg63
(lp2415
g1362
asbasbasbag56
(g72
g58
NtRp2416
(dp2417
g61
(dp2418
sg70
g2265
sg63
(lp2419
g56
(g77
g58
NtRp2420
(dp2421
g61
(dp2422
g81
g82
ssg70
g2416
sg63
(lp2423
g1591
asbag56
(g77
g58
NtRp2424
(dp2425
g61
(dp2426
g88
g89
ssg70
g2416
sg63
(lp2427
S':'
asbag56
(g77
g58
NtRp2428
(dp2429
g61
(dp2430
sg70
g2416
sg63
(lp2431
g56
(g57
g58
NtRp2432
(dp2433
g61
(dp2434
g69
I4
ssg70
g2428
sg63
(lp2435
g99
asbasbasbag56
(g72
g58
NtRp2436
(dp2437
g61
(dp2438
sg70
g2265
sg63
(lp2439
g56
(g77
g58
NtRp2440
(dp2441
g61
(dp2442
g81
g82
ssg70
g2436
sg63
(lp2443
g1829
asbag56
(g77
g58
NtRp2444
(dp2445
g61
(dp2446
g88
g89
ssg70
g2436
sg63
(lp2447
S':'
asbag56
(g77
g58
NtRp2448
(dp2449
g61
(dp2450
sg70
g2436
sg63
(lp2451
g56
(g57
g58
NtRp2452
(dp2453
g61
(dp2454
g69
I4
ssg70
g2448
sg63
(lp2455
g1842
asbasbasbag56
(g72
g58
NtRp2456
(dp2457
g61
(dp2458
sg70
g2265
sg63
(lp2459
g56
(g77
g58
NtRp2460
(dp2461
g61
(dp2462
g81
g82
ssg70
g2456
sg63
(lp2463
g1872
asbag56
(g77
g58
NtRp2464
(dp2465
g61
(dp2466
g88
g89
ssg70
g2456
sg63
(lp2467
S':'
asbag56
(g77
g58
NtRp2468
(dp2469
g61
(dp2470
sg70
g2456
sg63
(lp2471
g56
(g57
g58
NtRp2472
(dp2473
g61
(dp2474
g69
I4
ssg70
g2468
sg63
(lp2475
g56
(g65
g58
NtRp2476
(dp2477
g61
(dp2478
g69
I3
ssg70
Nsg63
(lp2479
g56
(g72
g58
NtRp2480
(dp2481
g61
(dp2482
sg70
g2476
sg63
(lp2483
g56
(g77
g58
NtRp2484
(dp2485
g61
(dp2486
sg70
g2480
sg63
(lp2487
g56
(g57
g58
NtRp2488
(dp2489
g61
(dp2490
g69
I3
ssg70
g2484
sg63
(lp2491
S'1'
asbasbasbag56
(g72
g58
NtRp2492
(dp2493
g61
(dp2494
sg70
g2476
sg63
(lp2495
g56
(g77
g58
NtRp2496
(dp2497
g61
(dp2498
sg70
g2492
sg63
(lp2499
g56
(g57
g58
NtRp2500
(dp2501
g61
(dp2502
g69
I3
ssg70
g2496
sg63
(lp2503
S'99'
p2504
asbasbasbag56
(g72
g58
NtRp2505
(dp2506
g61
(dp2507
sg70
g2476
sg63
(lp2508
g56
(g77
g58
NtRp2509
(dp2510
g61
(dp2511
sg70
g2505
sg63
(lp2512
g56
(g57
g58
NtRp2513
(dp2514
g61
(dp2515
g69
I3
ssg70
g2509
sg63
(lp2516
S'2'
asbasbasbag56
(g72
g58
NtRp2517
(dp2518
g61
(dp2519
sg70
g2476
sg63
(lp2520
g56
(g77
g58
NtRp2521
(dp2522
g61
(dp2523
sg70
g2517
sg63
(lp2524
g56
(g57
g58
NtRp2525
(dp2526
g61
(dp2527
g69
I3
ssg70
g2521
sg63
(lp2528
S'datetime.datetime(2011, 9, 26, 6, 55, 33)'
p2529
asbasbasbag56
(g72
g58
NtRp2530
(dp2531
g61
(dp2532
sg70
g2476
sg63
(lp2533
g56
(g77
g58
NtRp2534
(dp2535
g61
(dp2536
sg70
g2530
sg63
(lp2537
g56
(g57
g58
NtRp2538
(dp2539
g61
(dp2540
g69
I3
ssg70
g2534
sg63
(lp2541
g1951
asbasbasbasbasbasbasbasbasbasbasbag56
(g72
g58
NtRp2542
(dp2543
g61
(dp2544
sg70
g66
sg63
(lp2545
g56
(g77
g58
NtRp2546
(dp2547
g61
(dp2548
g81
g82
ssg70
g2542
sg63
(lp2549
S'is_https'
p2550
asbag56
(g77
g58
NtRp2551
(dp2552
g61
(dp2553
g88
g89
ssg70
g2542
sg63
(lp2554
S':'
asbag56
(g77
g58
NtRp2555
(dp2556
g61
(dp2557
sg70
g2542
sg63
(lp2558
g56
(g57
g58
NtRp2559
(dp2560
g61
(dp2561
g69
I5
ssg70
g2555
sg63
(lp2562
g99
asbasbasbag56
(g72
g58
NtRp2563
(dp2564
g61
(dp2565
sg70
g66
sg63
(lp2566
g56
(g77
g58
NtRp2567
(dp2568
g61
(dp2569
g81
g82
ssg70
g2563
sg63
(lp2570
S'is_local'
p2571
asbag56
(g77
g58
NtRp2572
(dp2573
g61
(dp2574
g88
g89
ssg70
g2563
sg63
(lp2575
S':'
asbag56
(g77
g58
NtRp2576
(dp2577
g61
(dp2578
sg70
g2563
sg63
(lp2579
g56
(g57
g58
NtRp2580
(dp2581
g61
(dp2582
g69
I5
ssg70
g2576
sg63
(lp2583
g2060
asbasbasbag56
(g72
g58
NtRp2584
(dp2585
g61
(dp2586
sg70
g66
sg63
(lp2587
g56
(g77
g58
NtRp2588
(dp2589
g61
(dp2590
g81
g82
ssg70
g2584
sg63
(lp2591
S'is_restful'
p2592
asbag56
(g77
g58
NtRp2593
(dp2594
g61
(dp2595
g88
g89
ssg70
g2584
sg63
(lp2596
S':'
asbag56
(g77
g58
NtRp2597
(dp2598
g61
(dp2599
sg70
g2584
sg63
(lp2600
g56
(g57
g58
NtRp2601
(dp2602
g61
(dp2603
g69
I5
ssg70
g2597
sg63
(lp2604
g99
asbasbasbag56
(g72
g58
NtRp2605
(dp2606
g61
(dp2607
sg70
g66
sg63
(lp2608
g56
(g77
g58
NtRp2609
(dp2610
g61
(dp2611
g81
g82
ssg70
g2605
sg63
(lp2612
S'now'
p2613
asbag56
(g77
g58
NtRp2614
(dp2615
g61
(dp2616
g88
g89
ssg70
g2605
sg63
(lp2617
S':'
asbag56
(g77
g58
NtRp2618
(dp2619
g61
(dp2620
sg70
g2605
sg63
(lp2621
g56
(g57
g58
NtRp2622
(dp2623
g61
(dp2624
g69
I5
ssg70
g2618
sg63
(lp2625
S'datetime.datetime(2012, 1, 13, 22, 50, 43, 770705)'
p2626
asbasbasbag56
(g72
g58
NtRp2627
(dp2628
g61
(dp2629
sg70
g66
sg63
(lp2630
g56
(g77
g58
NtRp2631
(dp2632
g61
(dp2633
g81
g82
ssg70
g2627
sg63
(lp2634
S'post_vars'
p2635
asbag56
(g77
g58
NtRp2636
(dp2637
g61
(dp2638
g88
g89
ssg70
g2627
sg63
(lp2639
S':'
asbag56
(g77
g58
NtRp2640
(dp2641
g61
(dp2642
sg70
g2627
sg63
(lp2643
g56
(g57
g58
NtRp2644
(dp2645
g61
(dp2646
g69
I5
ssg70
g2640
sg63
(lp2647
g56
(g65
g58
NtRp2648
(dp2649
g61
(dp2650
g69
I4
ssg70
Nsg63
(lp2651
sbasbasbasbag56
(g72
g58
NtRp2652
(dp2653
g61
(dp2654
sg70
g66
sg63
(lp2655
g56
(g77
g58
NtRp2656
(dp2657
g61
(dp2658
g81
g82
ssg70
g2652
sg63
(lp2659
S'raw_args'
p2660
asbag56
(g77
g58
NtRp2661
(dp2662
g61
(dp2663
g88
g89
ssg70
g2652
sg63
(lp2664
S':'
asbag56
(g77
g58
NtRp2665
(dp2666
g61
(dp2667
sg70
g2652
sg63
(lp2668
g56
(g57
g58
NtRp2669
(dp2670
g61
(dp2671
g69
I5
ssg70
g2665
sg63
(lp2672
S'8'
asbasbasbag56
(g72
g58
NtRp2673
(dp2674
g61
(dp2675
sg70
g66
sg63
(lp2676
g56
(g77
g58
NtRp2677
(dp2678
g61
(dp2679
g81
g82
ssg70
g2673
sg63
(lp2680
S'url'
p2681
asbag56
(g77
g58
NtRp2682
(dp2683
g61
(dp2684
g88
g89
ssg70
g2673
sg63
(lp2685
S':'
asbag56
(g77
g58
NtRp2686
(dp2687
g61
(dp2688
sg70
g2673
sg63
(lp2689
g56
(g57
g58
NtRp2690
(dp2691
g61
(dp2692
g69
I5
ssg70
g2686
sg63
(lp2693
S'/synopsis/information/publication/8'
p2694
asbasbasbag56
(g72
g58
NtRp2695
(dp2696
g61
(dp2697
sg70
g66
sg63
(lp2698
g56
(g77
g58
NtRp2699
(dp2700
g61
(dp2701
g81
g82
ssg70
g2695
sg63
(lp2702
S'utcnow'
p2703
asbag56
(g77
g58
NtRp2704
(dp2705
g61
(dp2706
g88
g89
ssg70
g2695
sg63
(lp2707
S':'
asbag56
(g77
g58
NtRp2708
(dp2709
g61
(dp2710
sg70
g2695
sg63
(lp2711
g56
(g57
g58
NtRp2712
(dp2713
g61
(dp2714
g69
I5
ssg70
g2708
sg63
(lp2715
S'datetime.datetime(2012, 1, 14, 0, 50, 43, 770778)'
p2716
asbasbasbag56
(g72
g58
NtRp2717
(dp2718
g61
(dp2719
sg70
g66
sg63
(lp2720
g56
(g77
g58
NtRp2721
(dp2722
g61
(dp2723
g81
g82
ssg70
g2717
sg63
(lp2724
S'uuid'
p2725
asbag56
(g77
g58
NtRp2726
(dp2727
g61
(dp2728
g88
g89
ssg70
g2717
sg63
(lp2729
S':'
asbag56
(g77
g58
NtRp2730
(dp2731
g61
(dp2732
sg70
g2717
sg63
(lp2733
g56
(g57
g58
NtRp2734
(dp2735
g61
(dp2736
g69
I5
ssg70
g2730
sg63
(lp2737
S'synopsis/127.0.0.1.2012-01-13.22-50-43.39c1d7c0-933f-4ead-a586-26bc69828f64'
p2738
asbasbasbag56
(g72
g58
NtRp2739
(dp2740
g61
(dp2741
sg70
g66
sg63
(lp2742
g56
(g77
g58
NtRp2743
(dp2744
g61
(dp2745
g81
g82
ssg70
g2739
sg63
(lp2746
S'vars'
p2747
asbag56
(g77
g58
NtRp2748
(dp2749
g61
(dp2750
g88
g89
ssg70
g2739
sg63
(lp2751
S':'
asbag56
(g77
g58
NtRp2752
(dp2753
g61
(dp2754
sg70
g2739
sg63
(lp2755
g56
(g57
g58
NtRp2756
(dp2757
g61
(dp2758
g69
I5
ssg70
g2752
sg63
(lp2759
g56
(g65
g58
NtRp2760
(dp2761
g61
(dp2762
g69
I4
ssg70
Nsg63
(lp2763
sbasbasbasbag56
(g72
g58
NtRp2764
(dp2765
g61
(dp2766
sg70
g66
sg63
(lp2767
g56
(g77
g58
NtRp2768
(dp2769
g61
(dp2770
g81
g82
ssg70
g2764
sg63
(lp2771
S'wsgi'
p2772
asbag56
(g77
g58
NtRp2773
(dp2774
g61
(dp2775
g88
g89
ssg70
g2764
sg63
(lp2776
S':'
asbag56
(g77
g58
NtRp2777
(dp2778
g61
(dp2779
sg70
g2764
sg63
(lp2780
g56
(g57
g58
NtRp2781
(dp2782
g61
(dp2783
g69
I5
ssg70
g2777
sg63
(lp2784
g56
(g65
g58
NtRp2785
(dp2786
g61
(dp2787
g69
I4
ssg70
Nsg63
(lp2788
g56
(g72
g58
NtRp2789
(dp2790
g61
(dp2791
sg70
g2785
sg63
(lp2792
g56
(g77
g58
NtRp2793
(dp2794
g61
(dp2795
g81
g82
ssg70
g2789
sg63
(lp2796
S'environ'
p2797
asbag56
(g77
g58
NtRp2798
(dp2799
g61
(dp2800
g88
g89
ssg70
g2789
sg63
(lp2801
S':'
asbag56
(g77
g58
NtRp2802
(dp2803
g61
(dp2804
sg70
g2789
sg63
(lp2805
g56
(g57
g58
NtRp2806
(dp2807
g61
(dp2808
g69
I4
ssg70
g2802
sg63
(lp2809
g56
(g65
g58
NtRp2810
(dp2811
g61
(dp2812
g69
I3
ssg70
Nsg63
(lp2813
g56
(g72
g58
NtRp2814
(dp2815
g61
(dp2816
sg70
g2810
sg63
(lp2817
g56
(g77
g58
NtRp2818
(dp2819
g61
(dp2820
g81
g82
ssg70
g2814
sg63
(lp2821
S'HTTP_ACCEPT'
p2822
asbag56
(g77
g58
NtRp2823
(dp2824
g61
(dp2825
g88
g89
ssg70
g2814
sg63
(lp2826
S':'
asbag56
(g77
g58
NtRp2827
(dp2828
g61
(dp2829
sg70
g2814
sg63
(lp2830
g56
(g57
g58
NtRp2831
(dp2832
g61
(dp2833
g69
I3
ssg70
g2827
sg63
(lp2834
g1384
asbasbasbag56
(g72
g58
NtRp2835
(dp2836
g61
(dp2837
sg70
g2810
sg63
(lp2838
g56
(g77
g58
NtRp2839
(dp2840
g61
(dp2841
g81
g82
ssg70
g2835
sg63
(lp2842
S'HTTP_ACCEPT_CHARSET'
p2843
asbag56
(g77
g58
NtRp2844
(dp2845
g61
(dp2846
g88
g89
ssg70
g2835
sg63
(lp2847
S':'
asbag56
(g77
g58
NtRp2848
(dp2849
g61
(dp2850
sg70
g2835
sg63
(lp2851
g56
(g57
g58
NtRp2852
(dp2853
g61
(dp2854
g69
I3
ssg70
g2848
sg63
(lp2855
g1406
asbasbasbag56
(g72
g58
NtRp2856
(dp2857
g61
(dp2858
sg70
g2810
sg63
(lp2859
g56
(g77
g58
NtRp2860
(dp2861
g61
(dp2862
g81
g82
ssg70
g2856
sg63
(lp2863
S'HTTP_ACCEPT_ENCODING'
p2864
asbag56
(g77
g58
NtRp2865
(dp2866
g61
(dp2867
g88
g89
ssg70
g2856
sg63
(lp2868
S':'
asbag56
(g77
g58
NtRp2869
(dp2870
g61
(dp2871
sg70
g2856
sg63
(lp2872
g56
(g57
g58
NtRp2873
(dp2874
g61
(dp2875
g69
I3
ssg70
g2869
sg63
(lp2876
g1428
asbasbasbag56
(g72
g58
NtRp2877
(dp2878
g61
(dp2879
sg70
g2810
sg63
(lp2880
g56
(g77
g58
NtRp2881
(dp2882
g61
(dp2883
g81
g82
ssg70
g2877
sg63
(lp2884
S'HTTP_ACCEPT_LANGUAGE'
p2885
asbag56
(g77
g58
NtRp2886
(dp2887
g61
(dp2888
g88
g89
ssg70
g2877
sg63
(lp2889
S':'
asbag56
(g77
g58
NtRp2890
(dp2891
g61
(dp2892
sg70
g2877
sg63
(lp2893
g56
(g57
g58
NtRp2894
(dp2895
g61
(dp2896
g69
I3
ssg70
g2890
sg63
(lp2897
g1450
asbasbasbag56
(g72
g58
NtRp2898
(dp2899
g61
(dp2900
sg70
g2810
sg63
(lp2901
g56
(g77
g58
NtRp2902
(dp2903
g61
(dp2904
g81
g82
ssg70
g2898
sg63
(lp2905
S'HTTP_CACHE_CONTROL'
p2906
asbag56
(g77
g58
NtRp2907
(dp2908
g61
(dp2909
g88
g89
ssg70
g2898
sg63
(lp2910
S':'
asbag56
(g77
g58
NtRp2911
(dp2912
g61
(dp2913
sg70
g2898
sg63
(lp2914
g56
(g57
g58
NtRp2915
(dp2916
g61
(dp2917
g69
I3
ssg70
g2911
sg63
(lp2918
g1472
asbasbasbag56
(g72
g58
NtRp2919
(dp2920
g61
(dp2921
sg70
g2810
sg63
(lp2922
g56
(g77
g58
NtRp2923
(dp2924
g61
(dp2925
g81
g82
ssg70
g2919
sg63
(lp2926
S'HTTP_CONNECTION'
p2927
asbag56
(g77
g58
NtRp2928
(dp2929
g61
(dp2930
g88
g89
ssg70
g2919
sg63
(lp2931
S':'
asbag56
(g77
g58
NtRp2932
(dp2933
g61
(dp2934
sg70
g2919
sg63
(lp2935
g56
(g57
g58
NtRp2936
(dp2937
g61
(dp2938
g69
I3
ssg70
g2932
sg63
(lp2939
g1494
asbasbasbag56
(g72
g58
NtRp2940
(dp2941
g61
(dp2942
sg70
g2810
sg63
(lp2943
g56
(g77
g58
NtRp2944
(dp2945
g61
(dp2946
g81
g82
ssg70
g2940
sg63
(lp2947
S'HTTP_COOKIE'
p2948
asbag56
(g77
g58
NtRp2949
(dp2950
g61
(dp2951
g88
g89
ssg70
g2940
sg63
(lp2952
S':'
asbag56
(g77
g58
NtRp2953
(dp2954
g61
(dp2955
sg70
g2940
sg63
(lp2956
g56
(g57
g58
NtRp2957
(dp2958
g61
(dp2959
g69
I3
ssg70
g2953
sg63
(lp2960
g1516
asbasbasbag56
(g72
g58
NtRp2961
(dp2962
g61
(dp2963
sg70
g2810
sg63
(lp2964
g56
(g77
g58
NtRp2965
(dp2966
g61
(dp2967
g81
g82
ssg70
g2961
sg63
(lp2968
S'HTTP_HOST'
p2969
asbag56
(g77
g58
NtRp2970
(dp2971
g61
(dp2972
g88
g89
ssg70
g2961
sg63
(lp2973
S':'
asbag56
(g77
g58
NtRp2974
(dp2975
g61
(dp2976
sg70
g2961
sg63
(lp2977
g56
(g57
g58
NtRp2978
(dp2979
g61
(dp2980
g69
I3
ssg70
g2974
sg63
(lp2981
g1538
asbasbasbag56
(g72
g58
NtRp2982
(dp2983
g61
(dp2984
sg70
g2810
sg63
(lp2985
g56
(g77
g58
NtRp2986
(dp2987
g61
(dp2988
g81
g82
ssg70
g2982
sg63
(lp2989
S'HTTP_REFERER'
p2990
asbag56
(g77
g58
NtRp2991
(dp2992
g61
(dp2993
g88
g89
ssg70
g2982
sg63
(lp2994
S':'
asbag56
(g77
g58
NtRp2995
(dp2996
g61
(dp2997
sg70
g2982
sg63
(lp2998
g56
(g57
g58
NtRp2999
(dp3000
g61
(dp3001
g69
I3
ssg70
g2995
sg63
(lp3002
g1560
asbasbasbag56
(g72
g58
NtRp3003
(dp3004
g61
(dp3005
sg70
g2810
sg63
(lp3006
g56
(g77
g58
NtRp3007
(dp3008
g61
(dp3009
g81
g82
ssg70
g3003
sg63
(lp3010
S'HTTP_USER_AGENT'
p3011
asbag56
(g77
g58
NtRp3012
(dp3013
g61
(dp3014
g88
g89
ssg70
g3003
sg63
(lp3015
S':'
asbag56
(g77
g58
NtRp3016
(dp3017
g61
(dp3018
sg70
g3003
sg63
(lp3019
g56
(g57
g58
NtRp3020
(dp3021
g61
(dp3022
g69
I3
ssg70
g3016
sg63
(lp3023
g1582
asbasbasbag56
(g72
g58
NtRp3024
(dp3025
g61
(dp3026
sg70
g2810
sg63
(lp3027
g56
(g77
g58
NtRp3028
(dp3029
g61
(dp3030
g81
g82
ssg70
g3024
sg63
(lp3031
S'PATH_INFO'
p3032
asbag56
(g77
g58
NtRp3033
(dp3034
g61
(dp3035
g88
g89
ssg70
g3024
sg63
(lp3036
S':'
asbag56
(g77
g58
NtRp3037
(dp3038
g61
(dp3039
sg70
g3024
sg63
(lp3040
g56
(g57
g58
NtRp3041
(dp3042
g61
(dp3043
g69
I3
ssg70
g3037
sg63
(lp3044
g1625
asbasbasbag56
(g72
g58
NtRp3045
(dp3046
g61
(dp3047
sg70
g2810
sg63
(lp3048
g56
(g77
g58
NtRp3049
(dp3050
g61
(dp3051
g81
g82
ssg70
g3045
sg63
(lp3052
S'QUERY_STRING'
p3053
asbag56
(g77
g58
NtRp3054
(dp3055
g61
(dp3056
g88
g89
ssg70
g3045
sg63
(lp3057
S':'
asbag56
(g77
g58
NtRp3058
(dp3059
g61
(dp3060
sg70
g3045
sg63
(lp3061
g56
(g57
g58
NtRp3062
(dp3063
g61
(dp3064
g69
I3
ssg70
g3058
sg63
(lp3065
S''
asbasbasbag56
(g72
g58
NtRp3066
(dp3067
g61
(dp3068
sg70
g2810
sg63
(lp3069
g56
(g77
g58
NtRp3070
(dp3071
g61
(dp3072
g81
g82
ssg70
g3066
sg63
(lp3073
S'REMOTE_ADDR'
p3074
asbag56
(g77
g58
NtRp3075
(dp3076
g61
(dp3077
g88
g89
ssg70
g3066
sg63
(lp3078
S':'
asbag56
(g77
g58
NtRp3079
(dp3080
g61
(dp3081
sg70
g3066
sg63
(lp3082
g56
(g57
g58
NtRp3083
(dp3084
g61
(dp3085
g69
I3
ssg70
g3079
sg63
(lp3086
g201
asbasbasbag56
(g72
g58
NtRp3087
(dp3088
g61
(dp3089
sg70
g2810
sg63
(lp3090
g56
(g77
g58
NtRp3091
(dp3092
g61
(dp3093
g81
g82
ssg70
g3087
sg63
(lp3094
S'REMOTE_PORT'
p3095
asbag56
(g77
g58
NtRp3096
(dp3097
g61
(dp3098
g88
g89
ssg70
g3087
sg63
(lp3099
S':'
asbag56
(g77
g58
NtRp3100
(dp3101
g61
(dp3102
sg70
g3087
sg63
(lp3103
g56
(g57
g58
NtRp3104
(dp3105
g61
(dp3106
g69
I3
ssg70
g3100
sg63
(lp3107
g1689
asbasbasbag56
(g72
g58
NtRp3108
(dp3109
g61
(dp3110
sg70
g2810
sg63
(lp3111
g56
(g77
g58
NtRp3112
(dp3113
g61
(dp3114
g81
g82
ssg70
g3108
sg63
(lp3115
S'REQUEST_METHOD'
p3116
asbag56
(g77
g58
NtRp3117
(dp3118
g61
(dp3119
g88
g89
ssg70
g3108
sg63
(lp3120
S':'
asbag56
(g77
g58
NtRp3121
(dp3122
g61
(dp3123
sg70
g3108
sg63
(lp3124
g56
(g57
g58
NtRp3125
(dp3126
g61
(dp3127
g69
I3
ssg70
g3121
sg63
(lp3128
g1711
asbasbasbag56
(g72
g58
NtRp3129
(dp3130
g61
(dp3131
sg70
g2810
sg63
(lp3132
g56
(g77
g58
NtRp3133
(dp3134
g61
(dp3135
g81
g82
ssg70
g3129
sg63
(lp3136
S'SCRIPT_NAME'
p3137
asbag56
(g77
g58
NtRp3138
(dp3139
g61
(dp3140
g88
g89
ssg70
g3129
sg63
(lp3141
S':'
asbag56
(g77
g58
NtRp3142
(dp3143
g61
(dp3144
sg70
g3129
sg63
(lp3145
g56
(g57
g58
NtRp3146
(dp3147
g61
(dp3148
g69
I3
ssg70
g3142
sg63
(lp3149
S''
asbasbasbag56
(g72
g58
NtRp3150
(dp3151
g61
(dp3152
sg70
g2810
sg63
(lp3153
g56
(g77
g58
NtRp3154
(dp3155
g61
(dp3156
g81
g82
ssg70
g3150
sg63
(lp3157
S'SERVER_NAME'
p3158
asbag56
(g77
g58
NtRp3159
(dp3160
g61
(dp3161
g88
g89
ssg70
g3150
sg63
(lp3162
S':'
asbag56
(g77
g58
NtRp3163
(dp3164
g61
(dp3165
sg70
g3150
sg63
(lp3166
g56
(g57
g58
NtRp3167
(dp3168
g61
(dp3169
g69
I3
ssg70
g3163
sg63
(lp3170
g1754
asbasbasbag56
(g72
g58
NtRp3171
(dp3172
g61
(dp3173
sg70
g2810
sg63
(lp3174
g56
(g77
g58
NtRp3175
(dp3176
g61
(dp3177
g81
g82
ssg70
g3171
sg63
(lp3178
S'SERVER_PORT'
p3179
asbag56
(g77
g58
NtRp3180
(dp3181
g61
(dp3182
g88
g89
ssg70
g3171
sg63
(lp3183
S':'
asbag56
(g77
g58
NtRp3184
(dp3185
g61
(dp3186
sg70
g3171
sg63
(lp3187
g56
(g57
g58
NtRp3188
(dp3189
g61
(dp3190
g69
I3
ssg70
g3184
sg63
(lp3191
g1776
asbasbasbag56
(g72
g58
NtRp3192
(dp3193
g61
(dp3194
sg70
g2810
sg63
(lp3195
g56
(g77
g58
NtRp3196
(dp3197
g61
(dp3198
g81
g82
ssg70
g3192
sg63
(lp3199
S'SERVER_PROTOCOL'
p3200
asbag56
(g77
g58
NtRp3201
(dp3202
g61
(dp3203
g88
g89
ssg70
g3192
sg63
(lp3204
S':'
asbag56
(g77
g58
NtRp3205
(dp3206
g61
(dp3207
sg70
g3192
sg63
(lp3208
g56
(g57
g58
NtRp3209
(dp3210
g61
(dp3211
g69
I3
ssg70
g3205
sg63
(lp3212
g1798
asbasbasbag56
(g72
g58
NtRp3213
(dp3214
g61
(dp3215
sg70
g2810
sg63
(lp3216
g56
(g77
g58
NtRp3217
(dp3218
g61
(dp3219
g81
g82
ssg70
g3213
sg63
(lp3220
S'SERVER_SOFTWARE'
p3221
asbag56
(g77
g58
NtRp3222
(dp3223
g61
(dp3224
g88
g89
ssg70
g3213
sg63
(lp3225
S':'
asbag56
(g77
g58
NtRp3226
(dp3227
g61
(dp3228
sg70
g3213
sg63
(lp3229
g56
(g57
g58
NtRp3230
(dp3231
g61
(dp3232
g69
I3
ssg70
g3226
sg63
(lp3233
g1820
asbasbasbag56
(g72
g58
NtRp3234
(dp3235
g61
(dp3236
sg70
g2810
sg63
(lp3237
g56
(g77
g58
NtRp3238
(dp3239
g61
(dp3240
g81
g82
ssg70
g3234
sg63
(lp3241
S'wsgi.errors'
p3242
asbag56
(g77
g58
NtRp3243
(dp3244
g61
(dp3245
g88
g89
ssg70
g3234
sg63
(lp3246
S':'
asbag56
(g77
g58
NtRp3247
(dp3248
g61
(dp3249
sg70
g3234
sg63
(lp3250
g56
(g57
g58
NtRp3251
(dp3252
g61
(dp3253
g69
I3
ssg70
g3247
sg63
(lp3254
S"<open file '<stderr>', mode 'w' at 0x7f587494c270>"
p3255
asbasbasbag56
(g72
g58
NtRp3256
(dp3257
g61
(dp3258
sg70
g2810
sg63
(lp3259
g56
(g77
g58
NtRp3260
(dp3261
g61
(dp3262
g81
g82
ssg70
g3256
sg63
(lp3263
S'wsgi.file_wrapper'
p3264
asbag56
(g77
g58
NtRp3265
(dp3266
g61
(dp3267
g88
g89
ssg70
g3256
sg63
(lp3268
S':'
asbag56
(g77
g58
NtRp3269
(dp3270
g61
(dp3271
sg70
g3256
sg63
(lp3272
g56
(g57
g58
NtRp3273
(dp3274
g61
(dp3275
g69
I3
ssg70
g3269
sg63
(lp3276
S'<class wsgiref.util.FileWrapper at 0x14a7ef0>'
p3277
asbasbasbag56
(g72
g58
NtRp3278
(dp3279
g61
(dp3280
sg70
g2810
sg63
(lp3281
g56
(g77
g58
NtRp3282
(dp3283
g61
(dp3284
g81
g82
ssg70
g3278
sg63
(lp3285
S'wsgi.input'
p3286
asbag56
(g77
g58
NtRp3287
(dp3288
g61
(dp3289
g88
g89
ssg70
g3278
sg63
(lp3290
S':'
asbag56
(g77
g58
NtRp3291
(dp3292
g61
(dp3293
sg70
g3278
sg63
(lp3294
g56
(g57
g58
NtRp3295
(dp3296
g61
(dp3297
g69
I3
ssg70
g3291
sg63
(lp3298
S'<cStringIO.StringO object at 0x1ca1030>'
p3299
asbasbasbag56
(g72
g58
NtRp3300
(dp3301
g61
(dp3302
sg70
g2810
sg63
(lp3303
g56
(g77
g58
NtRp3304
(dp3305
g61
(dp3306
g81
g82
ssg70
g3300
sg63
(lp3307
S'wsgi.multiprocess'
p3308
asbag56
(g77
g58
NtRp3309
(dp3310
g61
(dp3311
g88
g89
ssg70
g3300
sg63
(lp3312
S':'
asbag56
(g77
g58
NtRp3313
(dp3314
g61
(dp3315
sg70
g3300
sg63
(lp3316
g56
(g57
g58
NtRp3317
(dp3318
g61
(dp3319
g69
I3
ssg70
g3313
sg63
(lp3320
g99
asbasbasbag56
(g72
g58
NtRp3321
(dp3322
g61
(dp3323
sg70
g2810
sg63
(lp3324
g56
(g77
g58
NtRp3325
(dp3326
g61
(dp3327
g81
g82
ssg70
g3321
sg63
(lp3328
S'wsgi.multithread'
p3329
asbag56
(g77
g58
NtRp3330
(dp3331
g61
(dp3332
g88
g89
ssg70
g3321
sg63
(lp3333
S':'
asbag56
(g77
g58
NtRp3334
(dp3335
g61
(dp3336
sg70
g3321
sg63
(lp3337
g56
(g57
g58
NtRp3338
(dp3339
g61
(dp3340
g69
I3
ssg70
g3334
sg63
(lp3341
g2060
asbasbasbag56
(g72
g58
NtRp3342
(dp3343
g61
(dp3344
sg70
g2810
sg63
(lp3345
g56
(g77
g58
NtRp3346
(dp3347
g61
(dp3348
g81
g82
ssg70
g3342
sg63
(lp3349
S'wsgi.run_once'
p3350
asbag56
(g77
g58
NtRp3351
(dp3352
g61
(dp3353
g88
g89
ssg70
g3342
sg63
(lp3354
S':'
asbag56
(g77
g58
NtRp3355
(dp3356
g61
(dp3357
sg70
g3342
sg63
(lp3358
g56
(g57
g58
NtRp3359
(dp3360
g61
(dp3361
g69
I3
ssg70
g3355
sg63
(lp3362
g99
asbasbasbag56
(g72
g58
NtRp3363
(dp3364
g61
(dp3365
sg70
g2810
sg63
(lp3366
g56
(g77
g58
NtRp3367
(dp3368
g61
(dp3369
g81
g82
ssg70
g3363
sg63
(lp3370
S'wsgi.url_scheme'
p3371
asbag56
(g77
g58
NtRp3372
(dp3373
g61
(dp3374
g88
g89
ssg70
g3363
sg63
(lp3375
S':'
asbag56
(g77
g58
NtRp3376
(dp3377
g61
(dp3378
sg70
g3363
sg63
(lp3379
g56
(g57
g58
NtRp3380
(dp3381
g61
(dp3382
g69
I3
ssg70
g3376
sg63
(lp3383
g2103
asbasbasbag56
(g72
g58
NtRp3384
(dp3385
g61
(dp3386
sg70
g2810
sg63
(lp3387
g56
(g77
g58
NtRp3388
(dp3389
g61
(dp3390
g81
g82
ssg70
g3384
sg63
(lp3391
S'wsgi.version'
p3392
asbag56
(g77
g58
NtRp3393
(dp3394
g61
(dp3395
g88
g89
ssg70
g3384
sg63
(lp3396
S':'
asbag56
(g77
g58
NtRp3397
(dp3398
g61
(dp3399
sg70
g3384
sg63
(lp3400
g56
(g57
g58
NtRp3401
(dp3402
g61
(dp3403
g69
I3
ssg70
g3397
sg63
(lp3404
S'1'
asbasbasbasbasbasbasbasbasbasbasbasbasbsS'frames'
p3405
(lp3406
(dp3407
S'file'
p3408
S'/home/kaique/Projects/web2py/gluon/restricted.py'
p3409
sS'dump'
p3410
(dp3411
S'environment'
p3412
S"{'A': <class 'gluon.html.A'>, 'Auth': <class 'gluon.tools.Auth'>, 'B': <class 'gluon.html.B'>, 'BEAUTIFY': <class 'gluon.html.BEAUTIFY'>, 'BODY': <class 'gluon.html.BODY'>, 'BR': <class 'gluon.html.BR'>, 'BUTTON': <class 'gluon.html.BUTTON'>, 'CAT': <class 'gluon.html.CAT'>, 'CENTER': <class 'gluon.html.CENTER'>, 'CLEANUP': <class 'gluon.validators.CLEANUP'>, ...}"
p3413
sS'ccode'
p3414
S'<code object <module> at 0x1bede30, file "/home/...psis/views/information/publication.html", line 1>'
p3415
ssS'lnum'
p3416
I194
sS'lines'
p3417
(dp3418
I192
S'        else:'
p3419
sI193
S'            ccode = compile2(code,layer)'
p3420
sI194
S'        exec ccode in environment'
p3421
sI195
S'    except HTTP:'
p3422
sI196
S'        raise'
p3423
sI197
S'    except Exception, error:'
p3424
sI198
S'        # XXX Show exception in Wing IDE if running in debugger'
p3425
sI189
S'    try:'
p3426
sI190
S'        if type(code) == types.CodeType:'
p3427
sI191
S'            ccode = code'
p3428
ssS'call'
p3429
S'(code=\'response.write(\\\'<!DOCTYPE html>\\\\n<html lang="\\\', ...nse.write(\\\'\\\\n  </body>\\\\n</html>\\\\n\\\', escape=False)\', environment={\'A\': <class \'gluon.html.A\'>, \'Auth\': <class \'gluon.tools.Auth\'>, \'B\': <class \'gluon.html.B\'>, \'BEAUTIFY\': <class \'gluon.html.BEAUTIFY\'>, \'BODY\': <class \'gluon.html.BODY\'>, \'BR\': <class \'gluon.html.BR\'>, \'BUTTON\': <class \'gluon.html.BUTTON\'>, \'CAT\': <class \'gluon.html.CAT\'>, \'CENTER\': <class \'gluon.html.CENTER\'>, \'CLEANUP\': <class \'gluon.validators.CLEANUP\'>, ...}, layer=\'/home/kaique/Projects/web2py/applications/synopsis/views/information/publication.html\')'
p3430
sS'func'
p3431
S'restricted'
p3432
sa(dp3433
g3408
S'/home/kaique/Projects/web2py/applications/synopsis/views/information/publication.html'
p3434
sg3410
(dp3435
sg3416
I112
sg3417
(dp3436
I103
S"    response.write('\\n\\t\\t\\t\\t\\t\\t', escape=False)"
p3437
sI104
S'    ids = []'
p3438
sI105
S"    response.write('\\n\\t\\t\\t\\t\\t\\t', escape=False)"
p3439
sI106
S'    for row in detail.column.select():'
p3440
sI107
S"        response.write('\\n\\t\\t\\t\\t\\t\\t\\t', escape=False)"
p3441
sI108
S'        if not ids:'
p3442
sI109
S"            response.write('\\n\\t\\t\\t\\t\\t\\t\\t\\t', escape=False)"
p3443
sI110
S'            ids.append(row.id)'
p3444
sI111
S"            response.write('\\n\\t\\t\\t\\t\\t\\t\\t\\t', escape=False)"
p3445
sI112
S'            lines.append(TR(row.content))'
p3446
sI113
S"            response.write('\\n\\t\\t\\t\\t\\t\\t\\t', escape=False)"
p3447
sI114
S'        elif row.id in ids:'
p3448
sI115
S"            response.write('\\n\\t\\t\\t\\t\\t\\t\\t\\t', escape=False)"
p3449
sI116
S'            lines.append(TR(row.content))'
p3450
sI117
S"            response.write('\\n\\t\\t\\t\\t\\t\\t\\t', escape=False)"
p3451
sI118
S'        elif row.id not in ids:'
p3452
sI119
S"            response.write('\\n\\t\\t\\t\\t\\t\\t\\t\\t', escape=False)"
p3453
sI120
S'            lines[ids.index(row.id)].append(TD(row.content))'
p3454
sI121
S"            response.write('\\n\\t\\t\\t\\t\\t\\t\\t', escape=False)"
p3455
sI122
S'            pass'
p3456
ssg3429
S'()'
p3457
sg3431
S'<module>'
p3458
sa(dp3459
g3408
S'/home/kaique/Projects/web2py/gluon/dal.py'
p3460
sg3410
(dp3461
S'self'
p3462
S"<Row {'updated_by': 1, 'title': 'Column 1', 'upd...c8>, 'row': <gluon.dal.Set object at 0x1ca5150>}>"
p3463
sS'key'
p3464
S"'content'"
p3465
ssg3416
I3851
sg3417
(dp3466
I3846
S''
sI3847
S'    def __setitem__(self, key, value):'
p3467
sI3848
S'        dict.__setitem__(self, str(key), value)'
p3468
sI3849
S''
sI3850
S'    def __getattr__(self, key):'
p3469
sI3851
S'        return self[key]'
p3470
sI3852
S''
sI3853
S'    def __setattr__(self, key, value):'
p3471
sI3854
S'        self[key] = value'
p3472
sI3855
S''
ssg3429
S"(self=<Row {'updated_by': 1, 'title': 'Column 1', 'upd...c8>, 'row': <gluon.dal.Set object at 0x1ca5150>}>, key='content')"
p3473
sg3431
S'__getattr__'
p3474
sa(dp3475
g3408
S'/home/kaique/Projects/web2py/gluon/dal.py'
p3476
sg3410
(dp3477
S'self'
p3478
S"<Row {'updated_by': 1, 'title': 'Column 1', 'upd...c8>, 'row': <gluon.dal.Set object at 0x1ca5150>}>"
p3479
sS'dict.__getitem__'
p3480
S"<method '__getitem__' of 'dict' objects>"
p3481
sS'key'
p3482
S"'content'"
p3483
sS'builtindict'
p3484
S"<type 'dict'>"
p3485
ssg3416
I3842
sg3417
(dp3486
I3840
S'            except (KeyError,TypeError):'
p3487
sI3841
S'                key = m.group(2)'
p3488
sI3842
S'        return dict.__getitem__(self, key)'
p3489
sI3843
S''
sI3844
S'    def __call__(self,key):'
p3490
sI3845
S'        return self.__getitem__(key)'
p3491
sI3846
S''
sI3837
S'        elif m:'
p3492
sI3838
S'            try:'
p3493
sI3839
S'                return dict.__getitem__(self, m.group(1))[m.group(2)]'
p3494
ssg3429
S"(self=<Row {'updated_by': 1, 'title': 'Column 1', 'upd...c8>, 'row': <gluon.dal.Set object at 0x1ca5150>}>, key='content')"
p3495
sg3431
g19
sasS'pyver'
p3496
S'Python 2.7.2+: /usr/bin/python'
p3497
sS'session'
p3498
g56
(g57
g58
NtRp3499
(dp3500
g61
(dp3501
sg63
(lp3502
g56
(g65
g58
NtRp3503
(dp3504
g61
(dp3505
g69
I5
ssg70
Nsg63
(lp3506
g56
(g72
g58
NtRp3507
(dp3508
g61
(dp3509
sg70
g3503
sg63
(lp3510
g56
(g77
g58
NtRp3511
(dp3512
g61
(dp3513
g81
g82
ssg70
g3507
sg63
(lp3514
S'auth'
p3515
asbag56
(g77
g58
NtRp3516
(dp3517
g61
(dp3518
g88
g89
ssg70
g3507
sg63
(lp3519
S':'
asbag56
(g77
g58
NtRp3520
(dp3521
g61
(dp3522
sg70
g3507
sg63
(lp3523
g56
(g57
g58
NtRp3524
(dp3525
g61
(dp3526
g69
I5
ssg70
g3520
sg63
(lp3527
g56
(g65
g58
NtRp3528
(dp3529
g61
(dp3530
g69
I4
ssg70
Nsg63
(lp3531
g56
(g72
g58
NtRp3532
(dp3533
g61
(dp3534
sg70
g3528
sg63
(lp3535
g56
(g77
g58
NtRp3536
(dp3537
g61
(dp3538
g81
g82
ssg70
g3532
sg63
(lp3539
S'expiration'
p3540
asbag56
(g77
g58
NtRp3541
(dp3542
g61
(dp3543
g88
g89
ssg70
g3532
sg63
(lp3544
S':'
asbag56
(g77
g58
NtRp3545
(dp3546
g61
(dp3547
sg70
g3532
sg63
(lp3548
g56
(g57
g58
NtRp3549
(dp3550
g61
(dp3551
g69
I4
ssg70
g3545
sg63
(lp3552
S'2592000'
p3553
asbasbasbag56
(g72
g58
NtRp3554
(dp3555
g61
(dp3556
sg70
g3528
sg63
(lp3557
g56
(g77
g58
NtRp3558
(dp3559
g61
(dp3560
g81
g82
ssg70
g3554
sg63
(lp3561
S'hmac_key'
p3562
asbag56
(g77
g58
NtRp3563
(dp3564
g61
(dp3565
g88
g89
ssg70
g3554
sg63
(lp3566
S':'
asbag56
(g77
g58
NtRp3567
(dp3568
g61
(dp3569
sg70
g3554
sg63
(lp3570
g56
(g57
g58
NtRp3571
(dp3572
g61
(dp3573
g69
I4
ssg70
g3567
sg63
(lp3574
S'63ff9364-0b36-492d-81fa-9c003e42e522'
p3575
asbasbasbag56
(g72
g58
NtRp3576
(dp3577
g61
(dp3578
sg70
g3528
sg63
(lp3579
g56
(g77
g58
NtRp3580
(dp3581
g61
(dp3582
g81
g82
ssg70
g3576
sg63
(lp3583
S'last_visit'
p3584
asbag56
(g77
g58
NtRp3585
(dp3586
g61
(dp3587
g88
g89
ssg70
g3576
sg63
(lp3588
S':'
asbag56
(g77
g58
NtRp3589
(dp3590
g61
(dp3591
sg70
g3576
sg63
(lp3592
g56
(g57
g58
NtRp3593
(dp3594
g61
(dp3595
g69
I4
ssg70
g3589
sg63
(lp3596
S'datetime.datetime(2012, 1, 13, 22, 9, 29, 822346)'
p3597
asbasbasbag56
(g72
g58
NtRp3598
(dp3599
g61
(dp3600
sg70
g3528
sg63
(lp3601
g56
(g77
g58
NtRp3602
(dp3603
g61
(dp3604
g81
g82
ssg70
g3598
sg63
(lp3605
S'remember'
p3606
asbag56
(g77
g58
NtRp3607
(dp3608
g61
(dp3609
g88
g89
ssg70
g3598
sg63
(lp3610
S':'
asbag56
(g77
g58
NtRp3611
(dp3612
g61
(dp3613
sg70
g3598
sg63
(lp3614
g56
(g57
g58
NtRp3615
(dp3616
g61
(dp3617
g69
I4
ssg70
g3611
sg63
(lp3618
g99
asbasbasbag56
(g72
g58
NtRp3619
(dp3620
g61
(dp3621
sg70
g3528
sg63
(lp3622
g56
(g77
g58
NtRp3623
(dp3624
g61
(dp3625
g81
g82
ssg70
g3619
sg63
(lp3626
S'user'
p3627
asbag56
(g77
g58
NtRp3628
(dp3629
g61
(dp3630
g88
g89
ssg70
g3619
sg63
(lp3631
S':'
asbag56
(g77
g58
NtRp3632
(dp3633
g61
(dp3634
sg70
g3619
sg63
(lp3635
g56
(g57
g58
NtRp3636
(dp3637
g61
(dp3638
g69
I4
ssg70
g3632
sg63
(lp3639
g56
(g65
g58
NtRp3640
(dp3641
g61
(dp3642
g69
I3
ssg70
Nsg63
(lp3643
g56
(g72
g58
NtRp3644
(dp3645
g61
(dp3646
sg70
g3640
sg63
(lp3647
g56
(g77
g58
NtRp3648
(dp3649
g61
(dp3650
g81
g82
ssg70
g3644
sg63
(lp3651
S'email'
p3652
asbag56
(g77
g58
NtRp3653
(dp3654
g61
(dp3655
g88
g89
ssg70
g3644
sg63
(lp3656
S':'
asbag56
(g77
g58
NtRp3657
(dp3658
g61
(dp3659
sg70
g3644
sg63
(lp3660
g56
(g57
g58
NtRp3661
(dp3662
g61
(dp3663
g69
I3
ssg70
g3657
sg63
(lp3664
S'kaique.developer@gmail.com'
p3665
asbasbasbag56
(g72
g58
NtRp3666
(dp3667
g61
(dp3668
sg70
g3640
sg63
(lp3669
g56
(g77
g58
NtRp3670
(dp3671
g61
(dp3672
g81
g82
ssg70
g3666
sg63
(lp3673
S'first_name'
p3674
asbag56
(g77
g58
NtRp3675
(dp3676
g61
(dp3677
g88
g89
ssg70
g3666
sg63
(lp3678
S':'
asbag56
(g77
g58
NtRp3679
(dp3680
g61
(dp3681
sg70
g3666
sg63
(lp3682
g56
(g57
g58
NtRp3683
(dp3684
g61
(dp3685
g69
I3
ssg70
g3679
sg63
(lp3686
S'kaique'
p3687
asbasbasbag56
(g72
g58
NtRp3688
(dp3689
g61
(dp3690
sg70
g3640
sg63
(lp3691
g56
(g77
g58
NtRp3692
(dp3693
g61
(dp3694
g81
g82
ssg70
g3688
sg63
(lp3695
S'id'
p3696
asbag56
(g77
g58
NtRp3697
(dp3698
g61
(dp3699
g88
g89
ssg70
g3688
sg63
(lp3700
S':'
asbag56
(g77
g58
NtRp3701
(dp3702
g61
(dp3703
sg70
g3688
sg63
(lp3704
g56
(g57
g58
NtRp3705
(dp3706
g61
(dp3707
g69
I3
ssg70
g3701
sg63
(lp3708
S'1'
asbasbasbag56
(g72
g58
NtRp3709
(dp3710
g61
(dp3711
sg70
g3640
sg63
(lp3712
g56
(g77
g58
NtRp3713
(dp3714
g61
(dp3715
g81
g82
ssg70
g3709
sg63
(lp3716
S'last_name'
p3717
asbag56
(g77
g58
NtRp3718
(dp3719
g61
(dp3720
g88
g89
ssg70
g3709
sg63
(lp3721
S':'
asbag56
(g77
g58
NtRp3722
(dp3723
g61
(dp3724
sg70
g3709
sg63
(lp3725
g56
(g57
g58
NtRp3726
(dp3727
g61
(dp3728
g69
I3
ssg70
g3722
sg63
(lp3729
S'silva'
p3730
asbasbasbag56
(g72
g58
NtRp3731
(dp3732
g61
(dp3733
sg70
g3640
sg63
(lp3734
g56
(g77
g58
NtRp3735
(dp3736
g61
(dp3737
g81
g82
ssg70
g3731
sg63
(lp3738
S'password'
p3739
asbag56
(g77
g58
NtRp3740
(dp3741
g61
(dp3742
g88
g89
ssg70
g3731
sg63
(lp3743
S':'
asbag56
(g77
g58
NtRp3744
(dp3745
g61
(dp3746
sg70
g3731
sg63
(lp3747
g56
(g57
g58
NtRp3748
(dp3749
g61
(dp3750
g69
I3
ssg70
g3744
sg63
(lp3751
S'72c6a018d62d3fb47d95389e4a062cd2'
p3752
asbasbasbag56
(g72
g58
NtRp3753
(dp3754
g61
(dp3755
sg70
g3640
sg63
(lp3756
g56
(g77
g58
NtRp3757
(dp3758
g61
(dp3759
g81
g82
ssg70
g3753
sg63
(lp3760
S'registration_key'
p3761
asbag56
(g77
g58
NtRp3762
(dp3763
g61
(dp3764
g88
g89
ssg70
g3753
sg63
(lp3765
S':'
asbag56
(g77
g58
NtRp3766
(dp3767
g61
(dp3768
sg70
g3753
sg63
(lp3769
g56
(g57
g58
NtRp3770
(dp3771
g61
(dp3772
g69
I3
ssg70
g3766
sg63
(lp3773
S''
asbasbasbag56
(g72
g58
NtRp3774
(dp3775
g61
(dp3776
sg70
g3640
sg63
(lp3777
g56
(g77
g58
NtRp3778
(dp3779
g61
(dp3780
g81
g82
ssg70
g3774
sg63
(lp3781
S'reset_password_key'
p3782
asbag56
(g77
g58
NtRp3783
(dp3784
g61
(dp3785
g88
g89
ssg70
g3774
sg63
(lp3786
S':'
asbag56
(g77
g58
NtRp3787
(dp3788
g61
(dp3789
sg70
g3774
sg63
(lp3790
g56
(g57
g58
NtRp3791
(dp3792
g61
(dp3793
g69
I3
ssg70
g3787
sg63
(lp3794
S''
asbasbasbasbasbasbasbasbasbasbasbag56
(g72
g58
NtRp3795
(dp3796
g61
(dp3797
sg70
g3503
sg63
(lp3798
g56
(g77
g58
NtRp3799
(dp3800
g61
(dp3801
g81
g82
ssg70
g3795
sg63
(lp3802
S'back'
p3803
asbag56
(g77
g58
NtRp3804
(dp3805
g61
(dp3806
g88
g89
ssg70
g3795
sg63
(lp3807
S':'
asbag56
(g77
g58
NtRp3808
(dp3809
g61
(dp3810
sg70
g3795
sg63
(lp3811
g56
(g57
g58
NtRp3812
(dp3813
g61
(dp3814
g69
I5
ssg70
g3808
sg63
(lp3815
S'8'
asbasbasbag56
(g72
g58
NtRp3816
(dp3817
g61
(dp3818
sg70
g3503
sg63
(lp3819
g56
(g77
g58
NtRp3820
(dp3821
g61
(dp3822
g81
g82
ssg70
g3816
sg63
(lp3823
S'index'
p3824
asbag56
(g77
g58
NtRp3825
(dp3826
g61
(dp3827
g88
g89
ssg70
g3816
sg63
(lp3828
S':'
asbag56
(g77
g58
NtRp3829
(dp3830
g61
(dp3831
sg70
g3816
sg63
(lp3832
g56
(g57
g58
NtRp3833
(dp3834
g61
(dp3835
g69
I5
ssg70
g3829
sg63
(lp3836
S'1'
asbasbasbasbasbsS'etype'
p3837
S"<type 'exceptions.KeyError'>"
p3838
sS'date'
p3839
S'Fri Jan 13 22:50:43 2012'
p3840
sS'response'
p3841
g56
(g57
g58
NtRp3842
(dp3843
g61
(dp3844
sg63
(lp3845
g56
(g65
g58
NtRp3846
(dp3847
g61
(dp3848
g69
I5
ssg70
Nsg63
(lp3849
g56
(g72
g58
NtRp3850
(dp3851
g61
(dp3852
sg70
g3846
sg63
(lp3853
g56
(g77
g58
NtRp3854
(dp3855
g61
(dp3856
g81
g82
ssg70
g3850
sg63
(lp3857
g166
asbag56
(g77
g58
NtRp3858
(dp3859
g61
(dp3860
g88
g89
ssg70
g3850
sg63
(lp3861
S':'
asbag56
(g77
g58
NtRp3862
(dp3863
g61
(dp3864
sg70
g3850
sg63
(lp3865
g56
(g57
g58
NtRp3866
(dp3867
g61
(dp3868
g69
I5
ssg70
g3862
sg63
(lp3869
S'<cStringIO.StringO object at 0x1e5db58>'
p3870
asbasbasbag56
(g72
g58
NtRp3871
(dp3872
g61
(dp3873
sg70
g3846
sg63
(lp3874
g56
(g77
g58
NtRp3875
(dp3876
g61
(dp3877
g81
g82
ssg70
g3871
sg63
(lp3878
g232
asbag56
(g77
g58
NtRp3879
(dp3880
g61
(dp3881
g88
g89
ssg70
g3871
sg63
(lp3882
S':'
asbag56
(g77
g58
NtRp3883
(dp3884
g61
(dp3885
sg70
g3871
sg63
(lp3886
g56
(g57
g58
NtRp3887
(dp3888
g61
(dp3889
g69
I5
ssg70
g3883
sg63
(lp3890
g56
(g65
g58
NtRp3891
(dp3892
g61
(dp3893
g69
I4
ssg70
Nsg63
(lp3894
g56
(g72
g58
NtRp3895
(dp3896
g61
(dp3897
sg70
g3891
sg63
(lp3898
g56
(g77
g58
NtRp3899
(dp3900
g61
(dp3901
g81
g82
ssg70
g3895
sg63
(lp3902
S'session_id_synopsis'
p3903
asbag56
(g77
g58
NtRp3904
(dp3905
g61
(dp3906
g88
g89
ssg70
g3895
sg63
(lp3907
S':'
asbag56
(g77
g58
NtRp3908
(dp3909
g61
(dp3910
sg70
g3895
sg63
(lp3911
g56
(g57
g58
NtRp3912
(dp3913
g61
(dp3914
g69
I4
ssg70
g3908
sg63
(lp3915
g56
(g65
g58
NtRp3916
(dp3917
g61
(dp3918
g69
I3
ssg70
Nsg63
(lp3919
g56
(g72
g58
NtRp3920
(dp3921
g61
(dp3922
sg70
g3916
sg63
(lp3923
g56
(g77
g58
NtRp3924
(dp3925
g61
(dp3926
g81
g82
ssg70
g3920
sg63
(lp3927
g282
asbag56
(g77
g58
NtRp3928
(dp3929
g61
(dp3930
g88
g89
ssg70
g3920
sg63
(lp3931
S':'
asbag56
(g77
g58
NtRp3932
(dp3933
g61
(dp3934
sg70
g3920
sg63
(lp3935
g56
(g57
g58
NtRp3936
(dp3937
g61
(dp3938
g69
I3
ssg70
g3932
sg63
(lp3939
S''
asbasbasbag56
(g72
g58
NtRp3940
(dp3941
g61
(dp3942
sg70
g3916
sg63
(lp3943
g56
(g77
g58
NtRp3944
(dp3945
g61
(dp3946
g81
g82
ssg70
g3940
sg63
(lp3947
g303
asbag56
(g77
g58
NtRp3948
(dp3949
g61
(dp3950
g88
g89
ssg70
g3940
sg63
(lp3951
S':'
asbag56
(g77
g58
NtRp3952
(dp3953
g61
(dp3954
sg70
g3940
sg63
(lp3955
g56
(g57
g58
NtRp3956
(dp3957
g61
(dp3958
g69
I3
ssg70
g3952
sg63
(lp3959
S''
asbasbasbag56
(g72
g58
NtRp3960
(dp3961
g61
(dp3962
sg70
g3916
sg63
(lp3963
g56
(g77
g58
NtRp3964
(dp3965
g61
(dp3966
g81
g82
ssg70
g3960
sg63
(lp3967
g324
asbag56
(g77
g58
NtRp3968
(dp3969
g61
(dp3970
g88
g89
ssg70
g3960
sg63
(lp3971
S':'
asbag56
(g77
g58
NtRp3972
(dp3973
g61
(dp3974
sg70
g3960
sg63
(lp3975
g56
(g57
g58
NtRp3976
(dp3977
g61
(dp3978
g69
I3
ssg70
g3972
sg63
(lp3979
S''
asbasbasbag56
(g72
g58
NtRp3980
(dp3981
g61
(dp3982
sg70
g3916
sg63
(lp3983
g56
(g77
g58
NtRp3984
(dp3985
g61
(dp3986
g81
g82
ssg70
g3980
sg63
(lp3987
g345
asbag56
(g77
g58
NtRp3988
(dp3989
g61
(dp3990
g88
g89
ssg70
g3980
sg63
(lp3991
S':'
asbag56
(g77
g58
NtRp3992
(dp3993
g61
(dp3994
sg70
g3980
sg63
(lp3995
g56
(g57
g58
NtRp3996
(dp3997
g61
(dp3998
g69
I3
ssg70
g3992
sg63
(lp3999
S''
asbasbasbag56
(g72
g58
NtRp4000
(dp4001
g61
(dp4002
sg70
g3916
sg63
(lp4003
g56
(g77
g58
NtRp4004
(dp4005
g61
(dp4006
g81
g82
ssg70
g4000
sg63
(lp4007
g366
asbag56
(g77
g58
NtRp4008
(dp4009
g61
(dp4010
g88
g89
ssg70
g4000
sg63
(lp4011
S':'
asbag56
(g77
g58
NtRp4012
(dp4013
g61
(dp4014
sg70
g4000
sg63
(lp4015
g56
(g57
g58
NtRp4016
(dp4017
g61
(dp4018
g69
I3
ssg70
g4012
sg63
(lp4019
S''
asbasbasbag56
(g72
g58
NtRp4020
(dp4021
g61
(dp4022
sg70
g3916
sg63
(lp4023
g56
(g77
g58
NtRp4024
(dp4025
g61
(dp4026
g81
g82
ssg70
g4020
sg63
(lp4027
g387
asbag56
(g77
g58
NtRp4028
(dp4029
g61
(dp4030
g88
g89
ssg70
g4020
sg63
(lp4031
S':'
asbag56
(g77
g58
NtRp4032
(dp4033
g61
(dp4034
sg70
g4020
sg63
(lp4035
g56
(g57
g58
NtRp4036
(dp4037
g61
(dp4038
g69
I3
ssg70
g4032
sg63
(lp4039
S'/'
asbasbasbag56
(g72
g58
NtRp4040
(dp4041
g61
(dp4042
sg70
g3916
sg63
(lp4043
g56
(g77
g58
NtRp4044
(dp4045
g61
(dp4046
g81
g82
ssg70
g4040
sg63
(lp4047
g408
asbag56
(g77
g58
NtRp4048
(dp4049
g61
(dp4050
g88
g89
ssg70
g4040
sg63
(lp4051
S':'
asbag56
(g77
g58
NtRp4052
(dp4053
g61
(dp4054
sg70
g4040
sg63
(lp4055
g56
(g57
g58
NtRp4056
(dp4057
g61
(dp4058
g69
I3
ssg70
g4052
sg63
(lp4059
S''
asbasbasbag56
(g72
g58
NtRp4060
(dp4061
g61
(dp4062
sg70
g3916
sg63
(lp4063
g56
(g77
g58
NtRp4064
(dp4065
g61
(dp4066
g81
g82
ssg70
g4060
sg63
(lp4067
g429
asbag56
(g77
g58
NtRp4068
(dp4069
g61
(dp4070
g88
g89
ssg70
g4060
sg63
(lp4071
S':'
asbag56
(g77
g58
NtRp4072
(dp4073
g61
(dp4074
sg70
g4060
sg63
(lp4075
g56
(g57
g58
NtRp4076
(dp4077
g61
(dp4078
g69
I3
ssg70
g4072
sg63
(lp4079
S''
asbasbasbasbasbasbasbasbasbasbasbag56
(g72
g58
NtRp4080
(dp4081
g61
(dp4082
sg70
g3846
sg63
(lp4083
g56
(g77
g58
NtRp4084
(dp4085
g61
(dp4086
g81
g82
ssg70
g4080
sg63
(lp4087
S'files'
p4088
asbag56
(g77
g58
NtRp4089
(dp4090
g61
(dp4091
g88
g89
ssg70
g4080
sg63
(lp4092
S':'
asbag56
(g77
g58
NtRp4093
(dp4094
g61
(dp4095
sg70
g4080
sg63
(lp4096
g56
(g57
g58
NtRp4097
(dp4098
g61
(dp4099
g69
I5
ssg70
g4093
sg63
(lp4100
g56
(g65
g58
NtRp4101
(dp4102
g61
(dp4103
g69
I4
ssg70
Nsg63
(lp4104
g56
(g72
g58
NtRp4105
(dp4106
g61
(dp4107
sg70
g4101
sg63
(lp4108
g56
(g77
g58
NtRp4109
(dp4110
g61
(dp4111
sg70
g4105
sg63
(lp4112
g56
(g57
g58
NtRp4113
(dp4114
g61
(dp4115
g69
I4
ssg70
g4109
sg63
(lp4116
S'/synopsis/static/js/jquery.js'
p4117
asbasbasbag56
(g72
g58
NtRp4118
(dp4119
g61
(dp4120
sg70
g4101
sg63
(lp4121
g56
(g77
g58
NtRp4122
(dp4123
g61
(dp4124
sg70
g4118
sg63
(lp4125
g56
(g57
g58
NtRp4126
(dp4127
g61
(dp4128
g69
I4
ssg70
g4122
sg63
(lp4129
S'/synopsis/static/css/anytime.css'
p4130
asbasbasbag56
(g72
g58
NtRp4131
(dp4132
g61
(dp4133
sg70
g4101
sg63
(lp4134
g56
(g77
g58
NtRp4135
(dp4136
g61
(dp4137
sg70
g4131
sg63
(lp4138
g56
(g57
g58
NtRp4139
(dp4140
g61
(dp4141
g69
I4
ssg70
g4135
sg63
(lp4142
S'/synopsis/static/js/anytime.js'
p4143
asbasbasbag56
(g72
g58
NtRp4144
(dp4145
g61
(dp4146
sg70
g4101
sg63
(lp4147
g56
(g77
g58
NtRp4148
(dp4149
g61
(dp4150
sg70
g4144
sg63
(lp4151
g56
(g57
g58
NtRp4152
(dp4153
g61
(dp4154
g69
I4
ssg70
g4148
sg63
(lp4155
S'/synopsis/static/css/base.css'
p4156
asbasbasbag56
(g72
g58
NtRp4157
(dp4158
g61
(dp4159
sg70
g4101
sg63
(lp4160
g56
(g77
g58
NtRp4161
(dp4162
g61
(dp4163
sg70
g4157
sg63
(lp4164
g56
(g57
g58
NtRp4165
(dp4166
g61
(dp4167
g69
I4
ssg70
g4161
sg63
(lp4168
S'/synopsis/static/css/superfish.css'
p4169
asbasbasbag56
(g72
g58
NtRp4170
(dp4171
g61
(dp4172
sg70
g4101
sg63
(lp4173
g56
(g77
g58
NtRp4174
(dp4175
g61
(dp4176
sg70
g4170
sg63
(lp4177
g56
(g57
g58
NtRp4178
(dp4179
g61
(dp4180
g69
I4
ssg70
g4174
sg63
(lp4181
S'/synopsis/static/js/superfish.js'
p4182
asbasbasbasbasbasbasbag56
(g72
g58
NtRp4183
(dp4184
g61
(dp4185
sg70
g3846
sg63
(lp4186
g56
(g77
g58
NtRp4187
(dp4188
g61
(dp4189
g81
g82
ssg70
g4183
sg63
(lp4190
S'flash'
p4191
asbag56
(g77
g58
NtRp4192
(dp4193
g61
(dp4194
g88
g89
ssg70
g4183
sg63
(lp4195
S':'
asbag56
(g77
g58
NtRp4196
(dp4197
g61
(dp4198
sg70
g4183
sg63
(lp4199
g56
(g57
g58
NtRp4200
(dp4201
g61
(dp4202
g69
I5
ssg70
g4196
sg63
(lp4203
S''
asbasbasbag56
(g72
g58
NtRp4204
(dp4205
g61
(dp4206
sg70
g3846
sg63
(lp4207
g56
(g77
g58
NtRp4208
(dp4209
g61
(dp4210
g81
g82
ssg70
g4204
sg63
(lp4211
S'generic_patterns'
p4212
asbag56
(g77
g58
NtRp4213
(dp4214
g61
(dp4215
g88
g89
ssg70
g4204
sg63
(lp4216
S':'
asbag56
(g77
g58
NtRp4217
(dp4218
g61
(dp4219
sg70
g4204
sg63
(lp4220
g56
(g57
g58
NtRp4221
(dp4222
g61
(dp4223
g69
I5
ssg70
g4217
sg63
(lp4224
g56
(g65
g58
NtRp4225
(dp4226
g61
(dp4227
g69
I4
ssg70
Nsg63
(lp4228
g56
(g72
g58
NtRp4229
(dp4230
g61
(dp4231
sg70
g4225
sg63
(lp4232
g56
(g77
g58
NtRp4233
(dp4234
g61
(dp4235
sg70
g4229
sg63
(lp4236
g56
(g57
g58
NtRp4237
(dp4238
g61
(dp4239
g69
I4
ssg70
g4233
sg63
(lp4240
S'*'
asbasbasbasbasbasbasbag56
(g72
g58
NtRp4241
(dp4242
g61
(dp4243
sg70
g3846
sg63
(lp4244
g56
(g77
g58
NtRp4245
(dp4246
g61
(dp4247
g81
g82
ssg70
g4241
sg63
(lp4248
S'headers'
p4249
asbag56
(g77
g58
NtRp4250
(dp4251
g61
(dp4252
g88
g89
ssg70
g4241
sg63
(lp4253
S':'
asbag56
(g77
g58
NtRp4254
(dp4255
g61
(dp4256
sg70
g4241
sg63
(lp4257
g56
(g57
g58
NtRp4258
(dp4259
g61
(dp4260
g69
I5
ssg70
g4254
sg63
(lp4261
g56
(g65
g58
NtRp4262
(dp4263
g61
(dp4264
g69
I4
ssg70
Nsg63
(lp4265
g56
(g72
g58
NtRp4266
(dp4267
g61
(dp4268
sg70
g4262
sg63
(lp4269
g56
(g77
g58
NtRp4270
(dp4271
g61
(dp4272
g81
g82
ssg70
g4266
sg63
(lp4273
S'Cache-Control'
p4274
asbag56
(g77
g58
NtRp4275
(dp4276
g61
(dp4277
g88
g89
ssg70
g4266
sg63
(lp4278
S':'
asbag56
(g77
g58
NtRp4279
(dp4280
g61
(dp4281
sg70
g4266
sg63
(lp4282
g56
(g57
g58
NtRp4283
(dp4284
g61
(dp4285
g69
I4
ssg70
g4279
sg63
(lp4286
S'no-store, no-cache, must-revalidate, post-check=0, pre-check=0'
p4287
asbasbasbag56
(g72
g58
NtRp4288
(dp4289
g61
(dp4290
sg70
g4262
sg63
(lp4291
g56
(g77
g58
NtRp4292
(dp4293
g61
(dp4294
g81
g82
ssg70
g4288
sg63
(lp4295
S'Content-Type'
p4296
asbag56
(g77
g58
NtRp4297
(dp4298
g61
(dp4299
g88
g89
ssg70
g4288
sg63
(lp4300
S':'
asbag56
(g77
g58
NtRp4301
(dp4302
g61
(dp4303
sg70
g4288
sg63
(lp4304
g56
(g57
g58
NtRp4305
(dp4306
g61
(dp4307
g69
I4
ssg70
g4301
sg63
(lp4308
S'text/html; charset=utf-8'
p4309
asbasbasbag56
(g72
g58
NtRp4310
(dp4311
g61
(dp4312
sg70
g4262
sg63
(lp4313
g56
(g77
g58
NtRp4314
(dp4315
g61
(dp4316
g81
g82
ssg70
g4310
sg63
(lp4317
S'Expires'
p4318
asbag56
(g77
g58
NtRp4319
(dp4320
g61
(dp4321
g88
g89
ssg70
g4310
sg63
(lp4322
S':'
asbag56
(g77
g58
NtRp4323
(dp4324
g61
(dp4325
sg70
g4310
sg63
(lp4326
g56
(g57
g58
NtRp4327
(dp4328
g61
(dp4329
g69
I4
ssg70
g4323
sg63
(lp4330
S'Sat, 14 Jan 2012 00:50:43 GMT'
p4331
asbasbasbag56
(g72
g58
NtRp4332
(dp4333
g61
(dp4334
sg70
g4262
sg63
(lp4335
g56
(g77
g58
NtRp4336
(dp4337
g61
(dp4338
g81
g82
ssg70
g4332
sg63
(lp4339
S'Pragma'
p4340
asbag56
(g77
g58
NtRp4341
(dp4342
g61
(dp4343
g88
g89
ssg70
g4332
sg63
(lp4344
S':'
asbag56
(g77
g58
NtRp4345
(dp4346
g61
(dp4347
sg70
g4332
sg63
(lp4348
g56
(g57
g58
NtRp4349
(dp4350
g61
(dp4351
g69
I4
ssg70
g4345
sg63
(lp4352
S'no-cache'
p4353
asbasbasbag56
(g72
g58
NtRp4354
(dp4355
g61
(dp4356
sg70
g4262
sg63
(lp4357
g56
(g77
g58
NtRp4358
(dp4359
g61
(dp4360
g81
g82
ssg70
g4354
sg63
(lp4361
S'X-Powered-By'
p4362
asbag56
(g77
g58
NtRp4363
(dp4364
g61
(dp4365
g88
g89
ssg70
g4354
sg63
(lp4366
S':'
asbag56
(g77
g58
NtRp4367
(dp4368
g61
(dp4369
sg70
g4354
sg63
(lp4370
g56
(g57
g58
NtRp4371
(dp4372
g61
(dp4373
g69
I4
ssg70
g4367
sg63
(lp4374
S'web2py'
p4375
asbasbasbasbasbasbasbag56
(g72
g58
NtRp4376
(dp4377
g61
(dp4378
sg70
g3846
sg63
(lp4379
g56
(g77
g58
NtRp4380
(dp4381
g61
(dp4382
g81
g82
ssg70
g4376
sg63
(lp4383
S'menu'
p4384
asbag56
(g77
g58
NtRp4385
(dp4386
g61
(dp4387
g88
g89
ssg70
g4376
sg63
(lp4388
S':'
asbag56
(g77
g58
NtRp4389
(dp4390
g61
(dp4391
sg70
g4376
sg63
(lp4392
g56
(g57
g58
NtRp4393
(dp4394
g61
(dp4395
g69
I5
ssg70
g4389
sg63
(lp4396
g56
(g65
g58
NtRp4397
(dp4398
g61
(dp4399
g69
I4
ssg70
Nsg63
(lp4400
g56
(g72
g58
NtRp4401
(dp4402
g61
(dp4403
sg70
g4397
sg63
(lp4404
g56
(g77
g58
NtRp4405
(dp4406
g61
(dp4407
sg70
g4401
sg63
(lp4408
g56
(g57
g58
NtRp4409
(dp4410
g61
(dp4411
g69
I4
ssg70
g4405
sg63
(lp4412
g56
(g65
g58
NtRp4413
(dp4414
g61
(dp4415
g69
I3
ssg70
Nsg63
(lp4416
g56
(g72
g58
NtRp4417
(dp4418
g61
(dp4419
sg70
g4413
sg63
(lp4420
g56
(g77
g58
NtRp4421
(dp4422
g61
(dp4423
sg70
g4417
sg63
(lp4424
g56
(g57
g58
NtRp4425
(dp4426
g61
(dp4427
g69
I3
ssg70
g4421
sg63
(lp4428
cgluon.languages
lazyT_unpickle
p4429
(S't\x04\x00\x00\x00Home'
tRp4430
asbasbasbag56
(g72
g58
NtRp4431
(dp4432
g61
(dp4433
sg70
g4413
sg63
(lp4434
g56
(g77
g58
NtRp4435
(dp4436
g61
(dp4437
sg70
g4431
sg63
(lp4438
g56
(g57
g58
NtRp4439
(dp4440
g61
(dp4441
g69
I3
ssg70
g4435
sg63
(lp4442
g99
asbasbasbag56
(g72
g58
NtRp4443
(dp4444
g61
(dp4445
sg70
g4413
sg63
(lp4446
g56
(g77
g58
NtRp4447
(dp4448
g61
(dp4449
sg70
g4443
sg63
(lp4450
g56
(g57
g58
NtRp4451
(dp4452
g61
(dp4453
g69
I3
ssg70
g4447
sg63
(lp4454
S'/synopsis/default/index'
p4455
asbasbasbag56
(g72
g58
NtRp4456
(dp4457
g61
(dp4458
sg70
g4413
sg63
(lp4459
g56
(g77
g58
NtRp4460
(dp4461
g61
(dp4462
sg70
g4456
sg63
(lp4463
g56
(g57
g58
NtRp4464
(dp4465
g61
(dp4466
g69
I3
ssg70
g4460
sg63
(lp4467
g56
(g65
g58
NtRp4468
(dp4469
g61
(dp4470
g69
I2
ssg70
Nsg63
(lp4471
sbasbasbasbasbasbasbasbag56
(g72
g58
NtRp4472
(dp4473
g61
(dp4474
sg70
g4397
sg63
(lp4475
g56
(g77
g58
NtRp4476
(dp4477
g61
(dp4478
sg70
g4472
sg63
(lp4479
g56
(g57
g58
NtRp4480
(dp4481
g61
(dp4482
g69
I4
ssg70
g4476
sg63
(lp4483
g56
(g65
g58
NtRp4484
(dp4485
g61
(dp4486
g69
I3
ssg70
Nsg63
(lp4487
g56
(g72
g58
NtRp4488
(dp4489
g61
(dp4490
sg70
g4484
sg63
(lp4491
g56
(g77
g58
NtRp4492
(dp4493
g61
(dp4494
sg70
g4488
sg63
(lp4495
g56
(g57
g58
NtRp4496
(dp4497
g61
(dp4498
g69
I3
ssg70
g4492
sg63
(lp4499
g4429
(S't\x0b\x00\x00\x00Information'
tRp4500
asbasbasbag56
(g72
g58
NtRp4501
(dp4502
g61
(dp4503
sg70
g4484
sg63
(lp4504
g56
(g77
g58
NtRp4505
(dp4506
g61
(dp4507
sg70
g4501
sg63
(lp4508
g56
(g57
g58
NtRp4509
(dp4510
g61
(dp4511
g69
I3
ssg70
g4505
sg63
(lp4512
g99
asbasbasbag56
(g72
g58
NtRp4513
(dp4514
g61
(dp4515
sg70
g4484
sg63
(lp4516
g56
(g77
g58
NtRp4517
(dp4518
g61
(dp4519
sg70
g4513
sg63
(lp4520
g56
(g57
g58
NtRp4521
(dp4522
g61
(dp4523
g69
I3
ssg70
g4517
sg63
(lp4524
S'/synopsis/information/index'
p4525
asbasbasbag56
(g72
g58
NtRp4526
(dp4527
g61
(dp4528
sg70
g4484
sg63
(lp4529
g56
(g77
g58
NtRp4530
(dp4531
g61
(dp4532
sg70
g4526
sg63
(lp4533
g56
(g57
g58
NtRp4534
(dp4535
g61
(dp4536
g69
I3
ssg70
g4530
sg63
(lp4537
g56
(g65
g58
NtRp4538
(dp4539
g61
(dp4540
g69
I2
ssg70
Nsg63
(lp4541
sbasbasbasbasbasbasbasbag56
(g72
g58
NtRp4542
(dp4543
g61
(dp4544
sg70
g4397
sg63
(lp4545
g56
(g77
g58
NtRp4546
(dp4547
g61
(dp4548
sg70
g4542
sg63
(lp4549
g56
(g57
g58
NtRp4550
(dp4551
g61
(dp4552
g69
I4
ssg70
g4546
sg63
(lp4553
g56
(g65
g58
NtRp4554
(dp4555
g61
(dp4556
g69
I3
ssg70
Nsg63
(lp4557
g56
(g72
g58
NtRp4558
(dp4559
g61
(dp4560
sg70
g4554
sg63
(lp4561
g56
(g77
g58
NtRp4562
(dp4563
g61
(dp4564
sg70
g4558
sg63
(lp4565
g56
(g57
g58
NtRp4566
(dp4567
g61
(dp4568
g69
I3
ssg70
g4562
sg63
(lp4569
g4429
(S't\x05\x00\x00\x00About'
tRp4570
asbasbasbag56
(g72
g58
NtRp4571
(dp4572
g61
(dp4573
sg70
g4554
sg63
(lp4574
g56
(g77
g58
NtRp4575
(dp4576
g61
(dp4577
sg70
g4571
sg63
(lp4578
g56
(g57
g58
NtRp4579
(dp4580
g61
(dp4581
g69
I3
ssg70
g4575
sg63
(lp4582
g99
asbasbasbag56
(g72
g58
NtRp4583
(dp4584
g61
(dp4585
sg70
g4554
sg63
(lp4586
g56
(g77
g58
NtRp4587
(dp4588
g61
(dp4589
sg70
g4583
sg63
(lp4590
g56
(g57
g58
NtRp4591
(dp4592
g61
(dp4593
g69
I3
ssg70
g4587
sg63
(lp4594
S'/synopsis/about/index'
p4595
asbasbasbag56
(g72
g58
NtRp4596
(dp4597
g61
(dp4598
sg70
g4554
sg63
(lp4599
g56
(g77
g58
NtRp4600
(dp4601
g61
(dp4602
sg70
g4596
sg63
(lp4603
g56
(g57
g58
NtRp4604
(dp4605
g61
(dp4606
g69
I3
ssg70
g4600
sg63
(lp4607
g56
(g65
g58
NtRp4608
(dp4609
g61
(dp4610
g69
I2
ssg70
Nsg63
(lp4611
sbasbasbasbasbasbasbasbasbasbasbasbag56
(g72
g58
NtRp4612
(dp4613
g61
(dp4614
sg70
g3846
sg63
(lp4615
g56
(g77
g58
NtRp4616
(dp4617
g61
(dp4618
g81
g82
ssg70
g4612
sg63
(lp4619
S'meta'
p4620
asbag56
(g77
g58
NtRp4621
(dp4622
g61
(dp4623
g88
g89
ssg70
g4612
sg63
(lp4624
S':'
asbag56
(g77
g58
NtRp4625
(dp4626
g61
(dp4627
sg70
g4612
sg63
(lp4628
g56
(g57
g58
NtRp4629
(dp4630
g61
(dp4631
g69
I5
ssg70
g4625
sg63
(lp4632
g56
(g65
g58
NtRp4633
(dp4634
g61
(dp4635
g69
I4
ssg70
Nsg63
(lp4636
g56
(g72
g58
NtRp4637
(dp4638
g61
(dp4639
sg70
g4633
sg63
(lp4640
g56
(g77
g58
NtRp4641
(dp4642
g61
(dp4643
g81
g82
ssg70
g4637
sg63
(lp4644
S'author'
p4645
asbag56
(g77
g58
NtRp4646
(dp4647
g61
(dp4648
g88
g89
ssg70
g4637
sg63
(lp4649
S':'
asbag56
(g77
g58
NtRp4650
(dp4651
g61
(dp4652
sg70
g4637
sg63
(lp4653
g56
(g57
g58
NtRp4654
(dp4655
g61
(dp4656
g69
I4
ssg70
g4650
sg63
(lp4657
S'Your Name <you@example.com>'
p4658
asbasbasbag56
(g72
g58
NtRp4659
(dp4660
g61
(dp4661
sg70
g4633
sg63
(lp4662
g56
(g77
g58
NtRp4663
(dp4664
g61
(dp4665
g81
g82
ssg70
g4659
sg63
(lp4666
S'copyright'
p4667
asbag56
(g77
g58
NtRp4668
(dp4669
g61
(dp4670
g88
g89
ssg70
g4659
sg63
(lp4671
S':'
asbag56
(g77
g58
NtRp4672
(dp4673
g61
(dp4674
sg70
g4659
sg63
(lp4675
g56
(g57
g58
NtRp4676
(dp4677
g61
(dp4678
g69
I4
ssg70
g4672
sg63
(lp4679
S'Copyright 2011'
p4680
asbasbasbag56
(g72
g58
NtRp4681
(dp4682
g61
(dp4683
sg70
g4633
sg63
(lp4684
g56
(g77
g58
NtRp4685
(dp4686
g61
(dp4687
g81
g82
ssg70
g4681
sg63
(lp4688
S'description'
p4689
asbag56
(g77
g58
NtRp4690
(dp4691
g61
(dp4692
g88
g89
ssg70
g4681
sg63
(lp4693
S':'
asbag56
(g77
g58
NtRp4694
(dp4695
g61
(dp4696
sg70
g4681
sg63
(lp4697
g56
(g57
g58
NtRp4698
(dp4699
g61
(dp4700
g69
I4
ssg70
g4694
sg63
(lp4701
S'a cool new app'
p4702
asbasbasbag56
(g72
g58
NtRp4703
(dp4704
g61
(dp4705
sg70
g4633
sg63
(lp4706
g56
(g77
g58
NtRp4707
(dp4708
g61
(dp4709
g81
g82
ssg70
g4703
sg63
(lp4710
S'generator'
p4711
asbag56
(g77
g58
NtRp4712
(dp4713
g61
(dp4714
g88
g89
ssg70
g4703
sg63
(lp4715
S':'
asbag56
(g77
g58
NtRp4716
(dp4717
g61
(dp4718
sg70
g4703
sg63
(lp4719
g56
(g57
g58
NtRp4720
(dp4721
g61
(dp4722
g69
I4
ssg70
g4716
sg63
(lp4723
S'Web2py Web Framework'
p4724
asbasbasbag56
(g72
g58
NtRp4725
(dp4726
g61
(dp4727
sg70
g4633
sg63
(lp4728
g56
(g77
g58
NtRp4729
(dp4730
g61
(dp4731
g81
g82
ssg70
g4725
sg63
(lp4732
S'keywords'
p4733
asbag56
(g77
g58
NtRp4734
(dp4735
g61
(dp4736
g88
g89
ssg70
g4725
sg63
(lp4737
S':'
asbag56
(g77
g58
NtRp4738
(dp4739
g61
(dp4740
sg70
g4725
sg63
(lp4741
g56
(g57
g58
NtRp4742
(dp4743
g61
(dp4744
g69
I4
ssg70
g4738
sg63
(lp4745
S'web2py, python, framework'
p4746
asbasbasbasbasbasbasbag56
(g72
g58
NtRp4747
(dp4748
g61
(dp4749
sg70
g3846
sg63
(lp4750
g56
(g77
g58
NtRp4751
(dp4752
g61
(dp4753
g81
g82
ssg70
g4747
sg63
(lp4754
S'postprocessing'
p4755
asbag56
(g77
g58
NtRp4756
(dp4757
g61
(dp4758
g88
g89
ssg70
g4747
sg63
(lp4759
S':'
asbag56
(g77
g58
NtRp4760
(dp4761
g61
(dp4762
sg70
g4747
sg63
(lp4763
g56
(g57
g58
NtRp4764
(dp4765
g61
(dp4766
g69
I5
ssg70
g4760
sg63
(lp4767
g56
(g65
g58
NtRp4768
(dp4769
g61
(dp4770
g69
I4
ssg70
Nsg63
(lp4771
sbasbasbasbag56
(g72
g58
NtRp4772
(dp4773
g61
(dp4774
sg70
g3846
sg63
(lp4775
g56
(g77
g58
NtRp4776
(dp4777
g61
(dp4778
g81
g82
ssg70
g4772
sg63
(lp4779
S'session_file'
p4780
asbag56
(g77
g58
NtRp4781
(dp4782
g61
(dp4783
g88
g89
ssg70
g4772
sg63
(lp4784
S':'
asbag56
(g77
g58
NtRp4785
(dp4786
g61
(dp4787
sg70
g4772
sg63
(lp4788
g56
(g57
g58
NtRp4789
(dp4790
g61
(dp4791
g69
I5
ssg70
g4785
sg63
(lp4792
S"<open file '/home/kaique/Projects/web2py/applications/synopsis/sessions/127.0.0.1-22caa4ed-0448-4782-a756-bcb437fd81d3', mode 'rb+' at 0x1bec780>"
p4793
asbasbasbag56
(g72
g58
NtRp4794
(dp4795
g61
(dp4796
sg70
g3846
sg63
(lp4797
g56
(g77
g58
NtRp4798
(dp4799
g61
(dp4800
g81
g82
ssg70
g4794
sg63
(lp4801
S'session_filename'
p4802
asbag56
(g77
g58
NtRp4803
(dp4804
g61
(dp4805
g88
g89
ssg70
g4794
sg63
(lp4806
S':'
asbag56
(g77
g58
NtRp4807
(dp4808
g61
(dp4809
sg70
g4794
sg63
(lp4810
g56
(g57
g58
NtRp4811
(dp4812
g61
(dp4813
g69
I5
ssg70
g4807
sg63
(lp4814
S'/home/kaique/Projects/web2py/applications/synopsis/sessions/127.0.0.1-22caa4ed-0448-4782-a756-bcb437fd81d3'
p4815
asbasbasbag56
(g72
g58
NtRp4816
(dp4817
g61
(dp4818
sg70
g3846
sg63
(lp4819
g56
(g77
g58
NtRp4820
(dp4821
g61
(dp4822
g81
g82
ssg70
g4816
sg63
(lp4823
S'session_id'
p4824
asbag56
(g77
g58
NtRp4825
(dp4826
g61
(dp4827
g88
g89
ssg70
g4816
sg63
(lp4828
S':'
asbag56
(g77
g58
NtRp4829
(dp4830
g61
(dp4831
sg70
g4816
sg63
(lp4832
g56
(g57
g58
NtRp4833
(dp4834
g61
(dp4835
g69
I5
ssg70
g4829
sg63
(lp4836
S'127.0.0.1-22caa4ed-0448-4782-a756-bcb437fd81d3'
p4837
asbasbasbag56
(g72
g58
NtRp4838
(dp4839
g61
(dp4840
sg70
g3846
sg63
(lp4841
g56
(g77
g58
NtRp4842
(dp4843
g61
(dp4844
g81
g82
ssg70
g4838
sg63
(lp4845
S'session_id_name'
p4846
asbag56
(g77
g58
NtRp4847
(dp4848
g61
(dp4849
g88
g89
ssg70
g4838
sg63
(lp4850
S':'
asbag56
(g77
g58
NtRp4851
(dp4852
g61
(dp4853
sg70
g4838
sg63
(lp4854
g56
(g57
g58
NtRp4855
(dp4856
g61
(dp4857
g69
I5
ssg70
g4851
sg63
(lp4858
g3903
asbasbasbag56
(g72
g58
NtRp4859
(dp4860
g61
(dp4861
sg70
g3846
sg63
(lp4862
g56
(g77
g58
NtRp4863
(dp4864
g61
(dp4865
g81
g82
ssg70
g4859
sg63
(lp4866
S'session_locked'
p4867
asbag56
(g77
g58
NtRp4868
(dp4869
g61
(dp4870
g88
g89
ssg70
g4859
sg63
(lp4871
S':'
asbag56
(g77
g58
NtRp4872
(dp4873
g61
(dp4874
sg70
g4859
sg63
(lp4875
g56
(g57
g58
NtRp4876
(dp4877
g61
(dp4878
g69
I5
ssg70
g4872
sg63
(lp4879
g2060
asbasbasbag56
(g72
g58
NtRp4880
(dp4881
g61
(dp4882
sg70
g3846
sg63
(lp4883
g56
(g77
g58
NtRp4884
(dp4885
g61
(dp4886
g81
g82
ssg70
g4880
sg63
(lp4887
S'session_new'
p4888
asbag56
(g77
g58
NtRp4889
(dp4890
g61
(dp4891
g88
g89
ssg70
g4880
sg63
(lp4892
S':'
asbag56
(g77
g58
NtRp4893
(dp4894
g61
(dp4895
sg70
g4880
sg63
(lp4896
g56
(g57
g58
NtRp4897
(dp4898
g61
(dp4899
g69
I5
ssg70
g4893
sg63
(lp4900
g99
asbasbasbag56
(g72
g58
NtRp4901
(dp4902
g61
(dp4903
sg70
g3846
sg63
(lp4904
g56
(g77
g58
NtRp4905
(dp4906
g61
(dp4907
g81
g82
ssg70
g4901
sg63
(lp4908
S'status'
p4909
asbag56
(g77
g58
NtRp4910
(dp4911
g61
(dp4912
g88
g89
ssg70
g4901
sg63
(lp4913
S':'
asbag56
(g77
g58
NtRp4914
(dp4915
g61
(dp4916
sg70
g4901
sg63
(lp4917
g56
(g57
g58
NtRp4918
(dp4919
g61
(dp4920
g69
I5
ssg70
g4914
sg63
(lp4921
S'200'
p4922
asbasbasbag56
(g72
g58
NtRp4923
(dp4924
g61
(dp4925
sg70
g3846
sg63
(lp4926
g56
(g77
g58
NtRp4927
(dp4928
g61
(dp4929
g81
g82
ssg70
g4923
sg63
(lp4930
S'subtitle'
p4931
asbag56
(g77
g58
NtRp4932
(dp4933
g61
(dp4934
g88
g89
ssg70
g4923
sg63
(lp4935
S':'
asbag56
(g77
g58
NtRp4936
(dp4937
g61
(dp4938
sg70
g4923
sg63
(lp4939
g56
(g57
g58
NtRp4940
(dp4941
g61
(dp4942
g69
I5
ssg70
g4936
sg63
(lp4943
g4429
(S's\x0f\x00\x00\x00Personalize-me!'
tRp4944
asbasbasbag56
(g72
g58
NtRp4945
(dp4946
g61
(dp4947
sg70
g3846
sg63
(lp4948
g56
(g77
g58
NtRp4949
(dp4950
g61
(dp4951
g81
g82
ssg70
g4945
sg63
(lp4952
S'title'
p4953
asbag56
(g77
g58
NtRp4954
(dp4955
g61
(dp4956
g88
g89
ssg70
g4945
sg63
(lp4957
S':'
asbag56
(g77
g58
NtRp4958
(dp4959
g61
(dp4960
sg70
g4945
sg63
(lp4961
g56
(g57
g58
NtRp4962
(dp4963
g61
(dp4964
g69
I5
ssg70
g4958
sg63
(lp4965
g121
asbasbasbag56
(g72
g58
NtRp4966
(dp4967
g61
(dp4968
sg70
g3846
sg63
(lp4969
g56
(g77
g58
NtRp4970
(dp4971
g61
(dp4972
g81
g82
ssg70
g4966
sg63
(lp4973
g2725
asbag56
(g77
g58
NtRp4974
(dp4975
g61
(dp4976
g88
g89
ssg70
g4966
sg63
(lp4977
S':'
asbag56
(g77
g58
NtRp4978
(dp4979
g61
(dp4980
sg70
g4966
sg63
(lp4981
g56
(g57
g58
NtRp4982
(dp4983
g61
(dp4984
g69
I5
ssg70
g4978
sg63
(lp4985
g2738
asbasbasbag56
(g72
g58
NtRp4986
(dp4987
g61
(dp4988
sg70
g3846
sg63
(lp4989
g56
(g77
g58
NtRp4990
(dp4991
g61
(dp4992
g81
g82
ssg70
g4986
sg63
(lp4993
S'view'
p4994
asbag56
(g77
g58
NtRp4995
(dp4996
g61
(dp4997
g88
g89
ssg70
g4986
sg63
(lp4998
S':'
asbag56
(g77
g58
NtRp4999
(dp5000
g61
(dp5001
sg70
g4986
sg63
(lp5002
g56
(g57
g58
NtRp5003
(dp5004
g61
(dp5005
g69
I5
ssg70
g4999
sg63
(lp5006
S'information/publication.html'
p5007
asbasbasbasbasbsS'locals'
p5008
(dp5009
S'self'
p5010
S"<Row {'updated_by': 1, 'title': 'Column 1', 'upd...c8>, 'row': <gluon.dal.Set object at 0x1ca5150>}>"
p5011
sS'm'
S'None'
p5012
sS'key'
p5013
S"'content'"
p5014
sssS'traceback'
p5015
S'Traceback (most recent call last):\n  File "/home/kaique/Projects/web2py/gluon/restricted.py", line 194, in restricted\n    exec ccode in environment\n  File "/home/kaique/Projects/web2py/applications/synopsis/views/information/publication.html", line 112, in <module>\n  File "/home/kaique/Projects/web2py/gluon/dal.py", line 3851, in __getattr__\n    return self[key]\n  File "/home/kaique/Projects/web2py/gluon/dal.py", line 3842, in __getitem__\n    return dict.__getitem__(self, key)\nKeyError: \'content\'\n'
p5016
s.