(dp1
S'output'
p2
S''
sS'layer'
p3
S'/home/kaique/Projects/web2py/applications/synopsis/controllers/information.py'
p4
sS'code'
p5
S"# -*- coding: utf-8 -*-\nimport functions as f # shorthand function\n\n@auth.requires_membership('admin')\ndef index(): # Show the all content for redirect to profile\n\tsubject = f.get_table(db, 'subject', order='created_on')\n\treturn { 'subject': subject }\n\n@auth.requires_membership('admin')\ndef profile(): # Show the profile of subject\n\targs = request.args # query url's\n\tif args: \n\t\tprofile = f.get_table(db, 'subject', id=args[0]) \n\t\tsession.index = args[0] \n\tif not args or not profile: return redirect( URL('index') )\n\treturn { 'profile': profile }\n\n@auth.requires_membership('admin')\ndef publication(): # Show the publication profile\n\targs = request.args # query url's\n\tif args: publication = f.get_table(db, 'publication', id=args[0]) \n\tif not args or not publication: return redirect( URL('profile') )\n\treturn { 'publication': publication }\n\n@auth.requires_membership('admin')\ndef new(): # Create a new subject\n\targs = request.args\n\t\n\tif not args:\n\t\ttitle = 'Subject'\n\t\tsubject = SQLFORM(db.subject, fields=['name'])\n\t\tsubject.elements(_type='submit')[0]['_value'] = 'Create'\n\t\t\n\t\tif subject.process().accepted:\n\t\t\tresponse.flash = T('{0} {1} {2}'.format('New', title.lower(), 'inserted!'))\n\t\telif subject.errors:\n\t\t\tresponse.flash = T('Sorry, try again!')\n\t\telse:\n\t\t\tresponse.flah = T('Please, fill the field...')\n\t\t\t\n\t\treturn { 'form': subject, \n\t\t\t \t 'title': title }\n\t\n\telif args[0] == 'publication':\n\t\ttitle = 'Publication'\n\t\tpublication = SQLFORM.factory(db.publication, fields=['title', 'sub_title'])\n\t\t\n\t\tif publication.process(dbio=False).accepted:\n\t\t\tdb.publication.insert(subject_id = args[1])\n\t\t\tresponse.flash = T(T('{0} {1} {2}'.format('New', title.lower(), 'inserted!')))\n\t\telif publication.errors:\n\t\t\tresponse.flash = T('Sorry, try again!')\n\t\telse:\n\t\t\tresponse.flahs = T('Please, fill the field...')\n\t\n\t\treturn { 'form': publication,\n\t\t\t\t 'title': title }\n\t\t\t \t \n@auth.requires_membership('admin')\ndef edit(): # Edit the subject\n\treturn {}\n\nresponse._vars=response._caller(new)\n"
p6
sS'snapshot'
p7
(dp8
S'exception'
p9
(dp10
S'__getslice__'
p11
S"<method-wrapper '__getslice__' of exceptions.SyntaxError object>"
p12
sS'text'
p13
S'None'
p14
sS'__str__'
p15
S"<method-wrapper '__str__' of exceptions.SyntaxError object>"
p16
sS'__reduce__'
p17
S'<built-in method __reduce__ of exceptions.SyntaxError object>'
p18
sS'__dict__'
p19
S'{}'
p20
sS'__sizeof__'
p21
S'<built-in method __sizeof__ of exceptions.SyntaxError object>'
p22
sS'__init__'
p23
S"<method-wrapper '__init__' of exceptions.SyntaxError object>"
p24
sS'__setattr__'
p25
S"<method-wrapper '__setattr__' of exceptions.SyntaxError object>"
p26
sS'__reduce_ex__'
p27
S'<built-in method __reduce_ex__ of exceptions.SyntaxError object>'
p28
sS'__new__'
p29
S'<built-in method __new__ of type object>'
p30
sS'__format__'
p31
S'<built-in method __format__ of exceptions.SyntaxError object>'
p32
sS'__class__'
p33
S"<type 'exceptions.SyntaxError'>"
p34
sS'filename'
p35
S'None'
p36
sS'lineno'
p37
S'None'
p38
sS'msg'
p39
S"'Table: missing required field: title'"
p40
sS'__doc__'
p41
S"'Invalid syntax.'"
p42
sS'__getitem__'
p43
S"<method-wrapper '__getitem__' of exceptions.SyntaxError object>"
p44
sS'__setstate__'
p45
S'<built-in method __setstate__ of exceptions.SyntaxError object>'
p46
sS'__getattribute__'
p47
S"<method-wrapper '__getattribute__' of exceptions.SyntaxError object>"
p48
sS'print_file_and_line'
p49
S'None'
p50
sS'args'
p51
S"('Table: missing required field: title',)"
p52
sS'__subclasshook__'
p53
S'<built-in method __subclasshook__ of type object>'
p54
sS'offset'
p55
S'None'
p56
sS'__unicode__'
p57
S'<built-in method __unicode__ of exceptions.SyntaxError object>'
p58
sS'__delattr__'
p59
S"<method-wrapper '__delattr__' of exceptions.SyntaxError object>"
p60
sS'__repr__'
p61
S"<method-wrapper '__repr__' of exceptions.SyntaxError object>"
p62
sS'__hash__'
p63
S"<method-wrapper '__hash__' of exceptions.SyntaxError object>"
p64
ssS'evalue'
p65
S'Table: missing required field: title'
p66
sS'request'
p67
ccopy_reg
_reconstructor
p68
(cgluon.html
BEAUTIFY
p69
c__builtin__
object
p70
NtRp71
(dp72
S'attributes'
p73
(dp74
sS'components'
p75
(lp76
g68
(cgluon.html
TABLE
p77
g70
NtRp78
(dp79
g73
(dp80
S'level'
p81
I5
ssS'parent'
p82
Nsg75
(lp83
g68
(cgluon.html
TR
p84
g70
NtRp85
(dp86
g73
(dp87
sg82
g78
sg75
(lp88
g68
(cgluon.html
TD
p89
g70
NtRp90
(dp91
g73
(dp92
S'_style'
p93
S'font-weight:bold;'
p94
ssg82
g85
sg75
(lp95
S'ajax'
p96
asbag68
(g89
g70
NtRp97
(dp98
g73
(dp99
S'_valign'
p100
S'top'
p101
ssg82
g85
sg75
(lp102
S':'
asbag68
(g89
g70
NtRp103
(dp104
g73
(dp105
sg82
g85
sg75
(lp106
g68
(g69
g70
NtRp107
(dp108
g73
(dp109
g81
I5
ssg82
g103
sg75
(lp110
S'False'
p111
asbasbasbag68
(g84
g70
NtRp112
(dp113
g73
(dp114
sg82
g78
sg75
(lp115
g68
(g89
g70
NtRp116
(dp117
g73
(dp118
g93
g94
ssg82
g112
sg75
(lp119
S'application'
p120
asbag68
(g89
g70
NtRp121
(dp122
g73
(dp123
g100
g101
ssg82
g112
sg75
(lp124
S':'
asbag68
(g89
g70
NtRp125
(dp126
g73
(dp127
sg82
g112
sg75
(lp128
g68
(g69
g70
NtRp129
(dp130
g73
(dp131
g81
I5
ssg82
g125
sg75
(lp132
S'synopsis'
p133
asbasbasbag68
(g84
g70
NtRp134
(dp135
g73
(dp136
sg82
g78
sg75
(lp137
g68
(g89
g70
NtRp138
(dp139
g73
(dp140
g93
g94
ssg82
g134
sg75
(lp141
g51
asbag68
(g89
g70
NtRp142
(dp143
g73
(dp144
g100
g101
ssg82
g134
sg75
(lp145
S':'
asbag68
(g89
g70
NtRp146
(dp147
g73
(dp148
sg82
g134
sg75
(lp149
g68
(g69
g70
NtRp150
(dp151
g73
(dp152
g81
I5
ssg82
g146
sg75
(lp153
g68
(g77
g70
NtRp154
(dp155
g73
(dp156
g81
I4
ssg82
Nsg75
(lp157
g68
(g84
g70
NtRp158
(dp159
g73
(dp160
sg82
g154
sg75
(lp161
g68
(g89
g70
NtRp162
(dp163
g73
(dp164
sg82
g158
sg75
(lp165
g68
(g69
g70
NtRp166
(dp167
g73
(dp168
g81
I4
ssg82
g162
sg75
(lp169
S'publication'
p170
asbasbasbag68
(g84
g70
NtRp171
(dp172
g73
(dp173
sg82
g154
sg75
(lp174
g68
(g89
g70
NtRp175
(dp176
g73
(dp177
sg82
g171
sg75
(lp178
g68
(g69
g70
NtRp179
(dp180
g73
(dp181
g81
I4
ssg82
g175
sg75
(lp182
S'2'
asbasbasbasbasbasbasbag68
(g84
g70
NtRp183
(dp184
g73
(dp185
sg82
g78
sg75
(lp186
g68
(g89
g70
NtRp187
(dp188
g73
(dp189
g93
g94
ssg82
g183
sg75
(lp190
S'body'
p191
asbag68
(g89
g70
NtRp192
(dp193
g73
(dp194
g100
g101
ssg82
g183
sg75
(lp195
S':'
asbag68
(g89
g70
NtRp196
(dp197
g73
(dp198
sg82
g183
sg75
(lp199
g68
(g69
g70
NtRp200
(dp201
g73
(dp202
g81
I5
ssg82
g196
sg75
(lp203
S"<open file '<fdopen>', mode 'w+b' at 0x3f9ac00>"
p204
asbasbasbag68
(g84
g70
NtRp205
(dp206
g73
(dp207
sg82
g78
sg75
(lp208
g68
(g89
g70
NtRp209
(dp210
g73
(dp211
g93
g94
ssg82
g205
sg75
(lp212
S'client'
p213
asbag68
(g89
g70
NtRp214
(dp215
g73
(dp216
g100
g101
ssg82
g205
sg75
(lp217
S':'
asbag68
(g89
g70
NtRp218
(dp219
g73
(dp220
sg82
g205
sg75
(lp221
g68
(g69
g70
NtRp222
(dp223
g73
(dp224
g81
I5
ssg82
g218
sg75
(lp225
S'127.0.0.1'
p226
asbasbasbag68
(g84
g70
NtRp227
(dp228
g73
(dp229
sg82
g78
sg75
(lp230
g68
(g89
g70
NtRp231
(dp232
g73
(dp233
g93
g94
ssg82
g227
sg75
(lp234
S'controller'
p235
asbag68
(g89
g70
NtRp236
(dp237
g73
(dp238
g100
g101
ssg82
g227
sg75
(lp239
S':'
asbag68
(g89
g70
NtRp240
(dp241
g73
(dp242
sg82
g227
sg75
(lp243
g68
(g69
g70
NtRp244
(dp245
g73
(dp246
g81
I5
ssg82
g240
sg75
(lp247
S'information'
p248
asbasbasbag68
(g84
g70
NtRp249
(dp250
g73
(dp251
sg82
g78
sg75
(lp252
g68
(g89
g70
NtRp253
(dp254
g73
(dp255
g93
g94
ssg82
g249
sg75
(lp256
S'cookies'
p257
asbag68
(g89
g70
NtRp258
(dp259
g73
(dp260
g100
g101
ssg82
g249
sg75
(lp261
S':'
asbag68
(g89
g70
NtRp262
(dp263
g73
(dp264
sg82
g249
sg75
(lp265
g68
(g69
g70
NtRp266
(dp267
g73
(dp268
g81
I5
ssg82
g262
sg75
(lp269
g68
(g77
g70
NtRp270
(dp271
g73
(dp272
g81
I4
ssg82
Nsg75
(lp273
g68
(g84
g70
NtRp274
(dp275
g73
(dp276
sg82
g270
sg75
(lp277
g68
(g89
g70
NtRp278
(dp279
g73
(dp280
g93
g94
ssg82
g274
sg75
(lp281
S'session_id_admin'
p282
asbag68
(g89
g70
NtRp283
(dp284
g73
(dp285
g100
g101
ssg82
g274
sg75
(lp286
S':'
asbag68
(g89
g70
NtRp287
(dp288
g73
(dp289
sg82
g274
sg75
(lp290
g68
(g69
g70
NtRp291
(dp292
g73
(dp293
g81
I4
ssg82
g287
sg75
(lp294
g68
(g77
g70
NtRp295
(dp296
g73
(dp297
g81
I3
ssg82
Nsg75
(lp298
g68
(g84
g70
NtRp299
(dp300
g73
(dp301
sg82
g295
sg75
(lp302
g68
(g89
g70
NtRp303
(dp304
g73
(dp305
g93
g94
ssg82
g299
sg75
(lp306
S'comment'
p307
asbag68
(g89
g70
NtRp308
(dp309
g73
(dp310
g100
g101
ssg82
g299
sg75
(lp311
S':'
asbag68
(g89
g70
NtRp312
(dp313
g73
(dp314
sg82
g299
sg75
(lp315
g68
(g69
g70
NtRp316
(dp317
g73
(dp318
g81
I3
ssg82
g312
sg75
(lp319
S''
asbasbasbag68
(g84
g70
NtRp320
(dp321
g73
(dp322
sg82
g295
sg75
(lp323
g68
(g89
g70
NtRp324
(dp325
g73
(dp326
g93
g94
ssg82
g320
sg75
(lp327
S'domain'
p328
asbag68
(g89
g70
NtRp329
(dp330
g73
(dp331
g100
g101
ssg82
g320
sg75
(lp332
S':'
asbag68
(g89
g70
NtRp333
(dp334
g73
(dp335
sg82
g320
sg75
(lp336
g68
(g69
g70
NtRp337
(dp338
g73
(dp339
g81
I3
ssg82
g333
sg75
(lp340
S''
asbasbasbag68
(g84
g70
NtRp341
(dp342
g73
(dp343
sg82
g295
sg75
(lp344
g68
(g89
g70
NtRp345
(dp346
g73
(dp347
g93
g94
ssg82
g341
sg75
(lp348
S'expires'
p349
asbag68
(g89
g70
NtRp350
(dp351
g73
(dp352
g100
g101
ssg82
g341
sg75
(lp353
S':'
asbag68
(g89
g70
NtRp354
(dp355
g73
(dp356
sg82
g341
sg75
(lp357
g68
(g69
g70
NtRp358
(dp359
g73
(dp360
g81
I3
ssg82
g354
sg75
(lp361
S''
asbasbasbag68
(g84
g70
NtRp362
(dp363
g73
(dp364
sg82
g295
sg75
(lp365
g68
(g89
g70
NtRp366
(dp367
g73
(dp368
g93
g94
ssg82
g362
sg75
(lp369
S'httponly'
p370
asbag68
(g89
g70
NtRp371
(dp372
g73
(dp373
g100
g101
ssg82
g362
sg75
(lp374
S':'
asbag68
(g89
g70
NtRp375
(dp376
g73
(dp377
sg82
g362
sg75
(lp378
g68
(g69
g70
NtRp379
(dp380
g73
(dp381
g81
I3
ssg82
g375
sg75
(lp382
S''
asbasbasbag68
(g84
g70
NtRp383
(dp384
g73
(dp385
sg82
g295
sg75
(lp386
g68
(g89
g70
NtRp387
(dp388
g73
(dp389
g93
g94
ssg82
g383
sg75
(lp390
S'max-age'
p391
asbag68
(g89
g70
NtRp392
(dp393
g73
(dp394
g100
g101
ssg82
g383
sg75
(lp395
S':'
asbag68
(g89
g70
NtRp396
(dp397
g73
(dp398
sg82
g383
sg75
(lp399
g68
(g69
g70
NtRp400
(dp401
g73
(dp402
g81
I3
ssg82
g396
sg75
(lp403
S''
asbasbasbag68
(g84
g70
NtRp404
(dp405
g73
(dp406
sg82
g295
sg75
(lp407
g68
(g89
g70
NtRp408
(dp409
g73
(dp410
g93
g94
ssg82
g404
sg75
(lp411
S'path'
p412
asbag68
(g89
g70
NtRp413
(dp414
g73
(dp415
g100
g101
ssg82
g404
sg75
(lp416
S':'
asbag68
(g89
g70
NtRp417
(dp418
g73
(dp419
sg82
g404
sg75
(lp420
g68
(g69
g70
NtRp421
(dp422
g73
(dp423
g81
I3
ssg82
g417
sg75
(lp424
S''
asbasbasbag68
(g84
g70
NtRp425
(dp426
g73
(dp427
sg82
g295
sg75
(lp428
g68
(g89
g70
NtRp429
(dp430
g73
(dp431
g93
g94
ssg82
g425
sg75
(lp432
S'secure'
p433
asbag68
(g89
g70
NtRp434
(dp435
g73
(dp436
g100
g101
ssg82
g425
sg75
(lp437
S':'
asbag68
(g89
g70
NtRp438
(dp439
g73
(dp440
sg82
g425
sg75
(lp441
g68
(g69
g70
NtRp442
(dp443
g73
(dp444
g81
I3
ssg82
g438
sg75
(lp445
S''
asbasbasbag68
(g84
g70
NtRp446
(dp447
g73
(dp448
sg82
g295
sg75
(lp449
g68
(g89
g70
NtRp450
(dp451
g73
(dp452
g93
g94
ssg82
g446
sg75
(lp453
S'version'
p454
asbag68
(g89
g70
NtRp455
(dp456
g73
(dp457
g100
g101
ssg82
g446
sg75
(lp458
S':'
asbag68
(g89
g70
NtRp459
(dp460
g73
(dp461
sg82
g446
sg75
(lp462
g68
(g69
g70
NtRp463
(dp464
g73
(dp465
g81
I3
ssg82
g459
sg75
(lp466
S''
asbasbasbasbasbasbasbag68
(g84
g70
NtRp467
(dp468
g73
(dp469
sg82
g270
sg75
(lp470
g68
(g89
g70
NtRp471
(dp472
g73
(dp473
g93
g94
ssg82
g467
sg75
(lp474
S'session_id_synopsis'
p475
asbag68
(g89
g70
NtRp476
(dp477
g73
(dp478
g100
g101
ssg82
g467
sg75
(lp479
S':'
asbag68
(g89
g70
NtRp480
(dp481
g73
(dp482
sg82
g467
sg75
(lp483
g68
(g69
g70
NtRp484
(dp485
g73
(dp486
g81
I4
ssg82
g480
sg75
(lp487
g68
(g77
g70
NtRp488
(dp489
g73
(dp490
g81
I3
ssg82
Nsg75
(lp491
g68
(g84
g70
NtRp492
(dp493
g73
(dp494
sg82
g488
sg75
(lp495
g68
(g89
g70
NtRp496
(dp497
g73
(dp498
g93
g94
ssg82
g492
sg75
(lp499
g307
asbag68
(g89
g70
NtRp500
(dp501
g73
(dp502
g100
g101
ssg82
g492
sg75
(lp503
S':'
asbag68
(g89
g70
NtRp504
(dp505
g73
(dp506
sg82
g492
sg75
(lp507
g68
(g69
g70
NtRp508
(dp509
g73
(dp510
g81
I3
ssg82
g504
sg75
(lp511
S''
asbasbasbag68
(g84
g70
NtRp512
(dp513
g73
(dp514
sg82
g488
sg75
(lp515
g68
(g89
g70
NtRp516
(dp517
g73
(dp518
g93
g94
ssg82
g512
sg75
(lp519
g328
asbag68
(g89
g70
NtRp520
(dp521
g73
(dp522
g100
g101
ssg82
g512
sg75
(lp523
S':'
asbag68
(g89
g70
NtRp524
(dp525
g73
(dp526
sg82
g512
sg75
(lp527
g68
(g69
g70
NtRp528
(dp529
g73
(dp530
g81
I3
ssg82
g524
sg75
(lp531
S''
asbasbasbag68
(g84
g70
NtRp532
(dp533
g73
(dp534
sg82
g488
sg75
(lp535
g68
(g89
g70
NtRp536
(dp537
g73
(dp538
g93
g94
ssg82
g532
sg75
(lp539
g349
asbag68
(g89
g70
NtRp540
(dp541
g73
(dp542
g100
g101
ssg82
g532
sg75
(lp543
S':'
asbag68
(g89
g70
NtRp544
(dp545
g73
(dp546
sg82
g532
sg75
(lp547
g68
(g69
g70
NtRp548
(dp549
g73
(dp550
g81
I3
ssg82
g544
sg75
(lp551
S''
asbasbasbag68
(g84
g70
NtRp552
(dp553
g73
(dp554
sg82
g488
sg75
(lp555
g68
(g89
g70
NtRp556
(dp557
g73
(dp558
g93
g94
ssg82
g552
sg75
(lp559
g370
asbag68
(g89
g70
NtRp560
(dp561
g73
(dp562
g100
g101
ssg82
g552
sg75
(lp563
S':'
asbag68
(g89
g70
NtRp564
(dp565
g73
(dp566
sg82
g552
sg75
(lp567
g68
(g69
g70
NtRp568
(dp569
g73
(dp570
g81
I3
ssg82
g564
sg75
(lp571
S''
asbasbasbag68
(g84
g70
NtRp572
(dp573
g73
(dp574
sg82
g488
sg75
(lp575
g68
(g89
g70
NtRp576
(dp577
g73
(dp578
g93
g94
ssg82
g572
sg75
(lp579
g391
asbag68
(g89
g70
NtRp580
(dp581
g73
(dp582
g100
g101
ssg82
g572
sg75
(lp583
S':'
asbag68
(g89
g70
NtRp584
(dp585
g73
(dp586
sg82
g572
sg75
(lp587
g68
(g69
g70
NtRp588
(dp589
g73
(dp590
g81
I3
ssg82
g584
sg75
(lp591
S''
asbasbasbag68
(g84
g70
NtRp592
(dp593
g73
(dp594
sg82
g488
sg75
(lp595
g68
(g89
g70
NtRp596
(dp597
g73
(dp598
g93
g94
ssg82
g592
sg75
(lp599
g412
asbag68
(g89
g70
NtRp600
(dp601
g73
(dp602
g100
g101
ssg82
g592
sg75
(lp603
S':'
asbag68
(g89
g70
NtRp604
(dp605
g73
(dp606
sg82
g592
sg75
(lp607
g68
(g69
g70
NtRp608
(dp609
g73
(dp610
g81
I3
ssg82
g604
sg75
(lp611
S''
asbasbasbag68
(g84
g70
NtRp612
(dp613
g73
(dp614
sg82
g488
sg75
(lp615
g68
(g89
g70
NtRp616
(dp617
g73
(dp618
g93
g94
ssg82
g612
sg75
(lp619
g433
asbag68
(g89
g70
NtRp620
(dp621
g73
(dp622
g100
g101
ssg82
g612
sg75
(lp623
S':'
asbag68
(g89
g70
NtRp624
(dp625
g73
(dp626
sg82
g612
sg75
(lp627
g68
(g69
g70
NtRp628
(dp629
g73
(dp630
g81
I3
ssg82
g624
sg75
(lp631
S''
asbasbasbag68
(g84
g70
NtRp632
(dp633
g73
(dp634
sg82
g488
sg75
(lp635
g68
(g89
g70
NtRp636
(dp637
g73
(dp638
g93
g94
ssg82
g632
sg75
(lp639
g454
asbag68
(g89
g70
NtRp640
(dp641
g73
(dp642
g100
g101
ssg82
g632
sg75
(lp643
S':'
asbag68
(g89
g70
NtRp644
(dp645
g73
(dp646
sg82
g632
sg75
(lp647
g68
(g69
g70
NtRp648
(dp649
g73
(dp650
g81
I3
ssg82
g644
sg75
(lp651
S''
asbasbasbasbasbasbasbag68
(g84
g70
NtRp652
(dp653
g73
(dp654
sg82
g270
sg75
(lp655
g68
(g89
g70
NtRp656
(dp657
g73
(dp658
g93
g94
ssg82
g652
sg75
(lp659
S'session_id_welcome'
p660
asbag68
(g89
g70
NtRp661
(dp662
g73
(dp663
g100
g101
ssg82
g652
sg75
(lp664
S':'
asbag68
(g89
g70
NtRp665
(dp666
g73
(dp667
sg82
g652
sg75
(lp668
g68
(g69
g70
NtRp669
(dp670
g73
(dp671
g81
I4
ssg82
g665
sg75
(lp672
g68
(g77
g70
NtRp673
(dp674
g73
(dp675
g81
I3
ssg82
Nsg75
(lp676
g68
(g84
g70
NtRp677
(dp678
g73
(dp679
sg82
g673
sg75
(lp680
g68
(g89
g70
NtRp681
(dp682
g73
(dp683
g93
g94
ssg82
g677
sg75
(lp684
g307
asbag68
(g89
g70
NtRp685
(dp686
g73
(dp687
g100
g101
ssg82
g677
sg75
(lp688
S':'
asbag68
(g89
g70
NtRp689
(dp690
g73
(dp691
sg82
g677
sg75
(lp692
g68
(g69
g70
NtRp693
(dp694
g73
(dp695
g81
I3
ssg82
g689
sg75
(lp696
S''
asbasbasbag68
(g84
g70
NtRp697
(dp698
g73
(dp699
sg82
g673
sg75
(lp700
g68
(g89
g70
NtRp701
(dp702
g73
(dp703
g93
g94
ssg82
g697
sg75
(lp704
g328
asbag68
(g89
g70
NtRp705
(dp706
g73
(dp707
g100
g101
ssg82
g697
sg75
(lp708
S':'
asbag68
(g89
g70
NtRp709
(dp710
g73
(dp711
sg82
g697
sg75
(lp712
g68
(g69
g70
NtRp713
(dp714
g73
(dp715
g81
I3
ssg82
g709
sg75
(lp716
S''
asbasbasbag68
(g84
g70
NtRp717
(dp718
g73
(dp719
sg82
g673
sg75
(lp720
g68
(g89
g70
NtRp721
(dp722
g73
(dp723
g93
g94
ssg82
g717
sg75
(lp724
g349
asbag68
(g89
g70
NtRp725
(dp726
g73
(dp727
g100
g101
ssg82
g717
sg75
(lp728
S':'
asbag68
(g89
g70
NtRp729
(dp730
g73
(dp731
sg82
g717
sg75
(lp732
g68
(g69
g70
NtRp733
(dp734
g73
(dp735
g81
I3
ssg82
g729
sg75
(lp736
S''
asbasbasbag68
(g84
g70
NtRp737
(dp738
g73
(dp739
sg82
g673
sg75
(lp740
g68
(g89
g70
NtRp741
(dp742
g73
(dp743
g93
g94
ssg82
g737
sg75
(lp744
g370
asbag68
(g89
g70
NtRp745
(dp746
g73
(dp747
g100
g101
ssg82
g737
sg75
(lp748
S':'
asbag68
(g89
g70
NtRp749
(dp750
g73
(dp751
sg82
g737
sg75
(lp752
g68
(g69
g70
NtRp753
(dp754
g73
(dp755
g81
I3
ssg82
g749
sg75
(lp756
S''
asbasbasbag68
(g84
g70
NtRp757
(dp758
g73
(dp759
sg82
g673
sg75
(lp760
g68
(g89
g70
NtRp761
(dp762
g73
(dp763
g93
g94
ssg82
g757
sg75
(lp764
g391
asbag68
(g89
g70
NtRp765
(dp766
g73
(dp767
g100
g101
ssg82
g757
sg75
(lp768
S':'
asbag68
(g89
g70
NtRp769
(dp770
g73
(dp771
sg82
g757
sg75
(lp772
g68
(g69
g70
NtRp773
(dp774
g73
(dp775
g81
I3
ssg82
g769
sg75
(lp776
S''
asbasbasbag68
(g84
g70
NtRp777
(dp778
g73
(dp779
sg82
g673
sg75
(lp780
g68
(g89
g70
NtRp781
(dp782
g73
(dp783
g93
g94
ssg82
g777
sg75
(lp784
g412
asbag68
(g89
g70
NtRp785
(dp786
g73
(dp787
g100
g101
ssg82
g777
sg75
(lp788
S':'
asbag68
(g89
g70
NtRp789
(dp790
g73
(dp791
sg82
g777
sg75
(lp792
g68
(g69
g70
NtRp793
(dp794
g73
(dp795
g81
I3
ssg82
g789
sg75
(lp796
S''
asbasbasbag68
(g84
g70
NtRp797
(dp798
g73
(dp799
sg82
g673
sg75
(lp800
g68
(g89
g70
NtRp801
(dp802
g73
(dp803
g93
g94
ssg82
g797
sg75
(lp804
g433
asbag68
(g89
g70
NtRp805
(dp806
g73
(dp807
g100
g101
ssg82
g797
sg75
(lp808
S':'
asbag68
(g89
g70
NtRp809
(dp810
g73
(dp811
sg82
g797
sg75
(lp812
g68
(g69
g70
NtRp813
(dp814
g73
(dp815
g81
I3
ssg82
g809
sg75
(lp816
S''
asbasbasbag68
(g84
g70
NtRp817
(dp818
g73
(dp819
sg82
g673
sg75
(lp820
g68
(g89
g70
NtRp821
(dp822
g73
(dp823
g93
g94
ssg82
g817
sg75
(lp824
g454
asbag68
(g89
g70
NtRp825
(dp826
g73
(dp827
g100
g101
ssg82
g817
sg75
(lp828
S':'
asbag68
(g89
g70
NtRp829
(dp830
g73
(dp831
sg82
g817
sg75
(lp832
g68
(g69
g70
NtRp833
(dp834
g73
(dp835
g81
I3
ssg82
g829
sg75
(lp836
S''
asbasbasbasbasbasbasbasbasbasbasbag68
(g84
g70
NtRp837
(dp838
g73
(dp839
sg82
g78
sg75
(lp840
g68
(g89
g70
NtRp841
(dp842
g73
(dp843
g93
g94
ssg82
g837
sg75
(lp844
S'env'
p845
asbag68
(g89
g70
NtRp846
(dp847
g73
(dp848
g100
g101
ssg82
g837
sg75
(lp849
S':'
asbag68
(g89
g70
NtRp850
(dp851
g73
(dp852
sg82
g837
sg75
(lp853
g68
(g69
g70
NtRp854
(dp855
g73
(dp856
g81
I5
ssg82
g850
sg75
(lp857
g68
(g77
g70
NtRp858
(dp859
g73
(dp860
g81
I4
ssg82
Nsg75
(lp861
g68
(g84
g70
NtRp862
(dp863
g73
(dp864
sg82
g858
sg75
(lp865
g68
(g89
g70
NtRp866
(dp867
g73
(dp868
g93
g94
ssg82
g862
sg75
(lp869
S'app_folders'
p870
asbag68
(g89
g70
NtRp871
(dp872
g73
(dp873
g100
g101
ssg82
g862
sg75
(lp874
S':'
asbag68
(g89
g70
NtRp875
(dp876
g73
(dp877
sg82
g862
sg75
(lp878
g68
(g69
g70
NtRp879
(dp880
g73
(dp881
g81
I4
ssg82
g875
sg75
(lp882
S"set(['/home/kaique/Projects/web2py/applications/synopsis/', '/home/kaique/Projects/web2py/applications/admin/'])"
p883
asbasbasbag68
(g84
g70
NtRp884
(dp885
g73
(dp886
sg82
g858
sg75
(lp887
g68
(g89
g70
NtRp888
(dp889
g73
(dp890
g93
g94
ssg82
g884
sg75
(lp891
S'applications_parent'
p892
asbag68
(g89
g70
NtRp893
(dp894
g73
(dp895
g100
g101
ssg82
g884
sg75
(lp896
S':'
asbag68
(g89
g70
NtRp897
(dp898
g73
(dp899
sg82
g884
sg75
(lp900
g68
(g69
g70
NtRp901
(dp902
g73
(dp903
g81
I4
ssg82
g897
sg75
(lp904
S'/home/kaique/Projects/web2py'
p905
asbasbasbag68
(g84
g70
NtRp906
(dp907
g73
(dp908
sg82
g858
sg75
(lp909
g68
(g89
g70
NtRp910
(dp911
g73
(dp912
g93
g94
ssg82
g906
sg75
(lp913
S'cmd_args'
p914
asbag68
(g89
g70
NtRp915
(dp916
g73
(dp917
g100
g101
ssg82
g906
sg75
(lp918
S':'
asbag68
(g89
g70
NtRp919
(dp920
g73
(dp921
sg82
g906
sg75
(lp922
g68
(g69
g70
NtRp923
(dp924
g73
(dp925
g81
I4
ssg82
g919
sg75
(lp926
g68
(g77
g70
NtRp927
(dp928
g73
(dp929
g81
I3
ssg82
Nsg75
(lp930
sbasbasbasbag68
(g84
g70
NtRp931
(dp932
g73
(dp933
sg82
g858
sg75
(lp934
g68
(g89
g70
NtRp935
(dp936
g73
(dp937
g93
g94
ssg82
g931
sg75
(lp938
S'cmd_options'
p939
asbag68
(g89
g70
NtRp940
(dp941
g73
(dp942
g100
g101
ssg82
g931
sg75
(lp943
S':'
asbag68
(g89
g70
NtRp944
(dp945
g73
(dp946
sg82
g931
sg75
(lp947
g68
(g69
g70
NtRp948
(dp949
g73
(dp950
g81
I4
ssg82
g944
sg75
(lp951
S"<Values at 0x2d3b950: {'verbose': False, 'ip': '127.0.0.1', 'shutdown_timeout': 5, 'taskbar': False, 'nocron': False, 'pid_filename': 'httpserver.pid', 'maxthreads': None, 'softcron': False, 'server_name': 'kaique-Pine-Trail-M', 'bpython': False, 'nogui': False, 'port': 8000, 'extcron': False, 'debuglevel': 30, 'test': None, 'folder': '/home/kaique/Projects/web2py', 'config': '', 'import_models': False, 'winservice': '', 'shell': None, 'run': '', 'log_filename': 'httpserver.log', 'args': [''], 'ssl_ca_certificate': None, 'scheduler': None, 'profiler_filename': None, 'ssl_private_key': '', 'password': 'dev', 'request_queue_size': 5, 'ssl_certificate': '', 'cronjob': False, 'plain': False, 'quiet': False, 'interfaces': None, 'minthreads': None, 'timeout': 10, 'numthreads': None, 'nobanner': False}>"
p952
asbasbasbag68
(g84
g70
NtRp953
(dp954
g73
(dp955
sg82
g858
sg75
(lp956
g68
(g89
g70
NtRp957
(dp958
g73
(dp959
g93
g94
ssg82
g953
sg75
(lp960
S'content_length'
p961
asbag68
(g89
g70
NtRp962
(dp963
g73
(dp964
g100
g101
ssg82
g953
sg75
(lp965
S':'
asbag68
(g89
g70
NtRp966
(dp967
g73
(dp968
sg82
g953
sg75
(lp969
g68
(g69
g70
NtRp970
(dp971
g73
(dp972
g81
I4
ssg82
g966
sg75
(lp973
S'569'
p974
asbasbasbag68
(g84
g70
NtRp975
(dp976
g73
(dp977
sg82
g858
sg75
(lp978
g68
(g89
g70
NtRp979
(dp980
g73
(dp981
g93
g94
ssg82
g975
sg75
(lp982
S'content_type'
p983
asbag68
(g89
g70
NtRp984
(dp985
g73
(dp986
g100
g101
ssg82
g975
sg75
(lp987
S':'
asbag68
(g89
g70
NtRp988
(dp989
g73
(dp990
sg82
g975
sg75
(lp991
g68
(g69
g70
NtRp992
(dp993
g73
(dp994
g81
I4
ssg82
g988
sg75
(lp995
S'multipart/form-data; boundary=---------------------------2722893723054310891733617252'
p996
asbasbasbag68
(g84
g70
NtRp997
(dp998
g73
(dp999
sg82
g858
sg75
(lp1000
g68
(g89
g70
NtRp1001
(dp1002
g73
(dp1003
g93
g94
ssg82
g997
sg75
(lp1004
S'db_sessions'
p1005
asbag68
(g89
g70
NtRp1006
(dp1007
g73
(dp1008
g100
g101
ssg82
g997
sg75
(lp1009
S':'
asbag68
(g89
g70
NtRp1010
(dp1011
g73
(dp1012
sg82
g997
sg75
(lp1013
g68
(g69
g70
NtRp1014
(dp1015
g73
(dp1016
g81
I4
ssg82
g1010
sg75
(lp1017
S'set([])'
p1018
asbasbasbag68
(g84
g70
NtRp1019
(dp1020
g73
(dp1021
sg82
g858
sg75
(lp1022
g68
(g89
g70
NtRp1023
(dp1024
g73
(dp1025
g93
g94
ssg82
g1019
sg75
(lp1026
S'debugging'
p1027
asbag68
(g89
g70
NtRp1028
(dp1029
g73
(dp1030
g100
g101
ssg82
g1019
sg75
(lp1031
S':'
asbag68
(g89
g70
NtRp1032
(dp1033
g73
(dp1034
sg82
g1019
sg75
(lp1035
g68
(g69
g70
NtRp1036
(dp1037
g73
(dp1038
g81
I4
ssg82
g1032
sg75
(lp1039
g111
asbasbasbag68
(g84
g70
NtRp1040
(dp1041
g73
(dp1042
sg82
g858
sg75
(lp1043
g68
(g89
g70
NtRp1044
(dp1045
g73
(dp1046
g93
g94
ssg82
g1040
sg75
(lp1047
S'gluon_parent'
p1048
asbag68
(g89
g70
NtRp1049
(dp1050
g73
(dp1051
g100
g101
ssg82
g1040
sg75
(lp1052
S':'
asbag68
(g89
g70
NtRp1053
(dp1054
g73
(dp1055
sg82
g1040
sg75
(lp1056
g68
(g69
g70
NtRp1057
(dp1058
g73
(dp1059
g81
I4
ssg82
g1053
sg75
(lp1060
S'/home/kaique/Projects/web2py'
p1061
asbasbasbag68
(g84
g70
NtRp1062
(dp1063
g73
(dp1064
sg82
g858
sg75
(lp1065
g68
(g89
g70
NtRp1066
(dp1067
g73
(dp1068
g93
g94
ssg82
g1062
sg75
(lp1069
S'http_accept'
p1070
asbag68
(g89
g70
NtRp1071
(dp1072
g73
(dp1073
g100
g101
ssg82
g1062
sg75
(lp1074
S':'
asbag68
(g89
g70
NtRp1075
(dp1076
g73
(dp1077
sg82
g1062
sg75
(lp1078
g68
(g69
g70
NtRp1079
(dp1080
g73
(dp1081
g81
I4
ssg82
g1075
sg75
(lp1082
S'text/html,application/xhtml+xml,application/xml;q=0.9,*/*;q=0.8'
p1083
asbasbasbag68
(g84
g70
NtRp1084
(dp1085
g73
(dp1086
sg82
g858
sg75
(lp1087
g68
(g89
g70
NtRp1088
(dp1089
g73
(dp1090
g93
g94
ssg82
g1084
sg75
(lp1091
S'http_accept_charset'
p1092
asbag68
(g89
g70
NtRp1093
(dp1094
g73
(dp1095
g100
g101
ssg82
g1084
sg75
(lp1096
S':'
asbag68
(g89
g70
NtRp1097
(dp1098
g73
(dp1099
sg82
g1084
sg75
(lp1100
g68
(g69
g70
NtRp1101
(dp1102
g73
(dp1103
g81
I4
ssg82
g1097
sg75
(lp1104
S'ISO-8859-1,utf-8;q=0.7,*;q=0.7'
p1105
asbasbasbag68
(g84
g70
NtRp1106
(dp1107
g73
(dp1108
sg82
g858
sg75
(lp1109
g68
(g89
g70
NtRp1110
(dp1111
g73
(dp1112
g93
g94
ssg82
g1106
sg75
(lp1113
S'http_accept_encoding'
p1114
asbag68
(g89
g70
NtRp1115
(dp1116
g73
(dp1117
g100
g101
ssg82
g1106
sg75
(lp1118
S':'
asbag68
(g89
g70
NtRp1119
(dp1120
g73
(dp1121
sg82
g1106
sg75
(lp1122
g68
(g69
g70
NtRp1123
(dp1124
g73
(dp1125
g81
I4
ssg82
g1119
sg75
(lp1126
S'gzip, deflate'
p1127
asbasbasbag68
(g84
g70
NtRp1128
(dp1129
g73
(dp1130
sg82
g858
sg75
(lp1131
g68
(g89
g70
NtRp1132
(dp1133
g73
(dp1134
g93
g94
ssg82
g1128
sg75
(lp1135
S'http_accept_language'
p1136
asbag68
(g89
g70
NtRp1137
(dp1138
g73
(dp1139
g100
g101
ssg82
g1128
sg75
(lp1140
S':'
asbag68
(g89
g70
NtRp1141
(dp1142
g73
(dp1143
sg82
g1128
sg75
(lp1144
g68
(g69
g70
NtRp1145
(dp1146
g73
(dp1147
g81
I4
ssg82
g1141
sg75
(lp1148
S'pt-br,pt;q=0.8,en-us;q=0.5,en;q=0.3'
p1149
asbasbasbag68
(g84
g70
NtRp1150
(dp1151
g73
(dp1152
sg82
g858
sg75
(lp1153
g68
(g89
g70
NtRp1154
(dp1155
g73
(dp1156
g93
g94
ssg82
g1150
sg75
(lp1157
S'http_connection'
p1158
asbag68
(g89
g70
NtRp1159
(dp1160
g73
(dp1161
g100
g101
ssg82
g1150
sg75
(lp1162
S':'
asbag68
(g89
g70
NtRp1163
(dp1164
g73
(dp1165
sg82
g1150
sg75
(lp1166
g68
(g69
g70
NtRp1167
(dp1168
g73
(dp1169
g81
I4
ssg82
g1163
sg75
(lp1170
S'keep-alive'
p1171
asbasbasbag68
(g84
g70
NtRp1172
(dp1173
g73
(dp1174
sg82
g858
sg75
(lp1175
g68
(g89
g70
NtRp1176
(dp1177
g73
(dp1178
g93
g94
ssg82
g1172
sg75
(lp1179
S'http_content_length'
p1180
asbag68
(g89
g70
NtRp1181
(dp1182
g73
(dp1183
g100
g101
ssg82
g1172
sg75
(lp1184
S':'
asbag68
(g89
g70
NtRp1185
(dp1186
g73
(dp1187
sg82
g1172
sg75
(lp1188
g68
(g69
g70
NtRp1189
(dp1190
g73
(dp1191
g81
I4
ssg82
g1185
sg75
(lp1192
g974
asbasbasbag68
(g84
g70
NtRp1193
(dp1194
g73
(dp1195
sg82
g858
sg75
(lp1196
g68
(g89
g70
NtRp1197
(dp1198
g73
(dp1199
g93
g94
ssg82
g1193
sg75
(lp1200
S'http_content_type'
p1201
asbag68
(g89
g70
NtRp1202
(dp1203
g73
(dp1204
g100
g101
ssg82
g1193
sg75
(lp1205
S':'
asbag68
(g89
g70
NtRp1206
(dp1207
g73
(dp1208
sg82
g1193
sg75
(lp1209
g68
(g69
g70
NtRp1210
(dp1211
g73
(dp1212
g81
I4
ssg82
g1206
sg75
(lp1213
g996
asbasbasbag68
(g84
g70
NtRp1214
(dp1215
g73
(dp1216
sg82
g858
sg75
(lp1217
g68
(g89
g70
NtRp1218
(dp1219
g73
(dp1220
g93
g94
ssg82
g1214
sg75
(lp1221
S'http_cookie'
p1222
asbag68
(g89
g70
NtRp1223
(dp1224
g73
(dp1225
g100
g101
ssg82
g1214
sg75
(lp1226
S':'
asbag68
(g89
g70
NtRp1227
(dp1228
g73
(dp1229
sg82
g1214
sg75
(lp1230
g68
(g69
g70
NtRp1231
(dp1232
g73
(dp1233
g81
I4
ssg82
g1227
sg75
(lp1234
S'session_id_welcome=127.0.0.1-5cd27a60-9290-4dfd-905a-2cae79e1b71d; session_id_admin=127.0.0.1-4fcac13e-289c-4471-92ed-6d5dcbf185e6; session_id_synopsis=127.0.0.1-351efa91-66d9-4ca2-9c53-1a2177b18dc7'
p1235
asbasbasbag68
(g84
g70
NtRp1236
(dp1237
g73
(dp1238
sg82
g858
sg75
(lp1239
g68
(g89
g70
NtRp1240
(dp1241
g73
(dp1242
g93
g94
ssg82
g1236
sg75
(lp1243
S'http_host'
p1244
asbag68
(g89
g70
NtRp1245
(dp1246
g73
(dp1247
g100
g101
ssg82
g1236
sg75
(lp1248
S':'
asbag68
(g89
g70
NtRp1249
(dp1250
g73
(dp1251
sg82
g1236
sg75
(lp1252
g68
(g69
g70
NtRp1253
(dp1254
g73
(dp1255
g81
I4
ssg82
g1249
sg75
(lp1256
S'localhost:8000'
p1257
asbasbasbag68
(g84
g70
NtRp1258
(dp1259
g73
(dp1260
sg82
g858
sg75
(lp1261
g68
(g89
g70
NtRp1262
(dp1263
g73
(dp1264
g93
g94
ssg82
g1258
sg75
(lp1265
S'http_referer'
p1266
asbag68
(g89
g70
NtRp1267
(dp1268
g73
(dp1269
g100
g101
ssg82
g1258
sg75
(lp1270
S':'
asbag68
(g89
g70
NtRp1271
(dp1272
g73
(dp1273
sg82
g1258
sg75
(lp1274
g68
(g69
g70
NtRp1275
(dp1276
g73
(dp1277
g81
I4
ssg82
g1271
sg75
(lp1278
S'http://localhost:8000/synopsis/information/new/publication/2'
p1279
asbasbasbag68
(g84
g70
NtRp1280
(dp1281
g73
(dp1282
sg82
g858
sg75
(lp1283
g68
(g89
g70
NtRp1284
(dp1285
g73
(dp1286
g93
g94
ssg82
g1280
sg75
(lp1287
S'http_user_agent'
p1288
asbag68
(g89
g70
NtRp1289
(dp1290
g73
(dp1291
g100
g101
ssg82
g1280
sg75
(lp1292
S':'
asbag68
(g89
g70
NtRp1293
(dp1294
g73
(dp1295
sg82
g1280
sg75
(lp1296
g68
(g69
g70
NtRp1297
(dp1298
g73
(dp1299
g81
I4
ssg82
g1293
sg75
(lp1300
S'Mozilla/5.0 (Ubuntu; X11; Linux x86_64; rv:9.0.1) Gecko/20100101 Firefox/9.0.1'
p1301
asbasbasbag68
(g84
g70
NtRp1302
(dp1303
g73
(dp1304
sg82
g858
sg75
(lp1305
g68
(g89
g70
NtRp1306
(dp1307
g73
(dp1308
g93
g94
ssg82
g1302
sg75
(lp1309
S'is_jython'
p1310
asbag68
(g89
g70
NtRp1311
(dp1312
g73
(dp1313
g100
g101
ssg82
g1302
sg75
(lp1314
S':'
asbag68
(g89
g70
NtRp1315
(dp1316
g73
(dp1317
sg82
g1302
sg75
(lp1318
g68
(g69
g70
NtRp1319
(dp1320
g73
(dp1321
g81
I4
ssg82
g1315
sg75
(lp1322
g111
asbasbasbag68
(g84
g70
NtRp1323
(dp1324
g73
(dp1325
sg82
g858
sg75
(lp1326
g68
(g89
g70
NtRp1327
(dp1328
g73
(dp1329
g93
g94
ssg82
g1323
sg75
(lp1330
S'path_info'
p1331
asbag68
(g89
g70
NtRp1332
(dp1333
g73
(dp1334
g100
g101
ssg82
g1323
sg75
(lp1335
S':'
asbag68
(g89
g70
NtRp1336
(dp1337
g73
(dp1338
sg82
g1323
sg75
(lp1339
g68
(g69
g70
NtRp1340
(dp1341
g73
(dp1342
g81
I4
ssg82
g1336
sg75
(lp1343
S'/synopsis/information/new/publication/2'
p1344
asbasbasbag68
(g84
g70
NtRp1345
(dp1346
g73
(dp1347
sg82
g858
sg75
(lp1348
g68
(g89
g70
NtRp1349
(dp1350
g73
(dp1351
g93
g94
ssg82
g1345
sg75
(lp1352
S'query_string'
p1353
asbag68
(g89
g70
NtRp1354
(dp1355
g73
(dp1356
g100
g101
ssg82
g1345
sg75
(lp1357
S':'
asbag68
(g89
g70
NtRp1358
(dp1359
g73
(dp1360
sg82
g1345
sg75
(lp1361
g68
(g69
g70
NtRp1362
(dp1363
g73
(dp1364
g81
I4
ssg82
g1358
sg75
(lp1365
S''
asbasbasbag68
(g84
g70
NtRp1366
(dp1367
g73
(dp1368
sg82
g858
sg75
(lp1369
g68
(g89
g70
NtRp1370
(dp1371
g73
(dp1372
g93
g94
ssg82
g1366
sg75
(lp1373
S'remote_addr'
p1374
asbag68
(g89
g70
NtRp1375
(dp1376
g73
(dp1377
g100
g101
ssg82
g1366
sg75
(lp1378
S':'
asbag68
(g89
g70
NtRp1379
(dp1380
g73
(dp1381
sg82
g1366
sg75
(lp1382
g68
(g69
g70
NtRp1383
(dp1384
g73
(dp1385
g81
I4
ssg82
g1379
sg75
(lp1386
g226
asbasbasbag68
(g84
g70
NtRp1387
(dp1388
g73
(dp1389
sg82
g858
sg75
(lp1390
g68
(g89
g70
NtRp1391
(dp1392
g73
(dp1393
g93
g94
ssg82
g1387
sg75
(lp1394
S'remote_port'
p1395
asbag68
(g89
g70
NtRp1396
(dp1397
g73
(dp1398
g100
g101
ssg82
g1387
sg75
(lp1399
S':'
asbag68
(g89
g70
NtRp1400
(dp1401
g73
(dp1402
sg82
g1387
sg75
(lp1403
g68
(g69
g70
NtRp1404
(dp1405
g73
(dp1406
g81
I4
ssg82
g1400
sg75
(lp1407
S'53302'
p1408
asbasbasbag68
(g84
g70
NtRp1409
(dp1410
g73
(dp1411
sg82
g858
sg75
(lp1412
g68
(g89
g70
NtRp1413
(dp1414
g73
(dp1415
g93
g94
ssg82
g1409
sg75
(lp1416
S'request_method'
p1417
asbag68
(g89
g70
NtRp1418
(dp1419
g73
(dp1420
g100
g101
ssg82
g1409
sg75
(lp1421
S':'
asbag68
(g89
g70
NtRp1422
(dp1423
g73
(dp1424
sg82
g1409
sg75
(lp1425
g68
(g69
g70
NtRp1426
(dp1427
g73
(dp1428
g81
I4
ssg82
g1422
sg75
(lp1429
S'POST'
p1430
asbasbasbag68
(g84
g70
NtRp1431
(dp1432
g73
(dp1433
sg82
g858
sg75
(lp1434
g68
(g89
g70
NtRp1435
(dp1436
g73
(dp1437
g93
g94
ssg82
g1431
sg75
(lp1438
S'script_name'
p1439
asbag68
(g89
g70
NtRp1440
(dp1441
g73
(dp1442
g100
g101
ssg82
g1431
sg75
(lp1443
S':'
asbag68
(g89
g70
NtRp1444
(dp1445
g73
(dp1446
sg82
g1431
sg75
(lp1447
g68
(g69
g70
NtRp1448
(dp1449
g73
(dp1450
g81
I4
ssg82
g1444
sg75
(lp1451
S''
asbasbasbag68
(g84
g70
NtRp1452
(dp1453
g73
(dp1454
sg82
g858
sg75
(lp1455
g68
(g89
g70
NtRp1456
(dp1457
g73
(dp1458
g93
g94
ssg82
g1452
sg75
(lp1459
S'server_name'
p1460
asbag68
(g89
g70
NtRp1461
(dp1462
g73
(dp1463
g100
g101
ssg82
g1452
sg75
(lp1464
S':'
asbag68
(g89
g70
NtRp1465
(dp1466
g73
(dp1467
sg82
g1452
sg75
(lp1468
g68
(g69
g70
NtRp1469
(dp1470
g73
(dp1471
g81
I4
ssg82
g1465
sg75
(lp1472
S'kaique-Pine-Trail-M'
p1473
asbasbasbag68
(g84
g70
NtRp1474
(dp1475
g73
(dp1476
sg82
g858
sg75
(lp1477
g68
(g89
g70
NtRp1478
(dp1479
g73
(dp1480
g93
g94
ssg82
g1474
sg75
(lp1481
S'server_port'
p1482
asbag68
(g89
g70
NtRp1483
(dp1484
g73
(dp1485
g100
g101
ssg82
g1474
sg75
(lp1486
S':'
asbag68
(g89
g70
NtRp1487
(dp1488
g73
(dp1489
sg82
g1474
sg75
(lp1490
g68
(g69
g70
NtRp1491
(dp1492
g73
(dp1493
g81
I4
ssg82
g1487
sg75
(lp1494
S'8000'
p1495
asbasbasbag68
(g84
g70
NtRp1496
(dp1497
g73
(dp1498
sg82
g858
sg75
(lp1499
g68
(g89
g70
NtRp1500
(dp1501
g73
(dp1502
g93
g94
ssg82
g1496
sg75
(lp1503
S'server_protocol'
p1504
asbag68
(g89
g70
NtRp1505
(dp1506
g73
(dp1507
g100
g101
ssg82
g1496
sg75
(lp1508
S':'
asbag68
(g89
g70
NtRp1509
(dp1510
g73
(dp1511
sg82
g1496
sg75
(lp1512
g68
(g69
g70
NtRp1513
(dp1514
g73
(dp1515
g81
I4
ssg82
g1509
sg75
(lp1516
S'HTTP/1.1'
p1517
asbasbasbag68
(g84
g70
NtRp1518
(dp1519
g73
(dp1520
sg82
g858
sg75
(lp1521
g68
(g89
g70
NtRp1522
(dp1523
g73
(dp1524
g93
g94
ssg82
g1518
sg75
(lp1525
S'server_software'
p1526
asbag68
(g89
g70
NtRp1527
(dp1528
g73
(dp1529
g100
g101
ssg82
g1518
sg75
(lp1530
S':'
asbag68
(g89
g70
NtRp1531
(dp1532
g73
(dp1533
sg82
g1518
sg75
(lp1534
g68
(g69
g70
NtRp1535
(dp1536
g73
(dp1537
g81
I4
ssg82
g1531
sg75
(lp1538
S'Rocket 1.2.4'
p1539
asbasbasbag68
(g84
g70
NtRp1540
(dp1541
g73
(dp1542
sg82
g858
sg75
(lp1543
g68
(g89
g70
NtRp1544
(dp1545
g73
(dp1546
g93
g94
ssg82
g1540
sg75
(lp1547
S'web2py_crontype'
p1548
asbag68
(g89
g70
NtRp1549
(dp1550
g73
(dp1551
g100
g101
ssg82
g1540
sg75
(lp1552
S':'
asbag68
(g89
g70
NtRp1553
(dp1554
g73
(dp1555
sg82
g1540
sg75
(lp1556
g68
(g69
g70
NtRp1557
(dp1558
g73
(dp1559
g81
I4
ssg82
g1553
sg75
(lp1560
S'hard'
p1561
asbasbasbag68
(g84
g70
NtRp1562
(dp1563
g73
(dp1564
sg82
g858
sg75
(lp1565
g68
(g89
g70
NtRp1566
(dp1567
g73
(dp1568
g93
g94
ssg82
g1562
sg75
(lp1569
S'web2py_path'
p1570
asbag68
(g89
g70
NtRp1571
(dp1572
g73
(dp1573
g100
g101
ssg82
g1562
sg75
(lp1574
S':'
asbag68
(g89
g70
NtRp1575
(dp1576
g73
(dp1577
sg82
g1562
sg75
(lp1578
g68
(g69
g70
NtRp1579
(dp1580
g73
(dp1581
g81
I4
ssg82
g1575
sg75
(lp1582
g905
asbasbasbag68
(g84
g70
NtRp1583
(dp1584
g73
(dp1585
sg82
g858
sg75
(lp1586
g68
(g89
g70
NtRp1587
(dp1588
g73
(dp1589
g93
g94
ssg82
g1583
sg75
(lp1590
S'web2py_version'
p1591
asbag68
(g89
g70
NtRp1592
(dp1593
g73
(dp1594
g100
g101
ssg82
g1583
sg75
(lp1595
S':'
asbag68
(g89
g70
NtRp1596
(dp1597
g73
(dp1598
sg82
g1583
sg75
(lp1599
g68
(g69
g70
NtRp1600
(dp1601
g73
(dp1602
g81
I4
ssg82
g1596
sg75
(lp1603
g68
(g77
g70
NtRp1604
(dp1605
g73
(dp1606
g81
I3
ssg82
Nsg75
(lp1607
g68
(g84
g70
NtRp1608
(dp1609
g73
(dp1610
sg82
g1604
sg75
(lp1611
g68
(g89
g70
NtRp1612
(dp1613
g73
(dp1614
sg82
g1608
sg75
(lp1615
g68
(g69
g70
NtRp1616
(dp1617
g73
(dp1618
g81
I3
ssg82
g1612
sg75
(lp1619
S'1'
asbasbasbag68
(g84
g70
NtRp1620
(dp1621
g73
(dp1622
sg82
g1604
sg75
(lp1623
g68
(g89
g70
NtRp1624
(dp1625
g73
(dp1626
sg82
g1620
sg75
(lp1627
g68
(g69
g70
NtRp1628
(dp1629
g73
(dp1630
g81
I3
ssg82
g1624
sg75
(lp1631
S'99'
p1632
asbasbasbag68
(g84
g70
NtRp1633
(dp1634
g73
(dp1635
sg82
g1604
sg75
(lp1636
g68
(g89
g70
NtRp1637
(dp1638
g73
(dp1639
sg82
g1633
sg75
(lp1640
g68
(g69
g70
NtRp1641
(dp1642
g73
(dp1643
g81
I3
ssg82
g1637
sg75
(lp1644
S'2'
asbasbasbag68
(g84
g70
NtRp1645
(dp1646
g73
(dp1647
sg82
g1604
sg75
(lp1648
g68
(g89
g70
NtRp1649
(dp1650
g73
(dp1651
sg82
g1645
sg75
(lp1652
g68
(g69
g70
NtRp1653
(dp1654
g73
(dp1655
g81
I3
ssg82
g1649
sg75
(lp1656
S'datetime.datetime(2011, 9, 26, 6, 55, 33)'
p1657
asbasbasbag68
(g84
g70
NtRp1658
(dp1659
g73
(dp1660
sg82
g1604
sg75
(lp1661
g68
(g89
g70
NtRp1662
(dp1663
g73
(dp1664
sg82
g1658
sg75
(lp1665
g68
(g69
g70
NtRp1666
(dp1667
g73
(dp1668
g81
I3
ssg82
g1662
sg75
(lp1669
S'stable'
p1670
asbasbasbasbasbasbasbag68
(g84
g70
NtRp1671
(dp1672
g73
(dp1673
sg82
g858
sg75
(lp1674
g68
(g89
g70
NtRp1675
(dp1676
g73
(dp1677
g93
g94
ssg82
g1671
sg75
(lp1678
S'wsgi_errors'
p1679
asbag68
(g89
g70
NtRp1680
(dp1681
g73
(dp1682
g100
g101
ssg82
g1671
sg75
(lp1683
S':'
asbag68
(g89
g70
NtRp1684
(dp1685
g73
(dp1686
sg82
g1671
sg75
(lp1687
g68
(g69
g70
NtRp1688
(dp1689
g73
(dp1690
g81
I4
ssg82
g1684
sg75
(lp1691
S"<open file '<stderr>', mode 'w' at 0x7f2b12e1a270>"
p1692
asbasbasbag68
(g84
g70
NtRp1693
(dp1694
g73
(dp1695
sg82
g858
sg75
(lp1696
g68
(g89
g70
NtRp1697
(dp1698
g73
(dp1699
g93
g94
ssg82
g1693
sg75
(lp1700
S'wsgi_file_wrapper'
p1701
asbag68
(g89
g70
NtRp1702
(dp1703
g73
(dp1704
g100
g101
ssg82
g1693
sg75
(lp1705
S':'
asbag68
(g89
g70
NtRp1706
(dp1707
g73
(dp1708
sg82
g1693
sg75
(lp1709
g68
(g69
g70
NtRp1710
(dp1711
g73
(dp1712
g81
I4
ssg82
g1706
sg75
(lp1713
S'<class wsgiref.util.FileWrapper at 0x2bf2ef0>'
p1714
asbasbasbag68
(g84
g70
NtRp1715
(dp1716
g73
(dp1717
sg82
g858
sg75
(lp1718
g68
(g89
g70
NtRp1719
(dp1720
g73
(dp1721
g93
g94
ssg82
g1715
sg75
(lp1722
S'wsgi_input'
p1723
asbag68
(g89
g70
NtRp1724
(dp1725
g73
(dp1726
g100
g101
ssg82
g1715
sg75
(lp1727
S':'
asbag68
(g89
g70
NtRp1728
(dp1729
g73
(dp1730
sg82
g1715
sg75
(lp1731
g68
(g69
g70
NtRp1732
(dp1733
g73
(dp1734
g81
I4
ssg82
g1728
sg75
(lp1735
S'<socket._fileobject object at 0x3ea5050>'
p1736
asbasbasbag68
(g84
g70
NtRp1737
(dp1738
g73
(dp1739
sg82
g858
sg75
(lp1740
g68
(g89
g70
NtRp1741
(dp1742
g73
(dp1743
g93
g94
ssg82
g1737
sg75
(lp1744
S'wsgi_multiprocess'
p1745
asbag68
(g89
g70
NtRp1746
(dp1747
g73
(dp1748
g100
g101
ssg82
g1737
sg75
(lp1749
S':'
asbag68
(g89
g70
NtRp1750
(dp1751
g73
(dp1752
sg82
g1737
sg75
(lp1753
g68
(g69
g70
NtRp1754
(dp1755
g73
(dp1756
g81
I4
ssg82
g1750
sg75
(lp1757
g111
asbasbasbag68
(g84
g70
NtRp1758
(dp1759
g73
(dp1760
sg82
g858
sg75
(lp1761
g68
(g89
g70
NtRp1762
(dp1763
g73
(dp1764
g93
g94
ssg82
g1758
sg75
(lp1765
S'wsgi_multithread'
p1766
asbag68
(g89
g70
NtRp1767
(dp1768
g73
(dp1769
g100
g101
ssg82
g1758
sg75
(lp1770
S':'
asbag68
(g89
g70
NtRp1771
(dp1772
g73
(dp1773
sg82
g1758
sg75
(lp1774
g68
(g69
g70
NtRp1775
(dp1776
g73
(dp1777
g81
I4
ssg82
g1771
sg75
(lp1778
S'True'
p1779
asbasbasbag68
(g84
g70
NtRp1780
(dp1781
g73
(dp1782
sg82
g858
sg75
(lp1783
g68
(g89
g70
NtRp1784
(dp1785
g73
(dp1786
g93
g94
ssg82
g1780
sg75
(lp1787
S'wsgi_run_once'
p1788
asbag68
(g89
g70
NtRp1789
(dp1790
g73
(dp1791
g100
g101
ssg82
g1780
sg75
(lp1792
S':'
asbag68
(g89
g70
NtRp1793
(dp1794
g73
(dp1795
sg82
g1780
sg75
(lp1796
g68
(g69
g70
NtRp1797
(dp1798
g73
(dp1799
g81
I4
ssg82
g1793
sg75
(lp1800
g111
asbasbasbag68
(g84
g70
NtRp1801
(dp1802
g73
(dp1803
sg82
g858
sg75
(lp1804
g68
(g89
g70
NtRp1805
(dp1806
g73
(dp1807
g93
g94
ssg82
g1801
sg75
(lp1808
S'wsgi_url_scheme'
p1809
asbag68
(g89
g70
NtRp1810
(dp1811
g73
(dp1812
g100
g101
ssg82
g1801
sg75
(lp1813
S':'
asbag68
(g89
g70
NtRp1814
(dp1815
g73
(dp1816
sg82
g1801
sg75
(lp1817
g68
(g69
g70
NtRp1818
(dp1819
g73
(dp1820
g81
I4
ssg82
g1814
sg75
(lp1821
S'http'
p1822
asbasbasbag68
(g84
g70
NtRp1823
(dp1824
g73
(dp1825
sg82
g858
sg75
(lp1826
g68
(g89
g70
NtRp1827
(dp1828
g73
(dp1829
g93
g94
ssg82
g1823
sg75
(lp1830
S'wsgi_version'
p1831
asbag68
(g89
g70
NtRp1832
(dp1833
g73
(dp1834
g100
g101
ssg82
g1823
sg75
(lp1835
S':'
asbag68
(g89
g70
NtRp1836
(dp1837
g73
(dp1838
sg82
g1823
sg75
(lp1839
g68
(g69
g70
NtRp1840
(dp1841
g73
(dp1842
g81
I4
ssg82
g1836
sg75
(lp1843
g68
(g77
g70
NtRp1844
(dp1845
g73
(dp1846
g81
I3
ssg82
Nsg75
(lp1847
g68
(g84
g70
NtRp1848
(dp1849
g73
(dp1850
sg82
g1844
sg75
(lp1851
g68
(g89
g70
NtRp1852
(dp1853
g73
(dp1854
sg82
g1848
sg75
(lp1855
g68
(g69
g70
NtRp1856
(dp1857
g73
(dp1858
g81
I3
ssg82
g1852
sg75
(lp1859
S'1'
asbasbasbag68
(g84
g70
NtRp1860
(dp1861
g73
(dp1862
sg82
g1844
sg75
(lp1863
g68
(g89
g70
NtRp1864
(dp1865
g73
(dp1866
sg82
g1860
sg75
(lp1867
g68
(g69
g70
NtRp1868
(dp1869
g73
(dp1870
g81
I3
ssg82
g1864
sg75
(lp1871
S'0'
asbasbasbasbasbasbasbasbasbasbasbag68
(g84
g70
NtRp1872
(dp1873
g73
(dp1874
sg82
g78
sg75
(lp1875
g68
(g89
g70
NtRp1876
(dp1877
g73
(dp1878
g93
g94
ssg82
g1872
sg75
(lp1879
S'extension'
p1880
asbag68
(g89
g70
NtRp1881
(dp1882
g73
(dp1883
g100
g101
ssg82
g1872
sg75
(lp1884
S':'
asbag68
(g89
g70
NtRp1885
(dp1886
g73
(dp1887
sg82
g1872
sg75
(lp1888
g68
(g69
g70
NtRp1889
(dp1890
g73
(dp1891
g81
I5
ssg82
g1885
sg75
(lp1892
S'html'
p1893
asbasbasbag68
(g84
g70
NtRp1894
(dp1895
g73
(dp1896
sg82
g78
sg75
(lp1897
g68
(g89
g70
NtRp1898
(dp1899
g73
(dp1900
g93
g94
ssg82
g1894
sg75
(lp1901
S'folder'
p1902
asbag68
(g89
g70
NtRp1903
(dp1904
g73
(dp1905
g100
g101
ssg82
g1894
sg75
(lp1906
S':'
asbag68
(g89
g70
NtRp1907
(dp1908
g73
(dp1909
sg82
g1894
sg75
(lp1910
g68
(g69
g70
NtRp1911
(dp1912
g73
(dp1913
g81
I5
ssg82
g1907
sg75
(lp1914
S'/home/kaique/Projects/web2py/applications/synopsis/'
p1915
asbasbasbag68
(g84
g70
NtRp1916
(dp1917
g73
(dp1918
sg82
g78
sg75
(lp1919
g68
(g89
g70
NtRp1920
(dp1921
g73
(dp1922
g93
g94
ssg82
g1916
sg75
(lp1923
S'function'
p1924
asbag68
(g89
g70
NtRp1925
(dp1926
g73
(dp1927
g100
g101
ssg82
g1916
sg75
(lp1928
S':'
asbag68
(g89
g70
NtRp1929
(dp1930
g73
(dp1931
sg82
g1916
sg75
(lp1932
g68
(g69
g70
NtRp1933
(dp1934
g73
(dp1935
g81
I5
ssg82
g1929
sg75
(lp1936
S'new'
p1937
asbasbasbag68
(g84
g70
NtRp1938
(dp1939
g73
(dp1940
sg82
g78
sg75
(lp1941
g68
(g89
g70
NtRp1942
(dp1943
g73
(dp1944
g93
g94
ssg82
g1938
sg75
(lp1945
S'get_vars'
p1946
asbag68
(g89
g70
NtRp1947
(dp1948
g73
(dp1949
g100
g101
ssg82
g1938
sg75
(lp1950
S':'
asbag68
(g89
g70
NtRp1951
(dp1952
g73
(dp1953
sg82
g1938
sg75
(lp1954
g68
(g69
g70
NtRp1955
(dp1956
g73
(dp1957
g81
I5
ssg82
g1951
sg75
(lp1958
g68
(g77
g70
NtRp1959
(dp1960
g73
(dp1961
g81
I4
ssg82
Nsg75
(lp1962
sbasbasbasbag68
(g84
g70
NtRp1963
(dp1964
g73
(dp1965
sg82
g78
sg75
(lp1966
g68
(g89
g70
NtRp1967
(dp1968
g73
(dp1969
g93
g94
ssg82
g1963
sg75
(lp1970
S'global_settings'
p1971
asbag68
(g89
g70
NtRp1972
(dp1973
g73
(dp1974
g100
g101
ssg82
g1963
sg75
(lp1975
S':'
asbag68
(g89
g70
NtRp1976
(dp1977
g73
(dp1978
sg82
g1963
sg75
(lp1979
g68
(g69
g70
NtRp1980
(dp1981
g73
(dp1982
g81
I5
ssg82
g1976
sg75
(lp1983
g68
(g77
g70
NtRp1984
(dp1985
g73
(dp1986
g81
I4
ssg82
Nsg75
(lp1987
g68
(g84
g70
NtRp1988
(dp1989
g73
(dp1990
sg82
g1984
sg75
(lp1991
g68
(g89
g70
NtRp1992
(dp1993
g73
(dp1994
g93
g94
ssg82
g1988
sg75
(lp1995
g870
asbag68
(g89
g70
NtRp1996
(dp1997
g73
(dp1998
g100
g101
ssg82
g1988
sg75
(lp1999
S':'
asbag68
(g89
g70
NtRp2000
(dp2001
g73
(dp2002
sg82
g1988
sg75
(lp2003
g68
(g69
g70
NtRp2004
(dp2005
g73
(dp2006
g81
I4
ssg82
g2000
sg75
(lp2007
S"set(['/home/kaique/Projects/web2py/applications/synopsis/', '/home/kaique/Projects/web2py/applications/admin/'])"
p2008
asbasbasbag68
(g84
g70
NtRp2009
(dp2010
g73
(dp2011
sg82
g1984
sg75
(lp2012
g68
(g89
g70
NtRp2013
(dp2014
g73
(dp2015
g93
g94
ssg82
g2009
sg75
(lp2016
g892
asbag68
(g89
g70
NtRp2017
(dp2018
g73
(dp2019
g100
g101
ssg82
g2009
sg75
(lp2020
S':'
asbag68
(g89
g70
NtRp2021
(dp2022
g73
(dp2023
sg82
g2009
sg75
(lp2024
g68
(g69
g70
NtRp2025
(dp2026
g73
(dp2027
g81
I4
ssg82
g2021
sg75
(lp2028
g905
asbasbasbag68
(g84
g70
NtRp2029
(dp2030
g73
(dp2031
sg82
g1984
sg75
(lp2032
g68
(g89
g70
NtRp2033
(dp2034
g73
(dp2035
g93
g94
ssg82
g2029
sg75
(lp2036
g914
asbag68
(g89
g70
NtRp2037
(dp2038
g73
(dp2039
g100
g101
ssg82
g2029
sg75
(lp2040
S':'
asbag68
(g89
g70
NtRp2041
(dp2042
g73
(dp2043
sg82
g2029
sg75
(lp2044
g68
(g69
g70
NtRp2045
(dp2046
g73
(dp2047
g81
I4
ssg82
g2041
sg75
(lp2048
g68
(g77
g70
NtRp2049
(dp2050
g73
(dp2051
g81
I3
ssg82
Nsg75
(lp2052
sbasbasbasbag68
(g84
g70
NtRp2053
(dp2054
g73
(dp2055
sg82
g1984
sg75
(lp2056
g68
(g89
g70
NtRp2057
(dp2058
g73
(dp2059
g93
g94
ssg82
g2053
sg75
(lp2060
g939
asbag68
(g89
g70
NtRp2061
(dp2062
g73
(dp2063
g100
g101
ssg82
g2053
sg75
(lp2064
S':'
asbag68
(g89
g70
NtRp2065
(dp2066
g73
(dp2067
sg82
g2053
sg75
(lp2068
g68
(g69
g70
NtRp2069
(dp2070
g73
(dp2071
g81
I4
ssg82
g2065
sg75
(lp2072
S"<Values at 0x2d3b950: {'verbose': False, 'ip': '127.0.0.1', 'shutdown_timeout': 5, 'taskbar': False, 'nocron': False, 'pid_filename': 'httpserver.pid', 'maxthreads': None, 'softcron': False, 'server_name': 'kaique-Pine-Trail-M', 'bpython': False, 'nogui': False, 'port': 8000, 'extcron': False, 'debuglevel': 30, 'test': None, 'folder': '/home/kaique/Projects/web2py', 'config': '', 'import_models': False, 'winservice': '', 'shell': None, 'run': '', 'log_filename': 'httpserver.log', 'args': [''], 'ssl_ca_certificate': None, 'scheduler': None, 'profiler_filename': None, 'ssl_private_key': '', 'password': 'dev', 'request_queue_size': 5, 'ssl_certificate': '', 'cronjob': False, 'plain': False, 'quiet': False, 'interfaces': None, 'minthreads': None, 'timeout': 10, 'numthreads': None, 'nobanner': False}>"
p2073
asbasbasbag68
(g84
g70
NtRp2074
(dp2075
g73
(dp2076
sg82
g1984
sg75
(lp2077
g68
(g89
g70
NtRp2078
(dp2079
g73
(dp2080
g93
g94
ssg82
g2074
sg75
(lp2081
g1005
asbag68
(g89
g70
NtRp2082
(dp2083
g73
(dp2084
g100
g101
ssg82
g2074
sg75
(lp2085
S':'
asbag68
(g89
g70
NtRp2086
(dp2087
g73
(dp2088
sg82
g2074
sg75
(lp2089
g68
(g69
g70
NtRp2090
(dp2091
g73
(dp2092
g81
I4
ssg82
g2086
sg75
(lp2093
S'set([])'
p2094
asbasbasbag68
(g84
g70
NtRp2095
(dp2096
g73
(dp2097
sg82
g1984
sg75
(lp2098
g68
(g89
g70
NtRp2099
(dp2100
g73
(dp2101
g93
g94
ssg82
g2095
sg75
(lp2102
g1027
asbag68
(g89
g70
NtRp2103
(dp2104
g73
(dp2105
g100
g101
ssg82
g2095
sg75
(lp2106
S':'
asbag68
(g89
g70
NtRp2107
(dp2108
g73
(dp2109
sg82
g2095
sg75
(lp2110
g68
(g69
g70
NtRp2111
(dp2112
g73
(dp2113
g81
I4
ssg82
g2107
sg75
(lp2114
g111
asbasbasbag68
(g84
g70
NtRp2115
(dp2116
g73
(dp2117
sg82
g1984
sg75
(lp2118
g68
(g89
g70
NtRp2119
(dp2120
g73
(dp2121
g93
g94
ssg82
g2115
sg75
(lp2122
g1048
asbag68
(g89
g70
NtRp2123
(dp2124
g73
(dp2125
g100
g101
ssg82
g2115
sg75
(lp2126
S':'
asbag68
(g89
g70
NtRp2127
(dp2128
g73
(dp2129
sg82
g2115
sg75
(lp2130
g68
(g69
g70
NtRp2131
(dp2132
g73
(dp2133
g81
I4
ssg82
g2127
sg75
(lp2134
g1061
asbasbasbag68
(g84
g70
NtRp2135
(dp2136
g73
(dp2137
sg82
g1984
sg75
(lp2138
g68
(g89
g70
NtRp2139
(dp2140
g73
(dp2141
g93
g94
ssg82
g2135
sg75
(lp2142
g1310
asbag68
(g89
g70
NtRp2143
(dp2144
g73
(dp2145
g100
g101
ssg82
g2135
sg75
(lp2146
S':'
asbag68
(g89
g70
NtRp2147
(dp2148
g73
(dp2149
sg82
g2135
sg75
(lp2150
g68
(g69
g70
NtRp2151
(dp2152
g73
(dp2153
g81
I4
ssg82
g2147
sg75
(lp2154
g111
asbasbasbag68
(g84
g70
NtRp2155
(dp2156
g73
(dp2157
sg82
g1984
sg75
(lp2158
g68
(g89
g70
NtRp2159
(dp2160
g73
(dp2161
g93
g94
ssg82
g2155
sg75
(lp2162
g1548
asbag68
(g89
g70
NtRp2163
(dp2164
g73
(dp2165
g100
g101
ssg82
g2155
sg75
(lp2166
S':'
asbag68
(g89
g70
NtRp2167
(dp2168
g73
(dp2169
sg82
g2155
sg75
(lp2170
g68
(g69
g70
NtRp2171
(dp2172
g73
(dp2173
g81
I4
ssg82
g2167
sg75
(lp2174
g1561
asbasbasbag68
(g84
g70
NtRp2175
(dp2176
g73
(dp2177
sg82
g1984
sg75
(lp2178
g68
(g89
g70
NtRp2179
(dp2180
g73
(dp2181
g93
g94
ssg82
g2175
sg75
(lp2182
g1591
asbag68
(g89
g70
NtRp2183
(dp2184
g73
(dp2185
g100
g101
ssg82
g2175
sg75
(lp2186
S':'
asbag68
(g89
g70
NtRp2187
(dp2188
g73
(dp2189
sg82
g2175
sg75
(lp2190
g68
(g69
g70
NtRp2191
(dp2192
g73
(dp2193
g81
I4
ssg82
g2187
sg75
(lp2194
g68
(g77
g70
NtRp2195
(dp2196
g73
(dp2197
g81
I3
ssg82
Nsg75
(lp2198
g68
(g84
g70
NtRp2199
(dp2200
g73
(dp2201
sg82
g2195
sg75
(lp2202
g68
(g89
g70
NtRp2203
(dp2204
g73
(dp2205
sg82
g2199
sg75
(lp2206
g68
(g69
g70
NtRp2207
(dp2208
g73
(dp2209
g81
I3
ssg82
g2203
sg75
(lp2210
S'1'
asbasbasbag68
(g84
g70
NtRp2211
(dp2212
g73
(dp2213
sg82
g2195
sg75
(lp2214
g68
(g89
g70
NtRp2215
(dp2216
g73
(dp2217
sg82
g2211
sg75
(lp2218
g68
(g69
g70
NtRp2219
(dp2220
g73
(dp2221
g81
I3
ssg82
g2215
sg75
(lp2222
S'99'
p2223
asbasbasbag68
(g84
g70
NtRp2224
(dp2225
g73
(dp2226
sg82
g2195
sg75
(lp2227
g68
(g89
g70
NtRp2228
(dp2229
g73
(dp2230
sg82
g2224
sg75
(lp2231
g68
(g69
g70
NtRp2232
(dp2233
g73
(dp2234
g81
I3
ssg82
g2228
sg75
(lp2235
S'2'
asbasbasbag68
(g84
g70
NtRp2236
(dp2237
g73
(dp2238
sg82
g2195
sg75
(lp2239
g68
(g89
g70
NtRp2240
(dp2241
g73
(dp2242
sg82
g2236
sg75
(lp2243
g68
(g69
g70
NtRp2244
(dp2245
g73
(dp2246
g81
I3
ssg82
g2240
sg75
(lp2247
S'datetime.datetime(2011, 9, 26, 6, 55, 33)'
p2248
asbasbasbag68
(g84
g70
NtRp2249
(dp2250
g73
(dp2251
sg82
g2195
sg75
(lp2252
g68
(g89
g70
NtRp2253
(dp2254
g73
(dp2255
sg82
g2249
sg75
(lp2256
g68
(g69
g70
NtRp2257
(dp2258
g73
(dp2259
g81
I3
ssg82
g2253
sg75
(lp2260
g1670
asbasbasbasbasbasbasbasbasbasbasbag68
(g84
g70
NtRp2261
(dp2262
g73
(dp2263
sg82
g78
sg75
(lp2264
g68
(g89
g70
NtRp2265
(dp2266
g73
(dp2267
g93
g94
ssg82
g2261
sg75
(lp2268
S'is_https'
p2269
asbag68
(g89
g70
NtRp2270
(dp2271
g73
(dp2272
g100
g101
ssg82
g2261
sg75
(lp2273
S':'
asbag68
(g89
g70
NtRp2274
(dp2275
g73
(dp2276
sg82
g2261
sg75
(lp2277
g68
(g69
g70
NtRp2278
(dp2279
g73
(dp2280
g81
I5
ssg82
g2274
sg75
(lp2281
g111
asbasbasbag68
(g84
g70
NtRp2282
(dp2283
g73
(dp2284
sg82
g78
sg75
(lp2285
g68
(g89
g70
NtRp2286
(dp2287
g73
(dp2288
g93
g94
ssg82
g2282
sg75
(lp2289
S'is_local'
p2290
asbag68
(g89
g70
NtRp2291
(dp2292
g73
(dp2293
g100
g101
ssg82
g2282
sg75
(lp2294
S':'
asbag68
(g89
g70
NtRp2295
(dp2296
g73
(dp2297
sg82
g2282
sg75
(lp2298
g68
(g69
g70
NtRp2299
(dp2300
g73
(dp2301
g81
I5
ssg82
g2295
sg75
(lp2302
g1779
asbasbasbag68
(g84
g70
NtRp2303
(dp2304
g73
(dp2305
sg82
g78
sg75
(lp2306
g68
(g89
g70
NtRp2307
(dp2308
g73
(dp2309
g93
g94
ssg82
g2303
sg75
(lp2310
S'is_restful'
p2311
asbag68
(g89
g70
NtRp2312
(dp2313
g73
(dp2314
g100
g101
ssg82
g2303
sg75
(lp2315
S':'
asbag68
(g89
g70
NtRp2316
(dp2317
g73
(dp2318
sg82
g2303
sg75
(lp2319
g68
(g69
g70
NtRp2320
(dp2321
g73
(dp2322
g81
I5
ssg82
g2316
sg75
(lp2323
g111
asbasbasbag68
(g84
g70
NtRp2324
(dp2325
g73
(dp2326
sg82
g78
sg75
(lp2327
g68
(g89
g70
NtRp2328
(dp2329
g73
(dp2330
g93
g94
ssg82
g2324
sg75
(lp2331
S'now'
p2332
asbag68
(g89
g70
NtRp2333
(dp2334
g73
(dp2335
g100
g101
ssg82
g2324
sg75
(lp2336
S':'
asbag68
(g89
g70
NtRp2337
(dp2338
g73
(dp2339
sg82
g2324
sg75
(lp2340
g68
(g69
g70
NtRp2341
(dp2342
g73
(dp2343
g81
I5
ssg82
g2337
sg75
(lp2344
S'datetime.datetime(2012, 1, 12, 13, 21, 17, 5388)'
p2345
asbasbasbag68
(g84
g70
NtRp2346
(dp2347
g73
(dp2348
sg82
g78
sg75
(lp2349
g68
(g89
g70
NtRp2350
(dp2351
g73
(dp2352
g93
g94
ssg82
g2346
sg75
(lp2353
S'post_vars'
p2354
asbag68
(g89
g70
NtRp2355
(dp2356
g73
(dp2357
g100
g101
ssg82
g2346
sg75
(lp2358
S':'
asbag68
(g89
g70
NtRp2359
(dp2360
g73
(dp2361
sg82
g2346
sg75
(lp2362
g68
(g69
g70
NtRp2363
(dp2364
g73
(dp2365
g81
I5
ssg82
g2359
sg75
(lp2366
g68
(g77
g70
NtRp2367
(dp2368
g73
(dp2369
g81
I4
ssg82
Nsg75
(lp2370
g68
(g84
g70
NtRp2371
(dp2372
g73
(dp2373
sg82
g2367
sg75
(lp2374
g68
(g89
g70
NtRp2375
(dp2376
g73
(dp2377
g93
g94
ssg82
g2371
sg75
(lp2378
S'sub_title'
p2379
asbag68
(g89
g70
NtRp2380
(dp2381
g73
(dp2382
g100
g101
ssg82
g2371
sg75
(lp2383
S':'
asbag68
(g89
g70
NtRp2384
(dp2385
g73
(dp2386
sg82
g2371
sg75
(lp2387
g68
(g69
g70
NtRp2388
(dp2389
g73
(dp2390
g81
I4
ssg82
g2384
sg75
(lp2391
S''
asbasbasbag68
(g84
g70
NtRp2392
(dp2393
g73
(dp2394
sg82
g2367
sg75
(lp2395
g68
(g89
g70
NtRp2396
(dp2397
g73
(dp2398
g93
g94
ssg82
g2392
sg75
(lp2399
S'title'
p2400
asbag68
(g89
g70
NtRp2401
(dp2402
g73
(dp2403
g100
g101
ssg82
g2392
sg75
(lp2404
S':'
asbag68
(g89
g70
NtRp2405
(dp2406
g73
(dp2407
sg82
g2392
sg75
(lp2408
g68
(g69
g70
NtRp2409
(dp2410
g73
(dp2411
g81
I4
ssg82
g2405
sg75
(lp2412
S'Other test'
p2413
asbasbasbasbasbasbasbag68
(g84
g70
NtRp2414
(dp2415
g73
(dp2416
sg82
g78
sg75
(lp2417
g68
(g89
g70
NtRp2418
(dp2419
g73
(dp2420
g93
g94
ssg82
g2414
sg75
(lp2421
S'raw_args'
p2422
asbag68
(g89
g70
NtRp2423
(dp2424
g73
(dp2425
g100
g101
ssg82
g2414
sg75
(lp2426
S':'
asbag68
(g89
g70
NtRp2427
(dp2428
g73
(dp2429
sg82
g2414
sg75
(lp2430
g68
(g69
g70
NtRp2431
(dp2432
g73
(dp2433
g81
I5
ssg82
g2427
sg75
(lp2434
S'publication/2'
p2435
asbasbasbag68
(g84
g70
NtRp2436
(dp2437
g73
(dp2438
sg82
g78
sg75
(lp2439
g68
(g89
g70
NtRp2440
(dp2441
g73
(dp2442
g93
g94
ssg82
g2436
sg75
(lp2443
S'url'
p2444
asbag68
(g89
g70
NtRp2445
(dp2446
g73
(dp2447
g100
g101
ssg82
g2436
sg75
(lp2448
S':'
asbag68
(g89
g70
NtRp2449
(dp2450
g73
(dp2451
sg82
g2436
sg75
(lp2452
g68
(g69
g70
NtRp2453
(dp2454
g73
(dp2455
g81
I5
ssg82
g2449
sg75
(lp2456
S'/synopsis/information/new/publication/2'
p2457
asbasbasbag68
(g84
g70
NtRp2458
(dp2459
g73
(dp2460
sg82
g78
sg75
(lp2461
g68
(g89
g70
NtRp2462
(dp2463
g73
(dp2464
g93
g94
ssg82
g2458
sg75
(lp2465
S'utcnow'
p2466
asbag68
(g89
g70
NtRp2467
(dp2468
g73
(dp2469
g100
g101
ssg82
g2458
sg75
(lp2470
S':'
asbag68
(g89
g70
NtRp2471
(dp2472
g73
(dp2473
sg82
g2458
sg75
(lp2474
g68
(g69
g70
NtRp2475
(dp2476
g73
(dp2477
g81
I5
ssg82
g2471
sg75
(lp2478
S'datetime.datetime(2012, 1, 12, 15, 21, 17, 5557)'
p2479
asbasbasbag68
(g84
g70
NtRp2480
(dp2481
g73
(dp2482
sg82
g78
sg75
(lp2483
g68
(g89
g70
NtRp2484
(dp2485
g73
(dp2486
g93
g94
ssg82
g2480
sg75
(lp2487
S'uuid'
p2488
asbag68
(g89
g70
NtRp2489
(dp2490
g73
(dp2491
g100
g101
ssg82
g2480
sg75
(lp2492
S':'
asbag68
(g89
g70
NtRp2493
(dp2494
g73
(dp2495
sg82
g2480
sg75
(lp2496
g68
(g69
g70
NtRp2497
(dp2498
g73
(dp2499
g81
I5
ssg82
g2493
sg75
(lp2500
S'synopsis/127.0.0.1.2012-01-12.13-21-17.8ae12edf-3a28-4add-86f0-63c8e2404e91'
p2501
asbasbasbag68
(g84
g70
NtRp2502
(dp2503
g73
(dp2504
sg82
g78
sg75
(lp2505
g68
(g89
g70
NtRp2506
(dp2507
g73
(dp2508
g93
g94
ssg82
g2502
sg75
(lp2509
S'vars'
p2510
asbag68
(g89
g70
NtRp2511
(dp2512
g73
(dp2513
g100
g101
ssg82
g2502
sg75
(lp2514
S':'
asbag68
(g89
g70
NtRp2515
(dp2516
g73
(dp2517
sg82
g2502
sg75
(lp2518
g68
(g69
g70
NtRp2519
(dp2520
g73
(dp2521
g81
I5
ssg82
g2515
sg75
(lp2522
g68
(g77
g70
NtRp2523
(dp2524
g73
(dp2525
g81
I4
ssg82
Nsg75
(lp2526
g68
(g84
g70
NtRp2527
(dp2528
g73
(dp2529
sg82
g2523
sg75
(lp2530
g68
(g89
g70
NtRp2531
(dp2532
g73
(dp2533
g93
g94
ssg82
g2527
sg75
(lp2534
g2379
asbag68
(g89
g70
NtRp2535
(dp2536
g73
(dp2537
g100
g101
ssg82
g2527
sg75
(lp2538
S':'
asbag68
(g89
g70
NtRp2539
(dp2540
g73
(dp2541
sg82
g2527
sg75
(lp2542
g68
(g69
g70
NtRp2543
(dp2544
g73
(dp2545
g81
I4
ssg82
g2539
sg75
(lp2546
S''
asbasbasbag68
(g84
g70
NtRp2547
(dp2548
g73
(dp2549
sg82
g2523
sg75
(lp2550
g68
(g89
g70
NtRp2551
(dp2552
g73
(dp2553
g93
g94
ssg82
g2547
sg75
(lp2554
g2400
asbag68
(g89
g70
NtRp2555
(dp2556
g73
(dp2557
g100
g101
ssg82
g2547
sg75
(lp2558
S':'
asbag68
(g89
g70
NtRp2559
(dp2560
g73
(dp2561
sg82
g2547
sg75
(lp2562
g68
(g69
g70
NtRp2563
(dp2564
g73
(dp2565
g81
I4
ssg82
g2559
sg75
(lp2566
g2413
asbasbasbasbasbasbasbag68
(g84
g70
NtRp2567
(dp2568
g73
(dp2569
sg82
g78
sg75
(lp2570
g68
(g89
g70
NtRp2571
(dp2572
g73
(dp2573
g93
g94
ssg82
g2567
sg75
(lp2574
S'wsgi'
p2575
asbag68
(g89
g70
NtRp2576
(dp2577
g73
(dp2578
g100
g101
ssg82
g2567
sg75
(lp2579
S':'
asbag68
(g89
g70
NtRp2580
(dp2581
g73
(dp2582
sg82
g2567
sg75
(lp2583
g68
(g69
g70
NtRp2584
(dp2585
g73
(dp2586
g81
I5
ssg82
g2580
sg75
(lp2587
g68
(g77
g70
NtRp2588
(dp2589
g73
(dp2590
g81
I4
ssg82
Nsg75
(lp2591
g68
(g84
g70
NtRp2592
(dp2593
g73
(dp2594
sg82
g2588
sg75
(lp2595
g68
(g89
g70
NtRp2596
(dp2597
g73
(dp2598
g93
g94
ssg82
g2592
sg75
(lp2599
S'environ'
p2600
asbag68
(g89
g70
NtRp2601
(dp2602
g73
(dp2603
g100
g101
ssg82
g2592
sg75
(lp2604
S':'
asbag68
(g89
g70
NtRp2605
(dp2606
g73
(dp2607
sg82
g2592
sg75
(lp2608
g68
(g69
g70
NtRp2609
(dp2610
g73
(dp2611
g81
I4
ssg82
g2605
sg75
(lp2612
g68
(g77
g70
NtRp2613
(dp2614
g73
(dp2615
g81
I3
ssg82
Nsg75
(lp2616
g68
(g84
g70
NtRp2617
(dp2618
g73
(dp2619
sg82
g2613
sg75
(lp2620
g68
(g89
g70
NtRp2621
(dp2622
g73
(dp2623
g93
g94
ssg82
g2617
sg75
(lp2624
S'CONTENT_LENGTH'
p2625
asbag68
(g89
g70
NtRp2626
(dp2627
g73
(dp2628
g100
g101
ssg82
g2617
sg75
(lp2629
S':'
asbag68
(g89
g70
NtRp2630
(dp2631
g73
(dp2632
sg82
g2617
sg75
(lp2633
g68
(g69
g70
NtRp2634
(dp2635
g73
(dp2636
g81
I3
ssg82
g2630
sg75
(lp2637
g974
asbasbasbag68
(g84
g70
NtRp2638
(dp2639
g73
(dp2640
sg82
g2613
sg75
(lp2641
g68
(g89
g70
NtRp2642
(dp2643
g73
(dp2644
g93
g94
ssg82
g2638
sg75
(lp2645
S'CONTENT_TYPE'
p2646
asbag68
(g89
g70
NtRp2647
(dp2648
g73
(dp2649
g100
g101
ssg82
g2638
sg75
(lp2650
S':'
asbag68
(g89
g70
NtRp2651
(dp2652
g73
(dp2653
sg82
g2638
sg75
(lp2654
g68
(g69
g70
NtRp2655
(dp2656
g73
(dp2657
g81
I3
ssg82
g2651
sg75
(lp2658
g996
asbasbasbag68
(g84
g70
NtRp2659
(dp2660
g73
(dp2661
sg82
g2613
sg75
(lp2662
g68
(g89
g70
NtRp2663
(dp2664
g73
(dp2665
g93
g94
ssg82
g2659
sg75
(lp2666
S'HTTP_ACCEPT'
p2667
asbag68
(g89
g70
NtRp2668
(dp2669
g73
(dp2670
g100
g101
ssg82
g2659
sg75
(lp2671
S':'
asbag68
(g89
g70
NtRp2672
(dp2673
g73
(dp2674
sg82
g2659
sg75
(lp2675
g68
(g69
g70
NtRp2676
(dp2677
g73
(dp2678
g81
I3
ssg82
g2672
sg75
(lp2679
g1083
asbasbasbag68
(g84
g70
NtRp2680
(dp2681
g73
(dp2682
sg82
g2613
sg75
(lp2683
g68
(g89
g70
NtRp2684
(dp2685
g73
(dp2686
g93
g94
ssg82
g2680
sg75
(lp2687
S'HTTP_ACCEPT_CHARSET'
p2688
asbag68
(g89
g70
NtRp2689
(dp2690
g73
(dp2691
g100
g101
ssg82
g2680
sg75
(lp2692
S':'
asbag68
(g89
g70
NtRp2693
(dp2694
g73
(dp2695
sg82
g2680
sg75
(lp2696
g68
(g69
g70
NtRp2697
(dp2698
g73
(dp2699
g81
I3
ssg82
g2693
sg75
(lp2700
g1105
asbasbasbag68
(g84
g70
NtRp2701
(dp2702
g73
(dp2703
sg82
g2613
sg75
(lp2704
g68
(g89
g70
NtRp2705
(dp2706
g73
(dp2707
g93
g94
ssg82
g2701
sg75
(lp2708
S'HTTP_ACCEPT_ENCODING'
p2709
asbag68
(g89
g70
NtRp2710
(dp2711
g73
(dp2712
g100
g101
ssg82
g2701
sg75
(lp2713
S':'
asbag68
(g89
g70
NtRp2714
(dp2715
g73
(dp2716
sg82
g2701
sg75
(lp2717
g68
(g69
g70
NtRp2718
(dp2719
g73
(dp2720
g81
I3
ssg82
g2714
sg75
(lp2721
g1127
asbasbasbag68
(g84
g70
NtRp2722
(dp2723
g73
(dp2724
sg82
g2613
sg75
(lp2725
g68
(g89
g70
NtRp2726
(dp2727
g73
(dp2728
g93
g94
ssg82
g2722
sg75
(lp2729
S'HTTP_ACCEPT_LANGUAGE'
p2730
asbag68
(g89
g70
NtRp2731
(dp2732
g73
(dp2733
g100
g101
ssg82
g2722
sg75
(lp2734
S':'
asbag68
(g89
g70
NtRp2735
(dp2736
g73
(dp2737
sg82
g2722
sg75
(lp2738
g68
(g69
g70
NtRp2739
(dp2740
g73
(dp2741
g81
I3
ssg82
g2735
sg75
(lp2742
g1149
asbasbasbag68
(g84
g70
NtRp2743
(dp2744
g73
(dp2745
sg82
g2613
sg75
(lp2746
g68
(g89
g70
NtRp2747
(dp2748
g73
(dp2749
g93
g94
ssg82
g2743
sg75
(lp2750
S'HTTP_CONNECTION'
p2751
asbag68
(g89
g70
NtRp2752
(dp2753
g73
(dp2754
g100
g101
ssg82
g2743
sg75
(lp2755
S':'
asbag68
(g89
g70
NtRp2756
(dp2757
g73
(dp2758
sg82
g2743
sg75
(lp2759
g68
(g69
g70
NtRp2760
(dp2761
g73
(dp2762
g81
I3
ssg82
g2756
sg75
(lp2763
g1171
asbasbasbag68
(g84
g70
NtRp2764
(dp2765
g73
(dp2766
sg82
g2613
sg75
(lp2767
g68
(g89
g70
NtRp2768
(dp2769
g73
(dp2770
g93
g94
ssg82
g2764
sg75
(lp2771
S'HTTP_CONTENT_LENGTH'
p2772
asbag68
(g89
g70
NtRp2773
(dp2774
g73
(dp2775
g100
g101
ssg82
g2764
sg75
(lp2776
S':'
asbag68
(g89
g70
NtRp2777
(dp2778
g73
(dp2779
sg82
g2764
sg75
(lp2780
g68
(g69
g70
NtRp2781
(dp2782
g73
(dp2783
g81
I3
ssg82
g2777
sg75
(lp2784
g974
asbasbasbag68
(g84
g70
NtRp2785
(dp2786
g73
(dp2787
sg82
g2613
sg75
(lp2788
g68
(g89
g70
NtRp2789
(dp2790
g73
(dp2791
g93
g94
ssg82
g2785
sg75
(lp2792
S'HTTP_CONTENT_TYPE'
p2793
asbag68
(g89
g70
NtRp2794
(dp2795
g73
(dp2796
g100
g101
ssg82
g2785
sg75
(lp2797
S':'
asbag68
(g89
g70
NtRp2798
(dp2799
g73
(dp2800
sg82
g2785
sg75
(lp2801
g68
(g69
g70
NtRp2802
(dp2803
g73
(dp2804
g81
I3
ssg82
g2798
sg75
(lp2805
g996
asbasbasbag68
(g84
g70
NtRp2806
(dp2807
g73
(dp2808
sg82
g2613
sg75
(lp2809
g68
(g89
g70
NtRp2810
(dp2811
g73
(dp2812
g93
g94
ssg82
g2806
sg75
(lp2813
S'HTTP_COOKIE'
p2814
asbag68
(g89
g70
NtRp2815
(dp2816
g73
(dp2817
g100
g101
ssg82
g2806
sg75
(lp2818
S':'
asbag68
(g89
g70
NtRp2819
(dp2820
g73
(dp2821
sg82
g2806
sg75
(lp2822
g68
(g69
g70
NtRp2823
(dp2824
g73
(dp2825
g81
I3
ssg82
g2819
sg75
(lp2826
g1235
asbasbasbag68
(g84
g70
NtRp2827
(dp2828
g73
(dp2829
sg82
g2613
sg75
(lp2830
g68
(g89
g70
NtRp2831
(dp2832
g73
(dp2833
g93
g94
ssg82
g2827
sg75
(lp2834
S'HTTP_HOST'
p2835
asbag68
(g89
g70
NtRp2836
(dp2837
g73
(dp2838
g100
g101
ssg82
g2827
sg75
(lp2839
S':'
asbag68
(g89
g70
NtRp2840
(dp2841
g73
(dp2842
sg82
g2827
sg75
(lp2843
g68
(g69
g70
NtRp2844
(dp2845
g73
(dp2846
g81
I3
ssg82
g2840
sg75
(lp2847
g1257
asbasbasbag68
(g84
g70
NtRp2848
(dp2849
g73
(dp2850
sg82
g2613
sg75
(lp2851
g68
(g89
g70
NtRp2852
(dp2853
g73
(dp2854
g93
g94
ssg82
g2848
sg75
(lp2855
S'HTTP_REFERER'
p2856
asbag68
(g89
g70
NtRp2857
(dp2858
g73
(dp2859
g100
g101
ssg82
g2848
sg75
(lp2860
S':'
asbag68
(g89
g70
NtRp2861
(dp2862
g73
(dp2863
sg82
g2848
sg75
(lp2864
g68
(g69
g70
NtRp2865
(dp2866
g73
(dp2867
g81
I3
ssg82
g2861
sg75
(lp2868
g1279
asbasbasbag68
(g84
g70
NtRp2869
(dp2870
g73
(dp2871
sg82
g2613
sg75
(lp2872
g68
(g89
g70
NtRp2873
(dp2874
g73
(dp2875
g93
g94
ssg82
g2869
sg75
(lp2876
S'HTTP_USER_AGENT'
p2877
asbag68
(g89
g70
NtRp2878
(dp2879
g73
(dp2880
g100
g101
ssg82
g2869
sg75
(lp2881
S':'
asbag68
(g89
g70
NtRp2882
(dp2883
g73
(dp2884
sg82
g2869
sg75
(lp2885
g68
(g69
g70
NtRp2886
(dp2887
g73
(dp2888
g81
I3
ssg82
g2882
sg75
(lp2889
g1301
asbasbasbag68
(g84
g70
NtRp2890
(dp2891
g73
(dp2892
sg82
g2613
sg75
(lp2893
g68
(g89
g70
NtRp2894
(dp2895
g73
(dp2896
g93
g94
ssg82
g2890
sg75
(lp2897
S'PATH_INFO'
p2898
asbag68
(g89
g70
NtRp2899
(dp2900
g73
(dp2901
g100
g101
ssg82
g2890
sg75
(lp2902
S':'
asbag68
(g89
g70
NtRp2903
(dp2904
g73
(dp2905
sg82
g2890
sg75
(lp2906
g68
(g69
g70
NtRp2907
(dp2908
g73
(dp2909
g81
I3
ssg82
g2903
sg75
(lp2910
g1344
asbasbasbag68
(g84
g70
NtRp2911
(dp2912
g73
(dp2913
sg82
g2613
sg75
(lp2914
g68
(g89
g70
NtRp2915
(dp2916
g73
(dp2917
g93
g94
ssg82
g2911
sg75
(lp2918
S'QUERY_STRING'
p2919
asbag68
(g89
g70
NtRp2920
(dp2921
g73
(dp2922
g100
g101
ssg82
g2911
sg75
(lp2923
S':'
asbag68
(g89
g70
NtRp2924
(dp2925
g73
(dp2926
sg82
g2911
sg75
(lp2927
g68
(g69
g70
NtRp2928
(dp2929
g73
(dp2930
g81
I3
ssg82
g2924
sg75
(lp2931
S''
asbasbasbag68
(g84
g70
NtRp2932
(dp2933
g73
(dp2934
sg82
g2613
sg75
(lp2935
g68
(g89
g70
NtRp2936
(dp2937
g73
(dp2938
g93
g94
ssg82
g2932
sg75
(lp2939
S'REMOTE_ADDR'
p2940
asbag68
(g89
g70
NtRp2941
(dp2942
g73
(dp2943
g100
g101
ssg82
g2932
sg75
(lp2944
S':'
asbag68
(g89
g70
NtRp2945
(dp2946
g73
(dp2947
sg82
g2932
sg75
(lp2948
g68
(g69
g70
NtRp2949
(dp2950
g73
(dp2951
g81
I3
ssg82
g2945
sg75
(lp2952
g226
asbasbasbag68
(g84
g70
NtRp2953
(dp2954
g73
(dp2955
sg82
g2613
sg75
(lp2956
g68
(g89
g70
NtRp2957
(dp2958
g73
(dp2959
g93
g94
ssg82
g2953
sg75
(lp2960
S'REMOTE_PORT'
p2961
asbag68
(g89
g70
NtRp2962
(dp2963
g73
(dp2964
g100
g101
ssg82
g2953
sg75
(lp2965
S':'
asbag68
(g89
g70
NtRp2966
(dp2967
g73
(dp2968
sg82
g2953
sg75
(lp2969
g68
(g69
g70
NtRp2970
(dp2971
g73
(dp2972
g81
I3
ssg82
g2966
sg75
(lp2973
g1408
asbasbasbag68
(g84
g70
NtRp2974
(dp2975
g73
(dp2976
sg82
g2613
sg75
(lp2977
g68
(g89
g70
NtRp2978
(dp2979
g73
(dp2980
g93
g94
ssg82
g2974
sg75
(lp2981
S'REQUEST_METHOD'
p2982
asbag68
(g89
g70
NtRp2983
(dp2984
g73
(dp2985
g100
g101
ssg82
g2974
sg75
(lp2986
S':'
asbag68
(g89
g70
NtRp2987
(dp2988
g73
(dp2989
sg82
g2974
sg75
(lp2990
g68
(g69
g70
NtRp2991
(dp2992
g73
(dp2993
g81
I3
ssg82
g2987
sg75
(lp2994
g1430
asbasbasbag68
(g84
g70
NtRp2995
(dp2996
g73
(dp2997
sg82
g2613
sg75
(lp2998
g68
(g89
g70
NtRp2999
(dp3000
g73
(dp3001
g93
g94
ssg82
g2995
sg75
(lp3002
S'SCRIPT_NAME'
p3003
asbag68
(g89
g70
NtRp3004
(dp3005
g73
(dp3006
g100
g101
ssg82
g2995
sg75
(lp3007
S':'
asbag68
(g89
g70
NtRp3008
(dp3009
g73
(dp3010
sg82
g2995
sg75
(lp3011
g68
(g69
g70
NtRp3012
(dp3013
g73
(dp3014
g81
I3
ssg82
g3008
sg75
(lp3015
S''
asbasbasbag68
(g84
g70
NtRp3016
(dp3017
g73
(dp3018
sg82
g2613
sg75
(lp3019
g68
(g89
g70
NtRp3020
(dp3021
g73
(dp3022
g93
g94
ssg82
g3016
sg75
(lp3023
S'SERVER_NAME'
p3024
asbag68
(g89
g70
NtRp3025
(dp3026
g73
(dp3027
g100
g101
ssg82
g3016
sg75
(lp3028
S':'
asbag68
(g89
g70
NtRp3029
(dp3030
g73
(dp3031
sg82
g3016
sg75
(lp3032
g68
(g69
g70
NtRp3033
(dp3034
g73
(dp3035
g81
I3
ssg82
g3029
sg75
(lp3036
g1473
asbasbasbag68
(g84
g70
NtRp3037
(dp3038
g73
(dp3039
sg82
g2613
sg75
(lp3040
g68
(g89
g70
NtRp3041
(dp3042
g73
(dp3043
g93
g94
ssg82
g3037
sg75
(lp3044
S'SERVER_PORT'
p3045
asbag68
(g89
g70
NtRp3046
(dp3047
g73
(dp3048
g100
g101
ssg82
g3037
sg75
(lp3049
S':'
asbag68
(g89
g70
NtRp3050
(dp3051
g73
(dp3052
sg82
g3037
sg75
(lp3053
g68
(g69
g70
NtRp3054
(dp3055
g73
(dp3056
g81
I3
ssg82
g3050
sg75
(lp3057
g1495
asbasbasbag68
(g84
g70
NtRp3058
(dp3059
g73
(dp3060
sg82
g2613
sg75
(lp3061
g68
(g89
g70
NtRp3062
(dp3063
g73
(dp3064
g93
g94
ssg82
g3058
sg75
(lp3065
S'SERVER_PROTOCOL'
p3066
asbag68
(g89
g70
NtRp3067
(dp3068
g73
(dp3069
g100
g101
ssg82
g3058
sg75
(lp3070
S':'
asbag68
(g89
g70
NtRp3071
(dp3072
g73
(dp3073
sg82
g3058
sg75
(lp3074
g68
(g69
g70
NtRp3075
(dp3076
g73
(dp3077
g81
I3
ssg82
g3071
sg75
(lp3078
g1517
asbasbasbag68
(g84
g70
NtRp3079
(dp3080
g73
(dp3081
sg82
g2613
sg75
(lp3082
g68
(g89
g70
NtRp3083
(dp3084
g73
(dp3085
g93
g94
ssg82
g3079
sg75
(lp3086
S'SERVER_SOFTWARE'
p3087
asbag68
(g89
g70
NtRp3088
(dp3089
g73
(dp3090
g100
g101
ssg82
g3079
sg75
(lp3091
S':'
asbag68
(g89
g70
NtRp3092
(dp3093
g73
(dp3094
sg82
g3079
sg75
(lp3095
g68
(g69
g70
NtRp3096
(dp3097
g73
(dp3098
g81
I3
ssg82
g3092
sg75
(lp3099
g1539
asbasbasbag68
(g84
g70
NtRp3100
(dp3101
g73
(dp3102
sg82
g2613
sg75
(lp3103
g68
(g89
g70
NtRp3104
(dp3105
g73
(dp3106
g93
g94
ssg82
g3100
sg75
(lp3107
S'wsgi.errors'
p3108
asbag68
(g89
g70
NtRp3109
(dp3110
g73
(dp3111
g100
g101
ssg82
g3100
sg75
(lp3112
S':'
asbag68
(g89
g70
NtRp3113
(dp3114
g73
(dp3115
sg82
g3100
sg75
(lp3116
g68
(g69
g70
NtRp3117
(dp3118
g73
(dp3119
g81
I3
ssg82
g3113
sg75
(lp3120
S"<open file '<stderr>', mode 'w' at 0x7f2b12e1a270>"
p3121
asbasbasbag68
(g84
g70
NtRp3122
(dp3123
g73
(dp3124
sg82
g2613
sg75
(lp3125
g68
(g89
g70
NtRp3126
(dp3127
g73
(dp3128
g93
g94
ssg82
g3122
sg75
(lp3129
S'wsgi.file_wrapper'
p3130
asbag68
(g89
g70
NtRp3131
(dp3132
g73
(dp3133
g100
g101
ssg82
g3122
sg75
(lp3134
S':'
asbag68
(g89
g70
NtRp3135
(dp3136
g73
(dp3137
sg82
g3122
sg75
(lp3138
g68
(g69
g70
NtRp3139
(dp3140
g73
(dp3141
g81
I3
ssg82
g3135
sg75
(lp3142
S'<class wsgiref.util.FileWrapper at 0x2bf2ef0>'
p3143
asbasbasbag68
(g84
g70
NtRp3144
(dp3145
g73
(dp3146
sg82
g2613
sg75
(lp3147
g68
(g89
g70
NtRp3148
(dp3149
g73
(dp3150
g93
g94
ssg82
g3144
sg75
(lp3151
S'wsgi.input'
p3152
asbag68
(g89
g70
NtRp3153
(dp3154
g73
(dp3155
g100
g101
ssg82
g3144
sg75
(lp3156
S':'
asbag68
(g89
g70
NtRp3157
(dp3158
g73
(dp3159
sg82
g3144
sg75
(lp3160
g68
(g69
g70
NtRp3161
(dp3162
g73
(dp3163
g81
I3
ssg82
g3157
sg75
(lp3164
S"<open file '<fdopen>', mode 'w+b' at 0x3f9ac00>"
p3165
asbasbasbag68
(g84
g70
NtRp3166
(dp3167
g73
(dp3168
sg82
g2613
sg75
(lp3169
g68
(g89
g70
NtRp3170
(dp3171
g73
(dp3172
g93
g94
ssg82
g3166
sg75
(lp3173
S'wsgi.multiprocess'
p3174
asbag68
(g89
g70
NtRp3175
(dp3176
g73
(dp3177
g100
g101
ssg82
g3166
sg75
(lp3178
S':'
asbag68
(g89
g70
NtRp3179
(dp3180
g73
(dp3181
sg82
g3166
sg75
(lp3182
g68
(g69
g70
NtRp3183
(dp3184
g73
(dp3185
g81
I3
ssg82
g3179
sg75
(lp3186
g111
asbasbasbag68
(g84
g70
NtRp3187
(dp3188
g73
(dp3189
sg82
g2613
sg75
(lp3190
g68
(g89
g70
NtRp3191
(dp3192
g73
(dp3193
g93
g94
ssg82
g3187
sg75
(lp3194
S'wsgi.multithread'
p3195
asbag68
(g89
g70
NtRp3196
(dp3197
g73
(dp3198
g100
g101
ssg82
g3187
sg75
(lp3199
S':'
asbag68
(g89
g70
NtRp3200
(dp3201
g73
(dp3202
sg82
g3187
sg75
(lp3203
g68
(g69
g70
NtRp3204
(dp3205
g73
(dp3206
g81
I3
ssg82
g3200
sg75
(lp3207
g1779
asbasbasbag68
(g84
g70
NtRp3208
(dp3209
g73
(dp3210
sg82
g2613
sg75
(lp3211
g68
(g89
g70
NtRp3212
(dp3213
g73
(dp3214
g93
g94
ssg82
g3208
sg75
(lp3215
S'wsgi.run_once'
p3216
asbag68
(g89
g70
NtRp3217
(dp3218
g73
(dp3219
g100
g101
ssg82
g3208
sg75
(lp3220
S':'
asbag68
(g89
g70
NtRp3221
(dp3222
g73
(dp3223
sg82
g3208
sg75
(lp3224
g68
(g69
g70
NtRp3225
(dp3226
g73
(dp3227
g81
I3
ssg82
g3221
sg75
(lp3228
g111
asbasbasbag68
(g84
g70
NtRp3229
(dp3230
g73
(dp3231
sg82
g2613
sg75
(lp3232
g68
(g89
g70
NtRp3233
(dp3234
g73
(dp3235
g93
g94
ssg82
g3229
sg75
(lp3236
S'wsgi.url_scheme'
p3237
asbag68
(g89
g70
NtRp3238
(dp3239
g73
(dp3240
g100
g101
ssg82
g3229
sg75
(lp3241
S':'
asbag68
(g89
g70
NtRp3242
(dp3243
g73
(dp3244
sg82
g3229
sg75
(lp3245
g68
(g69
g70
NtRp3246
(dp3247
g73
(dp3248
g81
I3
ssg82
g3242
sg75
(lp3249
g1822
asbasbasbag68
(g84
g70
NtRp3250
(dp3251
g73
(dp3252
sg82
g2613
sg75
(lp3253
g68
(g89
g70
NtRp3254
(dp3255
g73
(dp3256
g93
g94
ssg82
g3250
sg75
(lp3257
S'wsgi.version'
p3258
asbag68
(g89
g70
NtRp3259
(dp3260
g73
(dp3261
g100
g101
ssg82
g3250
sg75
(lp3262
S':'
asbag68
(g89
g70
NtRp3263
(dp3264
g73
(dp3265
sg82
g3250
sg75
(lp3266
g68
(g69
g70
NtRp3267
(dp3268
g73
(dp3269
g81
I3
ssg82
g3263
sg75
(lp3270
S'1'
asbasbasbasbasbasbasbasbasbasbasbasbasbsS'frames'
p3271
(lp3272
(dp3273
S'file'
p3274
S'/home/kaique/Projects/web2py/gluon/restricted.py'
p3275
sS'dump'
p3276
(dp3277
S'environment'
p3278
S"{'A': <class 'gluon.html.A'>, 'Auth': <class 'gluon.tools.Auth'>, 'B': <class 'gluon.html.B'>, 'BEAUTIFY': <class 'gluon.html.BEAUTIFY'>, 'BODY': <class 'gluon.html.BODY'>, 'BR': <class 'gluon.html.BR'>, 'BUTTON': <class 'gluon.html.BUTTON'>, 'CAT': <class 'gluon.html.CAT'>, 'CENTER': <class 'gluon.html.CENTER'>, 'CLEANUP': <class 'gluon.validators.CLEANUP'>, ...}"
p3279
sS'ccode'
p3280
S'<code object <module> at 0x3c61330, file "/home/...ons/synopsis/controllers/information.py", line 2>'
p3281
ssS'lnum'
p3282
I194
sS'lines'
p3283
(dp3284
I192
S'        else:'
p3285
sI193
S'            ccode = compile2(code,layer)'
p3286
sI194
S'        exec ccode in environment'
p3287
sI195
S'    except HTTP:'
p3288
sI196
S'        raise'
p3289
sI197
S'    except Exception, error:'
p3290
sI198
S'        # XXX Show exception in Wing IDE if running in debugger'
p3291
sI189
S'    try:'
p3292
sI190
S'        if type(code) == types.CodeType:'
p3293
sI191
S'            ccode = code'
p3294
ssS'call'
p3295
S"(code='# -*- coding: utf-8 -*-\\nimport functions as f # ...\\treturn {}\\n\\nresponse._vars=response._caller(new)\\n', environment={'A': <class 'gluon.html.A'>, 'Auth': <class 'gluon.tools.Auth'>, 'B': <class 'gluon.html.B'>, 'BEAUTIFY': <class 'gluon.html.BEAUTIFY'>, 'BODY': <class 'gluon.html.BODY'>, 'BR': <class 'gluon.html.BR'>, 'BUTTON': <class 'gluon.html.BUTTON'>, 'CAT': <class 'gluon.html.CAT'>, 'CENTER': <class 'gluon.html.CENTER'>, 'CLEANUP': <class 'gluon.validators.CLEANUP'>, ...}, layer='/home/kaique/Projects/web2py/applications/synopsis/controllers/information.py')"
p3296
sS'func'
p3297
S'restricted'
p3298
sa(dp3299
g3274
S'/home/kaique/Projects/web2py/applications/synopsis/controllers/information.py'
p3300
sg3276
(dp3301
sg3282
I63
sg3283
(dp3302
I52
S"\t\t\tresponse.flash = T('Sorry, try again!')"
p3303
sI53
S'\t\telse:'
p3304
sI54
S"\t\t\tresponse.flahs = T('Please, fill the field...')"
p3305
sI55
S''
sI56
S"\t\treturn { 'form': publication,"
p3306
sI57
S"\t\t\t\t 'title': title }"
p3307
sI58
S''
sI59
S"@auth.requires_membership('admin')"
p3308
sI60
S'def edit(): # Edit the subject'
p3309
sI61
S'\treturn {}'
p3310
ssg3295
S'()'
p3311
sg3297
S'<module>'
p3312
sa(dp3313
g3274
S'/home/kaique/Projects/web2py/gluon/globals.py'
p3314
sg3276
(dp3315
S'self'
p3316
S'undefined'
p3317
sS'f'
S'<function new>'
p3318
ssg3282
I149
sg3283
(dp3319
I144
S'        self.meta = Storage()      # used by web2py_ajax.html'
p3320
sI145
S'        self.menu = []             # used by the default view layout'
p3321
sI146
S'        self.files = []            # used by web2py_ajax.html'
p3322
sI147
S'        self.generic_patterns = [] # patterns to allow generic views'
p3323
sI148
S'        self._vars = None'
p3324
sI149
S'        self._caller = lambda f: f()'
p3325
sI150
S'        self._view_environment = None'
p3326
sI151
S'        self._custom_commit = None'
p3327
sI152
S'        self._custom_rollback = None'
p3328
sI153
S''
ssg3295
S'(f=<function new>)'
p3329
sg3297
S'<lambda>'
p3330
sa(dp3331
g3274
S'/home/kaique/Projects/web2py/gluon/tools.py'
p3332
sg3276
(dp3333
S'action'
p3334
S'<function new>'
p3335
sS'a'
S'()'
p3336
sS'b'
g20
ssg3282
I2456
sg3283
(dp3337
I2451
S"                            '?_next='+urllib.quote(next))"
p3338
sI2452
S'                if not condition:'
p3339
sI2453
S'                    current.session.flash = self.messages.access_denied'
p3340
sI2454
S'                    return call_or_redirect('
p3341
sI2455
S'                        self.settings.on_failed_authorization)'
p3342
sI2456
S'                return action(*a, **b)'
p3343
sI2457
S'            f.__doc__ = action.__doc__'
p3344
sI2458
S'            f.__name__ = action.__name__'
p3345
sI2459
S'            f.__dict__.update(action.__dict__)'
p3346
sI2460
S'            return f'
p3347
ssg3295
S'(*a=(), **b={})'
p3348
sg3297
S'f'
sa(dp3349
g3274
S'/home/kaique/Projects/web2py/applications/synopsis/controllers/information.py'
p3350
sg3276
(dp3351
S'global db'
p3352
S"<DAL {'auth_event': <Table {'origin': <gluon.dal..., 'id': <gluon.dal.Field object at 0x3c25190>}>}>"
p3353
sS'db.publication.insert'
p3354
S"<bound method Table.insert of <Table {'ALL': <gl...>, 'id': <gluon.dal.Field object at 0x3c5f690>}>>"
p3355
sS'args'
p3356
S"['publication', '2']"
p3357
sS'db.publication'
p3358
S"<Table {'ALL': <gluon.dal.SQLALL object at 0x3c5...0>, 'id': <gluon.dal.Field object at 0x3c5f690>}>"
p3359
sS'subject_id'
p3360
g3317
ssg3282
I49
sg3283
(dp3361
I44
S"\telif args[0] == 'publication':"
p3362
sI45
S"\t\ttitle = 'Publication'"
p3363
sI46
S"\t\tpublication = SQLFORM.factory(db.publication, fields=['title', 'sub_title'])"
p3364
sI47
S''
sI48
S'\t\tif publication.process(dbio=False).accepted:'
p3365
sI49
S'\t\t\tdb.publication.insert(subject_id = args[1])'
p3366
sI50
S"\t\t\tresponse.flash = T(T('{0} {1} {2}'.format('New', title.lower(), 'inserted!')))"
p3367
sI51
S'\t\telif publication.errors:'
p3368
sI52
S"\t\t\tresponse.flash = T('Sorry, try again!')"
p3369
sI53
S'\t\telse:'
p3370
ssg3295
S'()'
p3371
sg3297
S'new'
p3372
sa(dp3373
g3274
S'/home/kaique/Projects/web2py/gluon/dal.py'
p3374
sg3276
(dp3375
S'self._listify'
p3376
S"<bound method Table._listify of <Table {'ALL': <...>, 'id': <gluon.dal.Field object at 0x3c5f690>}>>"
p3377
sS'fields'
p3378
S"{'subject_id': '2'}"
p3379
sS'self'
p3380
S"<Table {'ALL': <gluon.dal.SQLALL object at 0x3c5...0>, 'id': <gluon.dal.Field object at 0x3c5f690>}>"
p3381
sS'self._db._adapter'
p3382
S'<gluon.dal.SQLiteAdapter object>'
p3383
sS'self._db._adapter.insert'
p3384
S'<bound method SQLiteAdapter.insert of <gluon.dal.SQLiteAdapter object>>'
p3385
sS'self._db'
p3386
S"<DAL {'auth_event': <Table {'origin': <gluon.dal..., 'id': <gluon.dal.Field object at 0x3c25190>}>}>"
p3387
ssg3282
I4976
sg3283
(dp3388
I4971
S''
sI4972
S'    def _insert(self, **fields):'
p3389
sI4973
S'        return self._db._adapter._insert(self,self._listify(fields))'
p3390
sI4974
S''
sI4975
S'    def insert(self, **fields):'
p3391
sI4976
S'        return self._db._adapter.insert(self,self._listify(fields))'
p3392
sI4977
S''
sI4978
S'    def validate_and_insert(self,**fields):'
p3393
sI4979
S'        response = Row()'
p3394
sI4980
S'        response.errors = self._validate(**fields)'
p3395
ssg3295
S"(self=<Table {'ALL': <gluon.dal.SQLALL object at 0x3c5...0>, 'id': <gluon.dal.Field object at 0x3c5f690>}>, **fields={'subject_id': '2'})"
p3396
sg3297
S'insert'
p3397
sa(dp3398
g3274
S'/home/kaique/Projects/web2py/gluon/dal.py'
p3399
sg3276
(dp3400
S'ofield.name'
p3401
S"'title'"
p3402
sS'ofield'
p3403
S'<gluon.dal.Field object>'
p3404
sS'builtinSyntaxError'
p3405
S"<type 'exceptions.SyntaxError'>"
p3406
ssg3282
I4969
sg3283
(dp3407
I4964
S'                try:'
p3408
sI4965
S'                    new_fields.append((ofield,ofield.compute(Row(fields))))'
p3409
sI4966
S'                except KeyError:'
p3410
sI4967
S'                    pass'
p3411
sI4968
S'            if not update and ofield.required and not ofield.name in new_fields_names:'
p3412
sI4969
S"                raise SyntaxError,'Table: missing required field: %s' % ofield.name"
p3413
sI4970
S'        return new_fields'
p3414
sI4971
S''
sI4972
S'    def _insert(self, **fields):'
p3415
sI4973
S'        return self._db._adapter._insert(self,self._listify(fields))'
p3416
ssg3295
S"(self=<Table {'ALL': <gluon.dal.SQLALL object at 0x3c5...0>, 'id': <gluon.dal.Field object at 0x3c5f690>}>, fields={'subject_id': '2'}, update=False)"
p3417
sg3297
S'_listify'
p3418
sasS'pyver'
p3419
S'Python 2.7.2+: /usr/bin/python'
p3420
sS'session'
p3421
g68
(g69
g70
NtRp3422
(dp3423
g73
(dp3424
sg75
(lp3425
g68
(g77
g70
NtRp3426
(dp3427
g73
(dp3428
g81
I5
ssg82
Nsg75
(lp3429
g68
(g84
g70
NtRp3430
(dp3431
g73
(dp3432
sg82
g3426
sg75
(lp3433
g68
(g89
g70
NtRp3434
(dp3435
g73
(dp3436
g93
g94
ssg82
g3430
sg75
(lp3437
S'auth'
p3438
asbag68
(g89
g70
NtRp3439
(dp3440
g73
(dp3441
g100
g101
ssg82
g3430
sg75
(lp3442
S':'
asbag68
(g89
g70
NtRp3443
(dp3444
g73
(dp3445
sg82
g3430
sg75
(lp3446
g68
(g69
g70
NtRp3447
(dp3448
g73
(dp3449
g81
I5
ssg82
g3443
sg75
(lp3450
g68
(g77
g70
NtRp3451
(dp3452
g73
(dp3453
g81
I4
ssg82
Nsg75
(lp3454
g68
(g84
g70
NtRp3455
(dp3456
g73
(dp3457
sg82
g3451
sg75
(lp3458
g68
(g89
g70
NtRp3459
(dp3460
g73
(dp3461
g93
g94
ssg82
g3455
sg75
(lp3462
S'expiration'
p3463
asbag68
(g89
g70
NtRp3464
(dp3465
g73
(dp3466
g100
g101
ssg82
g3455
sg75
(lp3467
S':'
asbag68
(g89
g70
NtRp3468
(dp3469
g73
(dp3470
sg82
g3455
sg75
(lp3471
g68
(g69
g70
NtRp3472
(dp3473
g73
(dp3474
g81
I4
ssg82
g3468
sg75
(lp3475
S'2592000'
p3476
asbasbasbag68
(g84
g70
NtRp3477
(dp3478
g73
(dp3479
sg82
g3451
sg75
(lp3480
g68
(g89
g70
NtRp3481
(dp3482
g73
(dp3483
g93
g94
ssg82
g3477
sg75
(lp3484
S'hmac_key'
p3485
asbag68
(g89
g70
NtRp3486
(dp3487
g73
(dp3488
g100
g101
ssg82
g3477
sg75
(lp3489
S':'
asbag68
(g89
g70
NtRp3490
(dp3491
g73
(dp3492
sg82
g3477
sg75
(lp3493
g68
(g69
g70
NtRp3494
(dp3495
g73
(dp3496
g81
I4
ssg82
g3490
sg75
(lp3497
S'4c32a183-7118-47f6-ab0b-21a33c2fc6ab'
p3498
asbasbasbag68
(g84
g70
NtRp3499
(dp3500
g73
(dp3501
sg82
g3451
sg75
(lp3502
g68
(g89
g70
NtRp3503
(dp3504
g73
(dp3505
g93
g94
ssg82
g3499
sg75
(lp3506
S'last_visit'
p3507
asbag68
(g89
g70
NtRp3508
(dp3509
g73
(dp3510
g100
g101
ssg82
g3499
sg75
(lp3511
S':'
asbag68
(g89
g70
NtRp3512
(dp3513
g73
(dp3514
sg82
g3499
sg75
(lp3515
g68
(g69
g70
NtRp3516
(dp3517
g73
(dp3518
g81
I4
ssg82
g3512
sg75
(lp3519
S'datetime.datetime(2012, 1, 11, 22, 1, 29, 654193)'
p3520
asbasbasbag68
(g84
g70
NtRp3521
(dp3522
g73
(dp3523
sg82
g3451
sg75
(lp3524
g68
(g89
g70
NtRp3525
(dp3526
g73
(dp3527
g93
g94
ssg82
g3521
sg75
(lp3528
S'remember'
p3529
asbag68
(g89
g70
NtRp3530
(dp3531
g73
(dp3532
g100
g101
ssg82
g3521
sg75
(lp3533
S':'
asbag68
(g89
g70
NtRp3534
(dp3535
g73
(dp3536
sg82
g3521
sg75
(lp3537
g68
(g69
g70
NtRp3538
(dp3539
g73
(dp3540
g81
I4
ssg82
g3534
sg75
(lp3541
g111
asbasbasbag68
(g84
g70
NtRp3542
(dp3543
g73
(dp3544
sg82
g3451
sg75
(lp3545
g68
(g89
g70
NtRp3546
(dp3547
g73
(dp3548
g93
g94
ssg82
g3542
sg75
(lp3549
S'user'
p3550
asbag68
(g89
g70
NtRp3551
(dp3552
g73
(dp3553
g100
g101
ssg82
g3542
sg75
(lp3554
S':'
asbag68
(g89
g70
NtRp3555
(dp3556
g73
(dp3557
sg82
g3542
sg75
(lp3558
g68
(g69
g70
NtRp3559
(dp3560
g73
(dp3561
g81
I4
ssg82
g3555
sg75
(lp3562
g68
(g77
g70
NtRp3563
(dp3564
g73
(dp3565
g81
I3
ssg82
Nsg75
(lp3566
g68
(g84
g70
NtRp3567
(dp3568
g73
(dp3569
sg82
g3563
sg75
(lp3570
g68
(g89
g70
NtRp3571
(dp3572
g73
(dp3573
g93
g94
ssg82
g3567
sg75
(lp3574
S'email'
p3575
asbag68
(g89
g70
NtRp3576
(dp3577
g73
(dp3578
g100
g101
ssg82
g3567
sg75
(lp3579
S':'
asbag68
(g89
g70
NtRp3580
(dp3581
g73
(dp3582
sg82
g3567
sg75
(lp3583
g68
(g69
g70
NtRp3584
(dp3585
g73
(dp3586
g81
I3
ssg82
g3580
sg75
(lp3587
S'kaique.developer@gmail.com'
p3588
asbasbasbag68
(g84
g70
NtRp3589
(dp3590
g73
(dp3591
sg82
g3563
sg75
(lp3592
g68
(g89
g70
NtRp3593
(dp3594
g73
(dp3595
g93
g94
ssg82
g3589
sg75
(lp3596
S'first_name'
p3597
asbag68
(g89
g70
NtRp3598
(dp3599
g73
(dp3600
g100
g101
ssg82
g3589
sg75
(lp3601
S':'
asbag68
(g89
g70
NtRp3602
(dp3603
g73
(dp3604
sg82
g3589
sg75
(lp3605
g68
(g69
g70
NtRp3606
(dp3607
g73
(dp3608
g81
I3
ssg82
g3602
sg75
(lp3609
S'kaique'
p3610
asbasbasbag68
(g84
g70
NtRp3611
(dp3612
g73
(dp3613
sg82
g3563
sg75
(lp3614
g68
(g89
g70
NtRp3615
(dp3616
g73
(dp3617
g93
g94
ssg82
g3611
sg75
(lp3618
S'id'
p3619
asbag68
(g89
g70
NtRp3620
(dp3621
g73
(dp3622
g100
g101
ssg82
g3611
sg75
(lp3623
S':'
asbag68
(g89
g70
NtRp3624
(dp3625
g73
(dp3626
sg82
g3611
sg75
(lp3627
g68
(g69
g70
NtRp3628
(dp3629
g73
(dp3630
g81
I3
ssg82
g3624
sg75
(lp3631
S'1'
asbasbasbag68
(g84
g70
NtRp3632
(dp3633
g73
(dp3634
sg82
g3563
sg75
(lp3635
g68
(g89
g70
NtRp3636
(dp3637
g73
(dp3638
g93
g94
ssg82
g3632
sg75
(lp3639
S'last_name'
p3640
asbag68
(g89
g70
NtRp3641
(dp3642
g73
(dp3643
g100
g101
ssg82
g3632
sg75
(lp3644
S':'
asbag68
(g89
g70
NtRp3645
(dp3646
g73
(dp3647
sg82
g3632
sg75
(lp3648
g68
(g69
g70
NtRp3649
(dp3650
g73
(dp3651
g81
I3
ssg82
g3645
sg75
(lp3652
S'silva'
p3653
asbasbasbag68
(g84
g70
NtRp3654
(dp3655
g73
(dp3656
sg82
g3563
sg75
(lp3657
g68
(g89
g70
NtRp3658
(dp3659
g73
(dp3660
g93
g94
ssg82
g3654
sg75
(lp3661
S'password'
p3662
asbag68
(g89
g70
NtRp3663
(dp3664
g73
(dp3665
g100
g101
ssg82
g3654
sg75
(lp3666
S':'
asbag68
(g89
g70
NtRp3667
(dp3668
g73
(dp3669
sg82
g3654
sg75
(lp3670
g68
(g69
g70
NtRp3671
(dp3672
g73
(dp3673
g81
I3
ssg82
g3667
sg75
(lp3674
S'72c6a018d62d3fb47d95389e4a062cd2'
p3675
asbasbasbag68
(g84
g70
NtRp3676
(dp3677
g73
(dp3678
sg82
g3563
sg75
(lp3679
g68
(g89
g70
NtRp3680
(dp3681
g73
(dp3682
g93
g94
ssg82
g3676
sg75
(lp3683
S'registration_key'
p3684
asbag68
(g89
g70
NtRp3685
(dp3686
g73
(dp3687
g100
g101
ssg82
g3676
sg75
(lp3688
S':'
asbag68
(g89
g70
NtRp3689
(dp3690
g73
(dp3691
sg82
g3676
sg75
(lp3692
g68
(g69
g70
NtRp3693
(dp3694
g73
(dp3695
g81
I3
ssg82
g3689
sg75
(lp3696
S''
asbasbasbag68
(g84
g70
NtRp3697
(dp3698
g73
(dp3699
sg82
g3563
sg75
(lp3700
g68
(g89
g70
NtRp3701
(dp3702
g73
(dp3703
g93
g94
ssg82
g3697
sg75
(lp3704
S'reset_password_key'
p3705
asbag68
(g89
g70
NtRp3706
(dp3707
g73
(dp3708
g100
g101
ssg82
g3697
sg75
(lp3709
S':'
asbag68
(g89
g70
NtRp3710
(dp3711
g73
(dp3712
sg82
g3697
sg75
(lp3713
g68
(g69
g70
NtRp3714
(dp3715
g73
(dp3716
g81
I3
ssg82
g3710
sg75
(lp3717
S''
asbasbasbasbasbasbasbasbasbasbasbag68
(g84
g70
NtRp3718
(dp3719
g73
(dp3720
sg82
g3426
sg75
(lp3721
g68
(g89
g70
NtRp3722
(dp3723
g73
(dp3724
g93
g94
ssg82
g3718
sg75
(lp3725
S'index'
p3726
asbag68
(g89
g70
NtRp3727
(dp3728
g73
(dp3729
g100
g101
ssg82
g3718
sg75
(lp3730
S':'
asbag68
(g89
g70
NtRp3731
(dp3732
g73
(dp3733
sg82
g3718
sg75
(lp3734
g68
(g69
g70
NtRp3735
(dp3736
g73
(dp3737
g81
I5
ssg82
g3731
sg75
(lp3738
S'2'
asbasbasbag68
(g84
g70
NtRp3739
(dp3740
g73
(dp3741
sg82
g3426
sg75
(lp3742
g68
(g89
g70
NtRp3743
(dp3744
g73
(dp3745
g93
g94
ssg82
g3739
sg75
(lp3746
S'last_query'
p3747
asbag68
(g89
g70
NtRp3748
(dp3749
g73
(dp3750
g100
g101
ssg82
g3739
sg75
(lp3751
S':'
asbag68
(g89
g70
NtRp3752
(dp3753
g73
(dp3754
sg82
g3739
sg75
(lp3755
g68
(g69
g70
NtRp3756
(dp3757
g73
(dp3758
g81
I5
ssg82
g3752
sg75
(lp3759
S'db.quote.publications_id==1'
p3760
asbasbasbasbasbsS'etype'
p3761
S"<type 'exceptions.SyntaxError'>"
p3762
sS'date'
p3763
S'Thu Jan 12 13:21:17 2012'
p3764
sS'response'
p3765
g68
(g69
g70
NtRp3766
(dp3767
g73
(dp3768
sg75
(lp3769
g68
(g77
g70
NtRp3770
(dp3771
g73
(dp3772
g81
I5
ssg82
Nsg75
(lp3773
g68
(g84
g70
NtRp3774
(dp3775
g73
(dp3776
sg82
g3770
sg75
(lp3777
g68
(g89
g70
NtRp3778
(dp3779
g73
(dp3780
g93
g94
ssg82
g3774
sg75
(lp3781
g191
asbag68
(g89
g70
NtRp3782
(dp3783
g73
(dp3784
g100
g101
ssg82
g3774
sg75
(lp3785
S':'
asbag68
(g89
g70
NtRp3786
(dp3787
g73
(dp3788
sg82
g3774
sg75
(lp3789
g68
(g69
g70
NtRp3790
(dp3791
g73
(dp3792
g81
I5
ssg82
g3786
sg75
(lp3793
S'<cStringIO.StringO object at 0x3997730>'
p3794
asbasbasbag68
(g84
g70
NtRp3795
(dp3796
g73
(dp3797
sg82
g3770
sg75
(lp3798
g68
(g89
g70
NtRp3799
(dp3800
g73
(dp3801
g93
g94
ssg82
g3795
sg75
(lp3802
g257
asbag68
(g89
g70
NtRp3803
(dp3804
g73
(dp3805
g100
g101
ssg82
g3795
sg75
(lp3806
S':'
asbag68
(g89
g70
NtRp3807
(dp3808
g73
(dp3809
sg82
g3795
sg75
(lp3810
g68
(g69
g70
NtRp3811
(dp3812
g73
(dp3813
g81
I5
ssg82
g3807
sg75
(lp3814
g68
(g77
g70
NtRp3815
(dp3816
g73
(dp3817
g81
I4
ssg82
Nsg75
(lp3818
g68
(g84
g70
NtRp3819
(dp3820
g73
(dp3821
sg82
g3815
sg75
(lp3822
g68
(g89
g70
NtRp3823
(dp3824
g73
(dp3825
g93
g94
ssg82
g3819
sg75
(lp3826
S'session_id_synopsis'
p3827
asbag68
(g89
g70
NtRp3828
(dp3829
g73
(dp3830
g100
g101
ssg82
g3819
sg75
(lp3831
S':'
asbag68
(g89
g70
NtRp3832
(dp3833
g73
(dp3834
sg82
g3819
sg75
(lp3835
g68
(g69
g70
NtRp3836
(dp3837
g73
(dp3838
g81
I4
ssg82
g3832
sg75
(lp3839
g68
(g77
g70
NtRp3840
(dp3841
g73
(dp3842
g81
I3
ssg82
Nsg75
(lp3843
g68
(g84
g70
NtRp3844
(dp3845
g73
(dp3846
sg82
g3840
sg75
(lp3847
g68
(g89
g70
NtRp3848
(dp3849
g73
(dp3850
g93
g94
ssg82
g3844
sg75
(lp3851
g307
asbag68
(g89
g70
NtRp3852
(dp3853
g73
(dp3854
g100
g101
ssg82
g3844
sg75
(lp3855
S':'
asbag68
(g89
g70
NtRp3856
(dp3857
g73
(dp3858
sg82
g3844
sg75
(lp3859
g68
(g69
g70
NtRp3860
(dp3861
g73
(dp3862
g81
I3
ssg82
g3856
sg75
(lp3863
S''
asbasbasbag68
(g84
g70
NtRp3864
(dp3865
g73
(dp3866
sg82
g3840
sg75
(lp3867
g68
(g89
g70
NtRp3868
(dp3869
g73
(dp3870
g93
g94
ssg82
g3864
sg75
(lp3871
g328
asbag68
(g89
g70
NtRp3872
(dp3873
g73
(dp3874
g100
g101
ssg82
g3864
sg75
(lp3875
S':'
asbag68
(g89
g70
NtRp3876
(dp3877
g73
(dp3878
sg82
g3864
sg75
(lp3879
g68
(g69
g70
NtRp3880
(dp3881
g73
(dp3882
g81
I3
ssg82
g3876
sg75
(lp3883
S''
asbasbasbag68
(g84
g70
NtRp3884
(dp3885
g73
(dp3886
sg82
g3840
sg75
(lp3887
g68
(g89
g70
NtRp3888
(dp3889
g73
(dp3890
g93
g94
ssg82
g3884
sg75
(lp3891
g349
asbag68
(g89
g70
NtRp3892
(dp3893
g73
(dp3894
g100
g101
ssg82
g3884
sg75
(lp3895
S':'
asbag68
(g89
g70
NtRp3896
(dp3897
g73
(dp3898
sg82
g3884
sg75
(lp3899
g68
(g69
g70
NtRp3900
(dp3901
g73
(dp3902
g81
I3
ssg82
g3896
sg75
(lp3903
S''
asbasbasbag68
(g84
g70
NtRp3904
(dp3905
g73
(dp3906
sg82
g3840
sg75
(lp3907
g68
(g89
g70
NtRp3908
(dp3909
g73
(dp3910
g93
g94
ssg82
g3904
sg75
(lp3911
g370
asbag68
(g89
g70
NtRp3912
(dp3913
g73
(dp3914
g100
g101
ssg82
g3904
sg75
(lp3915
S':'
asbag68
(g89
g70
NtRp3916
(dp3917
g73
(dp3918
sg82
g3904
sg75
(lp3919
g68
(g69
g70
NtRp3920
(dp3921
g73
(dp3922
g81
I3
ssg82
g3916
sg75
(lp3923
S''
asbasbasbag68
(g84
g70
NtRp3924
(dp3925
g73
(dp3926
sg82
g3840
sg75
(lp3927
g68
(g89
g70
NtRp3928
(dp3929
g73
(dp3930
g93
g94
ssg82
g3924
sg75
(lp3931
g391
asbag68
(g89
g70
NtRp3932
(dp3933
g73
(dp3934
g100
g101
ssg82
g3924
sg75
(lp3935
S':'
asbag68
(g89
g70
NtRp3936
(dp3937
g73
(dp3938
sg82
g3924
sg75
(lp3939
g68
(g69
g70
NtRp3940
(dp3941
g73
(dp3942
g81
I3
ssg82
g3936
sg75
(lp3943
S''
asbasbasbag68
(g84
g70
NtRp3944
(dp3945
g73
(dp3946
sg82
g3840
sg75
(lp3947
g68
(g89
g70
NtRp3948
(dp3949
g73
(dp3950
g93
g94
ssg82
g3944
sg75
(lp3951
g412
asbag68
(g89
g70
NtRp3952
(dp3953
g73
(dp3954
g100
g101
ssg82
g3944
sg75
(lp3955
S':'
asbag68
(g89
g70
NtRp3956
(dp3957
g73
(dp3958
sg82
g3944
sg75
(lp3959
g68
(g69
g70
NtRp3960
(dp3961
g73
(dp3962
g81
I3
ssg82
g3956
sg75
(lp3963
S'/'
asbasbasbag68
(g84
g70
NtRp3964
(dp3965
g73
(dp3966
sg82
g3840
sg75
(lp3967
g68
(g89
g70
NtRp3968
(dp3969
g73
(dp3970
g93
g94
ssg82
g3964
sg75
(lp3971
g433
asbag68
(g89
g70
NtRp3972
(dp3973
g73
(dp3974
g100
g101
ssg82
g3964
sg75
(lp3975
S':'
asbag68
(g89
g70
NtRp3976
(dp3977
g73
(dp3978
sg82
g3964
sg75
(lp3979
g68
(g69
g70
NtRp3980
(dp3981
g73
(dp3982
g81
I3
ssg82
g3976
sg75
(lp3983
S''
asbasbasbag68
(g84
g70
NtRp3984
(dp3985
g73
(dp3986
sg82
g3840
sg75
(lp3987
g68
(g89
g70
NtRp3988
(dp3989
g73
(dp3990
g93
g94
ssg82
g3984
sg75
(lp3991
g454
asbag68
(g89
g70
NtRp3992
(dp3993
g73
(dp3994
g100
g101
ssg82
g3984
sg75
(lp3995
S':'
asbag68
(g89
g70
NtRp3996
(dp3997
g73
(dp3998
sg82
g3984
sg75
(lp3999
g68
(g69
g70
NtRp4000
(dp4001
g73
(dp4002
g81
I3
ssg82
g3996
sg75
(lp4003
S''
asbasbasbasbasbasbasbasbasbasbasbag68
(g84
g70
NtRp4004
(dp4005
g73
(dp4006
sg82
g3770
sg75
(lp4007
g68
(g89
g70
NtRp4008
(dp4009
g73
(dp4010
g93
g94
ssg82
g4004
sg75
(lp4011
S'files'
p4012
asbag68
(g89
g70
NtRp4013
(dp4014
g73
(dp4015
g100
g101
ssg82
g4004
sg75
(lp4016
S':'
asbag68
(g89
g70
NtRp4017
(dp4018
g73
(dp4019
sg82
g4004
sg75
(lp4020
g68
(g69
g70
NtRp4021
(dp4022
g73
(dp4023
g81
I5
ssg82
g4017
sg75
(lp4024
g68
(g77
g70
NtRp4025
(dp4026
g73
(dp4027
g81
I4
ssg82
Nsg75
(lp4028
sbasbasbasbag68
(g84
g70
NtRp4029
(dp4030
g73
(dp4031
sg82
g3770
sg75
(lp4032
g68
(g89
g70
NtRp4033
(dp4034
g73
(dp4035
g93
g94
ssg82
g4029
sg75
(lp4036
S'flash'
p4037
asbag68
(g89
g70
NtRp4038
(dp4039
g73
(dp4040
g100
g101
ssg82
g4029
sg75
(lp4041
S':'
asbag68
(g89
g70
NtRp4042
(dp4043
g73
(dp4044
sg82
g4029
sg75
(lp4045
g68
(g69
g70
NtRp4046
(dp4047
g73
(dp4048
g81
I5
ssg82
g4042
sg75
(lp4049
cgluon.languages
lazyT_unpickle
p4050
(S's\x08\x00\x00\x00Success!'
tRp4051
asbasbasbag68
(g84
g70
NtRp4052
(dp4053
g73
(dp4054
sg82
g3770
sg75
(lp4055
g68
(g89
g70
NtRp4056
(dp4057
g73
(dp4058
g93
g94
ssg82
g4052
sg75
(lp4059
S'generic_patterns'
p4060
asbag68
(g89
g70
NtRp4061
(dp4062
g73
(dp4063
g100
g101
ssg82
g4052
sg75
(lp4064
S':'
asbag68
(g89
g70
NtRp4065
(dp4066
g73
(dp4067
sg82
g4052
sg75
(lp4068
g68
(g69
g70
NtRp4069
(dp4070
g73
(dp4071
g81
I5
ssg82
g4065
sg75
(lp4072
g68
(g77
g70
NtRp4073
(dp4074
g73
(dp4075
g81
I4
ssg82
Nsg75
(lp4076
g68
(g84
g70
NtRp4077
(dp4078
g73
(dp4079
sg82
g4073
sg75
(lp4080
g68
(g89
g70
NtRp4081
(dp4082
g73
(dp4083
sg82
g4077
sg75
(lp4084
g68
(g69
g70
NtRp4085
(dp4086
g73
(dp4087
g81
I4
ssg82
g4081
sg75
(lp4088
S'*'
asbasbasbasbasbasbasbag68
(g84
g70
NtRp4089
(dp4090
g73
(dp4091
sg82
g3770
sg75
(lp4092
g68
(g89
g70
NtRp4093
(dp4094
g73
(dp4095
g93
g94
ssg82
g4089
sg75
(lp4096
S'headers'
p4097
asbag68
(g89
g70
NtRp4098
(dp4099
g73
(dp4100
g100
g101
ssg82
g4089
sg75
(lp4101
S':'
asbag68
(g89
g70
NtRp4102
(dp4103
g73
(dp4104
sg82
g4089
sg75
(lp4105
g68
(g69
g70
NtRp4106
(dp4107
g73
(dp4108
g81
I5
ssg82
g4102
sg75
(lp4109
g68
(g77
g70
NtRp4110
(dp4111
g73
(dp4112
g81
I4
ssg82
Nsg75
(lp4113
g68
(g84
g70
NtRp4114
(dp4115
g73
(dp4116
sg82
g4110
sg75
(lp4117
g68
(g89
g70
NtRp4118
(dp4119
g73
(dp4120
g93
g94
ssg82
g4114
sg75
(lp4121
S'Cache-Control'
p4122
asbag68
(g89
g70
NtRp4123
(dp4124
g73
(dp4125
g100
g101
ssg82
g4114
sg75
(lp4126
S':'
asbag68
(g89
g70
NtRp4127
(dp4128
g73
(dp4129
sg82
g4114
sg75
(lp4130
g68
(g69
g70
NtRp4131
(dp4132
g73
(dp4133
g81
I4
ssg82
g4127
sg75
(lp4134
S'no-store, no-cache, must-revalidate, post-check=0, pre-check=0'
p4135
asbasbasbag68
(g84
g70
NtRp4136
(dp4137
g73
(dp4138
sg82
g4110
sg75
(lp4139
g68
(g89
g70
NtRp4140
(dp4141
g73
(dp4142
g93
g94
ssg82
g4136
sg75
(lp4143
S'Content-Type'
p4144
asbag68
(g89
g70
NtRp4145
(dp4146
g73
(dp4147
g100
g101
ssg82
g4136
sg75
(lp4148
S':'
asbag68
(g89
g70
NtRp4149
(dp4150
g73
(dp4151
sg82
g4136
sg75
(lp4152
g68
(g69
g70
NtRp4153
(dp4154
g73
(dp4155
g81
I4
ssg82
g4149
sg75
(lp4156
S'text/html; charset=utf-8'
p4157
asbasbasbag68
(g84
g70
NtRp4158
(dp4159
g73
(dp4160
sg82
g4110
sg75
(lp4161
g68
(g89
g70
NtRp4162
(dp4163
g73
(dp4164
g93
g94
ssg82
g4158
sg75
(lp4165
S'Expires'
p4166
asbag68
(g89
g70
NtRp4167
(dp4168
g73
(dp4169
g100
g101
ssg82
g4158
sg75
(lp4170
S':'
asbag68
(g89
g70
NtRp4171
(dp4172
g73
(dp4173
sg82
g4158
sg75
(lp4174
g68
(g69
g70
NtRp4175
(dp4176
g73
(dp4177
g81
I4
ssg82
g4171
sg75
(lp4178
S'Thu, 12 Jan 2012 15:21:17 GMT'
p4179
asbasbasbag68
(g84
g70
NtRp4180
(dp4181
g73
(dp4182
sg82
g4110
sg75
(lp4183
g68
(g89
g70
NtRp4184
(dp4185
g73
(dp4186
g93
g94
ssg82
g4180
sg75
(lp4187
S'Pragma'
p4188
asbag68
(g89
g70
NtRp4189
(dp4190
g73
(dp4191
g100
g101
ssg82
g4180
sg75
(lp4192
S':'
asbag68
(g89
g70
NtRp4193
(dp4194
g73
(dp4195
sg82
g4180
sg75
(lp4196
g68
(g69
g70
NtRp4197
(dp4198
g73
(dp4199
g81
I4
ssg82
g4193
sg75
(lp4200
S'no-cache'
p4201
asbasbasbag68
(g84
g70
NtRp4202
(dp4203
g73
(dp4204
sg82
g4110
sg75
(lp4205
g68
(g89
g70
NtRp4206
(dp4207
g73
(dp4208
g93
g94
ssg82
g4202
sg75
(lp4209
S'X-Powered-By'
p4210
asbag68
(g89
g70
NtRp4211
(dp4212
g73
(dp4213
g100
g101
ssg82
g4202
sg75
(lp4214
S':'
asbag68
(g89
g70
NtRp4215
(dp4216
g73
(dp4217
sg82
g4202
sg75
(lp4218
g68
(g69
g70
NtRp4219
(dp4220
g73
(dp4221
g81
I4
ssg82
g4215
sg75
(lp4222
S'web2py'
p4223
asbasbasbasbasbasbasbag68
(g84
g70
NtRp4224
(dp4225
g73
(dp4226
sg82
g3770
sg75
(lp4227
g68
(g89
g70
NtRp4228
(dp4229
g73
(dp4230
g93
g94
ssg82
g4224
sg75
(lp4231
S'menu'
p4232
asbag68
(g89
g70
NtRp4233
(dp4234
g73
(dp4235
g100
g101
ssg82
g4224
sg75
(lp4236
S':'
asbag68
(g89
g70
NtRp4237
(dp4238
g73
(dp4239
sg82
g4224
sg75
(lp4240
g68
(g69
g70
NtRp4241
(dp4242
g73
(dp4243
g81
I5
ssg82
g4237
sg75
(lp4244
g68
(g77
g70
NtRp4245
(dp4246
g73
(dp4247
g81
I4
ssg82
Nsg75
(lp4248
g68
(g84
g70
NtRp4249
(dp4250
g73
(dp4251
sg82
g4245
sg75
(lp4252
g68
(g89
g70
NtRp4253
(dp4254
g73
(dp4255
sg82
g4249
sg75
(lp4256
g68
(g69
g70
NtRp4257
(dp4258
g73
(dp4259
g81
I4
ssg82
g4253
sg75
(lp4260
g68
(g77
g70
NtRp4261
(dp4262
g73
(dp4263
g81
I3
ssg82
Nsg75
(lp4264
g68
(g84
g70
NtRp4265
(dp4266
g73
(dp4267
sg82
g4261
sg75
(lp4268
g68
(g89
g70
NtRp4269
(dp4270
g73
(dp4271
sg82
g4265
sg75
(lp4272
g68
(g69
g70
NtRp4273
(dp4274
g73
(dp4275
g81
I3
ssg82
g4269
sg75
(lp4276
g4050
(S't\x04\x00\x00\x00Home'
tRp4277
asbasbasbag68
(g84
g70
NtRp4278
(dp4279
g73
(dp4280
sg82
g4261
sg75
(lp4281
g68
(g89
g70
NtRp4282
(dp4283
g73
(dp4284
sg82
g4278
sg75
(lp4285
g68
(g69
g70
NtRp4286
(dp4287
g73
(dp4288
g81
I3
ssg82
g4282
sg75
(lp4289
g111
asbasbasbag68
(g84
g70
NtRp4290
(dp4291
g73
(dp4292
sg82
g4261
sg75
(lp4293
g68
(g89
g70
NtRp4294
(dp4295
g73
(dp4296
sg82
g4290
sg75
(lp4297
g68
(g69
g70
NtRp4298
(dp4299
g73
(dp4300
g81
I3
ssg82
g4294
sg75
(lp4301
S'/synopsis/default/index'
p4302
asbasbasbag68
(g84
g70
NtRp4303
(dp4304
g73
(dp4305
sg82
g4261
sg75
(lp4306
g68
(g89
g70
NtRp4307
(dp4308
g73
(dp4309
sg82
g4303
sg75
(lp4310
g68
(g69
g70
NtRp4311
(dp4312
g73
(dp4313
g81
I3
ssg82
g4307
sg75
(lp4314
g68
(g77
g70
NtRp4315
(dp4316
g73
(dp4317
g81
I2
ssg82
Nsg75
(lp4318
sbasbasbasbasbasbasbasbag68
(g84
g70
NtRp4319
(dp4320
g73
(dp4321
sg82
g4245
sg75
(lp4322
g68
(g89
g70
NtRp4323
(dp4324
g73
(dp4325
sg82
g4319
sg75
(lp4326
g68
(g69
g70
NtRp4327
(dp4328
g73
(dp4329
g81
I4
ssg82
g4323
sg75
(lp4330
g68
(g77
g70
NtRp4331
(dp4332
g73
(dp4333
g81
I3
ssg82
Nsg75
(lp4334
g68
(g84
g70
NtRp4335
(dp4336
g73
(dp4337
sg82
g4331
sg75
(lp4338
g68
(g89
g70
NtRp4339
(dp4340
g73
(dp4341
sg82
g4335
sg75
(lp4342
g68
(g69
g70
NtRp4343
(dp4344
g73
(dp4345
g81
I3
ssg82
g4339
sg75
(lp4346
g4050
(S't\x0b\x00\x00\x00Information'
tRp4347
asbasbasbag68
(g84
g70
NtRp4348
(dp4349
g73
(dp4350
sg82
g4331
sg75
(lp4351
g68
(g89
g70
NtRp4352
(dp4353
g73
(dp4354
sg82
g4348
sg75
(lp4355
g68
(g69
g70
NtRp4356
(dp4357
g73
(dp4358
g81
I3
ssg82
g4352
sg75
(lp4359
g111
asbasbasbag68
(g84
g70
NtRp4360
(dp4361
g73
(dp4362
sg82
g4331
sg75
(lp4363
g68
(g89
g70
NtRp4364
(dp4365
g73
(dp4366
sg82
g4360
sg75
(lp4367
g68
(g69
g70
NtRp4368
(dp4369
g73
(dp4370
g81
I3
ssg82
g4364
sg75
(lp4371
S'/synopsis/information/index'
p4372
asbasbasbag68
(g84
g70
NtRp4373
(dp4374
g73
(dp4375
sg82
g4331
sg75
(lp4376
g68
(g89
g70
NtRp4377
(dp4378
g73
(dp4379
sg82
g4373
sg75
(lp4380
g68
(g69
g70
NtRp4381
(dp4382
g73
(dp4383
g81
I3
ssg82
g4377
sg75
(lp4384
g68
(g77
g70
NtRp4385
(dp4386
g73
(dp4387
g81
I2
ssg82
Nsg75
(lp4388
sbasbasbasbasbasbasbasbag68
(g84
g70
NtRp4389
(dp4390
g73
(dp4391
sg82
g4245
sg75
(lp4392
g68
(g89
g70
NtRp4393
(dp4394
g73
(dp4395
sg82
g4389
sg75
(lp4396
g68
(g69
g70
NtRp4397
(dp4398
g73
(dp4399
g81
I4
ssg82
g4393
sg75
(lp4400
g68
(g77
g70
NtRp4401
(dp4402
g73
(dp4403
g81
I3
ssg82
Nsg75
(lp4404
g68
(g84
g70
NtRp4405
(dp4406
g73
(dp4407
sg82
g4401
sg75
(lp4408
g68
(g89
g70
NtRp4409
(dp4410
g73
(dp4411
sg82
g4405
sg75
(lp4412
g68
(g69
g70
NtRp4413
(dp4414
g73
(dp4415
g81
I3
ssg82
g4409
sg75
(lp4416
g4050
(S't\x05\x00\x00\x00About'
tRp4417
asbasbasbag68
(g84
g70
NtRp4418
(dp4419
g73
(dp4420
sg82
g4401
sg75
(lp4421
g68
(g89
g70
NtRp4422
(dp4423
g73
(dp4424
sg82
g4418
sg75
(lp4425
g68
(g69
g70
NtRp4426
(dp4427
g73
(dp4428
g81
I3
ssg82
g4422
sg75
(lp4429
g111
asbasbasbag68
(g84
g70
NtRp4430
(dp4431
g73
(dp4432
sg82
g4401
sg75
(lp4433
g68
(g89
g70
NtRp4434
(dp4435
g73
(dp4436
sg82
g4430
sg75
(lp4437
g68
(g69
g70
NtRp4438
(dp4439
g73
(dp4440
g81
I3
ssg82
g4434
sg75
(lp4441
S'/synopsis/about/index'
p4442
asbasbasbag68
(g84
g70
NtRp4443
(dp4444
g73
(dp4445
sg82
g4401
sg75
(lp4446
g68
(g89
g70
NtRp4447
(dp4448
g73
(dp4449
sg82
g4443
sg75
(lp4450
g68
(g69
g70
NtRp4451
(dp4452
g73
(dp4453
g81
I3
ssg82
g4447
sg75
(lp4454
g68
(g77
g70
NtRp4455
(dp4456
g73
(dp4457
g81
I2
ssg82
Nsg75
(lp4458
sbasbasbasbasbasbasbasbasbasbasbasbag68
(g84
g70
NtRp4459
(dp4460
g73
(dp4461
sg82
g3770
sg75
(lp4462
g68
(g89
g70
NtRp4463
(dp4464
g73
(dp4465
g93
g94
ssg82
g4459
sg75
(lp4466
S'meta'
p4467
asbag68
(g89
g70
NtRp4468
(dp4469
g73
(dp4470
g100
g101
ssg82
g4459
sg75
(lp4471
S':'
asbag68
(g89
g70
NtRp4472
(dp4473
g73
(dp4474
sg82
g4459
sg75
(lp4475
g68
(g69
g70
NtRp4476
(dp4477
g73
(dp4478
g81
I5
ssg82
g4472
sg75
(lp4479
g68
(g77
g70
NtRp4480
(dp4481
g73
(dp4482
g81
I4
ssg82
Nsg75
(lp4483
g68
(g84
g70
NtRp4484
(dp4485
g73
(dp4486
sg82
g4480
sg75
(lp4487
g68
(g89
g70
NtRp4488
(dp4489
g73
(dp4490
g93
g94
ssg82
g4484
sg75
(lp4491
S'author'
p4492
asbag68
(g89
g70
NtRp4493
(dp4494
g73
(dp4495
g100
g101
ssg82
g4484
sg75
(lp4496
S':'
asbag68
(g89
g70
NtRp4497
(dp4498
g73
(dp4499
sg82
g4484
sg75
(lp4500
g68
(g69
g70
NtRp4501
(dp4502
g73
(dp4503
g81
I4
ssg82
g4497
sg75
(lp4504
S'Your Name <you@example.com>'
p4505
asbasbasbag68
(g84
g70
NtRp4506
(dp4507
g73
(dp4508
sg82
g4480
sg75
(lp4509
g68
(g89
g70
NtRp4510
(dp4511
g73
(dp4512
g93
g94
ssg82
g4506
sg75
(lp4513
S'copyright'
p4514
asbag68
(g89
g70
NtRp4515
(dp4516
g73
(dp4517
g100
g101
ssg82
g4506
sg75
(lp4518
S':'
asbag68
(g89
g70
NtRp4519
(dp4520
g73
(dp4521
sg82
g4506
sg75
(lp4522
g68
(g69
g70
NtRp4523
(dp4524
g73
(dp4525
g81
I4
ssg82
g4519
sg75
(lp4526
S'Copyright 2011'
p4527
asbasbasbag68
(g84
g70
NtRp4528
(dp4529
g73
(dp4530
sg82
g4480
sg75
(lp4531
g68
(g89
g70
NtRp4532
(dp4533
g73
(dp4534
g93
g94
ssg82
g4528
sg75
(lp4535
S'description'
p4536
asbag68
(g89
g70
NtRp4537
(dp4538
g73
(dp4539
g100
g101
ssg82
g4528
sg75
(lp4540
S':'
asbag68
(g89
g70
NtRp4541
(dp4542
g73
(dp4543
sg82
g4528
sg75
(lp4544
g68
(g69
g70
NtRp4545
(dp4546
g73
(dp4547
g81
I4
ssg82
g4541
sg75
(lp4548
S'a cool new app'
p4549
asbasbasbag68
(g84
g70
NtRp4550
(dp4551
g73
(dp4552
sg82
g4480
sg75
(lp4553
g68
(g89
g70
NtRp4554
(dp4555
g73
(dp4556
g93
g94
ssg82
g4550
sg75
(lp4557
S'generator'
p4558
asbag68
(g89
g70
NtRp4559
(dp4560
g73
(dp4561
g100
g101
ssg82
g4550
sg75
(lp4562
S':'
asbag68
(g89
g70
NtRp4563
(dp4564
g73
(dp4565
sg82
g4550
sg75
(lp4566
g68
(g69
g70
NtRp4567
(dp4568
g73
(dp4569
g81
I4
ssg82
g4563
sg75
(lp4570
S'Web2py Web Framework'
p4571
asbasbasbag68
(g84
g70
NtRp4572
(dp4573
g73
(dp4574
sg82
g4480
sg75
(lp4575
g68
(g89
g70
NtRp4576
(dp4577
g73
(dp4578
g93
g94
ssg82
g4572
sg75
(lp4579
S'keywords'
p4580
asbag68
(g89
g70
NtRp4581
(dp4582
g73
(dp4583
g100
g101
ssg82
g4572
sg75
(lp4584
S':'
asbag68
(g89
g70
NtRp4585
(dp4586
g73
(dp4587
sg82
g4572
sg75
(lp4588
g68
(g69
g70
NtRp4589
(dp4590
g73
(dp4591
g81
I4
ssg82
g4585
sg75
(lp4592
S'web2py, python, framework'
p4593
asbasbasbasbasbasbasbag68
(g84
g70
NtRp4594
(dp4595
g73
(dp4596
sg82
g3770
sg75
(lp4597
g68
(g89
g70
NtRp4598
(dp4599
g73
(dp4600
g93
g94
ssg82
g4594
sg75
(lp4601
S'postprocessing'
p4602
asbag68
(g89
g70
NtRp4603
(dp4604
g73
(dp4605
g100
g101
ssg82
g4594
sg75
(lp4606
S':'
asbag68
(g89
g70
NtRp4607
(dp4608
g73
(dp4609
sg82
g4594
sg75
(lp4610
g68
(g69
g70
NtRp4611
(dp4612
g73
(dp4613
g81
I5
ssg82
g4607
sg75
(lp4614
g68
(g77
g70
NtRp4615
(dp4616
g73
(dp4617
g81
I4
ssg82
Nsg75
(lp4618
sbasbasbasbag68
(g84
g70
NtRp4619
(dp4620
g73
(dp4621
sg82
g3770
sg75
(lp4622
g68
(g89
g70
NtRp4623
(dp4624
g73
(dp4625
g93
g94
ssg82
g4619
sg75
(lp4626
S'session_file'
p4627
asbag68
(g89
g70
NtRp4628
(dp4629
g73
(dp4630
g100
g101
ssg82
g4619
sg75
(lp4631
S':'
asbag68
(g89
g70
NtRp4632
(dp4633
g73
(dp4634
sg82
g4619
sg75
(lp4635
g68
(g69
g70
NtRp4636
(dp4637
g73
(dp4638
g81
I5
ssg82
g4632
sg75
(lp4639
S"<open file '/home/kaique/Projects/web2py/applications/synopsis/sessions/127.0.0.1-351efa91-66d9-4ca2-9c53-1a2177b18dc7', mode 'rb+' at 0x3f9ae40>"
p4640
asbasbasbag68
(g84
g70
NtRp4641
(dp4642
g73
(dp4643
sg82
g3770
sg75
(lp4644
g68
(g89
g70
NtRp4645
(dp4646
g73
(dp4647
g93
g94
ssg82
g4641
sg75
(lp4648
S'session_filename'
p4649
asbag68
(g89
g70
NtRp4650
(dp4651
g73
(dp4652
g100
g101
ssg82
g4641
sg75
(lp4653
S':'
asbag68
(g89
g70
NtRp4654
(dp4655
g73
(dp4656
sg82
g4641
sg75
(lp4657
g68
(g69
g70
NtRp4658
(dp4659
g73
(dp4660
g81
I5
ssg82
g4654
sg75
(lp4661
S'/home/kaique/Projects/web2py/applications/synopsis/sessions/127.0.0.1-351efa91-66d9-4ca2-9c53-1a2177b18dc7'
p4662
asbasbasbag68
(g84
g70
NtRp4663
(dp4664
g73
(dp4665
sg82
g3770
sg75
(lp4666
g68
(g89
g70
NtRp4667
(dp4668
g73
(dp4669
g93
g94
ssg82
g4663
sg75
(lp4670
S'session_id'
p4671
asbag68
(g89
g70
NtRp4672
(dp4673
g73
(dp4674
g100
g101
ssg82
g4663
sg75
(lp4675
S':'
asbag68
(g89
g70
NtRp4676
(dp4677
g73
(dp4678
sg82
g4663
sg75
(lp4679
g68
(g69
g70
NtRp4680
(dp4681
g73
(dp4682
g81
I5
ssg82
g4676
sg75
(lp4683
S'127.0.0.1-351efa91-66d9-4ca2-9c53-1a2177b18dc7'
p4684
asbasbasbag68
(g84
g70
NtRp4685
(dp4686
g73
(dp4687
sg82
g3770
sg75
(lp4688
g68
(g89
g70
NtRp4689
(dp4690
g73
(dp4691
g93
g94
ssg82
g4685
sg75
(lp4692
S'session_id_name'
p4693
asbag68
(g89
g70
NtRp4694
(dp4695
g73
(dp4696
g100
g101
ssg82
g4685
sg75
(lp4697
S':'
asbag68
(g89
g70
NtRp4698
(dp4699
g73
(dp4700
sg82
g4685
sg75
(lp4701
g68
(g69
g70
NtRp4702
(dp4703
g73
(dp4704
g81
I5
ssg82
g4698
sg75
(lp4705
g3827
asbasbasbag68
(g84
g70
NtRp4706
(dp4707
g73
(dp4708
sg82
g3770
sg75
(lp4709
g68
(g89
g70
NtRp4710
(dp4711
g73
(dp4712
g93
g94
ssg82
g4706
sg75
(lp4713
S'session_locked'
p4714
asbag68
(g89
g70
NtRp4715
(dp4716
g73
(dp4717
g100
g101
ssg82
g4706
sg75
(lp4718
S':'
asbag68
(g89
g70
NtRp4719
(dp4720
g73
(dp4721
sg82
g4706
sg75
(lp4722
g68
(g69
g70
NtRp4723
(dp4724
g73
(dp4725
g81
I5
ssg82
g4719
sg75
(lp4726
g1779
asbasbasbag68
(g84
g70
NtRp4727
(dp4728
g73
(dp4729
sg82
g3770
sg75
(lp4730
g68
(g89
g70
NtRp4731
(dp4732
g73
(dp4733
g93
g94
ssg82
g4727
sg75
(lp4734
S'session_new'
p4735
asbag68
(g89
g70
NtRp4736
(dp4737
g73
(dp4738
g100
g101
ssg82
g4727
sg75
(lp4739
S':'
asbag68
(g89
g70
NtRp4740
(dp4741
g73
(dp4742
sg82
g4727
sg75
(lp4743
g68
(g69
g70
NtRp4744
(dp4745
g73
(dp4746
g81
I5
ssg82
g4740
sg75
(lp4747
g111
asbasbasbag68
(g84
g70
NtRp4748
(dp4749
g73
(dp4750
sg82
g3770
sg75
(lp4751
g68
(g89
g70
NtRp4752
(dp4753
g73
(dp4754
g93
g94
ssg82
g4748
sg75
(lp4755
S'status'
p4756
asbag68
(g89
g70
NtRp4757
(dp4758
g73
(dp4759
g100
g101
ssg82
g4748
sg75
(lp4760
S':'
asbag68
(g89
g70
NtRp4761
(dp4762
g73
(dp4763
sg82
g4748
sg75
(lp4764
g68
(g69
g70
NtRp4765
(dp4766
g73
(dp4767
g81
I5
ssg82
g4761
sg75
(lp4768
S'200'
p4769
asbasbasbag68
(g84
g70
NtRp4770
(dp4771
g73
(dp4772
sg82
g3770
sg75
(lp4773
g68
(g89
g70
NtRp4774
(dp4775
g73
(dp4776
g93
g94
ssg82
g4770
sg75
(lp4777
S'subtitle'
p4778
asbag68
(g89
g70
NtRp4779
(dp4780
g73
(dp4781
g100
g101
ssg82
g4770
sg75
(lp4782
S':'
asbag68
(g89
g70
NtRp4783
(dp4784
g73
(dp4785
sg82
g4770
sg75
(lp4786
g68
(g69
g70
NtRp4787
(dp4788
g73
(dp4789
g81
I5
ssg82
g4783
sg75
(lp4790
g4050
(S's\x0f\x00\x00\x00Personalize-me!'
tRp4791
asbasbasbag68
(g84
g70
NtRp4792
(dp4793
g73
(dp4794
sg82
g3770
sg75
(lp4795
g68
(g89
g70
NtRp4796
(dp4797
g73
(dp4798
g93
g94
ssg82
g4792
sg75
(lp4799
S'title'
p4800
asbag68
(g89
g70
NtRp4801
(dp4802
g73
(dp4803
g100
g101
ssg82
g4792
sg75
(lp4804
S':'
asbag68
(g89
g70
NtRp4805
(dp4806
g73
(dp4807
sg82
g4792
sg75
(lp4808
g68
(g69
g70
NtRp4809
(dp4810
g73
(dp4811
g81
I5
ssg82
g4805
sg75
(lp4812
g133
asbasbasbag68
(g84
g70
NtRp4813
(dp4814
g73
(dp4815
sg82
g3770
sg75
(lp4816
g68
(g89
g70
NtRp4817
(dp4818
g73
(dp4819
g93
g94
ssg82
g4813
sg75
(lp4820
g2488
asbag68
(g89
g70
NtRp4821
(dp4822
g73
(dp4823
g100
g101
ssg82
g4813
sg75
(lp4824
S':'
asbag68
(g89
g70
NtRp4825
(dp4826
g73
(dp4827
sg82
g4813
sg75
(lp4828
g68
(g69
g70
NtRp4829
(dp4830
g73
(dp4831
g81
I5
ssg82
g4825
sg75
(lp4832
g2501
asbasbasbag68
(g84
g70
NtRp4833
(dp4834
g73
(dp4835
sg82
g3770
sg75
(lp4836
g68
(g89
g70
NtRp4837
(dp4838
g73
(dp4839
g93
g94
ssg82
g4833
sg75
(lp4840
S'view'
p4841
asbag68
(g89
g70
NtRp4842
(dp4843
g73
(dp4844
g100
g101
ssg82
g4833
sg75
(lp4845
S':'
asbag68
(g89
g70
NtRp4846
(dp4847
g73
(dp4848
sg82
g4833
sg75
(lp4849
g68
(g69
g70
NtRp4850
(dp4851
g73
(dp4852
g81
I5
ssg82
g4846
sg75
(lp4853
S'information/new.html'
p4854
asbasbasbasbasbsS'locals'
p4855
(dp4856
S'name'
p4857
S"'subject_id'"
p4858
sS'fields'
p4859
S"{'subject_id': '2'}"
p4860
sS'self'
p4861
S"<Table {'ALL': <gluon.dal.SQLALL object at 0x3c5...0>, 'id': <gluon.dal.Field object at 0x3c5f690>}>"
p4862
sS'update'
p4863
g111
sS'new_fields_names'
p4864
S"['subject_id']"
p4865
sS'ofield'
p4866
S'<gluon.dal.Field object>'
p4867
sS'new_fields'
p4868
S"[(<gluon.dal.Field object>, '2'), (<gluon.dal.Field object>, datetime.datetime(2012, 1, 12, 13, 21, 17, 5388)), (<gluon.dal.Field object>, 1), (<gluon.dal.Field object>, datetime.datetime(2012, 1, 12, 13, 21, 17, 5388)), (<gluon.dal.Field object>, 1)]"
p4869
sssS'traceback'
p4870
S'Traceback (most recent call last):\n  File "/home/kaique/Projects/web2py/gluon/restricted.py", line 194, in restricted\n    exec ccode in environment\n  File "/home/kaique/Projects/web2py/applications/synopsis/controllers/information.py", line 63, in <module>\n  File "/home/kaique/Projects/web2py/gluon/globals.py", line 149, in <lambda>\n    self._caller = lambda f: f()\n  File "/home/kaique/Projects/web2py/gluon/tools.py", line 2456, in f\n    return action(*a, **b)\n  File "/home/kaique/Projects/web2py/applications/synopsis/controllers/information.py", line 49, in new\n    db.publication.insert(subject_id = args[1])\n  File "/home/kaique/Projects/web2py/gluon/dal.py", line 4976, in insert\n    return self._db._adapter.insert(self,self._listify(fields))\n  File "/home/kaique/Projects/web2py/gluon/dal.py", line 4969, in _listify\n    raise SyntaxError,\'Table: missing required field: %s\' % ofield.name\nSyntaxError: Table: missing required field: title\n'
p4871
s.