(dp1
S'output'
p2
S''
sS'layer'
p3
S'/home/kaique/Projects/web2py/applications/synopsis/views/information/publication.html'
p4
sS'code'
p5
S'response.write(\'<!DOCTYPE html>\\n<html lang="\', escape=False)\nresponse.write(T.accepted_language or \'en\')\nresponse.write(\'" class="no-js"><!-- no-js need it for modernzr -->\\n  <head>\\n    \\n    <meta charset="utf-8" />        \\n    <!-- www.phpied.com/conditional-comments-block-downloads/ -->\\n    <!--[if IE]>\\n      <!-- Always force latest IE rendering engine \\n       (even in intranet) & Chrome Frame \\n       Remove this if you use the .htaccess -->\\n      <meta http-equiv="X-UA-Compatible" content="IE=edge,chrome=1">\\n    <![endif]-->    \\n\\n    <title>\', escape=False)\nresponse.write(response.title or request.application)\nresponse.write(\'</title>\\n    \\n    <!-- http://dev.w3.org/html5/markup/meta.name.html -->\\n    <meta name="application-name" content="\', escape=False)\nresponse.write(request.application)\nresponse.write(\'" /> \\n    \\n    <!-- Speaking of Google, don\\\'t forget to set your site up: \\n     http://google.com/webmasters -->\\n    <meta name="google-site-verification" content="" />\\n    \\n    <!--  Mobile Viewport Fix\\n      j.mp/mobileviewport & davidbcalhoun.com/2010/viewport-metatag \\n      device-width: Occupy full width of the screen in its current orientation\\n      initial-scale = 1.0 retains dimensions instead of zooming out if page height > device height\\n      maximum-scale = 1.0 retains dimensions instead of zooming in if page width < device width\\n      -->\\n    <meta name="viewport" content="width=device-width, initial-scale=1.0, maximum-scale=1.0">\\n    \\n    <!-- Place favicon.ico and apple-touch-icon.png in the root of your domain and delete these references -->\\n    <link rel="shortcut icon" href="\', escape=False)\nresponse.write(URL(\'static\',\'favicon.ico\'))\nresponse.write(\'" type="image/x-icon">\\n    <link rel="apple-touch-icon" href="\', escape=False)\nresponse.write(URL(\'static\',\'favicon.png\'))\nresponse.write(\'">\\n\\n    <!-- For the less-enabled mobile browsers like Opera Mini -->\\n    <link rel="stylesheet" media="handheld" href="\', escape=False)\nresponse.write(URL(\'static\',\'css/handheld.css\'))\nresponse.write(\'">\\n    \\n    <!-- All JavaScript at the bottom, except for Modernizr which enables HTML5 elements & feature detects -->\\n    <script src="\', escape=False)\nresponse.write(URL(\'static\',\'js/modernizr-1.7.min.js\'))\nresponse.write(\'"></script>\\n    \\n    \', escape=False)\n#------  require CSS and JS files for this page (read info in base.css) ------\nresponse.write(\'\\n    \', escape=False)\nresponse.files.append(URL(\'static\',\'css/base.css\'))\nresponse.write(\'\\n    \', escape=False)\nresponse.files.append(URL(\'static\',\'css/superfish.css\'))\nresponse.write(\'\\n    \', escape=False)\nresponse.files.append(URL(\'static\',\'js/superfish.js\'))\nresponse.write(\'\\n    \', escape=False)\n#------ include web2py specific js code (jquery, calendar, form stuff) ------\nresponse.write(\'\\n    \', escape=False)\nresponse.files.insert(0,URL(\'static\',\'js/jquery.js\'))\nresponse.files.insert(1,URL(\'static\',\'css/anytime.css\'))\nresponse.files.insert(2,URL(\'static\',\'js/anytime.js\'))\nresponse.include_meta()\nresponse.include_files()\nresponse.write(\'\\n<script type="text/javascript"><!--\\n    // These variables are used by the web2py_ajax_init function in web2py_ajax.js (which is loaded below).\\n    var w2p_ajax_confirm_message = "\', escape=False)\nresponse.write(T(\'Are you sure you want to delete this object?\'))\nresponse.write(\'";\\n    var w2p_ajax_date_format = "\', escape=False)\nresponse.write(T(\'%Y-%m-%d\'))\nresponse.write(\'";\\n    var w2p_ajax_datetime_format = "\', escape=False)\nresponse.write(T(\'%Y-%m-%d %H:%M:%S\'))\nresponse.write(\'";\\n    //--></script>\\n    <script src="\', escape=False)\nresponse.write(URL(\'static\',\'js/web2py_ajax.js\'))\nresponse.write(\'" type="text/javascript"></script>\\n\', escape=False)\nresponse.write(\'\\n\\n    \', escape=False)\n#using sidebars need to know what sidebar you want to use\n#prior of using it, because of static width size of content, you can use\n#left_sidebar, right_sidebar, both or none (False left and right)\nleft_sidebar_enabled = globals().get(\'left_sidebar_enabled\',False)\nright_sidebar_enabled = globals().get(\'right_sidebar_enabled\',False)\nif left_sidebar_enabled and right_sidebar_enabled: width_content=\'63%\'\nelif left_sidebar_enabled != right_sidebar_enabled: width_content=\'740px\'\nelse: width_content=\'100%\'\nif left_sidebar_enabled: left_sidebar_style = \'style="display: block;"\'\nelse: left_sidebar_style = \'style="display: none;"\'\nif right_sidebar_enabled: right_sidebar_style = \'style="display: block;"\'\nelse: right_sidebar_style = \'style="display: none;"\'\nstyle_content = \'style="width: %s"\' % width_content\nresponse.write(\'\\n    \\n    <!-- uncomment here to load jquery-ui -->\\n    \\n    <link rel="stylesheet" href="http://ajax.googleapis.com/ajax/libs/jqueryui/1.8.16/themes/base/jquery-ui.css" type="text/css" media="all" />\\n    <script src="http://ajax.googleapis.com/ajax/libs/jqueryui/1.8.16/jquery-ui.min.js" type="text/javascript"></script>\\n    \\n   <!-- uncomment to load jquery-ui -->\\n    \\n    \\n  </head>\\n  \\n  <!-- paulirish.com/2008/conditional-stylesheets-vs-css-hacks-answer-neither/ -->  \\n  <!--[if lt IE 7 ]> <body class="ie6"> <![endif]-->\\n  <!--[if IE 7 ]>    <body class="ie7"> <![endif]-->\\n  <!--[if IE 8 ]>    <body class="ie8"> <![endif]-->\\n  <!--[if IE 9 ]>    <body class="ie9"> <![endif]-->\\n  <!--[if (gt IE 9)|!(IE)]><!--> <body> <!--<![endif]-->\\n    \\n    <div class="flash">\', escape=False)\nresponse.write(response.flash or \'\')\nresponse.write(\'</div> <!-- notification div -->\\n\\n        \\n\\n    <div id="container">                        \\n      \\n      <div id="wrapper">        \\n      \', escape=False)\ntry:\n    response.write(auth.navbar(action=URL(\'default\',\'user\')))\nexcept:pass\nresponse.write(\'\\n    \\n    <div id="header"> <!-- header and login nav -->\\n      \', escape=False)\nresponse.write(\' <!-- this is default header -->\\n      \\n      <h1>\\n        <span id="appname">\', escape=False)\nresponse.write(request.application.capitalize())\nresponse.write(\'</span>App\\n      </h1>\\n      <div style="clear: both;"></div><!-- Clear the divs -->\\n      \', escape=False)\nresponse.write(\'\\n    </div><!-- header  -->\\n    \\n    <div id="statusbar"><!-- statusbar is menu zone -->\\n      \', escape=False)\nresponse.write(\' <!-- this is default statusbar -->\\n      \', escape=False)\n#------ superfish menu ------\nresponse.write(\'\\n      \', escape=False)\nresponse.write(MENU(response.menu,_class=\'sf-menu\'))\nresponse.write(\'\\n      <script type="text/javascript">\\n        jQuery(document).ready(function(){\\n        jQuery(\\\'ul.sf-menu\\\').superfish();});\\n      </script>\\n\\n      <!-- AddToAny BEGIN -->\\n      <div style="padding: 7px; float:right;" class="a2a_kit a2a_default_style"><a class="a2a_dd" href="http://www.addtoany.com/share_save">Share</a></div><script type="text/javascript" src="http://static.addtoany.com/menu/page.js"></script>\\n      <!-- AddToAny END -->\\n\\n      <div style="clear: both;"></div><!-- Clear the divs -->   \\n      \', escape=False)\nresponse.write(\'               \\n    </div><!-- statusbar -->\\n    \\n    <div id="page"> <!-- Here my central body -->     \\n\\n      \', escape=False)\nif left_sidebar_enabled:\n    response.write(\'\\n          <div id="left_sidebar" \', escape=False)\n    response.write(XML(left_sidebar_style))\n    response.write(\' >\\n            <div style="padding: 4px;">\\n          \', escape=False)\n    response.write(\'Content Left Sidebar\', escape=False)\n    response.write(\'       \\n            </div>\\n          </div><!-- left_sidebar -->\\n      \', escape=False)\n    pass\nresponse.write(\'\\n\\n      <!-- content -->\\n      <div id="content" \', escape=False)\nresponse.write(XML(style_content))\nresponse.write(\' >\\n        \', escape=False)\nresponse.write(\'\\n\\n<div class="content">\\n\\t<section>\\n\\t\\t<article>\\n\\t\\t\\t\', escape=False)\nfor detail in publication:\n    response.write(\'\\n\\t\\t\\t<header>\\n\\t\\t\\t\\t\', escape=False)\n    response.write(A( T(\'Go to publications\'), _href=URL(\'information\', \'profile\', args=[session.index]) ))\n    response.write(\' |\\n\\t\\t\\t\\t\', escape=False)\n    response.write(A(T(\'Insert a new column\'), _href=URL(\'new\', args=[\'column\', request.args[0]]) ))\n    response.write(\'\\n\\t\\t\\t\\t<hr />\\n\\t\\t\\t\\t<h1>\', escape=False)\n    response.write(detail.title)\n    response.write(\'</h1>\\n\\t\\t\\t\\t<h4 style="font-weight: 200;">\', escape=False)\n    if detail.sub_title:\n        response.write(\' \', escape=False)\n        response.write(detail.sub_title)\n        response.write(\' \', escape=False)\n        pass\n    response.write(\'</h4>\\n\\t\\t\\t\\t<hr />\\n\\t\\t\\t</header>\\n\\t\\t\\t<div>\\t\\n\\t\\t\\t\\t<table style="border: 1px solid #ccc; margin: 10px 0 10px;">\\n\\t\\t\\t\\t\\t<thead>\\n\\t\\t\\t\\t\\t\\t<tr>\\n\\t\\t\\t\\t\\t\\t\\t\', escape=False)\n    for column in detail.column.select():\n        response.write(\'\\n\\t\\t\\t\\t\\t\\t\\t\\t<td>\', escape=False)\n        response.write(A(column.title, _href=URL(\'new\', args=[\'row\', column.id])))\n        response.write(\'</td>\\n\\t\\t\\t\\t\\t\\t\\t\', escape=False)\n        pass\n    response.write(\'\\t\\t\\t\\t\\t\\t\\t\\n\\t\\t\\t\\t\\t\\t</tr>\\n\\t\\t\\t\\t\\t</thead>\\n\\t\\t\\t\\t\\t<tbody>\\n\\t\\t\\t\\t\\t\\t\', escape=False)\n    lines = []\n    response.write(\'\\n\\t\\t\\t\\t\\t\\t\', escape=False)\n    ids = []\n    response.write(\'\\n\\t\\t\\t\\t\\t\\t\', escape=False)\n    for column in detail.column.select():\n        response.write(\'\\n\\t\\t\\t\\t\\t\\t\\t\', escape=False)\n        for row in column.row.select():\n            response.write(\'\\n\\t\\t\\t\\t\\t\\t\\t\\t\', escape=False)\n            if not ids:\n                response.write(\'\\n\\t\\t\\t\\t\\t\\t\\t\\t\\t\', escape=False)\n                ids.append(row.id)\n                response.write(\'\\n\\t\\t\\t\\t\\t\\t\\t\\t\\t\', escape=False)\n                lines.append(TR(row.content))\n                response.write(\'\\n\\t\\t\\t\\t\\t\\t\\t\\t\', escape=False)\n            elif row.id in ids:\n                response.write(\'\\n\\t\\t\\t\\t\\t\\t\\t\\t\\t\', escape=False)\n                lines.append(TR(row.content))\n                response.write(\'\\n\\t\\t\\t\\t\\t\\t\\t\\t\', escape=False)\n            elif row.id not in ids:\n                response.write(\'\\n\\t\\t\\t\\t\\t\\t\\t\\t\\t\', escape=False)\n                ids.append(row.id)\n                response.write(\'\\n\\t\\t\\t\\t\\t\\t\\t\\t\\t\', escape=False)\n                lines[ids.index(row.id)].append(TD(row.content))\n                response.write(\'\\n\\t\\t\\t\\t\\t\\t\\t\\t\', escape=False)\n                pass\n            response.write(\'\\n\\t\\t\\t\\t\\t\\t\\t\', escape=False)\n            pass\n        response.write(\'\\n\\t\\t\\t\\t\\t\\t\', escape=False)\n        pass\n    response.write(\'\\n\\t\\t\\t\\t\\t\\t\\n\\t\\t\\t\\t\\t\\t\', escape=False)\n    response.write(lines)\n    response.write(\'\\n\\t\\t\\t\\t\\t</tbody>\\n\\t\\t\\t\\t</table>\\n\\t\\t\\t\\t<div classs="quote">\\n\\t\\t\\t\\t\', escape=False)\n    for quote in detail.quote.select():\n        response.write(\'\\n\\t\\t\\t\\t\\t<p>\', escape=False)\n        response.write(quote.content)\n        response.write(\'</p>\\n\\t\\t\\t\\t\', escape=False)\n        pass\n    response.write(\'\\n\\t\\t\\t\\t</div>\\n\\t\\t\\t</div>\\n\\t\\t\\t\', escape=False)\n    pass\nresponse.write(\'\\n\\t\\t</article>\\n\\t</section>\\n</div>\\n\', escape=False)\nresponse.write(\' \\n      </div>\\n      <!-- content -->\\n\\n      \', escape=False)\nif right_sidebar_enabled:\n    response.write(\'\\n          <div id="right_sidebar" \', escape=False)\n    response.write(XML(right_sidebar_style))\n    response.write(\' >\\n            <div style="padding: 4px;">\\n              \', escape=False)\n    response.write(\'Content Right Sidebar\', escape=False)\n    response.write(\'\\n            </div>\\n      </div><!-- right_sidebar -->\\n          \', escape=False)\n    pass\nresponse.write(\'\\n\\n\\n      <div style="clear: both;"></div><!-- Clear the divs -->\\n      \\n    </div><!-- page -->                         \\n    \\n    <div id="footer">\\n      \', escape=False)\nresponse.write(\' <!-- this is default footer -->\\n      <a href="http://www.web2py.com/" style="float: left; padding-right: 6px;">\\n        <img src="\', escape=False)\nresponse.write(URL(\'static\',\'images/poweredby.png\'))\nresponse.write(\'"/>\\n      </a>\\n      \', escape=False)\nresponse.write(T(\'Copyright\'))\nresponse.write(\' &#169; 2011               \\n      <div style="clear: both;"></div><!-- Clear the divs -->\\n      \', escape=False)\nresponse.write(\'\\n\\n    </div><!-- footer -->           \\n      </div><!-- wrapper -->\\n    </div><!-- container -->        \\n    \\n    <!--[if lt IE 7 ]>\\n    <script src="\', escape=False)\nresponse.write(URL(\'static\',\'js/dd_belatedpng.js\'))\nresponse.write(\'"></script>\\n    <script> DD_belatedPNG.fix(\\\'img, .png_bg\\\'); //fix any <img> or .png_bg background-images </script>\\n    <![endif]-->\\n    \', escape=False)\nif response.google_analytics_id:\n    response.write("<script>/* http://mathiasbynens.be/notes/async-analytics-snippet */ var _gaq=[[\'_setAccount\',\'", escape=False)\n    response.write(response.google_analyitics_id)\n    response.write("\'],[\'_trackPageview\']];(function(d,t){var g=d.createElement(t),s=d.getElementsByTagName(t)[0];g.src=\'//www.google-analytics.com/ga.js\';s.parentNode.insertBefore(g,s)}(document,\'script\')) </script>", escape=False)\n    pass\nresponse.write(\'\\n  </body>\\n</html>\\n\', escape=False)'
p6
sS'snapshot'
p7
(dp8
S'exception'
p9
(dp10
S'__hash__'
p11
S"<method-wrapper '__hash__' of exceptions.IndexError object>"
p12
sS'__setattr__'
p13
S"<method-wrapper '__setattr__' of exceptions.IndexError object>"
p14
sS'__reduce_ex__'
p15
S'<built-in method __reduce_ex__ of exceptions.IndexError object>'
p16
sS'__getslice__'
p17
S"<method-wrapper '__getslice__' of exceptions.IndexError object>"
p18
sS'__getitem__'
p19
S"<method-wrapper '__getitem__' of exceptions.IndexError object>"
p20
sS'__setstate__'
p21
S'<built-in method __setstate__ of exceptions.IndexError object>'
p22
sS'args'
p23
S"('list index out of range',)"
p24
sS'__reduce__'
p25
S'<built-in method __reduce__ of exceptions.IndexError object>'
p26
sS'__str__'
p27
S"<method-wrapper '__str__' of exceptions.IndexError object>"
p28
sS'__format__'
p29
S'<built-in method __format__ of exceptions.IndexError object>'
p30
sS'__getattribute__'
p31
S"<method-wrapper '__getattribute__' of exceptions.IndexError object>"
p32
sS'__class__'
p33
S"<type 'exceptions.IndexError'>"
p34
sS'__unicode__'
p35
S'<built-in method __unicode__ of exceptions.IndexError object>'
p36
sS'__delattr__'
p37
S"<method-wrapper '__delattr__' of exceptions.IndexError object>"
p38
sS'__subclasshook__'
p39
S'<built-in method __subclasshook__ of type object>'
p40
sS'__repr__'
p41
S"<method-wrapper '__repr__' of exceptions.IndexError object>"
p42
sS'__dict__'
p43
S'{}'
p44
sS'__sizeof__'
p45
S'<built-in method __sizeof__ of exceptions.IndexError object>'
p46
sS'__doc__'
p47
S"'Sequence index out of range.'"
p48
sS'__init__'
p49
S"<method-wrapper '__init__' of exceptions.IndexError object>"
p50
sS'__new__'
p51
S'<built-in method __new__ of type object>'
p52
ssS'evalue'
p53
S'list index out of range'
p54
sS'request'
p55
ccopy_reg
_reconstructor
p56
(cgluon.html
BEAUTIFY
p57
c__builtin__
object
p58
NtRp59
(dp60
S'attributes'
p61
(dp62
sS'components'
p63
(lp64
g56
(cgluon.html
TABLE
p65
g58
NtRp66
(dp67
g61
(dp68
S'level'
p69
I5
ssS'parent'
p70
Nsg63
(lp71
g56
(cgluon.html
TR
p72
g58
NtRp73
(dp74
g61
(dp75
sg70
g66
sg63
(lp76
g56
(cgluon.html
TD
p77
g58
NtRp78
(dp79
g61
(dp80
S'_style'
p81
S'font-weight:bold;'
p82
ssg70
g73
sg63
(lp83
S'ajax'
p84
asbag56
(g77
g58
NtRp85
(dp86
g61
(dp87
S'_valign'
p88
S'top'
p89
ssg70
g73
sg63
(lp90
S':'
asbag56
(g77
g58
NtRp91
(dp92
g61
(dp93
sg70
g73
sg63
(lp94
g56
(g57
g58
NtRp95
(dp96
g61
(dp97
g69
I5
ssg70
g91
sg63
(lp98
S'False'
p99
asbasbasbag56
(g72
g58
NtRp100
(dp101
g61
(dp102
sg70
g66
sg63
(lp103
g56
(g77
g58
NtRp104
(dp105
g61
(dp106
g81
g82
ssg70
g100
sg63
(lp107
S'application'
p108
asbag56
(g77
g58
NtRp109
(dp110
g61
(dp111
g88
g89
ssg70
g100
sg63
(lp112
S':'
asbag56
(g77
g58
NtRp113
(dp114
g61
(dp115
sg70
g100
sg63
(lp116
g56
(g57
g58
NtRp117
(dp118
g61
(dp119
g69
I5
ssg70
g113
sg63
(lp120
S'synopsis'
p121
asbasbasbag56
(g72
g58
NtRp122
(dp123
g61
(dp124
sg70
g66
sg63
(lp125
g56
(g77
g58
NtRp126
(dp127
g61
(dp128
g81
g82
ssg70
g122
sg63
(lp129
g23
asbag56
(g77
g58
NtRp130
(dp131
g61
(dp132
g88
g89
ssg70
g122
sg63
(lp133
S':'
asbag56
(g77
g58
NtRp134
(dp135
g61
(dp136
sg70
g122
sg63
(lp137
g56
(g57
g58
NtRp138
(dp139
g61
(dp140
g69
I5
ssg70
g134
sg63
(lp141
g56
(g65
g58
NtRp142
(dp143
g61
(dp144
g69
I4
ssg70
Nsg63
(lp145
g56
(g72
g58
NtRp146
(dp147
g61
(dp148
sg70
g142
sg63
(lp149
g56
(g77
g58
NtRp150
(dp151
g61
(dp152
sg70
g146
sg63
(lp153
g56
(g57
g58
NtRp154
(dp155
g61
(dp156
g69
I4
ssg70
g150
sg63
(lp157
S'8'
asbasbasbasbasbasbasbag56
(g72
g58
NtRp158
(dp159
g61
(dp160
sg70
g66
sg63
(lp161
g56
(g77
g58
NtRp162
(dp163
g61
(dp164
g81
g82
ssg70
g158
sg63
(lp165
S'body'
p166
asbag56
(g77
g58
NtRp167
(dp168
g61
(dp169
g88
g89
ssg70
g158
sg63
(lp170
S':'
asbag56
(g77
g58
NtRp171
(dp172
g61
(dp173
sg70
g158
sg63
(lp174
g56
(g57
g58
NtRp175
(dp176
g61
(dp177
g69
I5
ssg70
g171
sg63
(lp178
S'<cStringIO.StringO object at 0x24703e8>'
p179
asbasbasbag56
(g72
g58
NtRp180
(dp181
g61
(dp182
sg70
g66
sg63
(lp183
g56
(g77
g58
NtRp184
(dp185
g61
(dp186
g81
g82
ssg70
g180
sg63
(lp187
S'client'
p188
asbag56
(g77
g58
NtRp189
(dp190
g61
(dp191
g88
g89
ssg70
g180
sg63
(lp192
S':'
asbag56
(g77
g58
NtRp193
(dp194
g61
(dp195
sg70
g180
sg63
(lp196
g56
(g57
g58
NtRp197
(dp198
g61
(dp199
g69
I5
ssg70
g193
sg63
(lp200
S'127.0.0.1'
p201
asbasbasbag56
(g72
g58
NtRp202
(dp203
g61
(dp204
sg70
g66
sg63
(lp205
g56
(g77
g58
NtRp206
(dp207
g61
(dp208
g81
g82
ssg70
g202
sg63
(lp209
S'controller'
p210
asbag56
(g77
g58
NtRp211
(dp212
g61
(dp213
g88
g89
ssg70
g202
sg63
(lp214
S':'
asbag56
(g77
g58
NtRp215
(dp216
g61
(dp217
sg70
g202
sg63
(lp218
g56
(g57
g58
NtRp219
(dp220
g61
(dp221
g69
I5
ssg70
g215
sg63
(lp222
S'information'
p223
asbasbasbag56
(g72
g58
NtRp224
(dp225
g61
(dp226
sg70
g66
sg63
(lp227
g56
(g77
g58
NtRp228
(dp229
g61
(dp230
g81
g82
ssg70
g224
sg63
(lp231
S'cookies'
p232
asbag56
(g77
g58
NtRp233
(dp234
g61
(dp235
g88
g89
ssg70
g224
sg63
(lp236
S':'
asbag56
(g77
g58
NtRp237
(dp238
g61
(dp239
sg70
g224
sg63
(lp240
g56
(g57
g58
NtRp241
(dp242
g61
(dp243
g69
I5
ssg70
g237
sg63
(lp244
g56
(g65
g58
NtRp245
(dp246
g61
(dp247
g69
I4
ssg70
Nsg63
(lp248
g56
(g72
g58
NtRp249
(dp250
g61
(dp251
sg70
g245
sg63
(lp252
g56
(g77
g58
NtRp253
(dp254
g61
(dp255
g81
g82
ssg70
g249
sg63
(lp256
S'PHPSESSID'
p257
asbag56
(g77
g58
NtRp258
(dp259
g61
(dp260
g88
g89
ssg70
g249
sg63
(lp261
S':'
asbag56
(g77
g58
NtRp262
(dp263
g61
(dp264
sg70
g249
sg63
(lp265
g56
(g57
g58
NtRp266
(dp267
g61
(dp268
g69
I4
ssg70
g262
sg63
(lp269
g56
(g65
g58
NtRp270
(dp271
g61
(dp272
g69
I3
ssg70
Nsg63
(lp273
g56
(g72
g58
NtRp274
(dp275
g61
(dp276
sg70
g270
sg63
(lp277
g56
(g77
g58
NtRp278
(dp279
g61
(dp280
g81
g82
ssg70
g274
sg63
(lp281
S'comment'
p282
asbag56
(g77
g58
NtRp283
(dp284
g61
(dp285
g88
g89
ssg70
g274
sg63
(lp286
S':'
asbag56
(g77
g58
NtRp287
(dp288
g61
(dp289
sg70
g274
sg63
(lp290
g56
(g57
g58
NtRp291
(dp292
g61
(dp293
g69
I3
ssg70
g287
sg63
(lp294
S''
asbasbasbag56
(g72
g58
NtRp295
(dp296
g61
(dp297
sg70
g270
sg63
(lp298
g56
(g77
g58
NtRp299
(dp300
g61
(dp301
g81
g82
ssg70
g295
sg63
(lp302
S'domain'
p303
asbag56
(g77
g58
NtRp304
(dp305
g61
(dp306
g88
g89
ssg70
g295
sg63
(lp307
S':'
asbag56
(g77
g58
NtRp308
(dp309
g61
(dp310
sg70
g295
sg63
(lp311
g56
(g57
g58
NtRp312
(dp313
g61
(dp314
g69
I3
ssg70
g308
sg63
(lp315
S''
asbasbasbag56
(g72
g58
NtRp316
(dp317
g61
(dp318
sg70
g270
sg63
(lp319
g56
(g77
g58
NtRp320
(dp321
g61
(dp322
g81
g82
ssg70
g316
sg63
(lp323
S'expires'
p324
asbag56
(g77
g58
NtRp325
(dp326
g61
(dp327
g88
g89
ssg70
g316
sg63
(lp328
S':'
asbag56
(g77
g58
NtRp329
(dp330
g61
(dp331
sg70
g316
sg63
(lp332
g56
(g57
g58
NtRp333
(dp334
g61
(dp335
g69
I3
ssg70
g329
sg63
(lp336
S''
asbasbasbag56
(g72
g58
NtRp337
(dp338
g61
(dp339
sg70
g270
sg63
(lp340
g56
(g77
g58
NtRp341
(dp342
g61
(dp343
g81
g82
ssg70
g337
sg63
(lp344
S'httponly'
p345
asbag56
(g77
g58
NtRp346
(dp347
g61
(dp348
g88
g89
ssg70
g337
sg63
(lp349
S':'
asbag56
(g77
g58
NtRp350
(dp351
g61
(dp352
sg70
g337
sg63
(lp353
g56
(g57
g58
NtRp354
(dp355
g61
(dp356
g69
I3
ssg70
g350
sg63
(lp357
S''
asbasbasbag56
(g72
g58
NtRp358
(dp359
g61
(dp360
sg70
g270
sg63
(lp361
g56
(g77
g58
NtRp362
(dp363
g61
(dp364
g81
g82
ssg70
g358
sg63
(lp365
S'max-age'
p366
asbag56
(g77
g58
NtRp367
(dp368
g61
(dp369
g88
g89
ssg70
g358
sg63
(lp370
S':'
asbag56
(g77
g58
NtRp371
(dp372
g61
(dp373
sg70
g358
sg63
(lp374
g56
(g57
g58
NtRp375
(dp376
g61
(dp377
g69
I3
ssg70
g371
sg63
(lp378
S''
asbasbasbag56
(g72
g58
NtRp379
(dp380
g61
(dp381
sg70
g270
sg63
(lp382
g56
(g77
g58
NtRp383
(dp384
g61
(dp385
g81
g82
ssg70
g379
sg63
(lp386
S'path'
p387
asbag56
(g77
g58
NtRp388
(dp389
g61
(dp390
g88
g89
ssg70
g379
sg63
(lp391
S':'
asbag56
(g77
g58
NtRp392
(dp393
g61
(dp394
sg70
g379
sg63
(lp395
g56
(g57
g58
NtRp396
(dp397
g61
(dp398
g69
I3
ssg70
g392
sg63
(lp399
S''
asbasbasbag56
(g72
g58
NtRp400
(dp401
g61
(dp402
sg70
g270
sg63
(lp403
g56
(g77
g58
NtRp404
(dp405
g61
(dp406
g81
g82
ssg70
g400
sg63
(lp407
S'secure'
p408
asbag56
(g77
g58
NtRp409
(dp410
g61
(dp411
g88
g89
ssg70
g400
sg63
(lp412
S':'
asbag56
(g77
g58
NtRp413
(dp414
g61
(dp415
sg70
g400
sg63
(lp416
g56
(g57
g58
NtRp417
(dp418
g61
(dp419
g69
I3
ssg70
g413
sg63
(lp420
S''
asbasbasbag56
(g72
g58
NtRp421
(dp422
g61
(dp423
sg70
g270
sg63
(lp424
g56
(g77
g58
NtRp425
(dp426
g61
(dp427
g81
g82
ssg70
g421
sg63
(lp428
S'version'
p429
asbag56
(g77
g58
NtRp430
(dp431
g61
(dp432
g88
g89
ssg70
g421
sg63
(lp433
S':'
asbag56
(g77
g58
NtRp434
(dp435
g61
(dp436
sg70
g421
sg63
(lp437
g56
(g57
g58
NtRp438
(dp439
g61
(dp440
g69
I3
ssg70
g434
sg63
(lp441
S''
asbasbasbasbasbasbasbag56
(g72
g58
NtRp442
(dp443
g61
(dp444
sg70
g245
sg63
(lp445
g56
(g77
g58
NtRp446
(dp447
g61
(dp448
g81
g82
ssg70
g442
sg63
(lp449
S'currency'
p450
asbag56
(g77
g58
NtRp451
(dp452
g61
(dp453
g88
g89
ssg70
g442
sg63
(lp454
S':'
asbag56
(g77
g58
NtRp455
(dp456
g61
(dp457
sg70
g442
sg63
(lp458
g56
(g57
g58
NtRp459
(dp460
g61
(dp461
g69
I4
ssg70
g455
sg63
(lp462
g56
(g65
g58
NtRp463
(dp464
g61
(dp465
g69
I3
ssg70
Nsg63
(lp466
g56
(g72
g58
NtRp467
(dp468
g61
(dp469
sg70
g463
sg63
(lp470
g56
(g77
g58
NtRp471
(dp472
g61
(dp473
g81
g82
ssg70
g467
sg63
(lp474
g282
asbag56
(g77
g58
NtRp475
(dp476
g61
(dp477
g88
g89
ssg70
g467
sg63
(lp478
S':'
asbag56
(g77
g58
NtRp479
(dp480
g61
(dp481
sg70
g467
sg63
(lp482
g56
(g57
g58
NtRp483
(dp484
g61
(dp485
g69
I3
ssg70
g479
sg63
(lp486
S''
asbasbasbag56
(g72
g58
NtRp487
(dp488
g61
(dp489
sg70
g463
sg63
(lp490
g56
(g77
g58
NtRp491
(dp492
g61
(dp493
g81
g82
ssg70
g487
sg63
(lp494
g303
asbag56
(g77
g58
NtRp495
(dp496
g61
(dp497
g88
g89
ssg70
g487
sg63
(lp498
S':'
asbag56
(g77
g58
NtRp499
(dp500
g61
(dp501
sg70
g487
sg63
(lp502
g56
(g57
g58
NtRp503
(dp504
g61
(dp505
g69
I3
ssg70
g499
sg63
(lp506
S''
asbasbasbag56
(g72
g58
NtRp507
(dp508
g61
(dp509
sg70
g463
sg63
(lp510
g56
(g77
g58
NtRp511
(dp512
g61
(dp513
g81
g82
ssg70
g507
sg63
(lp514
g324
asbag56
(g77
g58
NtRp515
(dp516
g61
(dp517
g88
g89
ssg70
g507
sg63
(lp518
S':'
asbag56
(g77
g58
NtRp519
(dp520
g61
(dp521
sg70
g507
sg63
(lp522
g56
(g57
g58
NtRp523
(dp524
g61
(dp525
g69
I3
ssg70
g519
sg63
(lp526
S''
asbasbasbag56
(g72
g58
NtRp527
(dp528
g61
(dp529
sg70
g463
sg63
(lp530
g56
(g77
g58
NtRp531
(dp532
g61
(dp533
g81
g82
ssg70
g527
sg63
(lp534
g345
asbag56
(g77
g58
NtRp535
(dp536
g61
(dp537
g88
g89
ssg70
g527
sg63
(lp538
S':'
asbag56
(g77
g58
NtRp539
(dp540
g61
(dp541
sg70
g527
sg63
(lp542
g56
(g57
g58
NtRp543
(dp544
g61
(dp545
g69
I3
ssg70
g539
sg63
(lp546
S''
asbasbasbag56
(g72
g58
NtRp547
(dp548
g61
(dp549
sg70
g463
sg63
(lp550
g56
(g77
g58
NtRp551
(dp552
g61
(dp553
g81
g82
ssg70
g547
sg63
(lp554
g366
asbag56
(g77
g58
NtRp555
(dp556
g61
(dp557
g88
g89
ssg70
g547
sg63
(lp558
S':'
asbag56
(g77
g58
NtRp559
(dp560
g61
(dp561
sg70
g547
sg63
(lp562
g56
(g57
g58
NtRp563
(dp564
g61
(dp565
g69
I3
ssg70
g559
sg63
(lp566
S''
asbasbasbag56
(g72
g58
NtRp567
(dp568
g61
(dp569
sg70
g463
sg63
(lp570
g56
(g77
g58
NtRp571
(dp572
g61
(dp573
g81
g82
ssg70
g567
sg63
(lp574
g387
asbag56
(g77
g58
NtRp575
(dp576
g61
(dp577
g88
g89
ssg70
g567
sg63
(lp578
S':'
asbag56
(g77
g58
NtRp579
(dp580
g61
(dp581
sg70
g567
sg63
(lp582
g56
(g57
g58
NtRp583
(dp584
g61
(dp585
g69
I3
ssg70
g579
sg63
(lp586
S''
asbasbasbag56
(g72
g58
NtRp587
(dp588
g61
(dp589
sg70
g463
sg63
(lp590
g56
(g77
g58
NtRp591
(dp592
g61
(dp593
g81
g82
ssg70
g587
sg63
(lp594
g408
asbag56
(g77
g58
NtRp595
(dp596
g61
(dp597
g88
g89
ssg70
g587
sg63
(lp598
S':'
asbag56
(g77
g58
NtRp599
(dp600
g61
(dp601
sg70
g587
sg63
(lp602
g56
(g57
g58
NtRp603
(dp604
g61
(dp605
g69
I3
ssg70
g599
sg63
(lp606
S''
asbasbasbag56
(g72
g58
NtRp607
(dp608
g61
(dp609
sg70
g463
sg63
(lp610
g56
(g77
g58
NtRp611
(dp612
g61
(dp613
g81
g82
ssg70
g607
sg63
(lp614
g429
asbag56
(g77
g58
NtRp615
(dp616
g61
(dp617
g88
g89
ssg70
g607
sg63
(lp618
S':'
asbag56
(g77
g58
NtRp619
(dp620
g61
(dp621
sg70
g607
sg63
(lp622
g56
(g57
g58
NtRp623
(dp624
g61
(dp625
g69
I3
ssg70
g619
sg63
(lp626
S''
asbasbasbasbasbasbasbag56
(g72
g58
NtRp627
(dp628
g61
(dp629
sg70
g245
sg63
(lp630
g56
(g77
g58
NtRp631
(dp632
g61
(dp633
g81
g82
ssg70
g627
sg63
(lp634
S'session_id_admin'
p635
asbag56
(g77
g58
NtRp636
(dp637
g61
(dp638
g88
g89
ssg70
g627
sg63
(lp639
S':'
asbag56
(g77
g58
NtRp640
(dp641
g61
(dp642
sg70
g627
sg63
(lp643
g56
(g57
g58
NtRp644
(dp645
g61
(dp646
g69
I4
ssg70
g640
sg63
(lp647
g56
(g65
g58
NtRp648
(dp649
g61
(dp650
g69
I3
ssg70
Nsg63
(lp651
g56
(g72
g58
NtRp652
(dp653
g61
(dp654
sg70
g648
sg63
(lp655
g56
(g77
g58
NtRp656
(dp657
g61
(dp658
g81
g82
ssg70
g652
sg63
(lp659
g282
asbag56
(g77
g58
NtRp660
(dp661
g61
(dp662
g88
g89
ssg70
g652
sg63
(lp663
S':'
asbag56
(g77
g58
NtRp664
(dp665
g61
(dp666
sg70
g652
sg63
(lp667
g56
(g57
g58
NtRp668
(dp669
g61
(dp670
g69
I3
ssg70
g664
sg63
(lp671
S''
asbasbasbag56
(g72
g58
NtRp672
(dp673
g61
(dp674
sg70
g648
sg63
(lp675
g56
(g77
g58
NtRp676
(dp677
g61
(dp678
g81
g82
ssg70
g672
sg63
(lp679
g303
asbag56
(g77
g58
NtRp680
(dp681
g61
(dp682
g88
g89
ssg70
g672
sg63
(lp683
S':'
asbag56
(g77
g58
NtRp684
(dp685
g61
(dp686
sg70
g672
sg63
(lp687
g56
(g57
g58
NtRp688
(dp689
g61
(dp690
g69
I3
ssg70
g684
sg63
(lp691
S''
asbasbasbag56
(g72
g58
NtRp692
(dp693
g61
(dp694
sg70
g648
sg63
(lp695
g56
(g77
g58
NtRp696
(dp697
g61
(dp698
g81
g82
ssg70
g692
sg63
(lp699
g324
asbag56
(g77
g58
NtRp700
(dp701
g61
(dp702
g88
g89
ssg70
g692
sg63
(lp703
S':'
asbag56
(g77
g58
NtRp704
(dp705
g61
(dp706
sg70
g692
sg63
(lp707
g56
(g57
g58
NtRp708
(dp709
g61
(dp710
g69
I3
ssg70
g704
sg63
(lp711
S''
asbasbasbag56
(g72
g58
NtRp712
(dp713
g61
(dp714
sg70
g648
sg63
(lp715
g56
(g77
g58
NtRp716
(dp717
g61
(dp718
g81
g82
ssg70
g712
sg63
(lp719
g345
asbag56
(g77
g58
NtRp720
(dp721
g61
(dp722
g88
g89
ssg70
g712
sg63
(lp723
S':'
asbag56
(g77
g58
NtRp724
(dp725
g61
(dp726
sg70
g712
sg63
(lp727
g56
(g57
g58
NtRp728
(dp729
g61
(dp730
g69
I3
ssg70
g724
sg63
(lp731
S''
asbasbasbag56
(g72
g58
NtRp732
(dp733
g61
(dp734
sg70
g648
sg63
(lp735
g56
(g77
g58
NtRp736
(dp737
g61
(dp738
g81
g82
ssg70
g732
sg63
(lp739
g366
asbag56
(g77
g58
NtRp740
(dp741
g61
(dp742
g88
g89
ssg70
g732
sg63
(lp743
S':'
asbag56
(g77
g58
NtRp744
(dp745
g61
(dp746
sg70
g732
sg63
(lp747
g56
(g57
g58
NtRp748
(dp749
g61
(dp750
g69
I3
ssg70
g744
sg63
(lp751
S''
asbasbasbag56
(g72
g58
NtRp752
(dp753
g61
(dp754
sg70
g648
sg63
(lp755
g56
(g77
g58
NtRp756
(dp757
g61
(dp758
g81
g82
ssg70
g752
sg63
(lp759
g387
asbag56
(g77
g58
NtRp760
(dp761
g61
(dp762
g88
g89
ssg70
g752
sg63
(lp763
S':'
asbag56
(g77
g58
NtRp764
(dp765
g61
(dp766
sg70
g752
sg63
(lp767
g56
(g57
g58
NtRp768
(dp769
g61
(dp770
g69
I3
ssg70
g764
sg63
(lp771
S''
asbasbasbag56
(g72
g58
NtRp772
(dp773
g61
(dp774
sg70
g648
sg63
(lp775
g56
(g77
g58
NtRp776
(dp777
g61
(dp778
g81
g82
ssg70
g772
sg63
(lp779
g408
asbag56
(g77
g58
NtRp780
(dp781
g61
(dp782
g88
g89
ssg70
g772
sg63
(lp783
S':'
asbag56
(g77
g58
NtRp784
(dp785
g61
(dp786
sg70
g772
sg63
(lp787
g56
(g57
g58
NtRp788
(dp789
g61
(dp790
g69
I3
ssg70
g784
sg63
(lp791
S''
asbasbasbag56
(g72
g58
NtRp792
(dp793
g61
(dp794
sg70
g648
sg63
(lp795
g56
(g77
g58
NtRp796
(dp797
g61
(dp798
g81
g82
ssg70
g792
sg63
(lp799
g429
asbag56
(g77
g58
NtRp800
(dp801
g61
(dp802
g88
g89
ssg70
g792
sg63
(lp803
S':'
asbag56
(g77
g58
NtRp804
(dp805
g61
(dp806
sg70
g792
sg63
(lp807
g56
(g57
g58
NtRp808
(dp809
g61
(dp810
g69
I3
ssg70
g804
sg63
(lp811
S''
asbasbasbasbasbasbasbag56
(g72
g58
NtRp812
(dp813
g61
(dp814
sg70
g245
sg63
(lp815
g56
(g77
g58
NtRp816
(dp817
g61
(dp818
g81
g82
ssg70
g812
sg63
(lp819
S'session_id_synopsis'
p820
asbag56
(g77
g58
NtRp821
(dp822
g61
(dp823
g88
g89
ssg70
g812
sg63
(lp824
S':'
asbag56
(g77
g58
NtRp825
(dp826
g61
(dp827
sg70
g812
sg63
(lp828
g56
(g57
g58
NtRp829
(dp830
g61
(dp831
g69
I4
ssg70
g825
sg63
(lp832
g56
(g65
g58
NtRp833
(dp834
g61
(dp835
g69
I3
ssg70
Nsg63
(lp836
g56
(g72
g58
NtRp837
(dp838
g61
(dp839
sg70
g833
sg63
(lp840
g56
(g77
g58
NtRp841
(dp842
g61
(dp843
g81
g82
ssg70
g837
sg63
(lp844
g282
asbag56
(g77
g58
NtRp845
(dp846
g61
(dp847
g88
g89
ssg70
g837
sg63
(lp848
S':'
asbag56
(g77
g58
NtRp849
(dp850
g61
(dp851
sg70
g837
sg63
(lp852
g56
(g57
g58
NtRp853
(dp854
g61
(dp855
g69
I3
ssg70
g849
sg63
(lp856
S''
asbasbasbag56
(g72
g58
NtRp857
(dp858
g61
(dp859
sg70
g833
sg63
(lp860
g56
(g77
g58
NtRp861
(dp862
g61
(dp863
g81
g82
ssg70
g857
sg63
(lp864
g303
asbag56
(g77
g58
NtRp865
(dp866
g61
(dp867
g88
g89
ssg70
g857
sg63
(lp868
S':'
asbag56
(g77
g58
NtRp869
(dp870
g61
(dp871
sg70
g857
sg63
(lp872
g56
(g57
g58
NtRp873
(dp874
g61
(dp875
g69
I3
ssg70
g869
sg63
(lp876
S''
asbasbasbag56
(g72
g58
NtRp877
(dp878
g61
(dp879
sg70
g833
sg63
(lp880
g56
(g77
g58
NtRp881
(dp882
g61
(dp883
g81
g82
ssg70
g877
sg63
(lp884
g324
asbag56
(g77
g58
NtRp885
(dp886
g61
(dp887
g88
g89
ssg70
g877
sg63
(lp888
S':'
asbag56
(g77
g58
NtRp889
(dp890
g61
(dp891
sg70
g877
sg63
(lp892
g56
(g57
g58
NtRp893
(dp894
g61
(dp895
g69
I3
ssg70
g889
sg63
(lp896
S''
asbasbasbag56
(g72
g58
NtRp897
(dp898
g61
(dp899
sg70
g833
sg63
(lp900
g56
(g77
g58
NtRp901
(dp902
g61
(dp903
g81
g82
ssg70
g897
sg63
(lp904
g345
asbag56
(g77
g58
NtRp905
(dp906
g61
(dp907
g88
g89
ssg70
g897
sg63
(lp908
S':'
asbag56
(g77
g58
NtRp909
(dp910
g61
(dp911
sg70
g897
sg63
(lp912
g56
(g57
g58
NtRp913
(dp914
g61
(dp915
g69
I3
ssg70
g909
sg63
(lp916
S''
asbasbasbag56
(g72
g58
NtRp917
(dp918
g61
(dp919
sg70
g833
sg63
(lp920
g56
(g77
g58
NtRp921
(dp922
g61
(dp923
g81
g82
ssg70
g917
sg63
(lp924
g366
asbag56
(g77
g58
NtRp925
(dp926
g61
(dp927
g88
g89
ssg70
g917
sg63
(lp928
S':'
asbag56
(g77
g58
NtRp929
(dp930
g61
(dp931
sg70
g917
sg63
(lp932
g56
(g57
g58
NtRp933
(dp934
g61
(dp935
g69
I3
ssg70
g929
sg63
(lp936
S''
asbasbasbag56
(g72
g58
NtRp937
(dp938
g61
(dp939
sg70
g833
sg63
(lp940
g56
(g77
g58
NtRp941
(dp942
g61
(dp943
g81
g82
ssg70
g937
sg63
(lp944
g387
asbag56
(g77
g58
NtRp945
(dp946
g61
(dp947
g88
g89
ssg70
g937
sg63
(lp948
S':'
asbag56
(g77
g58
NtRp949
(dp950
g61
(dp951
sg70
g937
sg63
(lp952
g56
(g57
g58
NtRp953
(dp954
g61
(dp955
g69
I3
ssg70
g949
sg63
(lp956
S''
asbasbasbag56
(g72
g58
NtRp957
(dp958
g61
(dp959
sg70
g833
sg63
(lp960
g56
(g77
g58
NtRp961
(dp962
g61
(dp963
g81
g82
ssg70
g957
sg63
(lp964
g408
asbag56
(g77
g58
NtRp965
(dp966
g61
(dp967
g88
g89
ssg70
g957
sg63
(lp968
S':'
asbag56
(g77
g58
NtRp969
(dp970
g61
(dp971
sg70
g957
sg63
(lp972
g56
(g57
g58
NtRp973
(dp974
g61
(dp975
g69
I3
ssg70
g969
sg63
(lp976
S''
asbasbasbag56
(g72
g58
NtRp977
(dp978
g61
(dp979
sg70
g833
sg63
(lp980
g56
(g77
g58
NtRp981
(dp982
g61
(dp983
g81
g82
ssg70
g977
sg63
(lp984
g429
asbag56
(g77
g58
NtRp985
(dp986
g61
(dp987
g88
g89
ssg70
g977
sg63
(lp988
S':'
asbag56
(g77
g58
NtRp989
(dp990
g61
(dp991
sg70
g977
sg63
(lp992
g56
(g57
g58
NtRp993
(dp994
g61
(dp995
g69
I3
ssg70
g989
sg63
(lp996
S''
asbasbasbasbasbasbasbag56
(g72
g58
NtRp997
(dp998
g61
(dp999
sg70
g245
sg63
(lp1000
g56
(g77
g58
NtRp1001
(dp1002
g61
(dp1003
g81
g82
ssg70
g997
sg63
(lp1004
S'session_id_welcome'
p1005
asbag56
(g77
g58
NtRp1006
(dp1007
g61
(dp1008
g88
g89
ssg70
g997
sg63
(lp1009
S':'
asbag56
(g77
g58
NtRp1010
(dp1011
g61
(dp1012
sg70
g997
sg63
(lp1013
g56
(g57
g58
NtRp1014
(dp1015
g61
(dp1016
g69
I4
ssg70
g1010
sg63
(lp1017
g56
(g65
g58
NtRp1018
(dp1019
g61
(dp1020
g69
I3
ssg70
Nsg63
(lp1021
g56
(g72
g58
NtRp1022
(dp1023
g61
(dp1024
sg70
g1018
sg63
(lp1025
g56
(g77
g58
NtRp1026
(dp1027
g61
(dp1028
g81
g82
ssg70
g1022
sg63
(lp1029
g282
asbag56
(g77
g58
NtRp1030
(dp1031
g61
(dp1032
g88
g89
ssg70
g1022
sg63
(lp1033
S':'
asbag56
(g77
g58
NtRp1034
(dp1035
g61
(dp1036
sg70
g1022
sg63
(lp1037
g56
(g57
g58
NtRp1038
(dp1039
g61
(dp1040
g69
I3
ssg70
g1034
sg63
(lp1041
S''
asbasbasbag56
(g72
g58
NtRp1042
(dp1043
g61
(dp1044
sg70
g1018
sg63
(lp1045
g56
(g77
g58
NtRp1046
(dp1047
g61
(dp1048
g81
g82
ssg70
g1042
sg63
(lp1049
g303
asbag56
(g77
g58
NtRp1050
(dp1051
g61
(dp1052
g88
g89
ssg70
g1042
sg63
(lp1053
S':'
asbag56
(g77
g58
NtRp1054
(dp1055
g61
(dp1056
sg70
g1042
sg63
(lp1057
g56
(g57
g58
NtRp1058
(dp1059
g61
(dp1060
g69
I3
ssg70
g1054
sg63
(lp1061
S''
asbasbasbag56
(g72
g58
NtRp1062
(dp1063
g61
(dp1064
sg70
g1018
sg63
(lp1065
g56
(g77
g58
NtRp1066
(dp1067
g61
(dp1068
g81
g82
ssg70
g1062
sg63
(lp1069
g324
asbag56
(g77
g58
NtRp1070
(dp1071
g61
(dp1072
g88
g89
ssg70
g1062
sg63
(lp1073
S':'
asbag56
(g77
g58
NtRp1074
(dp1075
g61
(dp1076
sg70
g1062
sg63
(lp1077
g56
(g57
g58
NtRp1078
(dp1079
g61
(dp1080
g69
I3
ssg70
g1074
sg63
(lp1081
S''
asbasbasbag56
(g72
g58
NtRp1082
(dp1083
g61
(dp1084
sg70
g1018
sg63
(lp1085
g56
(g77
g58
NtRp1086
(dp1087
g61
(dp1088
g81
g82
ssg70
g1082
sg63
(lp1089
g345
asbag56
(g77
g58
NtRp1090
(dp1091
g61
(dp1092
g88
g89
ssg70
g1082
sg63
(lp1093
S':'
asbag56
(g77
g58
NtRp1094
(dp1095
g61
(dp1096
sg70
g1082
sg63
(lp1097
g56
(g57
g58
NtRp1098
(dp1099
g61
(dp1100
g69
I3
ssg70
g1094
sg63
(lp1101
S''
asbasbasbag56
(g72
g58
NtRp1102
(dp1103
g61
(dp1104
sg70
g1018
sg63
(lp1105
g56
(g77
g58
NtRp1106
(dp1107
g61
(dp1108
g81
g82
ssg70
g1102
sg63
(lp1109
g366
asbag56
(g77
g58
NtRp1110
(dp1111
g61
(dp1112
g88
g89
ssg70
g1102
sg63
(lp1113
S':'
asbag56
(g77
g58
NtRp1114
(dp1115
g61
(dp1116
sg70
g1102
sg63
(lp1117
g56
(g57
g58
NtRp1118
(dp1119
g61
(dp1120
g69
I3
ssg70
g1114
sg63
(lp1121
S''
asbasbasbag56
(g72
g58
NtRp1122
(dp1123
g61
(dp1124
sg70
g1018
sg63
(lp1125
g56
(g77
g58
NtRp1126
(dp1127
g61
(dp1128
g81
g82
ssg70
g1122
sg63
(lp1129
g387
asbag56
(g77
g58
NtRp1130
(dp1131
g61
(dp1132
g88
g89
ssg70
g1122
sg63
(lp1133
S':'
asbag56
(g77
g58
NtRp1134
(dp1135
g61
(dp1136
sg70
g1122
sg63
(lp1137
g56
(g57
g58
NtRp1138
(dp1139
g61
(dp1140
g69
I3
ssg70
g1134
sg63
(lp1141
S''
asbasbasbag56
(g72
g58
NtRp1142
(dp1143
g61
(dp1144
sg70
g1018
sg63
(lp1145
g56
(g77
g58
NtRp1146
(dp1147
g61
(dp1148
g81
g82
ssg70
g1142
sg63
(lp1149
g408
asbag56
(g77
g58
NtRp1150
(dp1151
g61
(dp1152
g88
g89
ssg70
g1142
sg63
(lp1153
S':'
asbag56
(g77
g58
NtRp1154
(dp1155
g61
(dp1156
sg70
g1142
sg63
(lp1157
g56
(g57
g58
NtRp1158
(dp1159
g61
(dp1160
g69
I3
ssg70
g1154
sg63
(lp1161
S''
asbasbasbag56
(g72
g58
NtRp1162
(dp1163
g61
(dp1164
sg70
g1018
sg63
(lp1165
g56
(g77
g58
NtRp1166
(dp1167
g61
(dp1168
g81
g82
ssg70
g1162
sg63
(lp1169
g429
asbag56
(g77
g58
NtRp1170
(dp1171
g61
(dp1172
g88
g89
ssg70
g1162
sg63
(lp1173
S':'
asbag56
(g77
g58
NtRp1174
(dp1175
g61
(dp1176
sg70
g1162
sg63
(lp1177
g56
(g57
g58
NtRp1178
(dp1179
g61
(dp1180
g69
I3
ssg70
g1174
sg63
(lp1181
S''
asbasbasbasbasbasbasbasbasbasbasbag56
(g72
g58
NtRp1182
(dp1183
g61
(dp1184
sg70
g66
sg63
(lp1185
g56
(g77
g58
NtRp1186
(dp1187
g61
(dp1188
g81
g82
ssg70
g1182
sg63
(lp1189
S'env'
p1190
asbag56
(g77
g58
NtRp1191
(dp1192
g61
(dp1193
g88
g89
ssg70
g1182
sg63
(lp1194
S':'
asbag56
(g77
g58
NtRp1195
(dp1196
g61
(dp1197
sg70
g1182
sg63
(lp1198
g56
(g57
g58
NtRp1199
(dp1200
g61
(dp1201
g69
I5
ssg70
g1195
sg63
(lp1202
g56
(g65
g58
NtRp1203
(dp1204
g61
(dp1205
g69
I4
ssg70
Nsg63
(lp1206
g56
(g72
g58
NtRp1207
(dp1208
g61
(dp1209
sg70
g1203
sg63
(lp1210
g56
(g77
g58
NtRp1211
(dp1212
g61
(dp1213
g81
g82
ssg70
g1207
sg63
(lp1214
S'app_folders'
p1215
asbag56
(g77
g58
NtRp1216
(dp1217
g61
(dp1218
g88
g89
ssg70
g1207
sg63
(lp1219
S':'
asbag56
(g77
g58
NtRp1220
(dp1221
g61
(dp1222
sg70
g1207
sg63
(lp1223
g56
(g57
g58
NtRp1224
(dp1225
g61
(dp1226
g69
I4
ssg70
g1220
sg63
(lp1227
S"set(['/home/kaique/Projects/web2py/applications/synopsis/', '/home/kaique/Projects/web2py/applications/admin/'])"
p1228
asbasbasbag56
(g72
g58
NtRp1229
(dp1230
g61
(dp1231
sg70
g1203
sg63
(lp1232
g56
(g77
g58
NtRp1233
(dp1234
g61
(dp1235
g81
g82
ssg70
g1229
sg63
(lp1236
S'applications_parent'
p1237
asbag56
(g77
g58
NtRp1238
(dp1239
g61
(dp1240
g88
g89
ssg70
g1229
sg63
(lp1241
S':'
asbag56
(g77
g58
NtRp1242
(dp1243
g61
(dp1244
sg70
g1229
sg63
(lp1245
g56
(g57
g58
NtRp1246
(dp1247
g61
(dp1248
g69
I4
ssg70
g1242
sg63
(lp1249
S'/home/kaique/Projects/web2py'
p1250
asbasbasbag56
(g72
g58
NtRp1251
(dp1252
g61
(dp1253
sg70
g1203
sg63
(lp1254
g56
(g77
g58
NtRp1255
(dp1256
g61
(dp1257
g81
g82
ssg70
g1251
sg63
(lp1258
S'cmd_args'
p1259
asbag56
(g77
g58
NtRp1260
(dp1261
g61
(dp1262
g88
g89
ssg70
g1251
sg63
(lp1263
S':'
asbag56
(g77
g58
NtRp1264
(dp1265
g61
(dp1266
sg70
g1251
sg63
(lp1267
g56
(g57
g58
NtRp1268
(dp1269
g61
(dp1270
g69
I4
ssg70
g1264
sg63
(lp1271
g56
(g65
g58
NtRp1272
(dp1273
g61
(dp1274
g69
I3
ssg70
Nsg63
(lp1275
sbasbasbasbag56
(g72
g58
NtRp1276
(dp1277
g61
(dp1278
sg70
g1203
sg63
(lp1279
g56
(g77
g58
NtRp1280
(dp1281
g61
(dp1282
g81
g82
ssg70
g1276
sg63
(lp1283
S'cmd_options'
p1284
asbag56
(g77
g58
NtRp1285
(dp1286
g61
(dp1287
g88
g89
ssg70
g1276
sg63
(lp1288
S':'
asbag56
(g77
g58
NtRp1289
(dp1290
g61
(dp1291
sg70
g1276
sg63
(lp1292
g56
(g57
g58
NtRp1293
(dp1294
g61
(dp1295
g69
I4
ssg70
g1289
sg63
(lp1296
S"<Values at 0x15f0950: {'verbose': False, 'ip': '127.0.0.1', 'shutdown_timeout': 5, 'taskbar': False, 'nocron': False, 'pid_filename': 'httpserver.pid', 'maxthreads': None, 'softcron': False, 'server_name': 'kaique-Pine-Trail-M', 'bpython': False, 'nogui': False, 'port': 8000, 'extcron': False, 'debuglevel': 30, 'test': None, 'folder': '/home/kaique/Projects/web2py', 'config': '', 'import_models': False, 'winservice': '', 'shell': None, 'run': '', 'log_filename': 'httpserver.log', 'args': [''], 'ssl_ca_certificate': None, 'scheduler': None, 'profiler_filename': None, 'ssl_private_key': '', 'password': 'dev', 'request_queue_size': 5, 'ssl_certificate': '', 'cronjob': False, 'plain': False, 'quiet': False, 'interfaces': None, 'minthreads': None, 'timeout': 10, 'numthreads': None, 'nobanner': False}>"
p1297
asbasbasbag56
(g72
g58
NtRp1298
(dp1299
g61
(dp1300
sg70
g1203
sg63
(lp1301
g56
(g77
g58
NtRp1302
(dp1303
g61
(dp1304
g81
g82
ssg70
g1298
sg63
(lp1305
S'db_sessions'
p1306
asbag56
(g77
g58
NtRp1307
(dp1308
g61
(dp1309
g88
g89
ssg70
g1298
sg63
(lp1310
S':'
asbag56
(g77
g58
NtRp1311
(dp1312
g61
(dp1313
sg70
g1298
sg63
(lp1314
g56
(g57
g58
NtRp1315
(dp1316
g61
(dp1317
g69
I4
ssg70
g1311
sg63
(lp1318
S'set([])'
p1319
asbasbasbag56
(g72
g58
NtRp1320
(dp1321
g61
(dp1322
sg70
g1203
sg63
(lp1323
g56
(g77
g58
NtRp1324
(dp1325
g61
(dp1326
g81
g82
ssg70
g1320
sg63
(lp1327
S'debugging'
p1328
asbag56
(g77
g58
NtRp1329
(dp1330
g61
(dp1331
g88
g89
ssg70
g1320
sg63
(lp1332
S':'
asbag56
(g77
g58
NtRp1333
(dp1334
g61
(dp1335
sg70
g1320
sg63
(lp1336
g56
(g57
g58
NtRp1337
(dp1338
g61
(dp1339
g69
I4
ssg70
g1333
sg63
(lp1340
g99
asbasbasbag56
(g72
g58
NtRp1341
(dp1342
g61
(dp1343
sg70
g1203
sg63
(lp1344
g56
(g77
g58
NtRp1345
(dp1346
g61
(dp1347
g81
g82
ssg70
g1341
sg63
(lp1348
S'gluon_parent'
p1349
asbag56
(g77
g58
NtRp1350
(dp1351
g61
(dp1352
g88
g89
ssg70
g1341
sg63
(lp1353
S':'
asbag56
(g77
g58
NtRp1354
(dp1355
g61
(dp1356
sg70
g1341
sg63
(lp1357
g56
(g57
g58
NtRp1358
(dp1359
g61
(dp1360
g69
I4
ssg70
g1354
sg63
(lp1361
S'/home/kaique/Projects/web2py'
p1362
asbasbasbag56
(g72
g58
NtRp1363
(dp1364
g61
(dp1365
sg70
g1203
sg63
(lp1366
g56
(g77
g58
NtRp1367
(dp1368
g61
(dp1369
g81
g82
ssg70
g1363
sg63
(lp1370
S'http_accept'
p1371
asbag56
(g77
g58
NtRp1372
(dp1373
g61
(dp1374
g88
g89
ssg70
g1363
sg63
(lp1375
S':'
asbag56
(g77
g58
NtRp1376
(dp1377
g61
(dp1378
sg70
g1363
sg63
(lp1379
g56
(g57
g58
NtRp1380
(dp1381
g61
(dp1382
g69
I4
ssg70
g1376
sg63
(lp1383
S'text/html,application/xhtml+xml,application/xml;q=0.9,*/*;q=0.8'
p1384
asbasbasbag56
(g72
g58
NtRp1385
(dp1386
g61
(dp1387
sg70
g1203
sg63
(lp1388
g56
(g77
g58
NtRp1389
(dp1390
g61
(dp1391
g81
g82
ssg70
g1385
sg63
(lp1392
S'http_accept_charset'
p1393
asbag56
(g77
g58
NtRp1394
(dp1395
g61
(dp1396
g88
g89
ssg70
g1385
sg63
(lp1397
S':'
asbag56
(g77
g58
NtRp1398
(dp1399
g61
(dp1400
sg70
g1385
sg63
(lp1401
g56
(g57
g58
NtRp1402
(dp1403
g61
(dp1404
g69
I4
ssg70
g1398
sg63
(lp1405
S'ISO-8859-1,utf-8;q=0.7,*;q=0.7'
p1406
asbasbasbag56
(g72
g58
NtRp1407
(dp1408
g61
(dp1409
sg70
g1203
sg63
(lp1410
g56
(g77
g58
NtRp1411
(dp1412
g61
(dp1413
g81
g82
ssg70
g1407
sg63
(lp1414
S'http_accept_encoding'
p1415
asbag56
(g77
g58
NtRp1416
(dp1417
g61
(dp1418
g88
g89
ssg70
g1407
sg63
(lp1419
S':'
asbag56
(g77
g58
NtRp1420
(dp1421
g61
(dp1422
sg70
g1407
sg63
(lp1423
g56
(g57
g58
NtRp1424
(dp1425
g61
(dp1426
g69
I4
ssg70
g1420
sg63
(lp1427
S'gzip, deflate'
p1428
asbasbasbag56
(g72
g58
NtRp1429
(dp1430
g61
(dp1431
sg70
g1203
sg63
(lp1432
g56
(g77
g58
NtRp1433
(dp1434
g61
(dp1435
g81
g82
ssg70
g1429
sg63
(lp1436
S'http_accept_language'
p1437
asbag56
(g77
g58
NtRp1438
(dp1439
g61
(dp1440
g88
g89
ssg70
g1429
sg63
(lp1441
S':'
asbag56
(g77
g58
NtRp1442
(dp1443
g61
(dp1444
sg70
g1429
sg63
(lp1445
g56
(g57
g58
NtRp1446
(dp1447
g61
(dp1448
g69
I4
ssg70
g1442
sg63
(lp1449
S'pt-br,pt;q=0.8,en-us;q=0.5,en;q=0.3'
p1450
asbasbasbag56
(g72
g58
NtRp1451
(dp1452
g61
(dp1453
sg70
g1203
sg63
(lp1454
g56
(g77
g58
NtRp1455
(dp1456
g61
(dp1457
g81
g82
ssg70
g1451
sg63
(lp1458
S'http_cache_control'
p1459
asbag56
(g77
g58
NtRp1460
(dp1461
g61
(dp1462
g88
g89
ssg70
g1451
sg63
(lp1463
S':'
asbag56
(g77
g58
NtRp1464
(dp1465
g61
(dp1466
sg70
g1451
sg63
(lp1467
g56
(g57
g58
NtRp1468
(dp1469
g61
(dp1470
g69
I4
ssg70
g1464
sg63
(lp1471
S'max-age=0'
p1472
asbasbasbag56
(g72
g58
NtRp1473
(dp1474
g61
(dp1475
sg70
g1203
sg63
(lp1476
g56
(g77
g58
NtRp1477
(dp1478
g61
(dp1479
g81
g82
ssg70
g1473
sg63
(lp1480
S'http_connection'
p1481
asbag56
(g77
g58
NtRp1482
(dp1483
g61
(dp1484
g88
g89
ssg70
g1473
sg63
(lp1485
S':'
asbag56
(g77
g58
NtRp1486
(dp1487
g61
(dp1488
sg70
g1473
sg63
(lp1489
g56
(g57
g58
NtRp1490
(dp1491
g61
(dp1492
g69
I4
ssg70
g1486
sg63
(lp1493
S'keep-alive'
p1494
asbasbasbag56
(g72
g58
NtRp1495
(dp1496
g61
(dp1497
sg70
g1203
sg63
(lp1498
g56
(g77
g58
NtRp1499
(dp1500
g61
(dp1501
g81
g82
ssg70
g1495
sg63
(lp1502
S'http_cookie'
p1503
asbag56
(g77
g58
NtRp1504
(dp1505
g61
(dp1506
g88
g89
ssg70
g1495
sg63
(lp1507
S':'
asbag56
(g77
g58
NtRp1508
(dp1509
g61
(dp1510
sg70
g1495
sg63
(lp1511
g56
(g57
g58
NtRp1512
(dp1513
g61
(dp1514
g69
I4
ssg70
g1508
sg63
(lp1515
S'currency=GBP; PHPSESSID=9p6ovvset7bb455bs5oc3eara3; session_id_welcome=127.0.0.1-2178f248-6721-4586-ae68-1cad380386a5; session_id_synopsis=127.0.0.1-22caa4ed-0448-4782-a756-bcb437fd81d3; session_id_admin=127.0.0.1-0b87d24d-feef-4771-9611-26979c7dbdf1'
p1516
asbasbasbag56
(g72
g58
NtRp1517
(dp1518
g61
(dp1519
sg70
g1203
sg63
(lp1520
g56
(g77
g58
NtRp1521
(dp1522
g61
(dp1523
g81
g82
ssg70
g1517
sg63
(lp1524
S'http_host'
p1525
asbag56
(g77
g58
NtRp1526
(dp1527
g61
(dp1528
g88
g89
ssg70
g1517
sg63
(lp1529
S':'
asbag56
(g77
g58
NtRp1530
(dp1531
g61
(dp1532
sg70
g1517
sg63
(lp1533
g56
(g57
g58
NtRp1534
(dp1535
g61
(dp1536
g69
I4
ssg70
g1530
sg63
(lp1537
S'localhost:8000'
p1538
asbasbasbag56
(g72
g58
NtRp1539
(dp1540
g61
(dp1541
sg70
g1203
sg63
(lp1542
g56
(g77
g58
NtRp1543
(dp1544
g61
(dp1545
g81
g82
ssg70
g1539
sg63
(lp1546
S'http_referer'
p1547
asbag56
(g77
g58
NtRp1548
(dp1549
g61
(dp1550
g88
g89
ssg70
g1539
sg63
(lp1551
S':'
asbag56
(g77
g58
NtRp1552
(dp1553
g61
(dp1554
sg70
g1539
sg63
(lp1555
g56
(g57
g58
NtRp1556
(dp1557
g61
(dp1558
g69
I4
ssg70
g1552
sg63
(lp1559
S'http://localhost:8000/synopsis/information/new/row/8'
p1560
asbasbasbag56
(g72
g58
NtRp1561
(dp1562
g61
(dp1563
sg70
g1203
sg63
(lp1564
g56
(g77
g58
NtRp1565
(dp1566
g61
(dp1567
g81
g82
ssg70
g1561
sg63
(lp1568
S'http_user_agent'
p1569
asbag56
(g77
g58
NtRp1570
(dp1571
g61
(dp1572
g88
g89
ssg70
g1561
sg63
(lp1573
S':'
asbag56
(g77
g58
NtRp1574
(dp1575
g61
(dp1576
sg70
g1561
sg63
(lp1577
g56
(g57
g58
NtRp1578
(dp1579
g61
(dp1580
g69
I4
ssg70
g1574
sg63
(lp1581
S'Mozilla/5.0 (Ubuntu; X11; Linux x86_64; rv:9.0.1) Gecko/20100101 Firefox/9.0.1'
p1582
asbasbasbag56
(g72
g58
NtRp1583
(dp1584
g61
(dp1585
sg70
g1203
sg63
(lp1586
g56
(g77
g58
NtRp1587
(dp1588
g61
(dp1589
g81
g82
ssg70
g1583
sg63
(lp1590
S'is_jython'
p1591
asbag56
(g77
g58
NtRp1592
(dp1593
g61
(dp1594
g88
g89
ssg70
g1583
sg63
(lp1595
S':'
asbag56
(g77
g58
NtRp1596
(dp1597
g61
(dp1598
sg70
g1583
sg63
(lp1599
g56
(g57
g58
NtRp1600
(dp1601
g61
(dp1602
g69
I4
ssg70
g1596
sg63
(lp1603
g99
asbasbasbag56
(g72
g58
NtRp1604
(dp1605
g61
(dp1606
sg70
g1203
sg63
(lp1607
g56
(g77
g58
NtRp1608
(dp1609
g61
(dp1610
g81
g82
ssg70
g1604
sg63
(lp1611
S'path_info'
p1612
asbag56
(g77
g58
NtRp1613
(dp1614
g61
(dp1615
g88
g89
ssg70
g1604
sg63
(lp1616
S':'
asbag56
(g77
g58
NtRp1617
(dp1618
g61
(dp1619
sg70
g1604
sg63
(lp1620
g56
(g57
g58
NtRp1621
(dp1622
g61
(dp1623
g69
I4
ssg70
g1617
sg63
(lp1624
S'/synopsis/information/publication/8'
p1625
asbasbasbag56
(g72
g58
NtRp1626
(dp1627
g61
(dp1628
sg70
g1203
sg63
(lp1629
g56
(g77
g58
NtRp1630
(dp1631
g61
(dp1632
g81
g82
ssg70
g1626
sg63
(lp1633
S'query_string'
p1634
asbag56
(g77
g58
NtRp1635
(dp1636
g61
(dp1637
g88
g89
ssg70
g1626
sg63
(lp1638
S':'
asbag56
(g77
g58
NtRp1639
(dp1640
g61
(dp1641
sg70
g1626
sg63
(lp1642
g56
(g57
g58
NtRp1643
(dp1644
g61
(dp1645
g69
I4
ssg70
g1639
sg63
(lp1646
S''
asbasbasbag56
(g72
g58
NtRp1647
(dp1648
g61
(dp1649
sg70
g1203
sg63
(lp1650
g56
(g77
g58
NtRp1651
(dp1652
g61
(dp1653
g81
g82
ssg70
g1647
sg63
(lp1654
S'remote_addr'
p1655
asbag56
(g77
g58
NtRp1656
(dp1657
g61
(dp1658
g88
g89
ssg70
g1647
sg63
(lp1659
S':'
asbag56
(g77
g58
NtRp1660
(dp1661
g61
(dp1662
sg70
g1647
sg63
(lp1663
g56
(g57
g58
NtRp1664
(dp1665
g61
(dp1666
g69
I4
ssg70
g1660
sg63
(lp1667
g201
asbasbasbag56
(g72
g58
NtRp1668
(dp1669
g61
(dp1670
sg70
g1203
sg63
(lp1671
g56
(g77
g58
NtRp1672
(dp1673
g61
(dp1674
g81
g82
ssg70
g1668
sg63
(lp1675
S'remote_port'
p1676
asbag56
(g77
g58
NtRp1677
(dp1678
g61
(dp1679
g88
g89
ssg70
g1668
sg63
(lp1680
S':'
asbag56
(g77
g58
NtRp1681
(dp1682
g61
(dp1683
sg70
g1668
sg63
(lp1684
g56
(g57
g58
NtRp1685
(dp1686
g61
(dp1687
g69
I4
ssg70
g1681
sg63
(lp1688
S'60664'
p1689
asbasbasbag56
(g72
g58
NtRp1690
(dp1691
g61
(dp1692
sg70
g1203
sg63
(lp1693
g56
(g77
g58
NtRp1694
(dp1695
g61
(dp1696
g81
g82
ssg70
g1690
sg63
(lp1697
S'request_method'
p1698
asbag56
(g77
g58
NtRp1699
(dp1700
g61
(dp1701
g88
g89
ssg70
g1690
sg63
(lp1702
S':'
asbag56
(g77
g58
NtRp1703
(dp1704
g61
(dp1705
sg70
g1690
sg63
(lp1706
g56
(g57
g58
NtRp1707
(dp1708
g61
(dp1709
g69
I4
ssg70
g1703
sg63
(lp1710
S'GET'
p1711
asbasbasbag56
(g72
g58
NtRp1712
(dp1713
g61
(dp1714
sg70
g1203
sg63
(lp1715
g56
(g77
g58
NtRp1716
(dp1717
g61
(dp1718
g81
g82
ssg70
g1712
sg63
(lp1719
S'script_name'
p1720
asbag56
(g77
g58
NtRp1721
(dp1722
g61
(dp1723
g88
g89
ssg70
g1712
sg63
(lp1724
S':'
asbag56
(g77
g58
NtRp1725
(dp1726
g61
(dp1727
sg70
g1712
sg63
(lp1728
g56
(g57
g58
NtRp1729
(dp1730
g61
(dp1731
g69
I4
ssg70
g1725
sg63
(lp1732
S''
asbasbasbag56
(g72
g58
NtRp1733
(dp1734
g61
(dp1735
sg70
g1203
sg63
(lp1736
g56
(g77
g58
NtRp1737
(dp1738
g61
(dp1739
g81
g82
ssg70
g1733
sg63
(lp1740
S'server_name'
p1741
asbag56
(g77
g58
NtRp1742
(dp1743
g61
(dp1744
g88
g89
ssg70
g1733
sg63
(lp1745
S':'
asbag56
(g77
g58
NtRp1746
(dp1747
g61
(dp1748
sg70
g1733
sg63
(lp1749
g56
(g57
g58
NtRp1750
(dp1751
g61
(dp1752
g69
I4
ssg70
g1746
sg63
(lp1753
S'kaique-Pine-Trail-M'
p1754
asbasbasbag56
(g72
g58
NtRp1755
(dp1756
g61
(dp1757
sg70
g1203
sg63
(lp1758
g56
(g77
g58
NtRp1759
(dp1760
g61
(dp1761
g81
g82
ssg70
g1755
sg63
(lp1762
S'server_port'
p1763
asbag56
(g77
g58
NtRp1764
(dp1765
g61
(dp1766
g88
g89
ssg70
g1755
sg63
(lp1767
S':'
asbag56
(g77
g58
NtRp1768
(dp1769
g61
(dp1770
sg70
g1755
sg63
(lp1771
g56
(g57
g58
NtRp1772
(dp1773
g61
(dp1774
g69
I4
ssg70
g1768
sg63
(lp1775
S'8000'
p1776
asbasbasbag56
(g72
g58
NtRp1777
(dp1778
g61
(dp1779
sg70
g1203
sg63
(lp1780
g56
(g77
g58
NtRp1781
(dp1782
g61
(dp1783
g81
g82
ssg70
g1777
sg63
(lp1784
S'server_protocol'
p1785
asbag56
(g77
g58
NtRp1786
(dp1787
g61
(dp1788
g88
g89
ssg70
g1777
sg63
(lp1789
S':'
asbag56
(g77
g58
NtRp1790
(dp1791
g61
(dp1792
sg70
g1777
sg63
(lp1793
g56
(g57
g58
NtRp1794
(dp1795
g61
(dp1796
g69
I4
ssg70
g1790
sg63
(lp1797
S'HTTP/1.1'
p1798
asbasbasbag56
(g72
g58
NtRp1799
(dp1800
g61
(dp1801
sg70
g1203
sg63
(lp1802
g56
(g77
g58
NtRp1803
(dp1804
g61
(dp1805
g81
g82
ssg70
g1799
sg63
(lp1806
S'server_software'
p1807
asbag56
(g77
g58
NtRp1808
(dp1809
g61
(dp1810
g88
g89
ssg70
g1799
sg63
(lp1811
S':'
asbag56
(g77
g58
NtRp1812
(dp1813
g61
(dp1814
sg70
g1799
sg63
(lp1815
g56
(g57
g58
NtRp1816
(dp1817
g61
(dp1818
g69
I4
ssg70
g1812
sg63
(lp1819
S'Rocket 1.2.4'
p1820
asbasbasbag56
(g72
g58
NtRp1821
(dp1822
g61
(dp1823
sg70
g1203
sg63
(lp1824
g56
(g77
g58
NtRp1825
(dp1826
g61
(dp1827
g81
g82
ssg70
g1821
sg63
(lp1828
S'web2py_crontype'
p1829
asbag56
(g77
g58
NtRp1830
(dp1831
g61
(dp1832
g88
g89
ssg70
g1821
sg63
(lp1833
S':'
asbag56
(g77
g58
NtRp1834
(dp1835
g61
(dp1836
sg70
g1821
sg63
(lp1837
g56
(g57
g58
NtRp1838
(dp1839
g61
(dp1840
g69
I4
ssg70
g1834
sg63
(lp1841
S'hard'
p1842
asbasbasbag56
(g72
g58
NtRp1843
(dp1844
g61
(dp1845
sg70
g1203
sg63
(lp1846
g56
(g77
g58
NtRp1847
(dp1848
g61
(dp1849
g81
g82
ssg70
g1843
sg63
(lp1850
S'web2py_path'
p1851
asbag56
(g77
g58
NtRp1852
(dp1853
g61
(dp1854
g88
g89
ssg70
g1843
sg63
(lp1855
S':'
asbag56
(g77
g58
NtRp1856
(dp1857
g61
(dp1858
sg70
g1843
sg63
(lp1859
g56
(g57
g58
NtRp1860
(dp1861
g61
(dp1862
g69
I4
ssg70
g1856
sg63
(lp1863
g1250
asbasbasbag56
(g72
g58
NtRp1864
(dp1865
g61
(dp1866
sg70
g1203
sg63
(lp1867
g56
(g77
g58
NtRp1868
(dp1869
g61
(dp1870
g81
g82
ssg70
g1864
sg63
(lp1871
S'web2py_version'
p1872
asbag56
(g77
g58
NtRp1873
(dp1874
g61
(dp1875
g88
g89
ssg70
g1864
sg63
(lp1876
S':'
asbag56
(g77
g58
NtRp1877
(dp1878
g61
(dp1879
sg70
g1864
sg63
(lp1880
g56
(g57
g58
NtRp1881
(dp1882
g61
(dp1883
g69
I4
ssg70
g1877
sg63
(lp1884
g56
(g65
g58
NtRp1885
(dp1886
g61
(dp1887
g69
I3
ssg70
Nsg63
(lp1888
g56
(g72
g58
NtRp1889
(dp1890
g61
(dp1891
sg70
g1885
sg63
(lp1892
g56
(g77
g58
NtRp1893
(dp1894
g61
(dp1895
sg70
g1889
sg63
(lp1896
g56
(g57
g58
NtRp1897
(dp1898
g61
(dp1899
g69
I3
ssg70
g1893
sg63
(lp1900
S'1'
asbasbasbag56
(g72
g58
NtRp1901
(dp1902
g61
(dp1903
sg70
g1885
sg63
(lp1904
g56
(g77
g58
NtRp1905
(dp1906
g61
(dp1907
sg70
g1901
sg63
(lp1908
g56
(g57
g58
NtRp1909
(dp1910
g61
(dp1911
g69
I3
ssg70
g1905
sg63
(lp1912
S'99'
p1913
asbasbasbag56
(g72
g58
NtRp1914
(dp1915
g61
(dp1916
sg70
g1885
sg63
(lp1917
g56
(g77
g58
NtRp1918
(dp1919
g61
(dp1920
sg70
g1914
sg63
(lp1921
g56
(g57
g58
NtRp1922
(dp1923
g61
(dp1924
g69
I3
ssg70
g1918
sg63
(lp1925
S'2'
asbasbasbag56
(g72
g58
NtRp1926
(dp1927
g61
(dp1928
sg70
g1885
sg63
(lp1929
g56
(g77
g58
NtRp1930
(dp1931
g61
(dp1932
sg70
g1926
sg63
(lp1933
g56
(g57
g58
NtRp1934
(dp1935
g61
(dp1936
g69
I3
ssg70
g1930
sg63
(lp1937
S'datetime.datetime(2011, 9, 26, 6, 55, 33)'
p1938
asbasbasbag56
(g72
g58
NtRp1939
(dp1940
g61
(dp1941
sg70
g1885
sg63
(lp1942
g56
(g77
g58
NtRp1943
(dp1944
g61
(dp1945
sg70
g1939
sg63
(lp1946
g56
(g57
g58
NtRp1947
(dp1948
g61
(dp1949
g69
I3
ssg70
g1943
sg63
(lp1950
S'stable'
p1951
asbasbasbasbasbasbasbag56
(g72
g58
NtRp1952
(dp1953
g61
(dp1954
sg70
g1203
sg63
(lp1955
g56
(g77
g58
NtRp1956
(dp1957
g61
(dp1958
g81
g82
ssg70
g1952
sg63
(lp1959
S'wsgi_errors'
p1960
asbag56
(g77
g58
NtRp1961
(dp1962
g61
(dp1963
g88
g89
ssg70
g1952
sg63
(lp1964
S':'
asbag56
(g77
g58
NtRp1965
(dp1966
g61
(dp1967
sg70
g1952
sg63
(lp1968
g56
(g57
g58
NtRp1969
(dp1970
g61
(dp1971
g69
I4
ssg70
g1965
sg63
(lp1972
S"<open file '<stderr>', mode 'w' at 0x7f587494c270>"
p1973
asbasbasbag56
(g72
g58
NtRp1974
(dp1975
g61
(dp1976
sg70
g1203
sg63
(lp1977
g56
(g77
g58
NtRp1978
(dp1979
g61
(dp1980
g81
g82
ssg70
g1974
sg63
(lp1981
S'wsgi_file_wrapper'
p1982
asbag56
(g77
g58
NtRp1983
(dp1984
g61
(dp1985
g88
g89
ssg70
g1974
sg63
(lp1986
S':'
asbag56
(g77
g58
NtRp1987
(dp1988
g61
(dp1989
sg70
g1974
sg63
(lp1990
g56
(g57
g58
NtRp1991
(dp1992
g61
(dp1993
g69
I4
ssg70
g1987
sg63
(lp1994
S'<class wsgiref.util.FileWrapper at 0x14a7ef0>'
p1995
asbasbasbag56
(g72
g58
NtRp1996
(dp1997
g61
(dp1998
sg70
g1203
sg63
(lp1999
g56
(g77
g58
NtRp2000
(dp2001
g61
(dp2002
g81
g82
ssg70
g1996
sg63
(lp2003
S'wsgi_input'
p2004
asbag56
(g77
g58
NtRp2005
(dp2006
g61
(dp2007
g88
g89
ssg70
g1996
sg63
(lp2008
S':'
asbag56
(g77
g58
NtRp2009
(dp2010
g61
(dp2011
sg70
g1996
sg63
(lp2012
g56
(g57
g58
NtRp2013
(dp2014
g61
(dp2015
g69
I4
ssg70
g2009
sg63
(lp2016
S'<socket._fileobject object at 0x1bed750>'
p2017
asbasbasbag56
(g72
g58
NtRp2018
(dp2019
g61
(dp2020
sg70
g1203
sg63
(lp2021
g56
(g77
g58
NtRp2022
(dp2023
g61
(dp2024
g81
g82
ssg70
g2018
sg63
(lp2025
S'wsgi_multiprocess'
p2026
asbag56
(g77
g58
NtRp2027
(dp2028
g61
(dp2029
g88
g89
ssg70
g2018
sg63
(lp2030
S':'
asbag56
(g77
g58
NtRp2031
(dp2032
g61
(dp2033
sg70
g2018
sg63
(lp2034
g56
(g57
g58
NtRp2035
(dp2036
g61
(dp2037
g69
I4
ssg70
g2031
sg63
(lp2038
g99
asbasbasbag56
(g72
g58
NtRp2039
(dp2040
g61
(dp2041
sg70
g1203
sg63
(lp2042
g56
(g77
g58
NtRp2043
(dp2044
g61
(dp2045
g81
g82
ssg70
g2039
sg63
(lp2046
S'wsgi_multithread'
p2047
asbag56
(g77
g58
NtRp2048
(dp2049
g61
(dp2050
g88
g89
ssg70
g2039
sg63
(lp2051
S':'
asbag56
(g77
g58
NtRp2052
(dp2053
g61
(dp2054
sg70
g2039
sg63
(lp2055
g56
(g57
g58
NtRp2056
(dp2057
g61
(dp2058
g69
I4
ssg70
g2052
sg63
(lp2059
S'True'
p2060
asbasbasbag56
(g72
g58
NtRp2061
(dp2062
g61
(dp2063
sg70
g1203
sg63
(lp2064
g56
(g77
g58
NtRp2065
(dp2066
g61
(dp2067
g81
g82
ssg70
g2061
sg63
(lp2068
S'wsgi_run_once'
p2069
asbag56
(g77
g58
NtRp2070
(dp2071
g61
(dp2072
g88
g89
ssg70
g2061
sg63
(lp2073
S':'
asbag56
(g77
g58
NtRp2074
(dp2075
g61
(dp2076
sg70
g2061
sg63
(lp2077
g56
(g57
g58
NtRp2078
(dp2079
g61
(dp2080
g69
I4
ssg70
g2074
sg63
(lp2081
g99
asbasbasbag56
(g72
g58
NtRp2082
(dp2083
g61
(dp2084
sg70
g1203
sg63
(lp2085
g56
(g77
g58
NtRp2086
(dp2087
g61
(dp2088
g81
g82
ssg70
g2082
sg63
(lp2089
S'wsgi_url_scheme'
p2090
asbag56
(g77
g58
NtRp2091
(dp2092
g61
(dp2093
g88
g89
ssg70
g2082
sg63
(lp2094
S':'
asbag56
(g77
g58
NtRp2095
(dp2096
g61
(dp2097
sg70
g2082
sg63
(lp2098
g56
(g57
g58
NtRp2099
(dp2100
g61
(dp2101
g69
I4
ssg70
g2095
sg63
(lp2102
S'http'
p2103
asbasbasbag56
(g72
g58
NtRp2104
(dp2105
g61
(dp2106
sg70
g1203
sg63
(lp2107
g56
(g77
g58
NtRp2108
(dp2109
g61
(dp2110
g81
g82
ssg70
g2104
sg63
(lp2111
S'wsgi_version'
p2112
asbag56
(g77
g58
NtRp2113
(dp2114
g61
(dp2115
g88
g89
ssg70
g2104
sg63
(lp2116
S':'
asbag56
(g77
g58
NtRp2117
(dp2118
g61
(dp2119
sg70
g2104
sg63
(lp2120
g56
(g57
g58
NtRp2121
(dp2122
g61
(dp2123
g69
I4
ssg70
g2117
sg63
(lp2124
g56
(g65
g58
NtRp2125
(dp2126
g61
(dp2127
g69
I3
ssg70
Nsg63
(lp2128
g56
(g72
g58
NtRp2129
(dp2130
g61
(dp2131
sg70
g2125
sg63
(lp2132
g56
(g77
g58
NtRp2133
(dp2134
g61
(dp2135
sg70
g2129
sg63
(lp2136
g56
(g57
g58
NtRp2137
(dp2138
g61
(dp2139
g69
I3
ssg70
g2133
sg63
(lp2140
S'1'
asbasbasbag56
(g72
g58
NtRp2141
(dp2142
g61
(dp2143
sg70
g2125
sg63
(lp2144
g56
(g77
g58
NtRp2145
(dp2146
g61
(dp2147
sg70
g2141
sg63
(lp2148
g56
(g57
g58
NtRp2149
(dp2150
g61
(dp2151
g69
I3
ssg70
g2145
sg63
(lp2152
S'0'
asbasbasbasbasbasbasbasbasbasbasbag56
(g72
g58
NtRp2153
(dp2154
g61
(dp2155
sg70
g66
sg63
(lp2156
g56
(g77
g58
NtRp2157
(dp2158
g61
(dp2159
g81
g82
ssg70
g2153
sg63
(lp2160
S'extension'
p2161
asbag56
(g77
g58
NtRp2162
(dp2163
g61
(dp2164
g88
g89
ssg70
g2153
sg63
(lp2165
S':'
asbag56
(g77
g58
NtRp2166
(dp2167
g61
(dp2168
sg70
g2153
sg63
(lp2169
g56
(g57
g58
NtRp2170
(dp2171
g61
(dp2172
g69
I5
ssg70
g2166
sg63
(lp2173
S'html'
p2174
asbasbasbag56
(g72
g58
NtRp2175
(dp2176
g61
(dp2177
sg70
g66
sg63
(lp2178
g56
(g77
g58
NtRp2179
(dp2180
g61
(dp2181
g81
g82
ssg70
g2175
sg63
(lp2182
S'folder'
p2183
asbag56
(g77
g58
NtRp2184
(dp2185
g61
(dp2186
g88
g89
ssg70
g2175
sg63
(lp2187
S':'
asbag56
(g77
g58
NtRp2188
(dp2189
g61
(dp2190
sg70
g2175
sg63
(lp2191
g56
(g57
g58
NtRp2192
(dp2193
g61
(dp2194
g69
I5
ssg70
g2188
sg63
(lp2195
S'/home/kaique/Projects/web2py/applications/synopsis/'
p2196
asbasbasbag56
(g72
g58
NtRp2197
(dp2198
g61
(dp2199
sg70
g66
sg63
(lp2200
g56
(g77
g58
NtRp2201
(dp2202
g61
(dp2203
g81
g82
ssg70
g2197
sg63
(lp2204
S'function'
p2205
asbag56
(g77
g58
NtRp2206
(dp2207
g61
(dp2208
g88
g89
ssg70
g2197
sg63
(lp2209
S':'
asbag56
(g77
g58
NtRp2210
(dp2211
g61
(dp2212
sg70
g2197
sg63
(lp2213
g56
(g57
g58
NtRp2214
(dp2215
g61
(dp2216
g69
I5
ssg70
g2210
sg63
(lp2217
S'publication'
p2218
asbasbasbag56
(g72
g58
NtRp2219
(dp2220
g61
(dp2221
sg70
g66
sg63
(lp2222
g56
(g77
g58
NtRp2223
(dp2224
g61
(dp2225
g81
g82
ssg70
g2219
sg63
(lp2226
S'get_vars'
p2227
asbag56
(g77
g58
NtRp2228
(dp2229
g61
(dp2230
g88
g89
ssg70
g2219
sg63
(lp2231
S':'
asbag56
(g77
g58
NtRp2232
(dp2233
g61
(dp2234
sg70
g2219
sg63
(lp2235
g56
(g57
g58
NtRp2236
(dp2237
g61
(dp2238
g69
I5
ssg70
g2232
sg63
(lp2239
g56
(g65
g58
NtRp2240
(dp2241
g61
(dp2242
g69
I4
ssg70
Nsg63
(lp2243
sbasbasbasbag56
(g72
g58
NtRp2244
(dp2245
g61
(dp2246
sg70
g66
sg63
(lp2247
g56
(g77
g58
NtRp2248
(dp2249
g61
(dp2250
g81
g82
ssg70
g2244
sg63
(lp2251
S'global_settings'
p2252
asbag56
(g77
g58
NtRp2253
(dp2254
g61
(dp2255
g88
g89
ssg70
g2244
sg63
(lp2256
S':'
asbag56
(g77
g58
NtRp2257
(dp2258
g61
(dp2259
sg70
g2244
sg63
(lp2260
g56
(g57
g58
NtRp2261
(dp2262
g61
(dp2263
g69
I5
ssg70
g2257
sg63
(lp2264
g56
(g65
g58
NtRp2265
(dp2266
g61
(dp2267
g69
I4
ssg70
Nsg63
(lp2268
g56
(g72
g58
NtRp2269
(dp2270
g61
(dp2271
sg70
g2265
sg63
(lp2272
g56
(g77
g58
NtRp2273
(dp2274
g61
(dp2275
g81
g82
ssg70
g2269
sg63
(lp2276
g1215
asbag56
(g77
g58
NtRp2277
(dp2278
g61
(dp2279
g88
g89
ssg70
g2269
sg63
(lp2280
S':'
asbag56
(g77
g58
NtRp2281
(dp2282
g61
(dp2283
sg70
g2269
sg63
(lp2284
g56
(g57
g58
NtRp2285
(dp2286
g61
(dp2287
g69
I4
ssg70
g2281
sg63
(lp2288
S"set(['/home/kaique/Projects/web2py/applications/synopsis/', '/home/kaique/Projects/web2py/applications/admin/'])"
p2289
asbasbasbag56
(g72
g58
NtRp2290
(dp2291
g61
(dp2292
sg70
g2265
sg63
(lp2293
g56
(g77
g58
NtRp2294
(dp2295
g61
(dp2296
g81
g82
ssg70
g2290
sg63
(lp2297
g1237
asbag56
(g77
g58
NtRp2298
(dp2299
g61
(dp2300
g88
g89
ssg70
g2290
sg63
(lp2301
S':'
asbag56
(g77
g58
NtRp2302
(dp2303
g61
(dp2304
sg70
g2290
sg63
(lp2305
g56
(g57
g58
NtRp2306
(dp2307
g61
(dp2308
g69
I4
ssg70
g2302
sg63
(lp2309
g1250
asbasbasbag56
(g72
g58
NtRp2310
(dp2311
g61
(dp2312
sg70
g2265
sg63
(lp2313
g56
(g77
g58
NtRp2314
(dp2315
g61
(dp2316
g81
g82
ssg70
g2310
sg63
(lp2317
g1259
asbag56
(g77
g58
NtRp2318
(dp2319
g61
(dp2320
g88
g89
ssg70
g2310
sg63
(lp2321
S':'
asbag56
(g77
g58
NtRp2322
(dp2323
g61
(dp2324
sg70
g2310
sg63
(lp2325
g56
(g57
g58
NtRp2326
(dp2327
g61
(dp2328
g69
I4
ssg70
g2322
sg63
(lp2329
g56
(g65
g58
NtRp2330
(dp2331
g61
(dp2332
g69
I3
ssg70
Nsg63
(lp2333
sbasbasbasbag56
(g72
g58
NtRp2334
(dp2335
g61
(dp2336
sg70
g2265
sg63
(lp2337
g56
(g77
g58
NtRp2338
(dp2339
g61
(dp2340
g81
g82
ssg70
g2334
sg63
(lp2341
g1284
asbag56
(g77
g58
NtRp2342
(dp2343
g61
(dp2344
g88
g89
ssg70
g2334
sg63
(lp2345
S':'
asbag56
(g77
g58
NtRp2346
(dp2347
g61
(dp2348
sg70
g2334
sg63
(lp2349
g56
(g57
g58
NtRp2350
(dp2351
g61
(dp2352
g69
I4
ssg70
g2346
sg63
(lp2353
S"<Values at 0x15f0950: {'verbose': False, 'ip': '127.0.0.1', 'shutdown_timeout': 5, 'taskbar': False, 'nocron': False, 'pid_filename': 'httpserver.pid', 'maxthreads': None, 'softcron': False, 'server_name': 'kaique-Pine-Trail-M', 'bpython': False, 'nogui': False, 'port': 8000, 'extcron': False, 'debuglevel': 30, 'test': None, 'folder': '/home/kaique/Projects/web2py', 'config': '', 'import_models': False, 'winservice': '', 'shell': None, 'run': '', 'log_filename': 'httpserver.log', 'args': [''], 'ssl_ca_certificate': None, 'scheduler': None, 'profiler_filename': None, 'ssl_private_key': '', 'password': 'dev', 'request_queue_size': 5, 'ssl_certificate': '', 'cronjob': False, 'plain': False, 'quiet': False, 'interfaces': None, 'minthreads': None, 'timeout': 10, 'numthreads': None, 'nobanner': False}>"
p2354
asbasbasbag56
(g72
g58
NtRp2355
(dp2356
g61
(dp2357
sg70
g2265
sg63
(lp2358
g56
(g77
g58
NtRp2359
(dp2360
g61
(dp2361
g81
g82
ssg70
g2355
sg63
(lp2362
g1306
asbag56
(g77
g58
NtRp2363
(dp2364
g61
(dp2365
g88
g89
ssg70
g2355
sg63
(lp2366
S':'
asbag56
(g77
g58
NtRp2367
(dp2368
g61
(dp2369
sg70
g2355
sg63
(lp2370
g56
(g57
g58
NtRp2371
(dp2372
g61
(dp2373
g69
I4
ssg70
g2367
sg63
(lp2374
S'set([])'
p2375
asbasbasbag56
(g72
g58
NtRp2376
(dp2377
g61
(dp2378
sg70
g2265
sg63
(lp2379
g56
(g77
g58
NtRp2380
(dp2381
g61
(dp2382
g81
g82
ssg70
g2376
sg63
(lp2383
g1328
asbag56
(g77
g58
NtRp2384
(dp2385
g61
(dp2386
g88
g89
ssg70
g2376
sg63
(lp2387
S':'
asbag56
(g77
g58
NtRp2388
(dp2389
g61
(dp2390
sg70
g2376
sg63
(lp2391
g56
(g57
g58
NtRp2392
(dp2393
g61
(dp2394
g69
I4
ssg70
g2388
sg63
(lp2395
g99
asbasbasbag56
(g72
g58
NtRp2396
(dp2397
g61
(dp2398
sg70
g2265
sg63
(lp2399
g56
(g77
g58
NtRp2400
(dp2401
g61
(dp2402
g81
g82
ssg70
g2396
sg63
(lp2403
g1349
asbag56
(g77
g58
NtRp2404
(dp2405
g61
(dp2406
g88
g89
ssg70
g2396
sg63
(lp2407
S':'
asbag56
(g77
g58
NtRp2408
(dp2409
g61
(dp2410
sg70
g2396
sg63
(lp2411
g56
(g57
g58
NtRp2412
(dp2413
g61
(dp2414
g69
I4
ssg70
g2408
sg63
(lp2415
g1362
asbasbasbag56
(g72
g58
NtRp2416
(dp2417
g61
(dp2418
sg70
g2265
sg63
(lp2419
g56
(g77
g58
NtRp2420
(dp2421
g61
(dp2422
g81
g82
ssg70
g2416
sg63
(lp2423
g1591
asbag56
(g77
g58
NtRp2424
(dp2425
g61
(dp2426
g88
g89
ssg70
g2416
sg63
(lp2427
S':'
asbag56
(g77
g58
NtRp2428
(dp2429
g61
(dp2430
sg70
g2416
sg63
(lp2431
g56
(g57
g58
NtRp2432
(dp2433
g61
(dp2434
g69
I4
ssg70
g2428
sg63
(lp2435
g99
asbasbasbag56
(g72
g58
NtRp2436
(dp2437
g61
(dp2438
sg70
g2265
sg63
(lp2439
g56
(g77
g58
NtRp2440
(dp2441
g61
(dp2442
g81
g82
ssg70
g2436
sg63
(lp2443
g1829
asbag56
(g77
g58
NtRp2444
(dp2445
g61
(dp2446
g88
g89
ssg70
g2436
sg63
(lp2447
S':'
asbag56
(g77
g58
NtRp2448
(dp2449
g61
(dp2450
sg70
g2436
sg63
(lp2451
g56
(g57
g58
NtRp2452
(dp2453
g61
(dp2454
g69
I4
ssg70
g2448
sg63
(lp2455
g1842
asbasbasbag56
(g72
g58
NtRp2456
(dp2457
g61
(dp2458
sg70
g2265
sg63
(lp2459
g56
(g77
g58
NtRp2460
(dp2461
g61
(dp2462
g81
g82
ssg70
g2456
sg63
(lp2463
g1872
asbag56
(g77
g58
NtRp2464
(dp2465
g61
(dp2466
g88
g89
ssg70
g2456
sg63
(lp2467
S':'
asbag56
(g77
g58
NtRp2468
(dp2469
g61
(dp2470
sg70
g2456
sg63
(lp2471
g56
(g57
g58
NtRp2472
(dp2473
g61
(dp2474
g69
I4
ssg70
g2468
sg63
(lp2475
g56
(g65
g58
NtRp2476
(dp2477
g61
(dp2478
g69
I3
ssg70
Nsg63
(lp2479
g56
(g72
g58
NtRp2480
(dp2481
g61
(dp2482
sg70
g2476
sg63
(lp2483
g56
(g77
g58
NtRp2484
(dp2485
g61
(dp2486
sg70
g2480
sg63
(lp2487
g56
(g57
g58
NtRp2488
(dp2489
g61
(dp2490
g69
I3
ssg70
g2484
sg63
(lp2491
S'1'
asbasbasbag56
(g72
g58
NtRp2492
(dp2493
g61
(dp2494
sg70
g2476
sg63
(lp2495
g56
(g77
g58
NtRp2496
(dp2497
g61
(dp2498
sg70
g2492
sg63
(lp2499
g56
(g57
g58
NtRp2500
(dp2501
g61
(dp2502
g69
I3
ssg70
g2496
sg63
(lp2503
S'99'
p2504
asbasbasbag56
(g72
g58
NtRp2505
(dp2506
g61
(dp2507
sg70
g2476
sg63
(lp2508
g56
(g77
g58
NtRp2509
(dp2510
g61
(dp2511
sg70
g2505
sg63
(lp2512
g56
(g57
g58
NtRp2513
(dp2514
g61
(dp2515
g69
I3
ssg70
g2509
sg63
(lp2516
S'2'
asbasbasbag56
(g72
g58
NtRp2517
(dp2518
g61
(dp2519
sg70
g2476
sg63
(lp2520
g56
(g77
g58
NtRp2521
(dp2522
g61
(dp2523
sg70
g2517
sg63
(lp2524
g56
(g57
g58
NtRp2525
(dp2526
g61
(dp2527
g69
I3
ssg70
g2521
sg63
(lp2528
S'datetime.datetime(2011, 9, 26, 6, 55, 33)'
p2529
asbasbasbag56
(g72
g58
NtRp2530
(dp2531
g61
(dp2532
sg70
g2476
sg63
(lp2533
g56
(g77
g58
NtRp2534
(dp2535
g61
(dp2536
sg70
g2530
sg63
(lp2537
g56
(g57
g58
NtRp2538
(dp2539
g61
(dp2540
g69
I3
ssg70
g2534
sg63
(lp2541
g1951
asbasbasbasbasbasbasbasbasbasbasbag56
(g72
g58
NtRp2542
(dp2543
g61
(dp2544
sg70
g66
sg63
(lp2545
g56
(g77
g58
NtRp2546
(dp2547
g61
(dp2548
g81
g82
ssg70
g2542
sg63
(lp2549
S'is_https'
p2550
asbag56
(g77
g58
NtRp2551
(dp2552
g61
(dp2553
g88
g89
ssg70
g2542
sg63
(lp2554
S':'
asbag56
(g77
g58
NtRp2555
(dp2556
g61
(dp2557
sg70
g2542
sg63
(lp2558
g56
(g57
g58
NtRp2559
(dp2560
g61
(dp2561
g69
I5
ssg70
g2555
sg63
(lp2562
g99
asbasbasbag56
(g72
g58
NtRp2563
(dp2564
g61
(dp2565
sg70
g66
sg63
(lp2566
g56
(g77
g58
NtRp2567
(dp2568
g61
(dp2569
g81
g82
ssg70
g2563
sg63
(lp2570
S'is_local'
p2571
asbag56
(g77
g58
NtRp2572
(dp2573
g61
(dp2574
g88
g89
ssg70
g2563
sg63
(lp2575
S':'
asbag56
(g77
g58
NtRp2576
(dp2577
g61
(dp2578
sg70
g2563
sg63
(lp2579
g56
(g57
g58
NtRp2580
(dp2581
g61
(dp2582
g69
I5
ssg70
g2576
sg63
(lp2583
g2060
asbasbasbag56
(g72
g58
NtRp2584
(dp2585
g61
(dp2586
sg70
g66
sg63
(lp2587
g56
(g77
g58
NtRp2588
(dp2589
g61
(dp2590
g81
g82
ssg70
g2584
sg63
(lp2591
S'is_restful'
p2592
asbag56
(g77
g58
NtRp2593
(dp2594
g61
(dp2595
g88
g89
ssg70
g2584
sg63
(lp2596
S':'
asbag56
(g77
g58
NtRp2597
(dp2598
g61
(dp2599
sg70
g2584
sg63
(lp2600
g56
(g57
g58
NtRp2601
(dp2602
g61
(dp2603
g69
I5
ssg70
g2597
sg63
(lp2604
g99
asbasbasbag56
(g72
g58
NtRp2605
(dp2606
g61
(dp2607
sg70
g66
sg63
(lp2608
g56
(g77
g58
NtRp2609
(dp2610
g61
(dp2611
g81
g82
ssg70
g2605
sg63
(lp2612
S'now'
p2613
asbag56
(g77
g58
NtRp2614
(dp2615
g61
(dp2616
g88
g89
ssg70
g2605
sg63
(lp2617
S':'
asbag56
(g77
g58
NtRp2618
(dp2619
g61
(dp2620
sg70
g2605
sg63
(lp2621
g56
(g57
g58
NtRp2622
(dp2623
g61
(dp2624
g69
I5
ssg70
g2618
sg63
(lp2625
S'datetime.datetime(2012, 1, 13, 23, 5, 35, 404724)'
p2626
asbasbasbag56
(g72
g58
NtRp2627
(dp2628
g61
(dp2629
sg70
g66
sg63
(lp2630
g56
(g77
g58
NtRp2631
(dp2632
g61
(dp2633
g81
g82
ssg70
g2627
sg63
(lp2634
S'post_vars'
p2635
asbag56
(g77
g58
NtRp2636
(dp2637
g61
(dp2638
g88
g89
ssg70
g2627
sg63
(lp2639
S':'
asbag56
(g77
g58
NtRp2640
(dp2641
g61
(dp2642
sg70
g2627
sg63
(lp2643
g56
(g57
g58
NtRp2644
(dp2645
g61
(dp2646
g69
I5
ssg70
g2640
sg63
(lp2647
g56
(g65
g58
NtRp2648
(dp2649
g61
(dp2650
g69
I4
ssg70
Nsg63
(lp2651
sbasbasbasbag56
(g72
g58
NtRp2652
(dp2653
g61
(dp2654
sg70
g66
sg63
(lp2655
g56
(g77
g58
NtRp2656
(dp2657
g61
(dp2658
g81
g82
ssg70
g2652
sg63
(lp2659
S'raw_args'
p2660
asbag56
(g77
g58
NtRp2661
(dp2662
g61
(dp2663
g88
g89
ssg70
g2652
sg63
(lp2664
S':'
asbag56
(g77
g58
NtRp2665
(dp2666
g61
(dp2667
sg70
g2652
sg63
(lp2668
g56
(g57
g58
NtRp2669
(dp2670
g61
(dp2671
g69
I5
ssg70
g2665
sg63
(lp2672
S'8'
asbasbasbag56
(g72
g58
NtRp2673
(dp2674
g61
(dp2675
sg70
g66
sg63
(lp2676
g56
(g77
g58
NtRp2677
(dp2678
g61
(dp2679
g81
g82
ssg70
g2673
sg63
(lp2680
S'url'
p2681
asbag56
(g77
g58
NtRp2682
(dp2683
g61
(dp2684
g88
g89
ssg70
g2673
sg63
(lp2685
S':'
asbag56
(g77
g58
NtRp2686
(dp2687
g61
(dp2688
sg70
g2673
sg63
(lp2689
g56
(g57
g58
NtRp2690
(dp2691
g61
(dp2692
g69
I5
ssg70
g2686
sg63
(lp2693
S'/synopsis/information/publication/8'
p2694
asbasbasbag56
(g72
g58
NtRp2695
(dp2696
g61
(dp2697
sg70
g66
sg63
(lp2698
g56
(g77
g58
NtRp2699
(dp2700
g61
(dp2701
g81
g82
ssg70
g2695
sg63
(lp2702
S'utcnow'
p2703
asbag56
(g77
g58
NtRp2704
(dp2705
g61
(dp2706
g88
g89
ssg70
g2695
sg63
(lp2707
S':'
asbag56
(g77
g58
NtRp2708
(dp2709
g61
(dp2710
sg70
g2695
sg63
(lp2711
g56
(g57
g58
NtRp2712
(dp2713
g61
(dp2714
g69
I5
ssg70
g2708
sg63
(lp2715
S'datetime.datetime(2012, 1, 14, 1, 5, 35, 404792)'
p2716
asbasbasbag56
(g72
g58
NtRp2717
(dp2718
g61
(dp2719
sg70
g66
sg63
(lp2720
g56
(g77
g58
NtRp2721
(dp2722
g61
(dp2723
g81
g82
ssg70
g2717
sg63
(lp2724
S'uuid'
p2725
asbag56
(g77
g58
NtRp2726
(dp2727
g61
(dp2728
g88
g89
ssg70
g2717
sg63
(lp2729
S':'
asbag56
(g77
g58
NtRp2730
(dp2731
g61
(dp2732
sg70
g2717
sg63
(lp2733
g56
(g57
g58
NtRp2734
(dp2735
g61
(dp2736
g69
I5
ssg70
g2730
sg63
(lp2737
S'synopsis/127.0.0.1.2012-01-13.23-05-35.14a850d5-3d59-40c4-a59e-5a9ac81953bb'
p2738
asbasbasbag56
(g72
g58
NtRp2739
(dp2740
g61
(dp2741
sg70
g66
sg63
(lp2742
g56
(g77
g58
NtRp2743
(dp2744
g61
(dp2745
g81
g82
ssg70
g2739
sg63
(lp2746
S'vars'
p2747
asbag56
(g77
g58
NtRp2748
(dp2749
g61
(dp2750
g88
g89
ssg70
g2739
sg63
(lp2751
S':'
asbag56
(g77
g58
NtRp2752
(dp2753
g61
(dp2754
sg70
g2739
sg63
(lp2755
g56
(g57
g58
NtRp2756
(dp2757
g61
(dp2758
g69
I5
ssg70
g2752
sg63
(lp2759
g56
(g65
g58
NtRp2760
(dp2761
g61
(dp2762
g69
I4
ssg70
Nsg63
(lp2763
sbasbasbasbag56
(g72
g58
NtRp2764
(dp2765
g61
(dp2766
sg70
g66
sg63
(lp2767
g56
(g77
g58
NtRp2768
(dp2769
g61
(dp2770
g81
g82
ssg70
g2764
sg63
(lp2771
S'wsgi'
p2772
asbag56
(g77
g58
NtRp2773
(dp2774
g61
(dp2775
g88
g89
ssg70
g2764
sg63
(lp2776
S':'
asbag56
(g77
g58
NtRp2777
(dp2778
g61
(dp2779
sg70
g2764
sg63
(lp2780
g56
(g57
g58
NtRp2781
(dp2782
g61
(dp2783
g69
I5
ssg70
g2777
sg63
(lp2784
g56
(g65
g58
NtRp2785
(dp2786
g61
(dp2787
g69
I4
ssg70
Nsg63
(lp2788
g56
(g72
g58
NtRp2789
(dp2790
g61
(dp2791
sg70
g2785
sg63
(lp2792
g56
(g77
g58
NtRp2793
(dp2794
g61
(dp2795
g81
g82
ssg70
g2789
sg63
(lp2796
S'environ'
p2797
asbag56
(g77
g58
NtRp2798
(dp2799
g61
(dp2800
g88
g89
ssg70
g2789
sg63
(lp2801
S':'
asbag56
(g77
g58
NtRp2802
(dp2803
g61
(dp2804
sg70
g2789
sg63
(lp2805
g56
(g57
g58
NtRp2806
(dp2807
g61
(dp2808
g69
I4
ssg70
g2802
sg63
(lp2809
g56
(g65
g58
NtRp2810
(dp2811
g61
(dp2812
g69
I3
ssg70
Nsg63
(lp2813
g56
(g72
g58
NtRp2814
(dp2815
g61
(dp2816
sg70
g2810
sg63
(lp2817
g56
(g77
g58
NtRp2818
(dp2819
g61
(dp2820
g81
g82
ssg70
g2814
sg63
(lp2821
S'HTTP_ACCEPT'
p2822
asbag56
(g77
g58
NtRp2823
(dp2824
g61
(dp2825
g88
g89
ssg70
g2814
sg63
(lp2826
S':'
asbag56
(g77
g58
NtRp2827
(dp2828
g61
(dp2829
sg70
g2814
sg63
(lp2830
g56
(g57
g58
NtRp2831
(dp2832
g61
(dp2833
g69
I3
ssg70
g2827
sg63
(lp2834
g1384
asbasbasbag56
(g72
g58
NtRp2835
(dp2836
g61
(dp2837
sg70
g2810
sg63
(lp2838
g56
(g77
g58
NtRp2839
(dp2840
g61
(dp2841
g81
g82
ssg70
g2835
sg63
(lp2842
S'HTTP_ACCEPT_CHARSET'
p2843
asbag56
(g77
g58
NtRp2844
(dp2845
g61
(dp2846
g88
g89
ssg70
g2835
sg63
(lp2847
S':'
asbag56
(g77
g58
NtRp2848
(dp2849
g61
(dp2850
sg70
g2835
sg63
(lp2851
g56
(g57
g58
NtRp2852
(dp2853
g61
(dp2854
g69
I3
ssg70
g2848
sg63
(lp2855
g1406
asbasbasbag56
(g72
g58
NtRp2856
(dp2857
g61
(dp2858
sg70
g2810
sg63
(lp2859
g56
(g77
g58
NtRp2860
(dp2861
g61
(dp2862
g81
g82
ssg70
g2856
sg63
(lp2863
S'HTTP_ACCEPT_ENCODING'
p2864
asbag56
(g77
g58
NtRp2865
(dp2866
g61
(dp2867
g88
g89
ssg70
g2856
sg63
(lp2868
S':'
asbag56
(g77
g58
NtRp2869
(dp2870
g61
(dp2871
sg70
g2856
sg63
(lp2872
g56
(g57
g58
NtRp2873
(dp2874
g61
(dp2875
g69
I3
ssg70
g2869
sg63
(lp2876
g1428
asbasbasbag56
(g72
g58
NtRp2877
(dp2878
g61
(dp2879
sg70
g2810
sg63
(lp2880
g56
(g77
g58
NtRp2881
(dp2882
g61
(dp2883
g81
g82
ssg70
g2877
sg63
(lp2884
S'HTTP_ACCEPT_LANGUAGE'
p2885
asbag56
(g77
g58
NtRp2886
(dp2887
g61
(dp2888
g88
g89
ssg70
g2877
sg63
(lp2889
S':'
asbag56
(g77
g58
NtRp2890
(dp2891
g61
(dp2892
sg70
g2877
sg63
(lp2893
g56
(g57
g58
NtRp2894
(dp2895
g61
(dp2896
g69
I3
ssg70
g2890
sg63
(lp2897
g1450
asbasbasbag56
(g72
g58
NtRp2898
(dp2899
g61
(dp2900
sg70
g2810
sg63
(lp2901
g56
(g77
g58
NtRp2902
(dp2903
g61
(dp2904
g81
g82
ssg70
g2898
sg63
(lp2905
S'HTTP_CACHE_CONTROL'
p2906
asbag56
(g77
g58
NtRp2907
(dp2908
g61
(dp2909
g88
g89
ssg70
g2898
sg63
(lp2910
S':'
asbag56
(g77
g58
NtRp2911
(dp2912
g61
(dp2913
sg70
g2898
sg63
(lp2914
g56
(g57
g58
NtRp2915
(dp2916
g61
(dp2917
g69
I3
ssg70
g2911
sg63
(lp2918
g1472
asbasbasbag56
(g72
g58
NtRp2919
(dp2920
g61
(dp2921
sg70
g2810
sg63
(lp2922
g56
(g77
g58
NtRp2923
(dp2924
g61
(dp2925
g81
g82
ssg70
g2919
sg63
(lp2926
S'HTTP_CONNECTION'
p2927
asbag56
(g77
g58
NtRp2928
(dp2929
g61
(dp2930
g88
g89
ssg70
g2919
sg63
(lp2931
S':'
asbag56
(g77
g58
NtRp2932
(dp2933
g61
(dp2934
sg70
g2919
sg63
(lp2935
g56
(g57
g58
NtRp2936
(dp2937
g61
(dp2938
g69
I3
ssg70
g2932
sg63
(lp2939
g1494
asbasbasbag56
(g72
g58
NtRp2940
(dp2941
g61
(dp2942
sg70
g2810
sg63
(lp2943
g56
(g77
g58
NtRp2944
(dp2945
g61
(dp2946
g81
g82
ssg70
g2940
sg63
(lp2947
S'HTTP_COOKIE'
p2948
asbag56
(g77
g58
NtRp2949
(dp2950
g61
(dp2951
g88
g89
ssg70
g2940
sg63
(lp2952
S':'
asbag56
(g77
g58
NtRp2953
(dp2954
g61
(dp2955
sg70
g2940
sg63
(lp2956
g56
(g57
g58
NtRp2957
(dp2958
g61
(dp2959
g69
I3
ssg70
g2953
sg63
(lp2960
g1516
asbasbasbag56
(g72
g58
NtRp2961
(dp2962
g61
(dp2963
sg70
g2810
sg63
(lp2964
g56
(g77
g58
NtRp2965
(dp2966
g61
(dp2967
g81
g82
ssg70
g2961
sg63
(lp2968
S'HTTP_HOST'
p2969
asbag56
(g77
g58
NtRp2970
(dp2971
g61
(dp2972
g88
g89
ssg70
g2961
sg63
(lp2973
S':'
asbag56
(g77
g58
NtRp2974
(dp2975
g61
(dp2976
sg70
g2961
sg63
(lp2977
g56
(g57
g58
NtRp2978
(dp2979
g61
(dp2980
g69
I3
ssg70
g2974
sg63
(lp2981
g1538
asbasbasbag56
(g72
g58
NtRp2982
(dp2983
g61
(dp2984
sg70
g2810
sg63
(lp2985
g56
(g77
g58
NtRp2986
(dp2987
g61
(dp2988
g81
g82
ssg70
g2982
sg63
(lp2989
S'HTTP_REFERER'
p2990
asbag56
(g77
g58
NtRp2991
(dp2992
g61
(dp2993
g88
g89
ssg70
g2982
sg63
(lp2994
S':'
asbag56
(g77
g58
NtRp2995
(dp2996
g61
(dp2997
sg70
g2982
sg63
(lp2998
g56
(g57
g58
NtRp2999
(dp3000
g61
(dp3001
g69
I3
ssg70
g2995
sg63
(lp3002
g1560
asbasbasbag56
(g72
g58
NtRp3003
(dp3004
g61
(dp3005
sg70
g2810
sg63
(lp3006
g56
(g77
g58
NtRp3007
(dp3008
g61
(dp3009
g81
g82
ssg70
g3003
sg63
(lp3010
S'HTTP_USER_AGENT'
p3011
asbag56
(g77
g58
NtRp3012
(dp3013
g61
(dp3014
g88
g89
ssg70
g3003
sg63
(lp3015
S':'
asbag56
(g77
g58
NtRp3016
(dp3017
g61
(dp3018
sg70
g3003
sg63
(lp3019
g56
(g57
g58
NtRp3020
(dp3021
g61
(dp3022
g69
I3
ssg70
g3016
sg63
(lp3023
g1582
asbasbasbag56
(g72
g58
NtRp3024
(dp3025
g61
(dp3026
sg70
g2810
sg63
(lp3027
g56
(g77
g58
NtRp3028
(dp3029
g61
(dp3030
g81
g82
ssg70
g3024
sg63
(lp3031
S'PATH_INFO'
p3032
asbag56
(g77
g58
NtRp3033
(dp3034
g61
(dp3035
g88
g89
ssg70
g3024
sg63
(lp3036
S':'
asbag56
(g77
g58
NtRp3037
(dp3038
g61
(dp3039
sg70
g3024
sg63
(lp3040
g56
(g57
g58
NtRp3041
(dp3042
g61
(dp3043
g69
I3
ssg70
g3037
sg63
(lp3044
g1625
asbasbasbag56
(g72
g58
NtRp3045
(dp3046
g61
(dp3047
sg70
g2810
sg63
(lp3048
g56
(g77
g58
NtRp3049
(dp3050
g61
(dp3051
g81
g82
ssg70
g3045
sg63
(lp3052
S'QUERY_STRING'
p3053
asbag56
(g77
g58
NtRp3054
(dp3055
g61
(dp3056
g88
g89
ssg70
g3045
sg63
(lp3057
S':'
asbag56
(g77
g58
NtRp3058
(dp3059
g61
(dp3060
sg70
g3045
sg63
(lp3061
g56
(g57
g58
NtRp3062
(dp3063
g61
(dp3064
g69
I3
ssg70
g3058
sg63
(lp3065
S''
asbasbasbag56
(g72
g58
NtRp3066
(dp3067
g61
(dp3068
sg70
g2810
sg63
(lp3069
g56
(g77
g58
NtRp3070
(dp3071
g61
(dp3072
g81
g82
ssg70
g3066
sg63
(lp3073
S'REMOTE_ADDR'
p3074
asbag56
(g77
g58
NtRp3075
(dp3076
g61
(dp3077
g88
g89
ssg70
g3066
sg63
(lp3078
S':'
asbag56
(g77
g58
NtRp3079
(dp3080
g61
(dp3081
sg70
g3066
sg63
(lp3082
g56
(g57
g58
NtRp3083
(dp3084
g61
(dp3085
g69
I3
ssg70
g3079
sg63
(lp3086
g201
asbasbasbag56
(g72
g58
NtRp3087
(dp3088
g61
(dp3089
sg70
g2810
sg63
(lp3090
g56
(g77
g58
NtRp3091
(dp3092
g61
(dp3093
g81
g82
ssg70
g3087
sg63
(lp3094
S'REMOTE_PORT'
p3095
asbag56
(g77
g58
NtRp3096
(dp3097
g61
(dp3098
g88
g89
ssg70
g3087
sg63
(lp3099
S':'
asbag56
(g77
g58
NtRp3100
(dp3101
g61
(dp3102
sg70
g3087
sg63
(lp3103
g56
(g57
g58
NtRp3104
(dp3105
g61
(dp3106
g69
I3
ssg70
g3100
sg63
(lp3107
g1689
asbasbasbag56
(g72
g58
NtRp3108
(dp3109
g61
(dp3110
sg70
g2810
sg63
(lp3111
g56
(g77
g58
NtRp3112
(dp3113
g61
(dp3114
g81
g82
ssg70
g3108
sg63
(lp3115
S'REQUEST_METHOD'
p3116
asbag56
(g77
g58
NtRp3117
(dp3118
g61
(dp3119
g88
g89
ssg70
g3108
sg63
(lp3120
S':'
asbag56
(g77
g58
NtRp3121
(dp3122
g61
(dp3123
sg70
g3108
sg63
(lp3124
g56
(g57
g58
NtRp3125
(dp3126
g61
(dp3127
g69
I3
ssg70
g3121
sg63
(lp3128
g1711
asbasbasbag56
(g72
g58
NtRp3129
(dp3130
g61
(dp3131
sg70
g2810
sg63
(lp3132
g56
(g77
g58
NtRp3133
(dp3134
g61
(dp3135
g81
g82
ssg70
g3129
sg63
(lp3136
S'SCRIPT_NAME'
p3137
asbag56
(g77
g58
NtRp3138
(dp3139
g61
(dp3140
g88
g89
ssg70
g3129
sg63
(lp3141
S':'
asbag56
(g77
g58
NtRp3142
(dp3143
g61
(dp3144
sg70
g3129
sg63
(lp3145
g56
(g57
g58
NtRp3146
(dp3147
g61
(dp3148
g69
I3
ssg70
g3142
sg63
(lp3149
S''
asbasbasbag56
(g72
g58
NtRp3150
(dp3151
g61
(dp3152
sg70
g2810
sg63
(lp3153
g56
(g77
g58
NtRp3154
(dp3155
g61
(dp3156
g81
g82
ssg70
g3150
sg63
(lp3157
S'SERVER_NAME'
p3158
asbag56
(g77
g58
NtRp3159
(dp3160
g61
(dp3161
g88
g89
ssg70
g3150
sg63
(lp3162
S':'
asbag56
(g77
g58
NtRp3163
(dp3164
g61
(dp3165
sg70
g3150
sg63
(lp3166
g56
(g57
g58
NtRp3167
(dp3168
g61
(dp3169
g69
I3
ssg70
g3163
sg63
(lp3170
g1754
asbasbasbag56
(g72
g58
NtRp3171
(dp3172
g61
(dp3173
sg70
g2810
sg63
(lp3174
g56
(g77
g58
NtRp3175
(dp3176
g61
(dp3177
g81
g82
ssg70
g3171
sg63
(lp3178
S'SERVER_PORT'
p3179
asbag56
(g77
g58
NtRp3180
(dp3181
g61
(dp3182
g88
g89
ssg70
g3171
sg63
(lp3183
S':'
asbag56
(g77
g58
NtRp3184
(dp3185
g61
(dp3186
sg70
g3171
sg63
(lp3187
g56
(g57
g58
NtRp3188
(dp3189
g61
(dp3190
g69
I3
ssg70
g3184
sg63
(lp3191
g1776
asbasbasbag56
(g72
g58
NtRp3192
(dp3193
g61
(dp3194
sg70
g2810
sg63
(lp3195
g56
(g77
g58
NtRp3196
(dp3197
g61
(dp3198
g81
g82
ssg70
g3192
sg63
(lp3199
S'SERVER_PROTOCOL'
p3200
asbag56
(g77
g58
NtRp3201
(dp3202
g61
(dp3203
g88
g89
ssg70
g3192
sg63
(lp3204
S':'
asbag56
(g77
g58
NtRp3205
(dp3206
g61
(dp3207
sg70
g3192
sg63
(lp3208
g56
(g57
g58
NtRp3209
(dp3210
g61
(dp3211
g69
I3
ssg70
g3205
sg63
(lp3212
g1798
asbasbasbag56
(g72
g58
NtRp3213
(dp3214
g61
(dp3215
sg70
g2810
sg63
(lp3216
g56
(g77
g58
NtRp3217
(dp3218
g61
(dp3219
g81
g82
ssg70
g3213
sg63
(lp3220
S'SERVER_SOFTWARE'
p3221
asbag56
(g77
g58
NtRp3222
(dp3223
g61
(dp3224
g88
g89
ssg70
g3213
sg63
(lp3225
S':'
asbag56
(g77
g58
NtRp3226
(dp3227
g61
(dp3228
sg70
g3213
sg63
(lp3229
g56
(g57
g58
NtRp3230
(dp3231
g61
(dp3232
g69
I3
ssg70
g3226
sg63
(lp3233
g1820
asbasbasbag56
(g72
g58
NtRp3234
(dp3235
g61
(dp3236
sg70
g2810
sg63
(lp3237
g56
(g77
g58
NtRp3238
(dp3239
g61
(dp3240
g81
g82
ssg70
g3234
sg63
(lp3241
S'wsgi.errors'
p3242
asbag56
(g77
g58
NtRp3243
(dp3244
g61
(dp3245
g88
g89
ssg70
g3234
sg63
(lp3246
S':'
asbag56
(g77
g58
NtRp3247
(dp3248
g61
(dp3249
sg70
g3234
sg63
(lp3250
g56
(g57
g58
NtRp3251
(dp3252
g61
(dp3253
g69
I3
ssg70
g3247
sg63
(lp3254
S"<open file '<stderr>', mode 'w' at 0x7f587494c270>"
p3255
asbasbasbag56
(g72
g58
NtRp3256
(dp3257
g61
(dp3258
sg70
g2810
sg63
(lp3259
g56
(g77
g58
NtRp3260
(dp3261
g61
(dp3262
g81
g82
ssg70
g3256
sg63
(lp3263
S'wsgi.file_wrapper'
p3264
asbag56
(g77
g58
NtRp3265
(dp3266
g61
(dp3267
g88
g89
ssg70
g3256
sg63
(lp3268
S':'
asbag56
(g77
g58
NtRp3269
(dp3270
g61
(dp3271
sg70
g3256
sg63
(lp3272
g56
(g57
g58
NtRp3273
(dp3274
g61
(dp3275
g69
I3
ssg70
g3269
sg63
(lp3276
S'<class wsgiref.util.FileWrapper at 0x14a7ef0>'
p3277
asbasbasbag56
(g72
g58
NtRp3278
(dp3279
g61
(dp3280
sg70
g2810
sg63
(lp3281
g56
(g77
g58
NtRp3282
(dp3283
g61
(dp3284
g81
g82
ssg70
g3278
sg63
(lp3285
S'wsgi.input'
p3286
asbag56
(g77
g58
NtRp3287
(dp3288
g61
(dp3289
g88
g89
ssg70
g3278
sg63
(lp3290
S':'
asbag56
(g77
g58
NtRp3291
(dp3292
g61
(dp3293
sg70
g3278
sg63
(lp3294
g56
(g57
g58
NtRp3295
(dp3296
g61
(dp3297
g69
I3
ssg70
g3291
sg63
(lp3298
S'<cStringIO.StringO object at 0x24703e8>'
p3299
asbasbasbag56
(g72
g58
NtRp3300
(dp3301
g61
(dp3302
sg70
g2810
sg63
(lp3303
g56
(g77
g58
NtRp3304
(dp3305
g61
(dp3306
g81
g82
ssg70
g3300
sg63
(lp3307
S'wsgi.multiprocess'
p3308
asbag56
(g77
g58
NtRp3309
(dp3310
g61
(dp3311
g88
g89
ssg70
g3300
sg63
(lp3312
S':'
asbag56
(g77
g58
NtRp3313
(dp3314
g61
(dp3315
sg70
g3300
sg63
(lp3316
g56
(g57
g58
NtRp3317
(dp3318
g61
(dp3319
g69
I3
ssg70
g3313
sg63
(lp3320
g99
asbasbasbag56
(g72
g58
NtRp3321
(dp3322
g61
(dp3323
sg70
g2810
sg63
(lp3324
g56
(g77
g58
NtRp3325
(dp3326
g61
(dp3327
g81
g82
ssg70
g3321
sg63
(lp3328
S'wsgi.multithread'
p3329
asbag56
(g77
g58
NtRp3330
(dp3331
g61
(dp3332
g88
g89
ssg70
g3321
sg63
(lp3333
S':'
asbag56
(g77
g58
NtRp3334
(dp3335
g61
(dp3336
sg70
g3321
sg63
(lp3337
g56
(g57
g58
NtRp3338
(dp3339
g61
(dp3340
g69
I3
ssg70
g3334
sg63
(lp3341
g2060
asbasbasbag56
(g72
g58
NtRp3342
(dp3343
g61
(dp3344
sg70
g2810
sg63
(lp3345
g56
(g77
g58
NtRp3346
(dp3347
g61
(dp3348
g81
g82
ssg70
g3342
sg63
(lp3349
S'wsgi.run_once'
p3350
asbag56
(g77
g58
NtRp3351
(dp3352
g61
(dp3353
g88
g89
ssg70
g3342
sg63
(lp3354
S':'
asbag56
(g77
g58
NtRp3355
(dp3356
g61
(dp3357
sg70
g3342
sg63
(lp3358
g56
(g57
g58
NtRp3359
(dp3360
g61
(dp3361
g69
I3
ssg70
g3355
sg63
(lp3362
g99
asbasbasbag56
(g72
g58
NtRp3363
(dp3364
g61
(dp3365
sg70
g2810
sg63
(lp3366
g56
(g77
g58
NtRp3367
(dp3368
g61
(dp3369
g81
g82
ssg70
g3363
sg63
(lp3370
S'wsgi.url_scheme'
p3371
asbag56
(g77
g58
NtRp3372
(dp3373
g61
(dp3374
g88
g89
ssg70
g3363
sg63
(lp3375
S':'
asbag56
(g77
g58
NtRp3376
(dp3377
g61
(dp3378
sg70
g3363
sg63
(lp3379
g56
(g57
g58
NtRp3380
(dp3381
g61
(dp3382
g69
I3
ssg70
g3376
sg63
(lp3383
g2103
asbasbasbag56
(g72
g58
NtRp3384
(dp3385
g61
(dp3386
sg70
g2810
sg63
(lp3387
g56
(g77
g58
NtRp3388
(dp3389
g61
(dp3390
g81
g82
ssg70
g3384
sg63
(lp3391
S'wsgi.version'
p3392
asbag56
(g77
g58
NtRp3393
(dp3394
g61
(dp3395
g88
g89
ssg70
g3384
sg63
(lp3396
S':'
asbag56
(g77
g58
NtRp3397
(dp3398
g61
(dp3399
sg70
g3384
sg63
(lp3400
g56
(g57
g58
NtRp3401
(dp3402
g61
(dp3403
g69
I3
ssg70
g3397
sg63
(lp3404
S'1'
asbasbasbasbasbasbasbasbasbasbasbasbasbsS'frames'
p3405
(lp3406
(dp3407
S'file'
p3408
S'/home/kaique/Projects/web2py/gluon/restricted.py'
p3409
sS'dump'
p3410
(dp3411
S'environment'
p3412
S"{'A': <class 'gluon.html.A'>, 'Auth': <class 'gluon.tools.Auth'>, 'B': <class 'gluon.html.B'>, 'BEAUTIFY': <class 'gluon.html.BEAUTIFY'>, 'BODY': <class 'gluon.html.BODY'>, 'BR': <class 'gluon.html.BR'>, 'BUTTON': <class 'gluon.html.BUTTON'>, 'CAT': <class 'gluon.html.CAT'>, 'CENTER': <class 'gluon.html.CENTER'>, 'CLEANUP': <class 'gluon.validators.CLEANUP'>, ...}"
p3413
sS'ccode'
p3414
S'<code object <module> at 0x24625b0, file "/home/...psis/views/information/publication.html", line 1>'
p3415
ssS'lnum'
p3416
I194
sS'lines'
p3417
(dp3418
I192
S'        else:'
p3419
sI193
S'            ccode = compile2(code,layer)'
p3420
sI194
S'        exec ccode in environment'
p3421
sI195
S'    except HTTP:'
p3422
sI196
S'        raise'
p3423
sI197
S'    except Exception, error:'
p3424
sI198
S'        # XXX Show exception in Wing IDE if running in debugger'
p3425
sI189
S'    try:'
p3426
sI190
S'        if type(code) == types.CodeType:'
p3427
sI191
S'            ccode = code'
p3428
ssS'call'
p3429
S'(code=\'response.write(\\\'<!DOCTYPE html>\\\\n<html lang="\\\', ...nse.write(\\\'\\\\n  </body>\\\\n</html>\\\\n\\\', escape=False)\', environment={\'A\': <class \'gluon.html.A\'>, \'Auth\': <class \'gluon.tools.Auth\'>, \'B\': <class \'gluon.html.B\'>, \'BEAUTIFY\': <class \'gluon.html.BEAUTIFY\'>, \'BODY\': <class \'gluon.html.BODY\'>, \'BR\': <class \'gluon.html.BR\'>, \'BUTTON\': <class \'gluon.html.BUTTON\'>, \'CAT\': <class \'gluon.html.CAT\'>, \'CENTER\': <class \'gluon.html.CENTER\'>, \'CLEANUP\': <class \'gluon.validators.CLEANUP\'>, ...}, layer=\'/home/kaique/Projects/web2py/applications/synopsis/views/information/publication.html\')'
p3430
sS'func'
p3431
S'restricted'
p3432
sa(dp3433
g3408
S'/home/kaique/Projects/web2py/applications/synopsis/views/information/publication.html'
p3434
sg3410
(dp3435
sg3416
I124
sg3417
(dp3436
I128
S'            pass'
p3437
sI129
S"        response.write('\\n\\t\\t\\t\\t\\t\\t', escape=False)"
p3438
sI130
S'        pass'
p3439
sI131
S"    response.write('\\n\\t\\t\\t\\t\\t\\t\\n\\t\\t\\t\\t\\t\\t', escape=False)"
p3440
sI132
S'    response.write(lines)'
p3441
sI133
S'    response.write(\'\\n\\t\\t\\t\\t\\t</tbody>\\n\\t\\t\\t\\t</table>\\n\\t\\t\\t\\t<div classs="quote">\\n\\t\\t\\t\\t\', escape=False)'
p3442
sI134
S'    for quote in detail.quote.select():'
p3443
sI115
S"                response.write('\\n\\t\\t\\t\\t\\t\\t\\t\\t', escape=False)"
p3444
sI116
S'            elif row.id in ids:'
p3445
sI117
S"                response.write('\\n\\t\\t\\t\\t\\t\\t\\t\\t\\t', escape=False)"
p3446
sI118
S'                lines.append(TR(row.content))'
p3447
sI119
S"                response.write('\\n\\t\\t\\t\\t\\t\\t\\t\\t', escape=False)"
p3448
sI120
S'            elif row.id not in ids:'
p3449
sI121
S"                response.write('\\n\\t\\t\\t\\t\\t\\t\\t\\t\\t', escape=False)"
p3450
sI122
S'                ids.append(row.id)'
p3451
sI123
S"                response.write('\\n\\t\\t\\t\\t\\t\\t\\t\\t\\t', escape=False)"
p3452
sI124
S'                lines[ids.index(row.id)].append(TD(row.content))'
p3453
sI125
S"                response.write('\\n\\t\\t\\t\\t\\t\\t\\t\\t', escape=False)"
p3454
sI126
S'                pass'
p3455
sI127
S"            response.write('\\n\\t\\t\\t\\t\\t\\t\\t', escape=False)"
p3456
ssg3429
S'()'
p3457
sg3431
S'<module>'
p3458
sasS'pyver'
p3459
S'Python 2.7.2+: /usr/bin/python'
p3460
sS'session'
p3461
g56
(g57
g58
NtRp3462
(dp3463
g61
(dp3464
sg63
(lp3465
g56
(g65
g58
NtRp3466
(dp3467
g61
(dp3468
g69
I5
ssg70
Nsg63
(lp3469
g56
(g72
g58
NtRp3470
(dp3471
g61
(dp3472
sg70
g3466
sg63
(lp3473
g56
(g77
g58
NtRp3474
(dp3475
g61
(dp3476
g81
g82
ssg70
g3470
sg63
(lp3477
S'auth'
p3478
asbag56
(g77
g58
NtRp3479
(dp3480
g61
(dp3481
g88
g89
ssg70
g3470
sg63
(lp3482
S':'
asbag56
(g77
g58
NtRp3483
(dp3484
g61
(dp3485
sg70
g3470
sg63
(lp3486
g56
(g57
g58
NtRp3487
(dp3488
g61
(dp3489
g69
I5
ssg70
g3483
sg63
(lp3490
g56
(g65
g58
NtRp3491
(dp3492
g61
(dp3493
g69
I4
ssg70
Nsg63
(lp3494
g56
(g72
g58
NtRp3495
(dp3496
g61
(dp3497
sg70
g3491
sg63
(lp3498
g56
(g77
g58
NtRp3499
(dp3500
g61
(dp3501
g81
g82
ssg70
g3495
sg63
(lp3502
S'expiration'
p3503
asbag56
(g77
g58
NtRp3504
(dp3505
g61
(dp3506
g88
g89
ssg70
g3495
sg63
(lp3507
S':'
asbag56
(g77
g58
NtRp3508
(dp3509
g61
(dp3510
sg70
g3495
sg63
(lp3511
g56
(g57
g58
NtRp3512
(dp3513
g61
(dp3514
g69
I4
ssg70
g3508
sg63
(lp3515
S'2592000'
p3516
asbasbasbag56
(g72
g58
NtRp3517
(dp3518
g61
(dp3519
sg70
g3491
sg63
(lp3520
g56
(g77
g58
NtRp3521
(dp3522
g61
(dp3523
g81
g82
ssg70
g3517
sg63
(lp3524
S'hmac_key'
p3525
asbag56
(g77
g58
NtRp3526
(dp3527
g61
(dp3528
g88
g89
ssg70
g3517
sg63
(lp3529
S':'
asbag56
(g77
g58
NtRp3530
(dp3531
g61
(dp3532
sg70
g3517
sg63
(lp3533
g56
(g57
g58
NtRp3534
(dp3535
g61
(dp3536
g69
I4
ssg70
g3530
sg63
(lp3537
S'63ff9364-0b36-492d-81fa-9c003e42e522'
p3538
asbasbasbag56
(g72
g58
NtRp3539
(dp3540
g61
(dp3541
sg70
g3491
sg63
(lp3542
g56
(g77
g58
NtRp3543
(dp3544
g61
(dp3545
g81
g82
ssg70
g3539
sg63
(lp3546
S'last_visit'
p3547
asbag56
(g77
g58
NtRp3548
(dp3549
g61
(dp3550
g88
g89
ssg70
g3539
sg63
(lp3551
S':'
asbag56
(g77
g58
NtRp3552
(dp3553
g61
(dp3554
sg70
g3539
sg63
(lp3555
g56
(g57
g58
NtRp3556
(dp3557
g61
(dp3558
g69
I4
ssg70
g3552
sg63
(lp3559
S'datetime.datetime(2012, 1, 13, 22, 9, 29, 822346)'
p3560
asbasbasbag56
(g72
g58
NtRp3561
(dp3562
g61
(dp3563
sg70
g3491
sg63
(lp3564
g56
(g77
g58
NtRp3565
(dp3566
g61
(dp3567
g81
g82
ssg70
g3561
sg63
(lp3568
S'remember'
p3569
asbag56
(g77
g58
NtRp3570
(dp3571
g61
(dp3572
g88
g89
ssg70
g3561
sg63
(lp3573
S':'
asbag56
(g77
g58
NtRp3574
(dp3575
g61
(dp3576
sg70
g3561
sg63
(lp3577
g56
(g57
g58
NtRp3578
(dp3579
g61
(dp3580
g69
I4
ssg70
g3574
sg63
(lp3581
g99
asbasbasbag56
(g72
g58
NtRp3582
(dp3583
g61
(dp3584
sg70
g3491
sg63
(lp3585
g56
(g77
g58
NtRp3586
(dp3587
g61
(dp3588
g81
g82
ssg70
g3582
sg63
(lp3589
S'user'
p3590
asbag56
(g77
g58
NtRp3591
(dp3592
g61
(dp3593
g88
g89
ssg70
g3582
sg63
(lp3594
S':'
asbag56
(g77
g58
NtRp3595
(dp3596
g61
(dp3597
sg70
g3582
sg63
(lp3598
g56
(g57
g58
NtRp3599
(dp3600
g61
(dp3601
g69
I4
ssg70
g3595
sg63
(lp3602
g56
(g65
g58
NtRp3603
(dp3604
g61
(dp3605
g69
I3
ssg70
Nsg63
(lp3606
g56
(g72
g58
NtRp3607
(dp3608
g61
(dp3609
sg70
g3603
sg63
(lp3610
g56
(g77
g58
NtRp3611
(dp3612
g61
(dp3613
g81
g82
ssg70
g3607
sg63
(lp3614
S'email'
p3615
asbag56
(g77
g58
NtRp3616
(dp3617
g61
(dp3618
g88
g89
ssg70
g3607
sg63
(lp3619
S':'
asbag56
(g77
g58
NtRp3620
(dp3621
g61
(dp3622
sg70
g3607
sg63
(lp3623
g56
(g57
g58
NtRp3624
(dp3625
g61
(dp3626
g69
I3
ssg70
g3620
sg63
(lp3627
S'kaique.developer@gmail.com'
p3628
asbasbasbag56
(g72
g58
NtRp3629
(dp3630
g61
(dp3631
sg70
g3603
sg63
(lp3632
g56
(g77
g58
NtRp3633
(dp3634
g61
(dp3635
g81
g82
ssg70
g3629
sg63
(lp3636
S'first_name'
p3637
asbag56
(g77
g58
NtRp3638
(dp3639
g61
(dp3640
g88
g89
ssg70
g3629
sg63
(lp3641
S':'
asbag56
(g77
g58
NtRp3642
(dp3643
g61
(dp3644
sg70
g3629
sg63
(lp3645
g56
(g57
g58
NtRp3646
(dp3647
g61
(dp3648
g69
I3
ssg70
g3642
sg63
(lp3649
S'kaique'
p3650
asbasbasbag56
(g72
g58
NtRp3651
(dp3652
g61
(dp3653
sg70
g3603
sg63
(lp3654
g56
(g77
g58
NtRp3655
(dp3656
g61
(dp3657
g81
g82
ssg70
g3651
sg63
(lp3658
S'id'
p3659
asbag56
(g77
g58
NtRp3660
(dp3661
g61
(dp3662
g88
g89
ssg70
g3651
sg63
(lp3663
S':'
asbag56
(g77
g58
NtRp3664
(dp3665
g61
(dp3666
sg70
g3651
sg63
(lp3667
g56
(g57
g58
NtRp3668
(dp3669
g61
(dp3670
g69
I3
ssg70
g3664
sg63
(lp3671
S'1'
asbasbasbag56
(g72
g58
NtRp3672
(dp3673
g61
(dp3674
sg70
g3603
sg63
(lp3675
g56
(g77
g58
NtRp3676
(dp3677
g61
(dp3678
g81
g82
ssg70
g3672
sg63
(lp3679
S'last_name'
p3680
asbag56
(g77
g58
NtRp3681
(dp3682
g61
(dp3683
g88
g89
ssg70
g3672
sg63
(lp3684
S':'
asbag56
(g77
g58
NtRp3685
(dp3686
g61
(dp3687
sg70
g3672
sg63
(lp3688
g56
(g57
g58
NtRp3689
(dp3690
g61
(dp3691
g69
I3
ssg70
g3685
sg63
(lp3692
S'silva'
p3693
asbasbasbag56
(g72
g58
NtRp3694
(dp3695
g61
(dp3696
sg70
g3603
sg63
(lp3697
g56
(g77
g58
NtRp3698
(dp3699
g61
(dp3700
g81
g82
ssg70
g3694
sg63
(lp3701
S'password'
p3702
asbag56
(g77
g58
NtRp3703
(dp3704
g61
(dp3705
g88
g89
ssg70
g3694
sg63
(lp3706
S':'
asbag56
(g77
g58
NtRp3707
(dp3708
g61
(dp3709
sg70
g3694
sg63
(lp3710
g56
(g57
g58
NtRp3711
(dp3712
g61
(dp3713
g69
I3
ssg70
g3707
sg63
(lp3714
S'72c6a018d62d3fb47d95389e4a062cd2'
p3715
asbasbasbag56
(g72
g58
NtRp3716
(dp3717
g61
(dp3718
sg70
g3603
sg63
(lp3719
g56
(g77
g58
NtRp3720
(dp3721
g61
(dp3722
g81
g82
ssg70
g3716
sg63
(lp3723
S'registration_key'
p3724
asbag56
(g77
g58
NtRp3725
(dp3726
g61
(dp3727
g88
g89
ssg70
g3716
sg63
(lp3728
S':'
asbag56
(g77
g58
NtRp3729
(dp3730
g61
(dp3731
sg70
g3716
sg63
(lp3732
g56
(g57
g58
NtRp3733
(dp3734
g61
(dp3735
g69
I3
ssg70
g3729
sg63
(lp3736
S''
asbasbasbag56
(g72
g58
NtRp3737
(dp3738
g61
(dp3739
sg70
g3603
sg63
(lp3740
g56
(g77
g58
NtRp3741
(dp3742
g61
(dp3743
g81
g82
ssg70
g3737
sg63
(lp3744
S'reset_password_key'
p3745
asbag56
(g77
g58
NtRp3746
(dp3747
g61
(dp3748
g88
g89
ssg70
g3737
sg63
(lp3749
S':'
asbag56
(g77
g58
NtRp3750
(dp3751
g61
(dp3752
sg70
g3737
sg63
(lp3753
g56
(g57
g58
NtRp3754
(dp3755
g61
(dp3756
g69
I3
ssg70
g3750
sg63
(lp3757
S''
asbasbasbasbasbasbasbasbasbasbasbag56
(g72
g58
NtRp3758
(dp3759
g61
(dp3760
sg70
g3466
sg63
(lp3761
g56
(g77
g58
NtRp3762
(dp3763
g61
(dp3764
g81
g82
ssg70
g3758
sg63
(lp3765
S'back'
p3766
asbag56
(g77
g58
NtRp3767
(dp3768
g61
(dp3769
g88
g89
ssg70
g3758
sg63
(lp3770
S':'
asbag56
(g77
g58
NtRp3771
(dp3772
g61
(dp3773
sg70
g3758
sg63
(lp3774
g56
(g57
g58
NtRp3775
(dp3776
g61
(dp3777
g69
I5
ssg70
g3771
sg63
(lp3778
S'8'
asbasbasbag56
(g72
g58
NtRp3779
(dp3780
g61
(dp3781
sg70
g3466
sg63
(lp3782
g56
(g77
g58
NtRp3783
(dp3784
g61
(dp3785
g81
g82
ssg70
g3779
sg63
(lp3786
S'index'
p3787
asbag56
(g77
g58
NtRp3788
(dp3789
g61
(dp3790
g88
g89
ssg70
g3779
sg63
(lp3791
S':'
asbag56
(g77
g58
NtRp3792
(dp3793
g61
(dp3794
sg70
g3779
sg63
(lp3795
g56
(g57
g58
NtRp3796
(dp3797
g61
(dp3798
g69
I5
ssg70
g3792
sg63
(lp3799
S'1'
asbasbasbag56
(g72
g58
NtRp3800
(dp3801
g61
(dp3802
sg70
g3466
sg63
(lp3803
g56
(g77
g58
NtRp3804
(dp3805
g61
(dp3806
g81
g82
ssg70
g3800
sg63
(lp3807
S'last_query'
p3808
asbag56
(g77
g58
NtRp3809
(dp3810
g61
(dp3811
g88
g89
ssg70
g3800
sg63
(lp3812
S':'
asbag56
(g77
g58
NtRp3813
(dp3814
g61
(dp3815
sg70
g3800
sg63
(lp3816
g56
(g57
g58
NtRp3817
(dp3818
g61
(dp3819
g69
I5
ssg70
g3813
sg63
(lp3820
S'db.row.id>0'
p3821
asbasbasbasbasbsS'etype'
p3822
S"<type 'exceptions.IndexError'>"
p3823
sS'date'
p3824
S'Fri Jan 13 23:05:35 2012'
p3825
sS'response'
p3826
g56
(g57
g58
NtRp3827
(dp3828
g61
(dp3829
sg63
(lp3830
g56
(g65
g58
NtRp3831
(dp3832
g61
(dp3833
g69
I5
ssg70
Nsg63
(lp3834
g56
(g72
g58
NtRp3835
(dp3836
g61
(dp3837
sg70
g3831
sg63
(lp3838
g56
(g77
g58
NtRp3839
(dp3840
g61
(dp3841
g81
g82
ssg70
g3835
sg63
(lp3842
g166
asbag56
(g77
g58
NtRp3843
(dp3844
g61
(dp3845
g88
g89
ssg70
g3835
sg63
(lp3846
S':'
asbag56
(g77
g58
NtRp3847
(dp3848
g61
(dp3849
sg70
g3835
sg63
(lp3850
g56
(g57
g58
NtRp3851
(dp3852
g61
(dp3853
g69
I5
ssg70
g3847
sg63
(lp3854
S'<cStringIO.StringO object at 0x19c2110>'
p3855
asbasbasbag56
(g72
g58
NtRp3856
(dp3857
g61
(dp3858
sg70
g3831
sg63
(lp3859
g56
(g77
g58
NtRp3860
(dp3861
g61
(dp3862
g81
g82
ssg70
g3856
sg63
(lp3863
g232
asbag56
(g77
g58
NtRp3864
(dp3865
g61
(dp3866
g88
g89
ssg70
g3856
sg63
(lp3867
S':'
asbag56
(g77
g58
NtRp3868
(dp3869
g61
(dp3870
sg70
g3856
sg63
(lp3871
g56
(g57
g58
NtRp3872
(dp3873
g61
(dp3874
g69
I5
ssg70
g3868
sg63
(lp3875
g56
(g65
g58
NtRp3876
(dp3877
g61
(dp3878
g69
I4
ssg70
Nsg63
(lp3879
g56
(g72
g58
NtRp3880
(dp3881
g61
(dp3882
sg70
g3876
sg63
(lp3883
g56
(g77
g58
NtRp3884
(dp3885
g61
(dp3886
g81
g82
ssg70
g3880
sg63
(lp3887
S'session_id_synopsis'
p3888
asbag56
(g77
g58
NtRp3889
(dp3890
g61
(dp3891
g88
g89
ssg70
g3880
sg63
(lp3892
S':'
asbag56
(g77
g58
NtRp3893
(dp3894
g61
(dp3895
sg70
g3880
sg63
(lp3896
g56
(g57
g58
NtRp3897
(dp3898
g61
(dp3899
g69
I4
ssg70
g3893
sg63
(lp3900
g56
(g65
g58
NtRp3901
(dp3902
g61
(dp3903
g69
I3
ssg70
Nsg63
(lp3904
g56
(g72
g58
NtRp3905
(dp3906
g61
(dp3907
sg70
g3901
sg63
(lp3908
g56
(g77
g58
NtRp3909
(dp3910
g61
(dp3911
g81
g82
ssg70
g3905
sg63
(lp3912
g282
asbag56
(g77
g58
NtRp3913
(dp3914
g61
(dp3915
g88
g89
ssg70
g3905
sg63
(lp3916
S':'
asbag56
(g77
g58
NtRp3917
(dp3918
g61
(dp3919
sg70
g3905
sg63
(lp3920
g56
(g57
g58
NtRp3921
(dp3922
g61
(dp3923
g69
I3
ssg70
g3917
sg63
(lp3924
S''
asbasbasbag56
(g72
g58
NtRp3925
(dp3926
g61
(dp3927
sg70
g3901
sg63
(lp3928
g56
(g77
g58
NtRp3929
(dp3930
g61
(dp3931
g81
g82
ssg70
g3925
sg63
(lp3932
g303
asbag56
(g77
g58
NtRp3933
(dp3934
g61
(dp3935
g88
g89
ssg70
g3925
sg63
(lp3936
S':'
asbag56
(g77
g58
NtRp3937
(dp3938
g61
(dp3939
sg70
g3925
sg63
(lp3940
g56
(g57
g58
NtRp3941
(dp3942
g61
(dp3943
g69
I3
ssg70
g3937
sg63
(lp3944
S''
asbasbasbag56
(g72
g58
NtRp3945
(dp3946
g61
(dp3947
sg70
g3901
sg63
(lp3948
g56
(g77
g58
NtRp3949
(dp3950
g61
(dp3951
g81
g82
ssg70
g3945
sg63
(lp3952
g324
asbag56
(g77
g58
NtRp3953
(dp3954
g61
(dp3955
g88
g89
ssg70
g3945
sg63
(lp3956
S':'
asbag56
(g77
g58
NtRp3957
(dp3958
g61
(dp3959
sg70
g3945
sg63
(lp3960
g56
(g57
g58
NtRp3961
(dp3962
g61
(dp3963
g69
I3
ssg70
g3957
sg63
(lp3964
S''
asbasbasbag56
(g72
g58
NtRp3965
(dp3966
g61
(dp3967
sg70
g3901
sg63
(lp3968
g56
(g77
g58
NtRp3969
(dp3970
g61
(dp3971
g81
g82
ssg70
g3965
sg63
(lp3972
g345
asbag56
(g77
g58
NtRp3973
(dp3974
g61
(dp3975
g88
g89
ssg70
g3965
sg63
(lp3976
S':'
asbag56
(g77
g58
NtRp3977
(dp3978
g61
(dp3979
sg70
g3965
sg63
(lp3980
g56
(g57
g58
NtRp3981
(dp3982
g61
(dp3983
g69
I3
ssg70
g3977
sg63
(lp3984
S''
asbasbasbag56
(g72
g58
NtRp3985
(dp3986
g61
(dp3987
sg70
g3901
sg63
(lp3988
g56
(g77
g58
NtRp3989
(dp3990
g61
(dp3991
g81
g82
ssg70
g3985
sg63
(lp3992
g366
asbag56
(g77
g58
NtRp3993
(dp3994
g61
(dp3995
g88
g89
ssg70
g3985
sg63
(lp3996
S':'
asbag56
(g77
g58
NtRp3997
(dp3998
g61
(dp3999
sg70
g3985
sg63
(lp4000
g56
(g57
g58
NtRp4001
(dp4002
g61
(dp4003
g69
I3
ssg70
g3997
sg63
(lp4004
S''
asbasbasbag56
(g72
g58
NtRp4005
(dp4006
g61
(dp4007
sg70
g3901
sg63
(lp4008
g56
(g77
g58
NtRp4009
(dp4010
g61
(dp4011
g81
g82
ssg70
g4005
sg63
(lp4012
g387
asbag56
(g77
g58
NtRp4013
(dp4014
g61
(dp4015
g88
g89
ssg70
g4005
sg63
(lp4016
S':'
asbag56
(g77
g58
NtRp4017
(dp4018
g61
(dp4019
sg70
g4005
sg63
(lp4020
g56
(g57
g58
NtRp4021
(dp4022
g61
(dp4023
g69
I3
ssg70
g4017
sg63
(lp4024
S'/'
asbasbasbag56
(g72
g58
NtRp4025
(dp4026
g61
(dp4027
sg70
g3901
sg63
(lp4028
g56
(g77
g58
NtRp4029
(dp4030
g61
(dp4031
g81
g82
ssg70
g4025
sg63
(lp4032
g408
asbag56
(g77
g58
NtRp4033
(dp4034
g61
(dp4035
g88
g89
ssg70
g4025
sg63
(lp4036
S':'
asbag56
(g77
g58
NtRp4037
(dp4038
g61
(dp4039
sg70
g4025
sg63
(lp4040
g56
(g57
g58
NtRp4041
(dp4042
g61
(dp4043
g69
I3
ssg70
g4037
sg63
(lp4044
S''
asbasbasbag56
(g72
g58
NtRp4045
(dp4046
g61
(dp4047
sg70
g3901
sg63
(lp4048
g56
(g77
g58
NtRp4049
(dp4050
g61
(dp4051
g81
g82
ssg70
g4045
sg63
(lp4052
g429
asbag56
(g77
g58
NtRp4053
(dp4054
g61
(dp4055
g88
g89
ssg70
g4045
sg63
(lp4056
S':'
asbag56
(g77
g58
NtRp4057
(dp4058
g61
(dp4059
sg70
g4045
sg63
(lp4060
g56
(g57
g58
NtRp4061
(dp4062
g61
(dp4063
g69
I3
ssg70
g4057
sg63
(lp4064
S''
asbasbasbasbasbasbasbasbasbasbasbag56
(g72
g58
NtRp4065
(dp4066
g61
(dp4067
sg70
g3831
sg63
(lp4068
g56
(g77
g58
NtRp4069
(dp4070
g61
(dp4071
g81
g82
ssg70
g4065
sg63
(lp4072
S'files'
p4073
asbag56
(g77
g58
NtRp4074
(dp4075
g61
(dp4076
g88
g89
ssg70
g4065
sg63
(lp4077
S':'
asbag56
(g77
g58
NtRp4078
(dp4079
g61
(dp4080
sg70
g4065
sg63
(lp4081
g56
(g57
g58
NtRp4082
(dp4083
g61
(dp4084
g69
I5
ssg70
g4078
sg63
(lp4085
g56
(g65
g58
NtRp4086
(dp4087
g61
(dp4088
g69
I4
ssg70
Nsg63
(lp4089
g56
(g72
g58
NtRp4090
(dp4091
g61
(dp4092
sg70
g4086
sg63
(lp4093
g56
(g77
g58
NtRp4094
(dp4095
g61
(dp4096
sg70
g4090
sg63
(lp4097
g56
(g57
g58
NtRp4098
(dp4099
g61
(dp4100
g69
I4
ssg70
g4094
sg63
(lp4101
S'/synopsis/static/js/jquery.js'
p4102
asbasbasbag56
(g72
g58
NtRp4103
(dp4104
g61
(dp4105
sg70
g4086
sg63
(lp4106
g56
(g77
g58
NtRp4107
(dp4108
g61
(dp4109
sg70
g4103
sg63
(lp4110
g56
(g57
g58
NtRp4111
(dp4112
g61
(dp4113
g69
I4
ssg70
g4107
sg63
(lp4114
S'/synopsis/static/css/anytime.css'
p4115
asbasbasbag56
(g72
g58
NtRp4116
(dp4117
g61
(dp4118
sg70
g4086
sg63
(lp4119
g56
(g77
g58
NtRp4120
(dp4121
g61
(dp4122
sg70
g4116
sg63
(lp4123
g56
(g57
g58
NtRp4124
(dp4125
g61
(dp4126
g69
I4
ssg70
g4120
sg63
(lp4127
S'/synopsis/static/js/anytime.js'
p4128
asbasbasbag56
(g72
g58
NtRp4129
(dp4130
g61
(dp4131
sg70
g4086
sg63
(lp4132
g56
(g77
g58
NtRp4133
(dp4134
g61
(dp4135
sg70
g4129
sg63
(lp4136
g56
(g57
g58
NtRp4137
(dp4138
g61
(dp4139
g69
I4
ssg70
g4133
sg63
(lp4140
S'/synopsis/static/css/base.css'
p4141
asbasbasbag56
(g72
g58
NtRp4142
(dp4143
g61
(dp4144
sg70
g4086
sg63
(lp4145
g56
(g77
g58
NtRp4146
(dp4147
g61
(dp4148
sg70
g4142
sg63
(lp4149
g56
(g57
g58
NtRp4150
(dp4151
g61
(dp4152
g69
I4
ssg70
g4146
sg63
(lp4153
S'/synopsis/static/css/superfish.css'
p4154
asbasbasbag56
(g72
g58
NtRp4155
(dp4156
g61
(dp4157
sg70
g4086
sg63
(lp4158
g56
(g77
g58
NtRp4159
(dp4160
g61
(dp4161
sg70
g4155
sg63
(lp4162
g56
(g57
g58
NtRp4163
(dp4164
g61
(dp4165
g69
I4
ssg70
g4159
sg63
(lp4166
S'/synopsis/static/js/superfish.js'
p4167
asbasbasbasbasbasbasbag56
(g72
g58
NtRp4168
(dp4169
g61
(dp4170
sg70
g3831
sg63
(lp4171
g56
(g77
g58
NtRp4172
(dp4173
g61
(dp4174
g81
g82
ssg70
g4168
sg63
(lp4175
S'flash'
p4176
asbag56
(g77
g58
NtRp4177
(dp4178
g61
(dp4179
g88
g89
ssg70
g4168
sg63
(lp4180
S':'
asbag56
(g77
g58
NtRp4181
(dp4182
g61
(dp4183
sg70
g4168
sg63
(lp4184
g56
(g57
g58
NtRp4185
(dp4186
g61
(dp4187
g69
I5
ssg70
g4181
sg63
(lp4188
S''
asbasbasbag56
(g72
g58
NtRp4189
(dp4190
g61
(dp4191
sg70
g3831
sg63
(lp4192
g56
(g77
g58
NtRp4193
(dp4194
g61
(dp4195
g81
g82
ssg70
g4189
sg63
(lp4196
S'generic_patterns'
p4197
asbag56
(g77
g58
NtRp4198
(dp4199
g61
(dp4200
g88
g89
ssg70
g4189
sg63
(lp4201
S':'
asbag56
(g77
g58
NtRp4202
(dp4203
g61
(dp4204
sg70
g4189
sg63
(lp4205
g56
(g57
g58
NtRp4206
(dp4207
g61
(dp4208
g69
I5
ssg70
g4202
sg63
(lp4209
g56
(g65
g58
NtRp4210
(dp4211
g61
(dp4212
g69
I4
ssg70
Nsg63
(lp4213
g56
(g72
g58
NtRp4214
(dp4215
g61
(dp4216
sg70
g4210
sg63
(lp4217
g56
(g77
g58
NtRp4218
(dp4219
g61
(dp4220
sg70
g4214
sg63
(lp4221
g56
(g57
g58
NtRp4222
(dp4223
g61
(dp4224
g69
I4
ssg70
g4218
sg63
(lp4225
S'*'
asbasbasbasbasbasbasbag56
(g72
g58
NtRp4226
(dp4227
g61
(dp4228
sg70
g3831
sg63
(lp4229
g56
(g77
g58
NtRp4230
(dp4231
g61
(dp4232
g81
g82
ssg70
g4226
sg63
(lp4233
S'headers'
p4234
asbag56
(g77
g58
NtRp4235
(dp4236
g61
(dp4237
g88
g89
ssg70
g4226
sg63
(lp4238
S':'
asbag56
(g77
g58
NtRp4239
(dp4240
g61
(dp4241
sg70
g4226
sg63
(lp4242
g56
(g57
g58
NtRp4243
(dp4244
g61
(dp4245
g69
I5
ssg70
g4239
sg63
(lp4246
g56
(g65
g58
NtRp4247
(dp4248
g61
(dp4249
g69
I4
ssg70
Nsg63
(lp4250
g56
(g72
g58
NtRp4251
(dp4252
g61
(dp4253
sg70
g4247
sg63
(lp4254
g56
(g77
g58
NtRp4255
(dp4256
g61
(dp4257
g81
g82
ssg70
g4251
sg63
(lp4258
S'Cache-Control'
p4259
asbag56
(g77
g58
NtRp4260
(dp4261
g61
(dp4262
g88
g89
ssg70
g4251
sg63
(lp4263
S':'
asbag56
(g77
g58
NtRp4264
(dp4265
g61
(dp4266
sg70
g4251
sg63
(lp4267
g56
(g57
g58
NtRp4268
(dp4269
g61
(dp4270
g69
I4
ssg70
g4264
sg63
(lp4271
S'no-store, no-cache, must-revalidate, post-check=0, pre-check=0'
p4272
asbasbasbag56
(g72
g58
NtRp4273
(dp4274
g61
(dp4275
sg70
g4247
sg63
(lp4276
g56
(g77
g58
NtRp4277
(dp4278
g61
(dp4279
g81
g82
ssg70
g4273
sg63
(lp4280
S'Content-Type'
p4281
asbag56
(g77
g58
NtRp4282
(dp4283
g61
(dp4284
g88
g89
ssg70
g4273
sg63
(lp4285
S':'
asbag56
(g77
g58
NtRp4286
(dp4287
g61
(dp4288
sg70
g4273
sg63
(lp4289
g56
(g57
g58
NtRp4290
(dp4291
g61
(dp4292
g69
I4
ssg70
g4286
sg63
(lp4293
S'text/html; charset=utf-8'
p4294
asbasbasbag56
(g72
g58
NtRp4295
(dp4296
g61
(dp4297
sg70
g4247
sg63
(lp4298
g56
(g77
g58
NtRp4299
(dp4300
g61
(dp4301
g81
g82
ssg70
g4295
sg63
(lp4302
S'Expires'
p4303
asbag56
(g77
g58
NtRp4304
(dp4305
g61
(dp4306
g88
g89
ssg70
g4295
sg63
(lp4307
S':'
asbag56
(g77
g58
NtRp4308
(dp4309
g61
(dp4310
sg70
g4295
sg63
(lp4311
g56
(g57
g58
NtRp4312
(dp4313
g61
(dp4314
g69
I4
ssg70
g4308
sg63
(lp4315
S'Sat, 14 Jan 2012 01:05:35 GMT'
p4316
asbasbasbag56
(g72
g58
NtRp4317
(dp4318
g61
(dp4319
sg70
g4247
sg63
(lp4320
g56
(g77
g58
NtRp4321
(dp4322
g61
(dp4323
g81
g82
ssg70
g4317
sg63
(lp4324
S'Pragma'
p4325
asbag56
(g77
g58
NtRp4326
(dp4327
g61
(dp4328
g88
g89
ssg70
g4317
sg63
(lp4329
S':'
asbag56
(g77
g58
NtRp4330
(dp4331
g61
(dp4332
sg70
g4317
sg63
(lp4333
g56
(g57
g58
NtRp4334
(dp4335
g61
(dp4336
g69
I4
ssg70
g4330
sg63
(lp4337
S'no-cache'
p4338
asbasbasbag56
(g72
g58
NtRp4339
(dp4340
g61
(dp4341
sg70
g4247
sg63
(lp4342
g56
(g77
g58
NtRp4343
(dp4344
g61
(dp4345
g81
g82
ssg70
g4339
sg63
(lp4346
S'X-Powered-By'
p4347
asbag56
(g77
g58
NtRp4348
(dp4349
g61
(dp4350
g88
g89
ssg70
g4339
sg63
(lp4351
S':'
asbag56
(g77
g58
NtRp4352
(dp4353
g61
(dp4354
sg70
g4339
sg63
(lp4355
g56
(g57
g58
NtRp4356
(dp4357
g61
(dp4358
g69
I4
ssg70
g4352
sg63
(lp4359
S'web2py'
p4360
asbasbasbasbasbasbasbag56
(g72
g58
NtRp4361
(dp4362
g61
(dp4363
sg70
g3831
sg63
(lp4364
g56
(g77
g58
NtRp4365
(dp4366
g61
(dp4367
g81
g82
ssg70
g4361
sg63
(lp4368
S'menu'
p4369
asbag56
(g77
g58
NtRp4370
(dp4371
g61
(dp4372
g88
g89
ssg70
g4361
sg63
(lp4373
S':'
asbag56
(g77
g58
NtRp4374
(dp4375
g61
(dp4376
sg70
g4361
sg63
(lp4377
g56
(g57
g58
NtRp4378
(dp4379
g61
(dp4380
g69
I5
ssg70
g4374
sg63
(lp4381
g56
(g65
g58
NtRp4382
(dp4383
g61
(dp4384
g69
I4
ssg70
Nsg63
(lp4385
g56
(g72
g58
NtRp4386
(dp4387
g61
(dp4388
sg70
g4382
sg63
(lp4389
g56
(g77
g58
NtRp4390
(dp4391
g61
(dp4392
sg70
g4386
sg63
(lp4393
g56
(g57
g58
NtRp4394
(dp4395
g61
(dp4396
g69
I4
ssg70
g4390
sg63
(lp4397
g56
(g65
g58
NtRp4398
(dp4399
g61
(dp4400
g69
I3
ssg70
Nsg63
(lp4401
g56
(g72
g58
NtRp4402
(dp4403
g61
(dp4404
sg70
g4398
sg63
(lp4405
g56
(g77
g58
NtRp4406
(dp4407
g61
(dp4408
sg70
g4402
sg63
(lp4409
g56
(g57
g58
NtRp4410
(dp4411
g61
(dp4412
g69
I3
ssg70
g4406
sg63
(lp4413
cgluon.languages
lazyT_unpickle
p4414
(S't\x04\x00\x00\x00Home'
tRp4415
asbasbasbag56
(g72
g58
NtRp4416
(dp4417
g61
(dp4418
sg70
g4398
sg63
(lp4419
g56
(g77
g58
NtRp4420
(dp4421
g61
(dp4422
sg70
g4416
sg63
(lp4423
g56
(g57
g58
NtRp4424
(dp4425
g61
(dp4426
g69
I3
ssg70
g4420
sg63
(lp4427
g99
asbasbasbag56
(g72
g58
NtRp4428
(dp4429
g61
(dp4430
sg70
g4398
sg63
(lp4431
g56
(g77
g58
NtRp4432
(dp4433
g61
(dp4434
sg70
g4428
sg63
(lp4435
g56
(g57
g58
NtRp4436
(dp4437
g61
(dp4438
g69
I3
ssg70
g4432
sg63
(lp4439
S'/synopsis/default/index'
p4440
asbasbasbag56
(g72
g58
NtRp4441
(dp4442
g61
(dp4443
sg70
g4398
sg63
(lp4444
g56
(g77
g58
NtRp4445
(dp4446
g61
(dp4447
sg70
g4441
sg63
(lp4448
g56
(g57
g58
NtRp4449
(dp4450
g61
(dp4451
g69
I3
ssg70
g4445
sg63
(lp4452
g56
(g65
g58
NtRp4453
(dp4454
g61
(dp4455
g69
I2
ssg70
Nsg63
(lp4456
sbasbasbasbasbasbasbasbag56
(g72
g58
NtRp4457
(dp4458
g61
(dp4459
sg70
g4382
sg63
(lp4460
g56
(g77
g58
NtRp4461
(dp4462
g61
(dp4463
sg70
g4457
sg63
(lp4464
g56
(g57
g58
NtRp4465
(dp4466
g61
(dp4467
g69
I4
ssg70
g4461
sg63
(lp4468
g56
(g65
g58
NtRp4469
(dp4470
g61
(dp4471
g69
I3
ssg70
Nsg63
(lp4472
g56
(g72
g58
NtRp4473
(dp4474
g61
(dp4475
sg70
g4469
sg63
(lp4476
g56
(g77
g58
NtRp4477
(dp4478
g61
(dp4479
sg70
g4473
sg63
(lp4480
g56
(g57
g58
NtRp4481
(dp4482
g61
(dp4483
g69
I3
ssg70
g4477
sg63
(lp4484
g4414
(S't\x0b\x00\x00\x00Information'
tRp4485
asbasbasbag56
(g72
g58
NtRp4486
(dp4487
g61
(dp4488
sg70
g4469
sg63
(lp4489
g56
(g77
g58
NtRp4490
(dp4491
g61
(dp4492
sg70
g4486
sg63
(lp4493
g56
(g57
g58
NtRp4494
(dp4495
g61
(dp4496
g69
I3
ssg70
g4490
sg63
(lp4497
g99
asbasbasbag56
(g72
g58
NtRp4498
(dp4499
g61
(dp4500
sg70
g4469
sg63
(lp4501
g56
(g77
g58
NtRp4502
(dp4503
g61
(dp4504
sg70
g4498
sg63
(lp4505
g56
(g57
g58
NtRp4506
(dp4507
g61
(dp4508
g69
I3
ssg70
g4502
sg63
(lp4509
S'/synopsis/information/index'
p4510
asbasbasbag56
(g72
g58
NtRp4511
(dp4512
g61
(dp4513
sg70
g4469
sg63
(lp4514
g56
(g77
g58
NtRp4515
(dp4516
g61
(dp4517
sg70
g4511
sg63
(lp4518
g56
(g57
g58
NtRp4519
(dp4520
g61
(dp4521
g69
I3
ssg70
g4515
sg63
(lp4522
g56
(g65
g58
NtRp4523
(dp4524
g61
(dp4525
g69
I2
ssg70
Nsg63
(lp4526
sbasbasbasbasbasbasbasbag56
(g72
g58
NtRp4527
(dp4528
g61
(dp4529
sg70
g4382
sg63
(lp4530
g56
(g77
g58
NtRp4531
(dp4532
g61
(dp4533
sg70
g4527
sg63
(lp4534
g56
(g57
g58
NtRp4535
(dp4536
g61
(dp4537
g69
I4
ssg70
g4531
sg63
(lp4538
g56
(g65
g58
NtRp4539
(dp4540
g61
(dp4541
g69
I3
ssg70
Nsg63
(lp4542
g56
(g72
g58
NtRp4543
(dp4544
g61
(dp4545
sg70
g4539
sg63
(lp4546
g56
(g77
g58
NtRp4547
(dp4548
g61
(dp4549
sg70
g4543
sg63
(lp4550
g56
(g57
g58
NtRp4551
(dp4552
g61
(dp4553
g69
I3
ssg70
g4547
sg63
(lp4554
g4414
(S't\x05\x00\x00\x00About'
tRp4555
asbasbasbag56
(g72
g58
NtRp4556
(dp4557
g61
(dp4558
sg70
g4539
sg63
(lp4559
g56
(g77
g58
NtRp4560
(dp4561
g61
(dp4562
sg70
g4556
sg63
(lp4563
g56
(g57
g58
NtRp4564
(dp4565
g61
(dp4566
g69
I3
ssg70
g4560
sg63
(lp4567
g99
asbasbasbag56
(g72
g58
NtRp4568
(dp4569
g61
(dp4570
sg70
g4539
sg63
(lp4571
g56
(g77
g58
NtRp4572
(dp4573
g61
(dp4574
sg70
g4568
sg63
(lp4575
g56
(g57
g58
NtRp4576
(dp4577
g61
(dp4578
g69
I3
ssg70
g4572
sg63
(lp4579
S'/synopsis/about/index'
p4580
asbasbasbag56
(g72
g58
NtRp4581
(dp4582
g61
(dp4583
sg70
g4539
sg63
(lp4584
g56
(g77
g58
NtRp4585
(dp4586
g61
(dp4587
sg70
g4581
sg63
(lp4588
g56
(g57
g58
NtRp4589
(dp4590
g61
(dp4591
g69
I3
ssg70
g4585
sg63
(lp4592
g56
(g65
g58
NtRp4593
(dp4594
g61
(dp4595
g69
I2
ssg70
Nsg63
(lp4596
sbasbasbasbasbasbasbasbasbasbasbasbag56
(g72
g58
NtRp4597
(dp4598
g61
(dp4599
sg70
g3831
sg63
(lp4600
g56
(g77
g58
NtRp4601
(dp4602
g61
(dp4603
g81
g82
ssg70
g4597
sg63
(lp4604
S'meta'
p4605
asbag56
(g77
g58
NtRp4606
(dp4607
g61
(dp4608
g88
g89
ssg70
g4597
sg63
(lp4609
S':'
asbag56
(g77
g58
NtRp4610
(dp4611
g61
(dp4612
sg70
g4597
sg63
(lp4613
g56
(g57
g58
NtRp4614
(dp4615
g61
(dp4616
g69
I5
ssg70
g4610
sg63
(lp4617
g56
(g65
g58
NtRp4618
(dp4619
g61
(dp4620
g69
I4
ssg70
Nsg63
(lp4621
g56
(g72
g58
NtRp4622
(dp4623
g61
(dp4624
sg70
g4618
sg63
(lp4625
g56
(g77
g58
NtRp4626
(dp4627
g61
(dp4628
g81
g82
ssg70
g4622
sg63
(lp4629
S'author'
p4630
asbag56
(g77
g58
NtRp4631
(dp4632
g61
(dp4633
g88
g89
ssg70
g4622
sg63
(lp4634
S':'
asbag56
(g77
g58
NtRp4635
(dp4636
g61
(dp4637
sg70
g4622
sg63
(lp4638
g56
(g57
g58
NtRp4639
(dp4640
g61
(dp4641
g69
I4
ssg70
g4635
sg63
(lp4642
S'Your Name <you@example.com>'
p4643
asbasbasbag56
(g72
g58
NtRp4644
(dp4645
g61
(dp4646
sg70
g4618
sg63
(lp4647
g56
(g77
g58
NtRp4648
(dp4649
g61
(dp4650
g81
g82
ssg70
g4644
sg63
(lp4651
S'copyright'
p4652
asbag56
(g77
g58
NtRp4653
(dp4654
g61
(dp4655
g88
g89
ssg70
g4644
sg63
(lp4656
S':'
asbag56
(g77
g58
NtRp4657
(dp4658
g61
(dp4659
sg70
g4644
sg63
(lp4660
g56
(g57
g58
NtRp4661
(dp4662
g61
(dp4663
g69
I4
ssg70
g4657
sg63
(lp4664
S'Copyright 2011'
p4665
asbasbasbag56
(g72
g58
NtRp4666
(dp4667
g61
(dp4668
sg70
g4618
sg63
(lp4669
g56
(g77
g58
NtRp4670
(dp4671
g61
(dp4672
g81
g82
ssg70
g4666
sg63
(lp4673
S'description'
p4674
asbag56
(g77
g58
NtRp4675
(dp4676
g61
(dp4677
g88
g89
ssg70
g4666
sg63
(lp4678
S':'
asbag56
(g77
g58
NtRp4679
(dp4680
g61
(dp4681
sg70
g4666
sg63
(lp4682
g56
(g57
g58
NtRp4683
(dp4684
g61
(dp4685
g69
I4
ssg70
g4679
sg63
(lp4686
S'a cool new app'
p4687
asbasbasbag56
(g72
g58
NtRp4688
(dp4689
g61
(dp4690
sg70
g4618
sg63
(lp4691
g56
(g77
g58
NtRp4692
(dp4693
g61
(dp4694
g81
g82
ssg70
g4688
sg63
(lp4695
S'generator'
p4696
asbag56
(g77
g58
NtRp4697
(dp4698
g61
(dp4699
g88
g89
ssg70
g4688
sg63
(lp4700
S':'
asbag56
(g77
g58
NtRp4701
(dp4702
g61
(dp4703
sg70
g4688
sg63
(lp4704
g56
(g57
g58
NtRp4705
(dp4706
g61
(dp4707
g69
I4
ssg70
g4701
sg63
(lp4708
S'Web2py Web Framework'
p4709
asbasbasbag56
(g72
g58
NtRp4710
(dp4711
g61
(dp4712
sg70
g4618
sg63
(lp4713
g56
(g77
g58
NtRp4714
(dp4715
g61
(dp4716
g81
g82
ssg70
g4710
sg63
(lp4717
S'keywords'
p4718
asbag56
(g77
g58
NtRp4719
(dp4720
g61
(dp4721
g88
g89
ssg70
g4710
sg63
(lp4722
S':'
asbag56
(g77
g58
NtRp4723
(dp4724
g61
(dp4725
sg70
g4710
sg63
(lp4726
g56
(g57
g58
NtRp4727
(dp4728
g61
(dp4729
g69
I4
ssg70
g4723
sg63
(lp4730
S'web2py, python, framework'
p4731
asbasbasbasbasbasbasbag56
(g72
g58
NtRp4732
(dp4733
g61
(dp4734
sg70
g3831
sg63
(lp4735
g56
(g77
g58
NtRp4736
(dp4737
g61
(dp4738
g81
g82
ssg70
g4732
sg63
(lp4739
S'postprocessing'
p4740
asbag56
(g77
g58
NtRp4741
(dp4742
g61
(dp4743
g88
g89
ssg70
g4732
sg63
(lp4744
S':'
asbag56
(g77
g58
NtRp4745
(dp4746
g61
(dp4747
sg70
g4732
sg63
(lp4748
g56
(g57
g58
NtRp4749
(dp4750
g61
(dp4751
g69
I5
ssg70
g4745
sg63
(lp4752
g56
(g65
g58
NtRp4753
(dp4754
g61
(dp4755
g69
I4
ssg70
Nsg63
(lp4756
sbasbasbasbag56
(g72
g58
NtRp4757
(dp4758
g61
(dp4759
sg70
g3831
sg63
(lp4760
g56
(g77
g58
NtRp4761
(dp4762
g61
(dp4763
g81
g82
ssg70
g4757
sg63
(lp4764
S'session_file'
p4765
asbag56
(g77
g58
NtRp4766
(dp4767
g61
(dp4768
g88
g89
ssg70
g4757
sg63
(lp4769
S':'
asbag56
(g77
g58
NtRp4770
(dp4771
g61
(dp4772
sg70
g4757
sg63
(lp4773
g56
(g57
g58
NtRp4774
(dp4775
g61
(dp4776
g69
I5
ssg70
g4770
sg63
(lp4777
S"<open file '/home/kaique/Projects/web2py/applications/synopsis/sessions/127.0.0.1-22caa4ed-0448-4782-a756-bcb437fd81d3', mode 'rb+' at 0x245e810>"
p4778
asbasbasbag56
(g72
g58
NtRp4779
(dp4780
g61
(dp4781
sg70
g3831
sg63
(lp4782
g56
(g77
g58
NtRp4783
(dp4784
g61
(dp4785
g81
g82
ssg70
g4779
sg63
(lp4786
S'session_filename'
p4787
asbag56
(g77
g58
NtRp4788
(dp4789
g61
(dp4790
g88
g89
ssg70
g4779
sg63
(lp4791
S':'
asbag56
(g77
g58
NtRp4792
(dp4793
g61
(dp4794
sg70
g4779
sg63
(lp4795
g56
(g57
g58
NtRp4796
(dp4797
g61
(dp4798
g69
I5
ssg70
g4792
sg63
(lp4799
S'/home/kaique/Projects/web2py/applications/synopsis/sessions/127.0.0.1-22caa4ed-0448-4782-a756-bcb437fd81d3'
p4800
asbasbasbag56
(g72
g58
NtRp4801
(dp4802
g61
(dp4803
sg70
g3831
sg63
(lp4804
g56
(g77
g58
NtRp4805
(dp4806
g61
(dp4807
g81
g82
ssg70
g4801
sg63
(lp4808
S'session_id'
p4809
asbag56
(g77
g58
NtRp4810
(dp4811
g61
(dp4812
g88
g89
ssg70
g4801
sg63
(lp4813
S':'
asbag56
(g77
g58
NtRp4814
(dp4815
g61
(dp4816
sg70
g4801
sg63
(lp4817
g56
(g57
g58
NtRp4818
(dp4819
g61
(dp4820
g69
I5
ssg70
g4814
sg63
(lp4821
S'127.0.0.1-22caa4ed-0448-4782-a756-bcb437fd81d3'
p4822
asbasbasbag56
(g72
g58
NtRp4823
(dp4824
g61
(dp4825
sg70
g3831
sg63
(lp4826
g56
(g77
g58
NtRp4827
(dp4828
g61
(dp4829
g81
g82
ssg70
g4823
sg63
(lp4830
S'session_id_name'
p4831
asbag56
(g77
g58
NtRp4832
(dp4833
g61
(dp4834
g88
g89
ssg70
g4823
sg63
(lp4835
S':'
asbag56
(g77
g58
NtRp4836
(dp4837
g61
(dp4838
sg70
g4823
sg63
(lp4839
g56
(g57
g58
NtRp4840
(dp4841
g61
(dp4842
g69
I5
ssg70
g4836
sg63
(lp4843
g3888
asbasbasbag56
(g72
g58
NtRp4844
(dp4845
g61
(dp4846
sg70
g3831
sg63
(lp4847
g56
(g77
g58
NtRp4848
(dp4849
g61
(dp4850
g81
g82
ssg70
g4844
sg63
(lp4851
S'session_locked'
p4852
asbag56
(g77
g58
NtRp4853
(dp4854
g61
(dp4855
g88
g89
ssg70
g4844
sg63
(lp4856
S':'
asbag56
(g77
g58
NtRp4857
(dp4858
g61
(dp4859
sg70
g4844
sg63
(lp4860
g56
(g57
g58
NtRp4861
(dp4862
g61
(dp4863
g69
I5
ssg70
g4857
sg63
(lp4864
g2060
asbasbasbag56
(g72
g58
NtRp4865
(dp4866
g61
(dp4867
sg70
g3831
sg63
(lp4868
g56
(g77
g58
NtRp4869
(dp4870
g61
(dp4871
g81
g82
ssg70
g4865
sg63
(lp4872
S'session_new'
p4873
asbag56
(g77
g58
NtRp4874
(dp4875
g61
(dp4876
g88
g89
ssg70
g4865
sg63
(lp4877
S':'
asbag56
(g77
g58
NtRp4878
(dp4879
g61
(dp4880
sg70
g4865
sg63
(lp4881
g56
(g57
g58
NtRp4882
(dp4883
g61
(dp4884
g69
I5
ssg70
g4878
sg63
(lp4885
g99
asbasbasbag56
(g72
g58
NtRp4886
(dp4887
g61
(dp4888
sg70
g3831
sg63
(lp4889
g56
(g77
g58
NtRp4890
(dp4891
g61
(dp4892
g81
g82
ssg70
g4886
sg63
(lp4893
S'status'
p4894
asbag56
(g77
g58
NtRp4895
(dp4896
g61
(dp4897
g88
g89
ssg70
g4886
sg63
(lp4898
S':'
asbag56
(g77
g58
NtRp4899
(dp4900
g61
(dp4901
sg70
g4886
sg63
(lp4902
g56
(g57
g58
NtRp4903
(dp4904
g61
(dp4905
g69
I5
ssg70
g4899
sg63
(lp4906
S'200'
p4907
asbasbasbag56
(g72
g58
NtRp4908
(dp4909
g61
(dp4910
sg70
g3831
sg63
(lp4911
g56
(g77
g58
NtRp4912
(dp4913
g61
(dp4914
g81
g82
ssg70
g4908
sg63
(lp4915
S'subtitle'
p4916
asbag56
(g77
g58
NtRp4917
(dp4918
g61
(dp4919
g88
g89
ssg70
g4908
sg63
(lp4920
S':'
asbag56
(g77
g58
NtRp4921
(dp4922
g61
(dp4923
sg70
g4908
sg63
(lp4924
g56
(g57
g58
NtRp4925
(dp4926
g61
(dp4927
g69
I5
ssg70
g4921
sg63
(lp4928
g4414
(S's\x0f\x00\x00\x00Personalize-me!'
tRp4929
asbasbasbag56
(g72
g58
NtRp4930
(dp4931
g61
(dp4932
sg70
g3831
sg63
(lp4933
g56
(g77
g58
NtRp4934
(dp4935
g61
(dp4936
g81
g82
ssg70
g4930
sg63
(lp4937
S'title'
p4938
asbag56
(g77
g58
NtRp4939
(dp4940
g61
(dp4941
g88
g89
ssg70
g4930
sg63
(lp4942
S':'
asbag56
(g77
g58
NtRp4943
(dp4944
g61
(dp4945
sg70
g4930
sg63
(lp4946
g56
(g57
g58
NtRp4947
(dp4948
g61
(dp4949
g69
I5
ssg70
g4943
sg63
(lp4950
g121
asbasbasbag56
(g72
g58
NtRp4951
(dp4952
g61
(dp4953
sg70
g3831
sg63
(lp4954
g56
(g77
g58
NtRp4955
(dp4956
g61
(dp4957
g81
g82
ssg70
g4951
sg63
(lp4958
g2725
asbag56
(g77
g58
NtRp4959
(dp4960
g61
(dp4961
g88
g89
ssg70
g4951
sg63
(lp4962
S':'
asbag56
(g77
g58
NtRp4963
(dp4964
g61
(dp4965
sg70
g4951
sg63
(lp4966
g56
(g57
g58
NtRp4967
(dp4968
g61
(dp4969
g69
I5
ssg70
g4963
sg63
(lp4970
g2738
asbasbasbag56
(g72
g58
NtRp4971
(dp4972
g61
(dp4973
sg70
g3831
sg63
(lp4974
g56
(g77
g58
NtRp4975
(dp4976
g61
(dp4977
g81
g82
ssg70
g4971
sg63
(lp4978
S'view'
p4979
asbag56
(g77
g58
NtRp4980
(dp4981
g61
(dp4982
g88
g89
ssg70
g4971
sg63
(lp4983
S':'
asbag56
(g77
g58
NtRp4984
(dp4985
g61
(dp4986
sg70
g4971
sg63
(lp4987
g56
(g57
g58
NtRp4988
(dp4989
g61
(dp4990
g69
I5
ssg70
g4984
sg63
(lp4991
S'information/publication.html'
p4992
asbasbasbasbasbsS'locals'
p4993
(dp4994
S'Service'
p4995
S"<class 'gluon.tools.Service'>"
p4996
sS'OBJECT'
p4997
S"<class 'gluon.html.OBJECT'>"
p4998
sS'SQLDB'
p4999
S"<class 'gluon.dal.DAL'>"
p5000
sg3461
S"<Storage {'_formkey[column/create]': '1eacf8d1-e...login]': '373ec251-09b0-45fd-a73b-82a6eedd1b21'}>"
p5001
sS'LINK'
p5002
S"<class 'gluon.html.LINK'>"
p5003
sS'BR'
p5004
S"<class 'gluon.html.BR'>"
p5005
sS'local_import'
p5006
S'<function <lambda>>'
p5007
sS'OPTGROUP'
p5008
S"<class 'gluon.html.OPTGROUP'>"
p5009
sS'row'
p5010
S"<Row {'updated_by': 1, 'update_record': <functio...elete_record': <function <lambda> at 0x1ab9c08>}>"
p5011
sS'PRE'
p5012
S"<class 'gluon.html.PRE'>"
p5013
sS'IS_INT_IN_RANGE'
p5014
S"<class 'gluon.validators.IS_INT_IN_RANGE'>"
p5015
sS'left_sidebar_enabled'
p5016
g99
sS'IS_LOWER'
p5017
S"<class 'gluon.validators.IS_LOWER'>"
p5018
sS'IS_STRONG'
p5019
S"<class 'gluon.validators.IS_STRONG'>"
p5020
sS'cache'
p5021
S'<gluon.cache.Cache object>'
p5022
sS'IS_IN_DB'
p5023
S"<class 'gluon.validators.IS_IN_DB'>"
p5024
sS'TAG'
p5025
S'<gluon.html.__TAG__ object>'
p5026
sS'SQLField'
p5027
S"<class 'gluon.dal.Field'>"
p5028
sS'mail'
p5029
S'<gluon.tools.Mail object>'
p5030
sS'BODY'
p5031
S"<class 'gluon.html.BODY'>"
p5032
sS'IS_DATE_IN_RANGE'
p5033
S"<class 'gluon.validators.IS_DATE_IN_RANGE'>"
p5034
sS'TH'
p5035
S"<class 'gluon.html.TH'>"
p5036
sS'URL'
p5037
S'<function URL>'
p5038
sS'__file__'
p5039
S"'/home/kaique/Projects/web2py/applications/synopsis/views/information/publication.html'"
p5040
sS'db'
p5041
S"<DAL {'auth_event': <Table {'origin': <gluon.dal..., 'id': <gluon.dal.Field object at 0x1ab4090>}>}>"
p5042
sS'auth'
p5043
S'<gluon.tools.Auth object>'
p5044
sS'P'
S"<class 'gluon.html.P'>"
p5045
sS'TFOOT'
p5046
S"<class 'gluon.html.TFOOT'>"
p5047
sS'count_equals'
p5048
S'<function count_equals>'
p5049
sS'XHTML'
p5050
S"<class 'gluon.html.XHTML'>"
p5051
sS'ON'
p5052
g2060
sS'OL'
p5053
S"<class 'gluon.html.OL'>"
p5054
sS'TEXTAREA'
p5055
S"<class 'gluon.html.TEXTAREA'>"
p5056
sS'MENU'
p5057
S"<class 'gluon.html.MENU'>"
p5058
sg3417
S'[<gluon.html.TR object>]'
p5059
sS'LOAD'
p5060
S'<gluon.compileapp.LoadFactory object>'
p5061
sS'CODE'
p5062
S"<class 'gluon.html.CODE'>"
p5063
sS'HTTP'
p5064
S"<class 'gluon.http.HTTP'>"
p5065
sS'HR'
p5066
S"<class 'gluon.html.HR'>"
p5067
sS'IS_DATETIME'
p5068
S"<class 'gluon.validators.IS_DATETIME'>"
p5069
sS'HEAD'
p5070
S"<class 'gluon.html.HEAD'>"
p5071
sS'LABEL'
p5072
S"<class 'gluon.html.LABEL'>"
p5073
sS'CLEANUP'
p5074
S"<class 'gluon.validators.CLEANUP'>"
p5075
sS'plugins'
p5076
S'<gluon.tools.PluginManager object>'
p5077
sS'SELECT'
p5078
S"<class 'gluon.html.SELECT'>"
p5079
sS'use_janrain'
p5080
S'<function use_janrain>'
p5081
sS'CENTER'
p5082
S"<class 'gluon.html.CENTER'>"
p5083
sS'prettydate'
p5084
S'<function prettydate>'
p5085
sS'Crud'
p5086
S"<class 'gluon.tools.Crud'>"
p5087
sS'Auth'
p5088
S"<class 'gluon.tools.Auth'>"
p5089
sS'__builtins__'
p5090
S"{'ArithmeticError': <type 'exceptions.ArithmeticError'>, 'AssertionError': <type 'exceptions.AssertionError'>, 'AttributeError': <type 'exceptions.AttributeError'>, 'BaseException': <type 'exceptions.BaseException'>, 'BufferError': <type 'exceptions.BufferError'>, 'BytesWarning': <type 'exceptions.BytesWarning'>, 'DeprecationWarning': <type 'exceptions.DeprecationWarning'>, 'EOFError': <type 'exceptions.EOFError'>, 'Ellipsis': Ellipsis, 'EnvironmentError': <type 'exceptions.EnvironmentError'>, ...}"
p5091
sS'HTML'
p5092
S"<class 'gluon.html.HTML'>"
p5093
sS'SQLFORM'
p5094
S"<class 'gluon.sqlhtml.SQLFORM'>"
p5095
sS'EM'
p5096
S"<class 'gluon.html.EM'>"
p5097
sS'redirect'
p5098
S'<function redirect>'
p5099
sS'FIELDSET'
p5100
S"<class 'gluon.html.FIELDSET'>"
p5101
sS'IS_EQUAL_TO'
p5102
S"<class 'gluon.validators.IS_EQUAL_TO'>"
p5103
sS'embed64'
p5104
S'<function embed64>'
p5105
sS'IS_LIST_OF'
p5106
S"<class 'gluon.validators.IS_LIST_OF'>"
p5107
sS'INPUT'
p5108
S"<class 'gluon.html.INPUT'>"
p5109
sS'EMBED'
p5110
S"<class 'gluon.html.EMBED'>"
p5111
sS'FORM'
p5112
S"<class 'gluon.html.FORM'>"
p5113
sS'width_content'
p5114
S"'100%'"
p5115
sS'column'
p5116
S"<Row {'updated_by': 1, 'title': 'Column 1', 'upd...70>, 'row': <gluon.dal.Set object at 0x1aae150>}>"
p5117
sS'H3'
p5118
S"<class 'gluon.html.H3'>"
p5119
sS'BUTTON'
p5120
S"<class 'gluon.html.BUTTON'>"
p5121
sS'H1'
p5122
S"<class 'gluon.html.H1'>"
p5123
sS'H6'
p5124
S"<class 'gluon.html.H6'>"
p5125
sS'ids'
p5126
S'[9, 10]'
p5127
sS'H4'
p5128
S"<class 'gluon.html.H4'>"
p5129
sS'H5'
p5130
S"<class 'gluon.html.H5'>"
p5131
sS'UL'
p5132
S"<class 'gluon.html.UL'>"
p5133
sS'IS_UPPER'
p5134
S"<class 'gluon.validators.IS_UPPER'>"
p5135
sS'signature'
p5136
S"<Table {'ALL': <gluon.dal.SQLALL object at 0x1ab...0>, 'id': <gluon.dal.Field object at 0x1ab12d0>}>"
p5137
sS'IS_TIME'
p5138
S"<class 'gluon.validators.IS_TIME'>"
p5139
sS'OPTION'
p5140
S"<class 'gluon.html.OPTION'>"
p5141
sS'TITLE'
p5142
S"<class 'gluon.html.TITLE'>"
p5143
sS'CRYPT'
p5144
S"<class 'gluon.validators.CRYPT'>"
p5145
sS'IS_EMPTY_OR'
p5146
S"<class 'gluon.validators.IS_EMPTY_OR'>"
p5147
sS'MARKMIN'
p5148
S"<class 'gluon.html.MARKMIN'>"
p5149
sS'COL'
p5150
S"<class 'gluon.html.COL'>"
p5151
sS'publication'
p5152
S'<gluon.dal.Rows object>'
p5153
sS'service'
p5154
S'<gluon.tools.Service object>'
p5155
sS'SCRIPT'
p5156
S"<class 'gluon.html.SCRIPT'>"
p5157
sS'TABLE'
p5158
S"<class 'gluon.html.TABLE'>"
p5159
sS'IS_IPV4'
p5160
S"<class 'gluon.validators.IS_IPV4'>"
p5161
sS'IS_LENGTH'
p5162
S"<class 'gluon.validators.IS_LENGTH'>"
p5163
sS'XML'
p5164
S"<class 'gluon.html.XML'>"
p5165
sS'B'
S"<class 'gluon.html.B'>"
p5166
sS'IMG'
p5167
S"<class 'gluon.html.IMG'>"
p5168
sS'SQLTABLE'
p5169
S"<class 'gluon.sqlhtml.SQLTABLE'>"
p5170
sS'IS_MATCH'
p5171
S"<class 'gluon.validators.IS_MATCH'>"
p5172
sS'IS_ALPHANUMERIC'
p5173
S"<class 'gluon.validators.IS_ALPHANUMERIC'>"
p5174
sS'SPAN'
p5175
S"<class 'gluon.html.SPAN'>"
p5176
sS'IS_SLUG'
p5177
S"<class 'gluon.validators.IS_SLUG'>"
p5178
sS'H2'
p5179
S"<class 'gluon.html.H2'>"
p5180
sS'BEAUTIFY'
p5181
S"<class 'gluon.html.BEAUTIFY'>"
p5182
sS'META'
p5183
S"<class 'gluon.html.META'>"
p5184
sS'IS_DATE'
p5185
S"<class 'gluon.validators.IS_DATE'>"
p5186
sS'IS_EMAIL'
p5187
S"<class 'gluon.validators.IS_EMAIL'>"
p5188
sS'IS_NOT_EMPTY'
p5189
S"<class 'gluon.validators.IS_NOT_EMPTY'>"
p5190
sS'IS_FLOAT_IN_RANGE'
p5191
S"<class 'gluon.validators.IS_FLOAT_IN_RANGE'>"
p5192
sS'TBODY'
p5193
S"<class 'gluon.html.TBODY'>"
p5194
sS'CAT'
p5195
S"<class 'gluon.html.CAT'>"
p5196
sS'Field'
p5197
S"<class 'gluon.dal.Field'>"
p5198
sS'DIV'
p5199
S"<class 'gluon.html.DIV'>"
p5200
sS'LEGEND'
p5201
S"<class 'gluon.html.LEGEND'>"
p5202
sS'COLGROUP'
p5203
S"<class 'gluon.html.COLGROUP'>"
p5204
sS'DAL'
p5205
S"<class 'gluon.dal.DAL'>"
p5206
sS'TT'
p5207
S"<class 'gluon.html.TT'>"
p5208
sS'TR'
p5209
S"<class 'gluon.html.TR'>"
p5210
sS'detail'
p5211
S"<Row {'updated_by': 1, 'title': 'My other test',...elete_record': <function <lambda> at 0x1ab9b18>}>"
p5212
sS'LI'
p5213
S"<class 'gluon.html.LI'>"
p5214
sS'right_sidebar_enabled'
p5215
g99
sS'IFRAME'
p5216
S"<class 'gluon.html.IFRAME'>"
p5217
sS'TD'
p5218
S"<class 'gluon.html.TD'>"
p5219
sS'PluginManager'
p5220
S"<class 'gluon.tools.PluginManager'>"
p5221
sS'IS_URL'
p5222
S"<class 'gluon.validators.IS_URL'>"
p5223
sS'A'
S"<class 'gluon.html.A'>"
p5224
sS'STYLE'
p5225
S"<class 'gluon.html.STYLE'>"
p5226
sS'IS_DATETIME_IN_RANGE'
p5227
S"<class 'gluon.validators.IS_DATETIME_IN_RANGE'>"
p5228
sS'IS_IMAGE'
p5229
S"<class 'gluon.validators.IS_IMAGE'>"
p5230
sS'I'
S"<class 'gluon.html.I'>"
p5231
sS'crud'
p5232
S'<gluon.tools.Crud object>'
p5233
sS'xmlescape'
p5234
S'<function xmlescape>'
p5235
sS'right_sidebar_style'
p5236
S'\'style="display: none;"\''
p5237
sS'IS_NOT_IN_DB'
p5238
S"<class 'gluon.validators.IS_NOT_IN_DB'>"
p5239
sg3826
S"<Storage {'body': <cStringIO.StringO object at 0...12ac08>, 'view': 'information/publication.html'}>"
p5240
sS'THEAD'
p5241
S"<class 'gluon.html.THEAD'>"
p5242
sS'IS_NULL_OR'
p5243
S"<class 'gluon.validators.IS_EMPTY_OR'>"
p5244
sS'left_sidebar_style'
p5245
S'\'style="display: none;"\''
p5246
sg55
S"<Storage {'body': <cStringIO.StringO object at 0..._vars': <Storage {}>, 'post_vars': <Storage {}>}>"
p5247
sS'IS_EXPR'
p5248
S"<class 'gluon.validators.IS_EXPR'>"
p5249
sS'T'
S'<gluon.languages.translator object>'
p5250
sS'IS_IN_SET'
p5251
S"<class 'gluon.validators.IS_IN_SET'>"
p5252
sS'IS_UPLOAD_FILENAME'
p5253
S"<class 'gluon.validators.IS_UPLOAD_FILENAME'>"
p5254
sS'style_content'
p5255
S'\'style="width: 100%"\''
p5256
sS'IS_DECIMAL_IN_RANGE'
p5257
S"<class 'gluon.validators.IS_DECIMAL_IN_RANGE'>"
p5258
sssS'traceback'
p5259
S'Traceback (most recent call last):\n  File "/home/kaique/Projects/web2py/gluon/restricted.py", line 194, in restricted\n    exec ccode in environment\n  File "/home/kaique/Projects/web2py/applications/synopsis/views/information/publication.html", line 124, in <module>\nIndexError: list index out of range\n'
p5260
s.