(dp1
S'output'
p2
S''
sS'layer'
p3
S'/home/kaique/Projects/web2py/applications/synopsis/views/information/new.html'
p4
sS'code'
p5
S'response.write(\'<!DOCTYPE html>\\n<html lang="\', escape=False)\nresponse.write(T.accepted_language or \'en\')\nresponse.write(\'" class="no-js"><!-- no-js need it for modernzr -->\\n  <head>\\n    \\n    <meta charset="utf-8" />        \\n    <!-- www.phpied.com/conditional-comments-block-downloads/ -->\\n    <!--[if IE]>\\n      <!-- Always force latest IE rendering engine \\n       (even in intranet) & Chrome Frame \\n       Remove this if you use the .htaccess -->\\n      <meta http-equiv="X-UA-Compatible" content="IE=edge,chrome=1">\\n    <![endif]-->    \\n\\n    <title>\', escape=False)\nresponse.write(response.title or request.application)\nresponse.write(\'</title>\\n    \\n    <!-- http://dev.w3.org/html5/markup/meta.name.html -->\\n    <meta name="application-name" content="\', escape=False)\nresponse.write(request.application)\nresponse.write(\'" /> \\n    \\n    <!-- Speaking of Google, don\\\'t forget to set your site up: \\n     http://google.com/webmasters -->\\n    <meta name="google-site-verification" content="" />\\n    \\n    <!--  Mobile Viewport Fix\\n      j.mp/mobileviewport & davidbcalhoun.com/2010/viewport-metatag \\n      device-width: Occupy full width of the screen in its current orientation\\n      initial-scale = 1.0 retains dimensions instead of zooming out if page height > device height\\n      maximum-scale = 1.0 retains dimensions instead of zooming in if page width < device width\\n      -->\\n    <meta name="viewport" content="width=device-width, initial-scale=1.0, maximum-scale=1.0">\\n    \\n    <!-- Place favicon.ico and apple-touch-icon.png in the root of your domain and delete these references -->\\n    <link rel="shortcut icon" href="\', escape=False)\nresponse.write(URL(\'static\',\'favicon.ico\'))\nresponse.write(\'" type="image/x-icon">\\n    <link rel="apple-touch-icon" href="\', escape=False)\nresponse.write(URL(\'static\',\'favicon.png\'))\nresponse.write(\'">\\n\\n    <!-- For the less-enabled mobile browsers like Opera Mini -->\\n    <link rel="stylesheet" media="handheld" href="\', escape=False)\nresponse.write(URL(\'static\',\'css/handheld.css\'))\nresponse.write(\'">\\n    \\n    <!-- All JavaScript at the bottom, except for Modernizr which enables HTML5 elements & feature detects -->\\n    <script src="\', escape=False)\nresponse.write(URL(\'static\',\'js/modernizr-1.7.min.js\'))\nresponse.write(\'"></script>\\n    \\n    \', escape=False)\n#------  require CSS and JS files for this page (read info in base.css) ------\nresponse.write(\'\\n    \', escape=False)\nresponse.files.append(URL(\'static\',\'css/base.css\'))\nresponse.write(\'\\n    \', escape=False)\nresponse.files.append(URL(\'static\',\'css/superfish.css\'))\nresponse.write(\'\\n    \', escape=False)\nresponse.files.append(URL(\'static\',\'js/superfish.js\'))\nresponse.write(\'\\n    \', escape=False)\n#------ include web2py specific js code (jquery, calendar, form stuff) ------\nresponse.write(\'\\n    \', escape=False)\nresponse.files.insert(0,URL(\'static\',\'js/jquery.js\'))\nresponse.files.insert(1,URL(\'static\',\'css/anytime.css\'))\nresponse.files.insert(2,URL(\'static\',\'js/anytime.js\'))\nresponse.include_meta()\nresponse.include_files()\nresponse.write(\'\\n<script type="text/javascript"><!--\\n    // These variables are used by the web2py_ajax_init function in web2py_ajax.js (which is loaded below).\\n    var w2p_ajax_confirm_message = "\', escape=False)\nresponse.write(T(\'Are you sure you want to delete this object?\'))\nresponse.write(\'";\\n    var w2p_ajax_date_format = "\', escape=False)\nresponse.write(T(\'%Y-%m-%d\'))\nresponse.write(\'";\\n    var w2p_ajax_datetime_format = "\', escape=False)\nresponse.write(T(\'%Y-%m-%d %H:%M:%S\'))\nresponse.write(\'";\\n    //--></script>\\n    <script src="\', escape=False)\nresponse.write(URL(\'static\',\'js/web2py_ajax.js\'))\nresponse.write(\'" type="text/javascript"></script>\\n\', escape=False)\nresponse.write(\'\\n\\n    \', escape=False)\n#using sidebars need to know what sidebar you want to use\n#prior of using it, because of static width size of content, you can use\n#left_sidebar, right_sidebar, both or none (False left and right)\nleft_sidebar_enabled = globals().get(\'left_sidebar_enabled\',False)\nright_sidebar_enabled = globals().get(\'right_sidebar_enabled\',False)\nif left_sidebar_enabled and right_sidebar_enabled: width_content=\'63%\'\nelif left_sidebar_enabled != right_sidebar_enabled: width_content=\'740px\'\nelse: width_content=\'100%\'\nif left_sidebar_enabled: left_sidebar_style = \'style="display: block;"\'\nelse: left_sidebar_style = \'style="display: none;"\'\nif right_sidebar_enabled: right_sidebar_style = \'style="display: block;"\'\nelse: right_sidebar_style = \'style="display: none;"\'\nstyle_content = \'style="width: %s"\' % width_content\nresponse.write(\'\\n    \\n    <!-- uncomment here to load jquery-ui -->\\n    \\n    <link rel="stylesheet" href="http://ajax.googleapis.com/ajax/libs/jqueryui/1.8.16/themes/base/jquery-ui.css" type="text/css" media="all" />\\n    <script src="http://ajax.googleapis.com/ajax/libs/jqueryui/1.8.16/jquery-ui.min.js" type="text/javascript"></script>\\n    \\n   <!-- uncomment to load jquery-ui -->\\n    \\n    \\n  </head>\\n  \\n  <!-- paulirish.com/2008/conditional-stylesheets-vs-css-hacks-answer-neither/ -->  \\n  <!--[if lt IE 7 ]> <body class="ie6"> <![endif]-->\\n  <!--[if IE 7 ]>    <body class="ie7"> <![endif]-->\\n  <!--[if IE 8 ]>    <body class="ie8"> <![endif]-->\\n  <!--[if IE 9 ]>    <body class="ie9"> <![endif]-->\\n  <!--[if (gt IE 9)|!(IE)]><!--> <body> <!--<![endif]-->\\n    \\n    <div class="flash">\', escape=False)\nresponse.write(response.flash or \'\')\nresponse.write(\'</div> <!-- notification div -->\\n\\n        \\n\\n    <div id="container">                        \\n      \\n      <div id="wrapper">        \\n      \', escape=False)\ntry:\n    response.write(auth.navbar(action=URL(\'default\',\'user\')))\nexcept:pass\nresponse.write(\'\\n    \\n    <div id="header"> <!-- header and login nav -->\\n      \', escape=False)\nresponse.write(\' <!-- this is default header -->\\n      \\n      <h1>\\n        <span id="appname">\', escape=False)\nresponse.write(request.application.capitalize())\nresponse.write(\'</span>App\\n      </h1>\\n      <div style="clear: both;"></div><!-- Clear the divs -->\\n      \', escape=False)\nresponse.write(\'\\n    </div><!-- header  -->\\n    \\n    <div id="statusbar"><!-- statusbar is menu zone -->\\n      \', escape=False)\nresponse.write(\' <!-- this is default statusbar -->\\n      \', escape=False)\n#------ superfish menu ------\nresponse.write(\'\\n      \', escape=False)\nresponse.write(MENU(response.menu,_class=\'sf-menu\'))\nresponse.write(\'\\n      <script type="text/javascript">\\n        jQuery(document).ready(function(){\\n        jQuery(\\\'ul.sf-menu\\\').superfish();});\\n      </script>\\n\\n      <!-- AddToAny BEGIN -->\\n      <div style="padding: 7px; float:right;" class="a2a_kit a2a_default_style"><a class="a2a_dd" href="http://www.addtoany.com/share_save">Share</a></div><script type="text/javascript" src="http://static.addtoany.com/menu/page.js"></script>\\n      <!-- AddToAny END -->\\n\\n      <div style="clear: both;"></div><!-- Clear the divs -->   \\n      \', escape=False)\nresponse.write(\'               \\n    </div><!-- statusbar -->\\n    \\n    <div id="page"> <!-- Here my central body -->     \\n\\n      \', escape=False)\nif left_sidebar_enabled:\n    response.write(\'\\n          <div id="left_sidebar" \', escape=False)\n    response.write(XML(left_sidebar_style))\n    response.write(\' >\\n            <div style="padding: 4px;">\\n          \', escape=False)\n    response.write(\'Content Left Sidebar\', escape=False)\n    response.write(\'       \\n            </div>\\n          </div><!-- left_sidebar -->\\n      \', escape=False)\n    pass\nresponse.write(\'\\n\\n      <!-- content -->\\n      <div id="content" \', escape=False)\nresponse.write(XML(style_content))\nresponse.write(\' >\\n        \', escape=False)\nresponse.write(\'\\n\\n<div class="content">\\n\\t<section>\\n\\t\\t<article>\\n\\t\\t\\t<header>\\n\\t\\t\\t\\t\', escape=False)\nif not request.args:\n    response.write(\'\\n\\t\\t\\t\\t\\t\', escape=False)\n    response.write(A(T(\'Visualize publications\'), _href=URL(\'index\')))\n    response.write(\'\\n\\t\\t\\t\\t\', escape=False)\nelif request.args[1] == \'publication\':\n    response.write(\'\\n\\t\\t\\t\\t\\t\', escape=False)\n    response.write(A(T(\'Visualize publications\'), _href=URL(\'profile\'))\n    response.write(\'\\t\\n\\t\\t\\t\\t\', escape=False)\n    pass\nresponse.write(\'\\n\\t\\t\\t\\t\\n\\t\\t\\t\\t\', escape=False)\n#=A(T(\'Visualize publications\'), _href=URL(\'publication\', args=[session.back]))\nresponse.write(\'\\n\\t\\t\\t\\t\\n\\t\\t\\t\\t\', escape=False)\nresponse.write(request.args)\nresponse.write(\'\\n\\t\\t\\t\\t<hr />\\n\\t\\t\\t\\t<h1>\', escape=False)\nresponse.write(T(\'{0} {1}\'.format(\'New\', title)))\nresponse.write(\'</h1>\\n\\t\\t\\t\\t<hr />\\n\\t\\t\\t</header>\\n\\t\\t\\t<div>\\n\\t\\t\\t\\t\', escape=False)\nresponse.write(form)\nresponse.write(\'\\n\\t\\t\\t</div>\\t\\n\\t\\t</article>\\n\\t</section>\\n</div>\\n\', escape=False)\nresponse.write(\' \\n      </div>\\n      <!-- content -->\\n\\n      \', escape=False)\nif right_sidebar_enabled:\n    response.write(\'\\n          <div id="right_sidebar" \', escape=False)\n    response.write(XML(right_sidebar_style))\n    response.write(\' >\\n            <div style="padding: 4px;">\\n              \', escape=False)\n    response.write(\'Content Right Sidebar\', escape=False)\n    response.write(\'\\n            </div>\\n      </div><!-- right_sidebar -->\\n          \', escape=False)\n    pass\nresponse.write(\'\\n\\n\\n      <div style="clear: both;"></div><!-- Clear the divs -->\\n      \\n    </div><!-- page -->                         \\n    \\n    <div id="footer">\\n      \', escape=False)\nresponse.write(\' <!-- this is default footer -->\\n      <a href="http://www.web2py.com/" style="float: left; padding-right: 6px;">\\n        <img src="\', escape=False)\nresponse.write(URL(\'static\',\'images/poweredby.png\'))\nresponse.write(\'"/>\\n      </a>\\n      \', escape=False)\nresponse.write(T(\'Copyright\'))\nresponse.write(\' &#169; 2011               \\n      <div style="clear: both;"></div><!-- Clear the divs -->\\n      \', escape=False)\nresponse.write(\'\\n\\n    </div><!-- footer -->           \\n      </div><!-- wrapper -->\\n    </div><!-- container -->        \\n    \\n    <!--[if lt IE 7 ]>\\n    <script src="\', escape=False)\nresponse.write(URL(\'static\',\'js/dd_belatedpng.js\'))\nresponse.write(\'"></script>\\n    <script> DD_belatedPNG.fix(\\\'img, .png_bg\\\'); //fix any <img> or .png_bg background-images </script>\\n    <![endif]-->\\n    \', escape=False)\nif response.google_analytics_id:\n    response.write("<script>/* http://mathiasbynens.be/notes/async-analytics-snippet */ var _gaq=[[\'_setAccount\',\'", escape=False)\n    response.write(response.google_analyitics_id)\n    response.write("\'],[\'_trackPageview\']];(function(d,t){var g=d.createElement(t),s=d.getElementsByTagName(t)[0];g.src=\'//www.google-analytics.com/ga.js\';s.parentNode.insertBefore(g,s)}(document,\'script\')) </script>", escape=False)\n    pass\nresponse.write(\'\\n  </body>\\n</html>\\n\', escape=False)'
p6
sS'snapshot'
p7
(dp8
S'exception'
p9
(dp10
S'__getslice__'
p11
S"<method-wrapper '__getslice__' of exceptions.SyntaxError object>"
p12
sS'text'
p13
S'"    response.write(\'\\\\t\\\\n\\\\t\\\\t\\\\t\\\\t\', escape=False)\\n"'
p14
sS'__str__'
p15
S"<method-wrapper '__str__' of exceptions.SyntaxError object>"
p16
sS'__reduce__'
p17
S'<built-in method __reduce__ of exceptions.SyntaxError object>'
p18
sS'__dict__'
p19
S'{}'
p20
sS'__sizeof__'
p21
S'<built-in method __sizeof__ of exceptions.SyntaxError object>'
p22
sS'__init__'
p23
S"<method-wrapper '__init__' of exceptions.SyntaxError object>"
p24
sS'__setattr__'
p25
S"<method-wrapper '__setattr__' of exceptions.SyntaxError object>"
p26
sS'__reduce_ex__'
p27
S'<built-in method __reduce_ex__ of exceptions.SyntaxError object>'
p28
sS'__new__'
p29
S'<built-in method __new__ of type object>'
p30
sS'__format__'
p31
S'<built-in method __format__ of exceptions.SyntaxError object>'
p32
sS'__class__'
p33
S"<type 'exceptions.SyntaxError'>"
p34
sS'filename'
p35
S"'/home/kaique/Projects/web2py/applications/synopsis/views/information/new.html'"
p36
sS'lineno'
p37
S'89'
p38
sS'msg'
p39
S"'invalid syntax'"
p40
sS'__doc__'
p41
S"'Invalid syntax.'"
p42
sS'__getitem__'
p43
S"<method-wrapper '__getitem__' of exceptions.SyntaxError object>"
p44
sS'__setstate__'
p45
S'<built-in method __setstate__ of exceptions.SyntaxError object>'
p46
sS'__getattribute__'
p47
S"<method-wrapper '__getattribute__' of exceptions.SyntaxError object>"
p48
sS'print_file_and_line'
p49
S'None'
p50
sS'args'
p51
S'(\'invalid syntax\', (\'/home/kaique/Projects/web2py/applications/synopsis/views/information/new.html\', 89, 12, "    response.write(\'\\\\t\\\\n\\\\t\\\\t\\\\t\\\\t\', escape=False)\\n"))'
p52
sS'__subclasshook__'
p53
S'<built-in method __subclasshook__ of type object>'
p54
sS'offset'
p55
S'12'
p56
sS'__unicode__'
p57
S'<built-in method __unicode__ of exceptions.SyntaxError object>'
p58
sS'__delattr__'
p59
S"<method-wrapper '__delattr__' of exceptions.SyntaxError object>"
p60
sS'__repr__'
p61
S"<method-wrapper '__repr__' of exceptions.SyntaxError object>"
p62
sS'__hash__'
p63
S"<method-wrapper '__hash__' of exceptions.SyntaxError object>"
p64
ssS'evalue'
p65
S'invalid syntax (new.html, line 89)'
p66
sS'request'
p67
ccopy_reg
_reconstructor
p68
(cgluon.html
BEAUTIFY
p69
c__builtin__
object
p70
NtRp71
(dp72
S'attributes'
p73
(dp74
sS'components'
p75
(lp76
g68
(cgluon.html
TABLE
p77
g70
NtRp78
(dp79
g73
(dp80
S'level'
p81
I5
ssS'parent'
p82
Nsg75
(lp83
g68
(cgluon.html
TR
p84
g70
NtRp85
(dp86
g73
(dp87
sg82
g78
sg75
(lp88
g68
(cgluon.html
TD
p89
g70
NtRp90
(dp91
g73
(dp92
S'_style'
p93
S'font-weight:bold;'
p94
ssg82
g85
sg75
(lp95
S'ajax'
p96
asbag68
(g89
g70
NtRp97
(dp98
g73
(dp99
S'_valign'
p100
S'top'
p101
ssg82
g85
sg75
(lp102
S':'
asbag68
(g89
g70
NtRp103
(dp104
g73
(dp105
sg82
g85
sg75
(lp106
g68
(g69
g70
NtRp107
(dp108
g73
(dp109
g81
I5
ssg82
g103
sg75
(lp110
S'False'
p111
asbasbasbag68
(g84
g70
NtRp112
(dp113
g73
(dp114
sg82
g78
sg75
(lp115
g68
(g89
g70
NtRp116
(dp117
g73
(dp118
g93
g94
ssg82
g112
sg75
(lp119
S'application'
p120
asbag68
(g89
g70
NtRp121
(dp122
g73
(dp123
g100
g101
ssg82
g112
sg75
(lp124
S':'
asbag68
(g89
g70
NtRp125
(dp126
g73
(dp127
sg82
g112
sg75
(lp128
g68
(g69
g70
NtRp129
(dp130
g73
(dp131
g81
I5
ssg82
g125
sg75
(lp132
S'synopsis'
p133
asbasbasbag68
(g84
g70
NtRp134
(dp135
g73
(dp136
sg82
g78
sg75
(lp137
g68
(g89
g70
NtRp138
(dp139
g73
(dp140
g93
g94
ssg82
g134
sg75
(lp141
g51
asbag68
(g89
g70
NtRp142
(dp143
g73
(dp144
g100
g101
ssg82
g134
sg75
(lp145
S':'
asbag68
(g89
g70
NtRp146
(dp147
g73
(dp148
sg82
g134
sg75
(lp149
g68
(g69
g70
NtRp150
(dp151
g73
(dp152
g81
I5
ssg82
g146
sg75
(lp153
g68
(g77
g70
NtRp154
(dp155
g73
(dp156
g81
I4
ssg82
Nsg75
(lp157
g68
(g84
g70
NtRp158
(dp159
g73
(dp160
sg82
g154
sg75
(lp161
g68
(g89
g70
NtRp162
(dp163
g73
(dp164
sg82
g158
sg75
(lp165
g68
(g69
g70
NtRp166
(dp167
g73
(dp168
g81
I4
ssg82
g162
sg75
(lp169
S'publication'
p170
asbasbasbag68
(g84
g70
NtRp171
(dp172
g73
(dp173
sg82
g154
sg75
(lp174
g68
(g89
g70
NtRp175
(dp176
g73
(dp177
sg82
g171
sg75
(lp178
g68
(g69
g70
NtRp179
(dp180
g73
(dp181
g81
I4
ssg82
g175
sg75
(lp182
S'1'
asbasbasbasbasbasbasbag68
(g84
g70
NtRp183
(dp184
g73
(dp185
sg82
g78
sg75
(lp186
g68
(g89
g70
NtRp187
(dp188
g73
(dp189
g93
g94
ssg82
g183
sg75
(lp190
S'body'
p191
asbag68
(g89
g70
NtRp192
(dp193
g73
(dp194
g100
g101
ssg82
g183
sg75
(lp195
S':'
asbag68
(g89
g70
NtRp196
(dp197
g73
(dp198
sg82
g183
sg75
(lp199
g68
(g69
g70
NtRp200
(dp201
g73
(dp202
g81
I5
ssg82
g196
sg75
(lp203
S'<cStringIO.StringO object at 0x3a6bc00>'
p204
asbasbasbag68
(g84
g70
NtRp205
(dp206
g73
(dp207
sg82
g78
sg75
(lp208
g68
(g89
g70
NtRp209
(dp210
g73
(dp211
g93
g94
ssg82
g205
sg75
(lp212
S'client'
p213
asbag68
(g89
g70
NtRp214
(dp215
g73
(dp216
g100
g101
ssg82
g205
sg75
(lp217
S':'
asbag68
(g89
g70
NtRp218
(dp219
g73
(dp220
sg82
g205
sg75
(lp221
g68
(g69
g70
NtRp222
(dp223
g73
(dp224
g81
I5
ssg82
g218
sg75
(lp225
S'127.0.0.1'
p226
asbasbasbag68
(g84
g70
NtRp227
(dp228
g73
(dp229
sg82
g78
sg75
(lp230
g68
(g89
g70
NtRp231
(dp232
g73
(dp233
g93
g94
ssg82
g227
sg75
(lp234
S'controller'
p235
asbag68
(g89
g70
NtRp236
(dp237
g73
(dp238
g100
g101
ssg82
g227
sg75
(lp239
S':'
asbag68
(g89
g70
NtRp240
(dp241
g73
(dp242
sg82
g227
sg75
(lp243
g68
(g69
g70
NtRp244
(dp245
g73
(dp246
g81
I5
ssg82
g240
sg75
(lp247
S'information'
p248
asbasbasbag68
(g84
g70
NtRp249
(dp250
g73
(dp251
sg82
g78
sg75
(lp252
g68
(g89
g70
NtRp253
(dp254
g73
(dp255
g93
g94
ssg82
g249
sg75
(lp256
S'cookies'
p257
asbag68
(g89
g70
NtRp258
(dp259
g73
(dp260
g100
g101
ssg82
g249
sg75
(lp261
S':'
asbag68
(g89
g70
NtRp262
(dp263
g73
(dp264
sg82
g249
sg75
(lp265
g68
(g69
g70
NtRp266
(dp267
g73
(dp268
g81
I5
ssg82
g262
sg75
(lp269
g68
(g77
g70
NtRp270
(dp271
g73
(dp272
g81
I4
ssg82
Nsg75
(lp273
g68
(g84
g70
NtRp274
(dp275
g73
(dp276
sg82
g270
sg75
(lp277
g68
(g89
g70
NtRp278
(dp279
g73
(dp280
g93
g94
ssg82
g274
sg75
(lp281
S'currency'
p282
asbag68
(g89
g70
NtRp283
(dp284
g73
(dp285
g100
g101
ssg82
g274
sg75
(lp286
S':'
asbag68
(g89
g70
NtRp287
(dp288
g73
(dp289
sg82
g274
sg75
(lp290
g68
(g69
g70
NtRp291
(dp292
g73
(dp293
g81
I4
ssg82
g287
sg75
(lp294
g68
(g77
g70
NtRp295
(dp296
g73
(dp297
g81
I3
ssg82
Nsg75
(lp298
g68
(g84
g70
NtRp299
(dp300
g73
(dp301
sg82
g295
sg75
(lp302
g68
(g89
g70
NtRp303
(dp304
g73
(dp305
g93
g94
ssg82
g299
sg75
(lp306
S'comment'
p307
asbag68
(g89
g70
NtRp308
(dp309
g73
(dp310
g100
g101
ssg82
g299
sg75
(lp311
S':'
asbag68
(g89
g70
NtRp312
(dp313
g73
(dp314
sg82
g299
sg75
(lp315
g68
(g69
g70
NtRp316
(dp317
g73
(dp318
g81
I3
ssg82
g312
sg75
(lp319
S''
asbasbasbag68
(g84
g70
NtRp320
(dp321
g73
(dp322
sg82
g295
sg75
(lp323
g68
(g89
g70
NtRp324
(dp325
g73
(dp326
g93
g94
ssg82
g320
sg75
(lp327
S'domain'
p328
asbag68
(g89
g70
NtRp329
(dp330
g73
(dp331
g100
g101
ssg82
g320
sg75
(lp332
S':'
asbag68
(g89
g70
NtRp333
(dp334
g73
(dp335
sg82
g320
sg75
(lp336
g68
(g69
g70
NtRp337
(dp338
g73
(dp339
g81
I3
ssg82
g333
sg75
(lp340
S''
asbasbasbag68
(g84
g70
NtRp341
(dp342
g73
(dp343
sg82
g295
sg75
(lp344
g68
(g89
g70
NtRp345
(dp346
g73
(dp347
g93
g94
ssg82
g341
sg75
(lp348
S'expires'
p349
asbag68
(g89
g70
NtRp350
(dp351
g73
(dp352
g100
g101
ssg82
g341
sg75
(lp353
S':'
asbag68
(g89
g70
NtRp354
(dp355
g73
(dp356
sg82
g341
sg75
(lp357
g68
(g69
g70
NtRp358
(dp359
g73
(dp360
g81
I3
ssg82
g354
sg75
(lp361
S''
asbasbasbag68
(g84
g70
NtRp362
(dp363
g73
(dp364
sg82
g295
sg75
(lp365
g68
(g89
g70
NtRp366
(dp367
g73
(dp368
g93
g94
ssg82
g362
sg75
(lp369
S'httponly'
p370
asbag68
(g89
g70
NtRp371
(dp372
g73
(dp373
g100
g101
ssg82
g362
sg75
(lp374
S':'
asbag68
(g89
g70
NtRp375
(dp376
g73
(dp377
sg82
g362
sg75
(lp378
g68
(g69
g70
NtRp379
(dp380
g73
(dp381
g81
I3
ssg82
g375
sg75
(lp382
S''
asbasbasbag68
(g84
g70
NtRp383
(dp384
g73
(dp385
sg82
g295
sg75
(lp386
g68
(g89
g70
NtRp387
(dp388
g73
(dp389
g93
g94
ssg82
g383
sg75
(lp390
S'max-age'
p391
asbag68
(g89
g70
NtRp392
(dp393
g73
(dp394
g100
g101
ssg82
g383
sg75
(lp395
S':'
asbag68
(g89
g70
NtRp396
(dp397
g73
(dp398
sg82
g383
sg75
(lp399
g68
(g69
g70
NtRp400
(dp401
g73
(dp402
g81
I3
ssg82
g396
sg75
(lp403
S''
asbasbasbag68
(g84
g70
NtRp404
(dp405
g73
(dp406
sg82
g295
sg75
(lp407
g68
(g89
g70
NtRp408
(dp409
g73
(dp410
g93
g94
ssg82
g404
sg75
(lp411
S'path'
p412
asbag68
(g89
g70
NtRp413
(dp414
g73
(dp415
g100
g101
ssg82
g404
sg75
(lp416
S':'
asbag68
(g89
g70
NtRp417
(dp418
g73
(dp419
sg82
g404
sg75
(lp420
g68
(g69
g70
NtRp421
(dp422
g73
(dp423
g81
I3
ssg82
g417
sg75
(lp424
S''
asbasbasbag68
(g84
g70
NtRp425
(dp426
g73
(dp427
sg82
g295
sg75
(lp428
g68
(g89
g70
NtRp429
(dp430
g73
(dp431
g93
g94
ssg82
g425
sg75
(lp432
S'secure'
p433
asbag68
(g89
g70
NtRp434
(dp435
g73
(dp436
g100
g101
ssg82
g425
sg75
(lp437
S':'
asbag68
(g89
g70
NtRp438
(dp439
g73
(dp440
sg82
g425
sg75
(lp441
g68
(g69
g70
NtRp442
(dp443
g73
(dp444
g81
I3
ssg82
g438
sg75
(lp445
S''
asbasbasbag68
(g84
g70
NtRp446
(dp447
g73
(dp448
sg82
g295
sg75
(lp449
g68
(g89
g70
NtRp450
(dp451
g73
(dp452
g93
g94
ssg82
g446
sg75
(lp453
S'version'
p454
asbag68
(g89
g70
NtRp455
(dp456
g73
(dp457
g100
g101
ssg82
g446
sg75
(lp458
S':'
asbag68
(g89
g70
NtRp459
(dp460
g73
(dp461
sg82
g446
sg75
(lp462
g68
(g69
g70
NtRp463
(dp464
g73
(dp465
g81
I3
ssg82
g459
sg75
(lp466
S''
asbasbasbasbasbasbasbag68
(g84
g70
NtRp467
(dp468
g73
(dp469
sg82
g270
sg75
(lp470
g68
(g89
g70
NtRp471
(dp472
g73
(dp473
g93
g94
ssg82
g467
sg75
(lp474
S'session_id_admin'
p475
asbag68
(g89
g70
NtRp476
(dp477
g73
(dp478
g100
g101
ssg82
g467
sg75
(lp479
S':'
asbag68
(g89
g70
NtRp480
(dp481
g73
(dp482
sg82
g467
sg75
(lp483
g68
(g69
g70
NtRp484
(dp485
g73
(dp486
g81
I4
ssg82
g480
sg75
(lp487
g68
(g77
g70
NtRp488
(dp489
g73
(dp490
g81
I3
ssg82
Nsg75
(lp491
g68
(g84
g70
NtRp492
(dp493
g73
(dp494
sg82
g488
sg75
(lp495
g68
(g89
g70
NtRp496
(dp497
g73
(dp498
g93
g94
ssg82
g492
sg75
(lp499
g307
asbag68
(g89
g70
NtRp500
(dp501
g73
(dp502
g100
g101
ssg82
g492
sg75
(lp503
S':'
asbag68
(g89
g70
NtRp504
(dp505
g73
(dp506
sg82
g492
sg75
(lp507
g68
(g69
g70
NtRp508
(dp509
g73
(dp510
g81
I3
ssg82
g504
sg75
(lp511
S''
asbasbasbag68
(g84
g70
NtRp512
(dp513
g73
(dp514
sg82
g488
sg75
(lp515
g68
(g89
g70
NtRp516
(dp517
g73
(dp518
g93
g94
ssg82
g512
sg75
(lp519
g328
asbag68
(g89
g70
NtRp520
(dp521
g73
(dp522
g100
g101
ssg82
g512
sg75
(lp523
S':'
asbag68
(g89
g70
NtRp524
(dp525
g73
(dp526
sg82
g512
sg75
(lp527
g68
(g69
g70
NtRp528
(dp529
g73
(dp530
g81
I3
ssg82
g524
sg75
(lp531
S''
asbasbasbag68
(g84
g70
NtRp532
(dp533
g73
(dp534
sg82
g488
sg75
(lp535
g68
(g89
g70
NtRp536
(dp537
g73
(dp538
g93
g94
ssg82
g532
sg75
(lp539
g349
asbag68
(g89
g70
NtRp540
(dp541
g73
(dp542
g100
g101
ssg82
g532
sg75
(lp543
S':'
asbag68
(g89
g70
NtRp544
(dp545
g73
(dp546
sg82
g532
sg75
(lp547
g68
(g69
g70
NtRp548
(dp549
g73
(dp550
g81
I3
ssg82
g544
sg75
(lp551
S''
asbasbasbag68
(g84
g70
NtRp552
(dp553
g73
(dp554
sg82
g488
sg75
(lp555
g68
(g89
g70
NtRp556
(dp557
g73
(dp558
g93
g94
ssg82
g552
sg75
(lp559
g370
asbag68
(g89
g70
NtRp560
(dp561
g73
(dp562
g100
g101
ssg82
g552
sg75
(lp563
S':'
asbag68
(g89
g70
NtRp564
(dp565
g73
(dp566
sg82
g552
sg75
(lp567
g68
(g69
g70
NtRp568
(dp569
g73
(dp570
g81
I3
ssg82
g564
sg75
(lp571
S''
asbasbasbag68
(g84
g70
NtRp572
(dp573
g73
(dp574
sg82
g488
sg75
(lp575
g68
(g89
g70
NtRp576
(dp577
g73
(dp578
g93
g94
ssg82
g572
sg75
(lp579
g391
asbag68
(g89
g70
NtRp580
(dp581
g73
(dp582
g100
g101
ssg82
g572
sg75
(lp583
S':'
asbag68
(g89
g70
NtRp584
(dp585
g73
(dp586
sg82
g572
sg75
(lp587
g68
(g69
g70
NtRp588
(dp589
g73
(dp590
g81
I3
ssg82
g584
sg75
(lp591
S''
asbasbasbag68
(g84
g70
NtRp592
(dp593
g73
(dp594
sg82
g488
sg75
(lp595
g68
(g89
g70
NtRp596
(dp597
g73
(dp598
g93
g94
ssg82
g592
sg75
(lp599
g412
asbag68
(g89
g70
NtRp600
(dp601
g73
(dp602
g100
g101
ssg82
g592
sg75
(lp603
S':'
asbag68
(g89
g70
NtRp604
(dp605
g73
(dp606
sg82
g592
sg75
(lp607
g68
(g69
g70
NtRp608
(dp609
g73
(dp610
g81
I3
ssg82
g604
sg75
(lp611
S''
asbasbasbag68
(g84
g70
NtRp612
(dp613
g73
(dp614
sg82
g488
sg75
(lp615
g68
(g89
g70
NtRp616
(dp617
g73
(dp618
g93
g94
ssg82
g612
sg75
(lp619
g433
asbag68
(g89
g70
NtRp620
(dp621
g73
(dp622
g100
g101
ssg82
g612
sg75
(lp623
S':'
asbag68
(g89
g70
NtRp624
(dp625
g73
(dp626
sg82
g612
sg75
(lp627
g68
(g69
g70
NtRp628
(dp629
g73
(dp630
g81
I3
ssg82
g624
sg75
(lp631
S''
asbasbasbag68
(g84
g70
NtRp632
(dp633
g73
(dp634
sg82
g488
sg75
(lp635
g68
(g89
g70
NtRp636
(dp637
g73
(dp638
g93
g94
ssg82
g632
sg75
(lp639
g454
asbag68
(g89
g70
NtRp640
(dp641
g73
(dp642
g100
g101
ssg82
g632
sg75
(lp643
S':'
asbag68
(g89
g70
NtRp644
(dp645
g73
(dp646
sg82
g632
sg75
(lp647
g68
(g69
g70
NtRp648
(dp649
g73
(dp650
g81
I3
ssg82
g644
sg75
(lp651
S''
asbasbasbasbasbasbasbag68
(g84
g70
NtRp652
(dp653
g73
(dp654
sg82
g270
sg75
(lp655
g68
(g89
g70
NtRp656
(dp657
g73
(dp658
g93
g94
ssg82
g652
sg75
(lp659
S'session_id_synopsis'
p660
asbag68
(g89
g70
NtRp661
(dp662
g73
(dp663
g100
g101
ssg82
g652
sg75
(lp664
S':'
asbag68
(g89
g70
NtRp665
(dp666
g73
(dp667
sg82
g652
sg75
(lp668
g68
(g69
g70
NtRp669
(dp670
g73
(dp671
g81
I4
ssg82
g665
sg75
(lp672
g68
(g77
g70
NtRp673
(dp674
g73
(dp675
g81
I3
ssg82
Nsg75
(lp676
g68
(g84
g70
NtRp677
(dp678
g73
(dp679
sg82
g673
sg75
(lp680
g68
(g89
g70
NtRp681
(dp682
g73
(dp683
g93
g94
ssg82
g677
sg75
(lp684
g307
asbag68
(g89
g70
NtRp685
(dp686
g73
(dp687
g100
g101
ssg82
g677
sg75
(lp688
S':'
asbag68
(g89
g70
NtRp689
(dp690
g73
(dp691
sg82
g677
sg75
(lp692
g68
(g69
g70
NtRp693
(dp694
g73
(dp695
g81
I3
ssg82
g689
sg75
(lp696
S''
asbasbasbag68
(g84
g70
NtRp697
(dp698
g73
(dp699
sg82
g673
sg75
(lp700
g68
(g89
g70
NtRp701
(dp702
g73
(dp703
g93
g94
ssg82
g697
sg75
(lp704
g328
asbag68
(g89
g70
NtRp705
(dp706
g73
(dp707
g100
g101
ssg82
g697
sg75
(lp708
S':'
asbag68
(g89
g70
NtRp709
(dp710
g73
(dp711
sg82
g697
sg75
(lp712
g68
(g69
g70
NtRp713
(dp714
g73
(dp715
g81
I3
ssg82
g709
sg75
(lp716
S''
asbasbasbag68
(g84
g70
NtRp717
(dp718
g73
(dp719
sg82
g673
sg75
(lp720
g68
(g89
g70
NtRp721
(dp722
g73
(dp723
g93
g94
ssg82
g717
sg75
(lp724
g349
asbag68
(g89
g70
NtRp725
(dp726
g73
(dp727
g100
g101
ssg82
g717
sg75
(lp728
S':'
asbag68
(g89
g70
NtRp729
(dp730
g73
(dp731
sg82
g717
sg75
(lp732
g68
(g69
g70
NtRp733
(dp734
g73
(dp735
g81
I3
ssg82
g729
sg75
(lp736
S''
asbasbasbag68
(g84
g70
NtRp737
(dp738
g73
(dp739
sg82
g673
sg75
(lp740
g68
(g89
g70
NtRp741
(dp742
g73
(dp743
g93
g94
ssg82
g737
sg75
(lp744
g370
asbag68
(g89
g70
NtRp745
(dp746
g73
(dp747
g100
g101
ssg82
g737
sg75
(lp748
S':'
asbag68
(g89
g70
NtRp749
(dp750
g73
(dp751
sg82
g737
sg75
(lp752
g68
(g69
g70
NtRp753
(dp754
g73
(dp755
g81
I3
ssg82
g749
sg75
(lp756
S''
asbasbasbag68
(g84
g70
NtRp757
(dp758
g73
(dp759
sg82
g673
sg75
(lp760
g68
(g89
g70
NtRp761
(dp762
g73
(dp763
g93
g94
ssg82
g757
sg75
(lp764
g391
asbag68
(g89
g70
NtRp765
(dp766
g73
(dp767
g100
g101
ssg82
g757
sg75
(lp768
S':'
asbag68
(g89
g70
NtRp769
(dp770
g73
(dp771
sg82
g757
sg75
(lp772
g68
(g69
g70
NtRp773
(dp774
g73
(dp775
g81
I3
ssg82
g769
sg75
(lp776
S''
asbasbasbag68
(g84
g70
NtRp777
(dp778
g73
(dp779
sg82
g673
sg75
(lp780
g68
(g89
g70
NtRp781
(dp782
g73
(dp783
g93
g94
ssg82
g777
sg75
(lp784
g412
asbag68
(g89
g70
NtRp785
(dp786
g73
(dp787
g100
g101
ssg82
g777
sg75
(lp788
S':'
asbag68
(g89
g70
NtRp789
(dp790
g73
(dp791
sg82
g777
sg75
(lp792
g68
(g69
g70
NtRp793
(dp794
g73
(dp795
g81
I3
ssg82
g789
sg75
(lp796
S''
asbasbasbag68
(g84
g70
NtRp797
(dp798
g73
(dp799
sg82
g673
sg75
(lp800
g68
(g89
g70
NtRp801
(dp802
g73
(dp803
g93
g94
ssg82
g797
sg75
(lp804
g433
asbag68
(g89
g70
NtRp805
(dp806
g73
(dp807
g100
g101
ssg82
g797
sg75
(lp808
S':'
asbag68
(g89
g70
NtRp809
(dp810
g73
(dp811
sg82
g797
sg75
(lp812
g68
(g69
g70
NtRp813
(dp814
g73
(dp815
g81
I3
ssg82
g809
sg75
(lp816
S''
asbasbasbag68
(g84
g70
NtRp817
(dp818
g73
(dp819
sg82
g673
sg75
(lp820
g68
(g89
g70
NtRp821
(dp822
g73
(dp823
g93
g94
ssg82
g817
sg75
(lp824
g454
asbag68
(g89
g70
NtRp825
(dp826
g73
(dp827
g100
g101
ssg82
g817
sg75
(lp828
S':'
asbag68
(g89
g70
NtRp829
(dp830
g73
(dp831
sg82
g817
sg75
(lp832
g68
(g69
g70
NtRp833
(dp834
g73
(dp835
g81
I3
ssg82
g829
sg75
(lp836
S''
asbasbasbasbasbasbasbasbasbasbasbag68
(g84
g70
NtRp837
(dp838
g73
(dp839
sg82
g78
sg75
(lp840
g68
(g89
g70
NtRp841
(dp842
g73
(dp843
g93
g94
ssg82
g837
sg75
(lp844
S'env'
p845
asbag68
(g89
g70
NtRp846
(dp847
g73
(dp848
g100
g101
ssg82
g837
sg75
(lp849
S':'
asbag68
(g89
g70
NtRp850
(dp851
g73
(dp852
sg82
g837
sg75
(lp853
g68
(g69
g70
NtRp854
(dp855
g73
(dp856
g81
I5
ssg82
g850
sg75
(lp857
g68
(g77
g70
NtRp858
(dp859
g73
(dp860
g81
I4
ssg82
Nsg75
(lp861
g68
(g84
g70
NtRp862
(dp863
g73
(dp864
sg82
g858
sg75
(lp865
g68
(g89
g70
NtRp866
(dp867
g73
(dp868
g93
g94
ssg82
g862
sg75
(lp869
S'app_folders'
p870
asbag68
(g89
g70
NtRp871
(dp872
g73
(dp873
g100
g101
ssg82
g862
sg75
(lp874
S':'
asbag68
(g89
g70
NtRp875
(dp876
g73
(dp877
sg82
g862
sg75
(lp878
g68
(g69
g70
NtRp879
(dp880
g73
(dp881
g81
I4
ssg82
g875
sg75
(lp882
S"set(['/home/kaique/Projects/web2py/applications/synopsis/', '/home/kaique/Projects/web2py/applications/admin/'])"
p883
asbasbasbag68
(g84
g70
NtRp884
(dp885
g73
(dp886
sg82
g858
sg75
(lp887
g68
(g89
g70
NtRp888
(dp889
g73
(dp890
g93
g94
ssg82
g884
sg75
(lp891
S'applications_parent'
p892
asbag68
(g89
g70
NtRp893
(dp894
g73
(dp895
g100
g101
ssg82
g884
sg75
(lp896
S':'
asbag68
(g89
g70
NtRp897
(dp898
g73
(dp899
sg82
g884
sg75
(lp900
g68
(g69
g70
NtRp901
(dp902
g73
(dp903
g81
I4
ssg82
g897
sg75
(lp904
S'/home/kaique/Projects/web2py'
p905
asbasbasbag68
(g84
g70
NtRp906
(dp907
g73
(dp908
sg82
g858
sg75
(lp909
g68
(g89
g70
NtRp910
(dp911
g73
(dp912
g93
g94
ssg82
g906
sg75
(lp913
S'cmd_args'
p914
asbag68
(g89
g70
NtRp915
(dp916
g73
(dp917
g100
g101
ssg82
g906
sg75
(lp918
S':'
asbag68
(g89
g70
NtRp919
(dp920
g73
(dp921
sg82
g906
sg75
(lp922
g68
(g69
g70
NtRp923
(dp924
g73
(dp925
g81
I4
ssg82
g919
sg75
(lp926
g68
(g77
g70
NtRp927
(dp928
g73
(dp929
g81
I3
ssg82
Nsg75
(lp930
sbasbasbasbag68
(g84
g70
NtRp931
(dp932
g73
(dp933
sg82
g858
sg75
(lp934
g68
(g89
g70
NtRp935
(dp936
g73
(dp937
g93
g94
ssg82
g931
sg75
(lp938
S'cmd_options'
p939
asbag68
(g89
g70
NtRp940
(dp941
g73
(dp942
g100
g101
ssg82
g931
sg75
(lp943
S':'
asbag68
(g89
g70
NtRp944
(dp945
g73
(dp946
sg82
g931
sg75
(lp947
g68
(g69
g70
NtRp948
(dp949
g73
(dp950
g81
I4
ssg82
g944
sg75
(lp951
S"<Values at 0x2b9f950: {'verbose': False, 'ip': '127.0.0.1', 'shutdown_timeout': 5, 'taskbar': False, 'nocron': False, 'pid_filename': 'httpserver.pid', 'maxthreads': None, 'softcron': False, 'server_name': 'kaique-Pine-Trail-M', 'bpython': False, 'nogui': False, 'port': 8000, 'extcron': False, 'debuglevel': 30, 'test': None, 'folder': '/home/kaique/Projects/web2py', 'config': '', 'import_models': False, 'winservice': '', 'shell': None, 'run': '', 'log_filename': 'httpserver.log', 'args': [''], 'ssl_ca_certificate': None, 'scheduler': None, 'profiler_filename': None, 'ssl_private_key': '', 'password': 'dev', 'request_queue_size': 5, 'ssl_certificate': '', 'cronjob': False, 'plain': False, 'quiet': False, 'interfaces': None, 'minthreads': None, 'timeout': 10, 'numthreads': None, 'nobanner': False}>"
p952
asbasbasbag68
(g84
g70
NtRp953
(dp954
g73
(dp955
sg82
g858
sg75
(lp956
g68
(g89
g70
NtRp957
(dp958
g73
(dp959
g93
g94
ssg82
g953
sg75
(lp960
S'db_sessions'
p961
asbag68
(g89
g70
NtRp962
(dp963
g73
(dp964
g100
g101
ssg82
g953
sg75
(lp965
S':'
asbag68
(g89
g70
NtRp966
(dp967
g73
(dp968
sg82
g953
sg75
(lp969
g68
(g69
g70
NtRp970
(dp971
g73
(dp972
g81
I4
ssg82
g966
sg75
(lp973
S'set([])'
p974
asbasbasbag68
(g84
g70
NtRp975
(dp976
g73
(dp977
sg82
g858
sg75
(lp978
g68
(g89
g70
NtRp979
(dp980
g73
(dp981
g93
g94
ssg82
g975
sg75
(lp982
S'debugging'
p983
asbag68
(g89
g70
NtRp984
(dp985
g73
(dp986
g100
g101
ssg82
g975
sg75
(lp987
S':'
asbag68
(g89
g70
NtRp988
(dp989
g73
(dp990
sg82
g975
sg75
(lp991
g68
(g69
g70
NtRp992
(dp993
g73
(dp994
g81
I4
ssg82
g988
sg75
(lp995
g111
asbasbasbag68
(g84
g70
NtRp996
(dp997
g73
(dp998
sg82
g858
sg75
(lp999
g68
(g89
g70
NtRp1000
(dp1001
g73
(dp1002
g93
g94
ssg82
g996
sg75
(lp1003
S'gluon_parent'
p1004
asbag68
(g89
g70
NtRp1005
(dp1006
g73
(dp1007
g100
g101
ssg82
g996
sg75
(lp1008
S':'
asbag68
(g89
g70
NtRp1009
(dp1010
g73
(dp1011
sg82
g996
sg75
(lp1012
g68
(g69
g70
NtRp1013
(dp1014
g73
(dp1015
g81
I4
ssg82
g1009
sg75
(lp1016
S'/home/kaique/Projects/web2py'
p1017
asbasbasbag68
(g84
g70
NtRp1018
(dp1019
g73
(dp1020
sg82
g858
sg75
(lp1021
g68
(g89
g70
NtRp1022
(dp1023
g73
(dp1024
g93
g94
ssg82
g1018
sg75
(lp1025
S'http_accept'
p1026
asbag68
(g89
g70
NtRp1027
(dp1028
g73
(dp1029
g100
g101
ssg82
g1018
sg75
(lp1030
S':'
asbag68
(g89
g70
NtRp1031
(dp1032
g73
(dp1033
sg82
g1018
sg75
(lp1034
g68
(g69
g70
NtRp1035
(dp1036
g73
(dp1037
g81
I4
ssg82
g1031
sg75
(lp1038
S'text/html,application/xhtml+xml,application/xml;q=0.9,*/*;q=0.8'
p1039
asbasbasbag68
(g84
g70
NtRp1040
(dp1041
g73
(dp1042
sg82
g858
sg75
(lp1043
g68
(g89
g70
NtRp1044
(dp1045
g73
(dp1046
g93
g94
ssg82
g1040
sg75
(lp1047
S'http_accept_charset'
p1048
asbag68
(g89
g70
NtRp1049
(dp1050
g73
(dp1051
g100
g101
ssg82
g1040
sg75
(lp1052
S':'
asbag68
(g89
g70
NtRp1053
(dp1054
g73
(dp1055
sg82
g1040
sg75
(lp1056
g68
(g69
g70
NtRp1057
(dp1058
g73
(dp1059
g81
I4
ssg82
g1053
sg75
(lp1060
S'ISO-8859-1,utf-8;q=0.7,*;q=0.7'
p1061
asbasbasbag68
(g84
g70
NtRp1062
(dp1063
g73
(dp1064
sg82
g858
sg75
(lp1065
g68
(g89
g70
NtRp1066
(dp1067
g73
(dp1068
g93
g94
ssg82
g1062
sg75
(lp1069
S'http_accept_encoding'
p1070
asbag68
(g89
g70
NtRp1071
(dp1072
g73
(dp1073
g100
g101
ssg82
g1062
sg75
(lp1074
S':'
asbag68
(g89
g70
NtRp1075
(dp1076
g73
(dp1077
sg82
g1062
sg75
(lp1078
g68
(g69
g70
NtRp1079
(dp1080
g73
(dp1081
g81
I4
ssg82
g1075
sg75
(lp1082
S'gzip, deflate'
p1083
asbasbasbag68
(g84
g70
NtRp1084
(dp1085
g73
(dp1086
sg82
g858
sg75
(lp1087
g68
(g89
g70
NtRp1088
(dp1089
g73
(dp1090
g93
g94
ssg82
g1084
sg75
(lp1091
S'http_accept_language'
p1092
asbag68
(g89
g70
NtRp1093
(dp1094
g73
(dp1095
g100
g101
ssg82
g1084
sg75
(lp1096
S':'
asbag68
(g89
g70
NtRp1097
(dp1098
g73
(dp1099
sg82
g1084
sg75
(lp1100
g68
(g69
g70
NtRp1101
(dp1102
g73
(dp1103
g81
I4
ssg82
g1097
sg75
(lp1104
S'pt-br,pt;q=0.8,en-us;q=0.5,en;q=0.3'
p1105
asbasbasbag68
(g84
g70
NtRp1106
(dp1107
g73
(dp1108
sg82
g858
sg75
(lp1109
g68
(g89
g70
NtRp1110
(dp1111
g73
(dp1112
g93
g94
ssg82
g1106
sg75
(lp1113
S'http_cache_control'
p1114
asbag68
(g89
g70
NtRp1115
(dp1116
g73
(dp1117
g100
g101
ssg82
g1106
sg75
(lp1118
S':'
asbag68
(g89
g70
NtRp1119
(dp1120
g73
(dp1121
sg82
g1106
sg75
(lp1122
g68
(g69
g70
NtRp1123
(dp1124
g73
(dp1125
g81
I4
ssg82
g1119
sg75
(lp1126
S'max-age=0'
p1127
asbasbasbag68
(g84
g70
NtRp1128
(dp1129
g73
(dp1130
sg82
g858
sg75
(lp1131
g68
(g89
g70
NtRp1132
(dp1133
g73
(dp1134
g93
g94
ssg82
g1128
sg75
(lp1135
S'http_connection'
p1136
asbag68
(g89
g70
NtRp1137
(dp1138
g73
(dp1139
g100
g101
ssg82
g1128
sg75
(lp1140
S':'
asbag68
(g89
g70
NtRp1141
(dp1142
g73
(dp1143
sg82
g1128
sg75
(lp1144
g68
(g69
g70
NtRp1145
(dp1146
g73
(dp1147
g81
I4
ssg82
g1141
sg75
(lp1148
S'keep-alive'
p1149
asbasbasbag68
(g84
g70
NtRp1150
(dp1151
g73
(dp1152
sg82
g858
sg75
(lp1153
g68
(g89
g70
NtRp1154
(dp1155
g73
(dp1156
g93
g94
ssg82
g1150
sg75
(lp1157
S'http_cookie'
p1158
asbag68
(g89
g70
NtRp1159
(dp1160
g73
(dp1161
g100
g101
ssg82
g1150
sg75
(lp1162
S':'
asbag68
(g89
g70
NtRp1163
(dp1164
g73
(dp1165
sg82
g1150
sg75
(lp1166
g68
(g69
g70
NtRp1167
(dp1168
g73
(dp1169
g81
I4
ssg82
g1163
sg75
(lp1170
S'currency=GBP; session_id_admin=127.0.0.1-f8d2395e-0f0d-466c-9d4d-2f750f9a3b64; session_id_synopsis=127.0.0.1-6cb7001e-855b-469f-b7b5-c129d0f3ec70'
p1171
asbasbasbag68
(g84
g70
NtRp1172
(dp1173
g73
(dp1174
sg82
g858
sg75
(lp1175
g68
(g89
g70
NtRp1176
(dp1177
g73
(dp1178
g93
g94
ssg82
g1172
sg75
(lp1179
S'http_host'
p1180
asbag68
(g89
g70
NtRp1181
(dp1182
g73
(dp1183
g100
g101
ssg82
g1172
sg75
(lp1184
S':'
asbag68
(g89
g70
NtRp1185
(dp1186
g73
(dp1187
sg82
g1172
sg75
(lp1188
g68
(g69
g70
NtRp1189
(dp1190
g73
(dp1191
g81
I4
ssg82
g1185
sg75
(lp1192
S'localhost:8000'
p1193
asbasbasbag68
(g84
g70
NtRp1194
(dp1195
g73
(dp1196
sg82
g858
sg75
(lp1197
g68
(g89
g70
NtRp1198
(dp1199
g73
(dp1200
g93
g94
ssg82
g1194
sg75
(lp1201
S'http_referer'
p1202
asbag68
(g89
g70
NtRp1203
(dp1204
g73
(dp1205
g100
g101
ssg82
g1194
sg75
(lp1206
S':'
asbag68
(g89
g70
NtRp1207
(dp1208
g73
(dp1209
sg82
g1194
sg75
(lp1210
g68
(g69
g70
NtRp1211
(dp1212
g73
(dp1213
g81
I4
ssg82
g1207
sg75
(lp1214
S'http://localhost:8000/synopsis/information/profile/1'
p1215
asbasbasbag68
(g84
g70
NtRp1216
(dp1217
g73
(dp1218
sg82
g858
sg75
(lp1219
g68
(g89
g70
NtRp1220
(dp1221
g73
(dp1222
g93
g94
ssg82
g1216
sg75
(lp1223
S'http_user_agent'
p1224
asbag68
(g89
g70
NtRp1225
(dp1226
g73
(dp1227
g100
g101
ssg82
g1216
sg75
(lp1228
S':'
asbag68
(g89
g70
NtRp1229
(dp1230
g73
(dp1231
sg82
g1216
sg75
(lp1232
g68
(g69
g70
NtRp1233
(dp1234
g73
(dp1235
g81
I4
ssg82
g1229
sg75
(lp1236
S'Mozilla/5.0 (Ubuntu; X11; Linux x86_64; rv:9.0.1) Gecko/20100101 Firefox/9.0.1'
p1237
asbasbasbag68
(g84
g70
NtRp1238
(dp1239
g73
(dp1240
sg82
g858
sg75
(lp1241
g68
(g89
g70
NtRp1242
(dp1243
g73
(dp1244
g93
g94
ssg82
g1238
sg75
(lp1245
S'is_jython'
p1246
asbag68
(g89
g70
NtRp1247
(dp1248
g73
(dp1249
g100
g101
ssg82
g1238
sg75
(lp1250
S':'
asbag68
(g89
g70
NtRp1251
(dp1252
g73
(dp1253
sg82
g1238
sg75
(lp1254
g68
(g69
g70
NtRp1255
(dp1256
g73
(dp1257
g81
I4
ssg82
g1251
sg75
(lp1258
g111
asbasbasbag68
(g84
g70
NtRp1259
(dp1260
g73
(dp1261
sg82
g858
sg75
(lp1262
g68
(g89
g70
NtRp1263
(dp1264
g73
(dp1265
g93
g94
ssg82
g1259
sg75
(lp1266
S'path_info'
p1267
asbag68
(g89
g70
NtRp1268
(dp1269
g73
(dp1270
g100
g101
ssg82
g1259
sg75
(lp1271
S':'
asbag68
(g89
g70
NtRp1272
(dp1273
g73
(dp1274
sg82
g1259
sg75
(lp1275
g68
(g69
g70
NtRp1276
(dp1277
g73
(dp1278
g81
I4
ssg82
g1272
sg75
(lp1279
S'/synopsis/information/new/publication/1'
p1280
asbasbasbag68
(g84
g70
NtRp1281
(dp1282
g73
(dp1283
sg82
g858
sg75
(lp1284
g68
(g89
g70
NtRp1285
(dp1286
g73
(dp1287
g93
g94
ssg82
g1281
sg75
(lp1288
S'query_string'
p1289
asbag68
(g89
g70
NtRp1290
(dp1291
g73
(dp1292
g100
g101
ssg82
g1281
sg75
(lp1293
S':'
asbag68
(g89
g70
NtRp1294
(dp1295
g73
(dp1296
sg82
g1281
sg75
(lp1297
g68
(g69
g70
NtRp1298
(dp1299
g73
(dp1300
g81
I4
ssg82
g1294
sg75
(lp1301
S''
asbasbasbag68
(g84
g70
NtRp1302
(dp1303
g73
(dp1304
sg82
g858
sg75
(lp1305
g68
(g89
g70
NtRp1306
(dp1307
g73
(dp1308
g93
g94
ssg82
g1302
sg75
(lp1309
S'remote_addr'
p1310
asbag68
(g89
g70
NtRp1311
(dp1312
g73
(dp1313
g100
g101
ssg82
g1302
sg75
(lp1314
S':'
asbag68
(g89
g70
NtRp1315
(dp1316
g73
(dp1317
sg82
g1302
sg75
(lp1318
g68
(g69
g70
NtRp1319
(dp1320
g73
(dp1321
g81
I4
ssg82
g1315
sg75
(lp1322
g226
asbasbasbag68
(g84
g70
NtRp1323
(dp1324
g73
(dp1325
sg82
g858
sg75
(lp1326
g68
(g89
g70
NtRp1327
(dp1328
g73
(dp1329
g93
g94
ssg82
g1323
sg75
(lp1330
S'remote_port'
p1331
asbag68
(g89
g70
NtRp1332
(dp1333
g73
(dp1334
g100
g101
ssg82
g1323
sg75
(lp1335
S':'
asbag68
(g89
g70
NtRp1336
(dp1337
g73
(dp1338
sg82
g1323
sg75
(lp1339
g68
(g69
g70
NtRp1340
(dp1341
g73
(dp1342
g81
I4
ssg82
g1336
sg75
(lp1343
S'42640'
p1344
asbasbasbag68
(g84
g70
NtRp1345
(dp1346
g73
(dp1347
sg82
g858
sg75
(lp1348
g68
(g89
g70
NtRp1349
(dp1350
g73
(dp1351
g93
g94
ssg82
g1345
sg75
(lp1352
S'request_method'
p1353
asbag68
(g89
g70
NtRp1354
(dp1355
g73
(dp1356
g100
g101
ssg82
g1345
sg75
(lp1357
S':'
asbag68
(g89
g70
NtRp1358
(dp1359
g73
(dp1360
sg82
g1345
sg75
(lp1361
g68
(g69
g70
NtRp1362
(dp1363
g73
(dp1364
g81
I4
ssg82
g1358
sg75
(lp1365
S'GET'
p1366
asbasbasbag68
(g84
g70
NtRp1367
(dp1368
g73
(dp1369
sg82
g858
sg75
(lp1370
g68
(g89
g70
NtRp1371
(dp1372
g73
(dp1373
g93
g94
ssg82
g1367
sg75
(lp1374
S'script_name'
p1375
asbag68
(g89
g70
NtRp1376
(dp1377
g73
(dp1378
g100
g101
ssg82
g1367
sg75
(lp1379
S':'
asbag68
(g89
g70
NtRp1380
(dp1381
g73
(dp1382
sg82
g1367
sg75
(lp1383
g68
(g69
g70
NtRp1384
(dp1385
g73
(dp1386
g81
I4
ssg82
g1380
sg75
(lp1387
S''
asbasbasbag68
(g84
g70
NtRp1388
(dp1389
g73
(dp1390
sg82
g858
sg75
(lp1391
g68
(g89
g70
NtRp1392
(dp1393
g73
(dp1394
g93
g94
ssg82
g1388
sg75
(lp1395
S'server_name'
p1396
asbag68
(g89
g70
NtRp1397
(dp1398
g73
(dp1399
g100
g101
ssg82
g1388
sg75
(lp1400
S':'
asbag68
(g89
g70
NtRp1401
(dp1402
g73
(dp1403
sg82
g1388
sg75
(lp1404
g68
(g69
g70
NtRp1405
(dp1406
g73
(dp1407
g81
I4
ssg82
g1401
sg75
(lp1408
S'kaique-Pine-Trail-M'
p1409
asbasbasbag68
(g84
g70
NtRp1410
(dp1411
g73
(dp1412
sg82
g858
sg75
(lp1413
g68
(g89
g70
NtRp1414
(dp1415
g73
(dp1416
g93
g94
ssg82
g1410
sg75
(lp1417
S'server_port'
p1418
asbag68
(g89
g70
NtRp1419
(dp1420
g73
(dp1421
g100
g101
ssg82
g1410
sg75
(lp1422
S':'
asbag68
(g89
g70
NtRp1423
(dp1424
g73
(dp1425
sg82
g1410
sg75
(lp1426
g68
(g69
g70
NtRp1427
(dp1428
g73
(dp1429
g81
I4
ssg82
g1423
sg75
(lp1430
S'8000'
p1431
asbasbasbag68
(g84
g70
NtRp1432
(dp1433
g73
(dp1434
sg82
g858
sg75
(lp1435
g68
(g89
g70
NtRp1436
(dp1437
g73
(dp1438
g93
g94
ssg82
g1432
sg75
(lp1439
S'server_protocol'
p1440
asbag68
(g89
g70
NtRp1441
(dp1442
g73
(dp1443
g100
g101
ssg82
g1432
sg75
(lp1444
S':'
asbag68
(g89
g70
NtRp1445
(dp1446
g73
(dp1447
sg82
g1432
sg75
(lp1448
g68
(g69
g70
NtRp1449
(dp1450
g73
(dp1451
g81
I4
ssg82
g1445
sg75
(lp1452
S'HTTP/1.1'
p1453
asbasbasbag68
(g84
g70
NtRp1454
(dp1455
g73
(dp1456
sg82
g858
sg75
(lp1457
g68
(g89
g70
NtRp1458
(dp1459
g73
(dp1460
g93
g94
ssg82
g1454
sg75
(lp1461
S'server_software'
p1462
asbag68
(g89
g70
NtRp1463
(dp1464
g73
(dp1465
g100
g101
ssg82
g1454
sg75
(lp1466
S':'
asbag68
(g89
g70
NtRp1467
(dp1468
g73
(dp1469
sg82
g1454
sg75
(lp1470
g68
(g69
g70
NtRp1471
(dp1472
g73
(dp1473
g81
I4
ssg82
g1467
sg75
(lp1474
S'Rocket 1.2.4'
p1475
asbasbasbag68
(g84
g70
NtRp1476
(dp1477
g73
(dp1478
sg82
g858
sg75
(lp1479
g68
(g89
g70
NtRp1480
(dp1481
g73
(dp1482
g93
g94
ssg82
g1476
sg75
(lp1483
S'web2py_crontype'
p1484
asbag68
(g89
g70
NtRp1485
(dp1486
g73
(dp1487
g100
g101
ssg82
g1476
sg75
(lp1488
S':'
asbag68
(g89
g70
NtRp1489
(dp1490
g73
(dp1491
sg82
g1476
sg75
(lp1492
g68
(g69
g70
NtRp1493
(dp1494
g73
(dp1495
g81
I4
ssg82
g1489
sg75
(lp1496
S'hard'
p1497
asbasbasbag68
(g84
g70
NtRp1498
(dp1499
g73
(dp1500
sg82
g858
sg75
(lp1501
g68
(g89
g70
NtRp1502
(dp1503
g73
(dp1504
g93
g94
ssg82
g1498
sg75
(lp1505
S'web2py_path'
p1506
asbag68
(g89
g70
NtRp1507
(dp1508
g73
(dp1509
g100
g101
ssg82
g1498
sg75
(lp1510
S':'
asbag68
(g89
g70
NtRp1511
(dp1512
g73
(dp1513
sg82
g1498
sg75
(lp1514
g68
(g69
g70
NtRp1515
(dp1516
g73
(dp1517
g81
I4
ssg82
g1511
sg75
(lp1518
g905
asbasbasbag68
(g84
g70
NtRp1519
(dp1520
g73
(dp1521
sg82
g858
sg75
(lp1522
g68
(g89
g70
NtRp1523
(dp1524
g73
(dp1525
g93
g94
ssg82
g1519
sg75
(lp1526
S'web2py_version'
p1527
asbag68
(g89
g70
NtRp1528
(dp1529
g73
(dp1530
g100
g101
ssg82
g1519
sg75
(lp1531
S':'
asbag68
(g89
g70
NtRp1532
(dp1533
g73
(dp1534
sg82
g1519
sg75
(lp1535
g68
(g69
g70
NtRp1536
(dp1537
g73
(dp1538
g81
I4
ssg82
g1532
sg75
(lp1539
g68
(g77
g70
NtRp1540
(dp1541
g73
(dp1542
g81
I3
ssg82
Nsg75
(lp1543
g68
(g84
g70
NtRp1544
(dp1545
g73
(dp1546
sg82
g1540
sg75
(lp1547
g68
(g89
g70
NtRp1548
(dp1549
g73
(dp1550
sg82
g1544
sg75
(lp1551
g68
(g69
g70
NtRp1552
(dp1553
g73
(dp1554
g81
I3
ssg82
g1548
sg75
(lp1555
S'1'
asbasbasbag68
(g84
g70
NtRp1556
(dp1557
g73
(dp1558
sg82
g1540
sg75
(lp1559
g68
(g89
g70
NtRp1560
(dp1561
g73
(dp1562
sg82
g1556
sg75
(lp1563
g68
(g69
g70
NtRp1564
(dp1565
g73
(dp1566
g81
I3
ssg82
g1560
sg75
(lp1567
S'99'
p1568
asbasbasbag68
(g84
g70
NtRp1569
(dp1570
g73
(dp1571
sg82
g1540
sg75
(lp1572
g68
(g89
g70
NtRp1573
(dp1574
g73
(dp1575
sg82
g1569
sg75
(lp1576
g68
(g69
g70
NtRp1577
(dp1578
g73
(dp1579
g81
I3
ssg82
g1573
sg75
(lp1580
S'2'
asbasbasbag68
(g84
g70
NtRp1581
(dp1582
g73
(dp1583
sg82
g1540
sg75
(lp1584
g68
(g89
g70
NtRp1585
(dp1586
g73
(dp1587
sg82
g1581
sg75
(lp1588
g68
(g69
g70
NtRp1589
(dp1590
g73
(dp1591
g81
I3
ssg82
g1585
sg75
(lp1592
S'datetime.datetime(2011, 9, 26, 6, 55, 33)'
p1593
asbasbasbag68
(g84
g70
NtRp1594
(dp1595
g73
(dp1596
sg82
g1540
sg75
(lp1597
g68
(g89
g70
NtRp1598
(dp1599
g73
(dp1600
sg82
g1594
sg75
(lp1601
g68
(g69
g70
NtRp1602
(dp1603
g73
(dp1604
g81
I3
ssg82
g1598
sg75
(lp1605
S'stable'
p1606
asbasbasbasbasbasbasbag68
(g84
g70
NtRp1607
(dp1608
g73
(dp1609
sg82
g858
sg75
(lp1610
g68
(g89
g70
NtRp1611
(dp1612
g73
(dp1613
g93
g94
ssg82
g1607
sg75
(lp1614
S'wsgi_errors'
p1615
asbag68
(g89
g70
NtRp1616
(dp1617
g73
(dp1618
g100
g101
ssg82
g1607
sg75
(lp1619
S':'
asbag68
(g89
g70
NtRp1620
(dp1621
g73
(dp1622
sg82
g1607
sg75
(lp1623
g68
(g69
g70
NtRp1624
(dp1625
g73
(dp1626
g81
I4
ssg82
g1620
sg75
(lp1627
S"<open file '<stderr>', mode 'w' at 0x7f926e5b5270>"
p1628
asbasbasbag68
(g84
g70
NtRp1629
(dp1630
g73
(dp1631
sg82
g858
sg75
(lp1632
g68
(g89
g70
NtRp1633
(dp1634
g73
(dp1635
g93
g94
ssg82
g1629
sg75
(lp1636
S'wsgi_file_wrapper'
p1637
asbag68
(g89
g70
NtRp1638
(dp1639
g73
(dp1640
g100
g101
ssg82
g1629
sg75
(lp1641
S':'
asbag68
(g89
g70
NtRp1642
(dp1643
g73
(dp1644
sg82
g1629
sg75
(lp1645
g68
(g69
g70
NtRp1646
(dp1647
g73
(dp1648
g81
I4
ssg82
g1642
sg75
(lp1649
S'<class wsgiref.util.FileWrapper at 0x2a56ef0>'
p1650
asbasbasbag68
(g84
g70
NtRp1651
(dp1652
g73
(dp1653
sg82
g858
sg75
(lp1654
g68
(g89
g70
NtRp1655
(dp1656
g73
(dp1657
g93
g94
ssg82
g1651
sg75
(lp1658
S'wsgi_input'
p1659
asbag68
(g89
g70
NtRp1660
(dp1661
g73
(dp1662
g100
g101
ssg82
g1651
sg75
(lp1663
S':'
asbag68
(g89
g70
NtRp1664
(dp1665
g73
(dp1666
sg82
g1651
sg75
(lp1667
g68
(g69
g70
NtRp1668
(dp1669
g73
(dp1670
g81
I4
ssg82
g1664
sg75
(lp1671
S'<socket._fileobject object at 0x7f92602aa350>'
p1672
asbasbasbag68
(g84
g70
NtRp1673
(dp1674
g73
(dp1675
sg82
g858
sg75
(lp1676
g68
(g89
g70
NtRp1677
(dp1678
g73
(dp1679
g93
g94
ssg82
g1673
sg75
(lp1680
S'wsgi_multiprocess'
p1681
asbag68
(g89
g70
NtRp1682
(dp1683
g73
(dp1684
g100
g101
ssg82
g1673
sg75
(lp1685
S':'
asbag68
(g89
g70
NtRp1686
(dp1687
g73
(dp1688
sg82
g1673
sg75
(lp1689
g68
(g69
g70
NtRp1690
(dp1691
g73
(dp1692
g81
I4
ssg82
g1686
sg75
(lp1693
g111
asbasbasbag68
(g84
g70
NtRp1694
(dp1695
g73
(dp1696
sg82
g858
sg75
(lp1697
g68
(g89
g70
NtRp1698
(dp1699
g73
(dp1700
g93
g94
ssg82
g1694
sg75
(lp1701
S'wsgi_multithread'
p1702
asbag68
(g89
g70
NtRp1703
(dp1704
g73
(dp1705
g100
g101
ssg82
g1694
sg75
(lp1706
S':'
asbag68
(g89
g70
NtRp1707
(dp1708
g73
(dp1709
sg82
g1694
sg75
(lp1710
g68
(g69
g70
NtRp1711
(dp1712
g73
(dp1713
g81
I4
ssg82
g1707
sg75
(lp1714
S'True'
p1715
asbasbasbag68
(g84
g70
NtRp1716
(dp1717
g73
(dp1718
sg82
g858
sg75
(lp1719
g68
(g89
g70
NtRp1720
(dp1721
g73
(dp1722
g93
g94
ssg82
g1716
sg75
(lp1723
S'wsgi_run_once'
p1724
asbag68
(g89
g70
NtRp1725
(dp1726
g73
(dp1727
g100
g101
ssg82
g1716
sg75
(lp1728
S':'
asbag68
(g89
g70
NtRp1729
(dp1730
g73
(dp1731
sg82
g1716
sg75
(lp1732
g68
(g69
g70
NtRp1733
(dp1734
g73
(dp1735
g81
I4
ssg82
g1729
sg75
(lp1736
g111
asbasbasbag68
(g84
g70
NtRp1737
(dp1738
g73
(dp1739
sg82
g858
sg75
(lp1740
g68
(g89
g70
NtRp1741
(dp1742
g73
(dp1743
g93
g94
ssg82
g1737
sg75
(lp1744
S'wsgi_url_scheme'
p1745
asbag68
(g89
g70
NtRp1746
(dp1747
g73
(dp1748
g100
g101
ssg82
g1737
sg75
(lp1749
S':'
asbag68
(g89
g70
NtRp1750
(dp1751
g73
(dp1752
sg82
g1737
sg75
(lp1753
g68
(g69
g70
NtRp1754
(dp1755
g73
(dp1756
g81
I4
ssg82
g1750
sg75
(lp1757
S'http'
p1758
asbasbasbag68
(g84
g70
NtRp1759
(dp1760
g73
(dp1761
sg82
g858
sg75
(lp1762
g68
(g89
g70
NtRp1763
(dp1764
g73
(dp1765
g93
g94
ssg82
g1759
sg75
(lp1766
S'wsgi_version'
p1767
asbag68
(g89
g70
NtRp1768
(dp1769
g73
(dp1770
g100
g101
ssg82
g1759
sg75
(lp1771
S':'
asbag68
(g89
g70
NtRp1772
(dp1773
g73
(dp1774
sg82
g1759
sg75
(lp1775
g68
(g69
g70
NtRp1776
(dp1777
g73
(dp1778
g81
I4
ssg82
g1772
sg75
(lp1779
g68
(g77
g70
NtRp1780
(dp1781
g73
(dp1782
g81
I3
ssg82
Nsg75
(lp1783
g68
(g84
g70
NtRp1784
(dp1785
g73
(dp1786
sg82
g1780
sg75
(lp1787
g68
(g89
g70
NtRp1788
(dp1789
g73
(dp1790
sg82
g1784
sg75
(lp1791
g68
(g69
g70
NtRp1792
(dp1793
g73
(dp1794
g81
I3
ssg82
g1788
sg75
(lp1795
S'1'
asbasbasbag68
(g84
g70
NtRp1796
(dp1797
g73
(dp1798
sg82
g1780
sg75
(lp1799
g68
(g89
g70
NtRp1800
(dp1801
g73
(dp1802
sg82
g1796
sg75
(lp1803
g68
(g69
g70
NtRp1804
(dp1805
g73
(dp1806
g81
I3
ssg82
g1800
sg75
(lp1807
S'0'
asbasbasbasbasbasbasbasbasbasbasbag68
(g84
g70
NtRp1808
(dp1809
g73
(dp1810
sg82
g78
sg75
(lp1811
g68
(g89
g70
NtRp1812
(dp1813
g73
(dp1814
g93
g94
ssg82
g1808
sg75
(lp1815
S'extension'
p1816
asbag68
(g89
g70
NtRp1817
(dp1818
g73
(dp1819
g100
g101
ssg82
g1808
sg75
(lp1820
S':'
asbag68
(g89
g70
NtRp1821
(dp1822
g73
(dp1823
sg82
g1808
sg75
(lp1824
g68
(g69
g70
NtRp1825
(dp1826
g73
(dp1827
g81
I5
ssg82
g1821
sg75
(lp1828
S'html'
p1829
asbasbasbag68
(g84
g70
NtRp1830
(dp1831
g73
(dp1832
sg82
g78
sg75
(lp1833
g68
(g89
g70
NtRp1834
(dp1835
g73
(dp1836
g93
g94
ssg82
g1830
sg75
(lp1837
S'folder'
p1838
asbag68
(g89
g70
NtRp1839
(dp1840
g73
(dp1841
g100
g101
ssg82
g1830
sg75
(lp1842
S':'
asbag68
(g89
g70
NtRp1843
(dp1844
g73
(dp1845
sg82
g1830
sg75
(lp1846
g68
(g69
g70
NtRp1847
(dp1848
g73
(dp1849
g81
I5
ssg82
g1843
sg75
(lp1850
S'/home/kaique/Projects/web2py/applications/synopsis/'
p1851
asbasbasbag68
(g84
g70
NtRp1852
(dp1853
g73
(dp1854
sg82
g78
sg75
(lp1855
g68
(g89
g70
NtRp1856
(dp1857
g73
(dp1858
g93
g94
ssg82
g1852
sg75
(lp1859
S'function'
p1860
asbag68
(g89
g70
NtRp1861
(dp1862
g73
(dp1863
g100
g101
ssg82
g1852
sg75
(lp1864
S':'
asbag68
(g89
g70
NtRp1865
(dp1866
g73
(dp1867
sg82
g1852
sg75
(lp1868
g68
(g69
g70
NtRp1869
(dp1870
g73
(dp1871
g81
I5
ssg82
g1865
sg75
(lp1872
S'new'
p1873
asbasbasbag68
(g84
g70
NtRp1874
(dp1875
g73
(dp1876
sg82
g78
sg75
(lp1877
g68
(g89
g70
NtRp1878
(dp1879
g73
(dp1880
g93
g94
ssg82
g1874
sg75
(lp1881
S'get_vars'
p1882
asbag68
(g89
g70
NtRp1883
(dp1884
g73
(dp1885
g100
g101
ssg82
g1874
sg75
(lp1886
S':'
asbag68
(g89
g70
NtRp1887
(dp1888
g73
(dp1889
sg82
g1874
sg75
(lp1890
g68
(g69
g70
NtRp1891
(dp1892
g73
(dp1893
g81
I5
ssg82
g1887
sg75
(lp1894
g68
(g77
g70
NtRp1895
(dp1896
g73
(dp1897
g81
I4
ssg82
Nsg75
(lp1898
sbasbasbasbag68
(g84
g70
NtRp1899
(dp1900
g73
(dp1901
sg82
g78
sg75
(lp1902
g68
(g89
g70
NtRp1903
(dp1904
g73
(dp1905
g93
g94
ssg82
g1899
sg75
(lp1906
S'global_settings'
p1907
asbag68
(g89
g70
NtRp1908
(dp1909
g73
(dp1910
g100
g101
ssg82
g1899
sg75
(lp1911
S':'
asbag68
(g89
g70
NtRp1912
(dp1913
g73
(dp1914
sg82
g1899
sg75
(lp1915
g68
(g69
g70
NtRp1916
(dp1917
g73
(dp1918
g81
I5
ssg82
g1912
sg75
(lp1919
g68
(g77
g70
NtRp1920
(dp1921
g73
(dp1922
g81
I4
ssg82
Nsg75
(lp1923
g68
(g84
g70
NtRp1924
(dp1925
g73
(dp1926
sg82
g1920
sg75
(lp1927
g68
(g89
g70
NtRp1928
(dp1929
g73
(dp1930
g93
g94
ssg82
g1924
sg75
(lp1931
g870
asbag68
(g89
g70
NtRp1932
(dp1933
g73
(dp1934
g100
g101
ssg82
g1924
sg75
(lp1935
S':'
asbag68
(g89
g70
NtRp1936
(dp1937
g73
(dp1938
sg82
g1924
sg75
(lp1939
g68
(g69
g70
NtRp1940
(dp1941
g73
(dp1942
g81
I4
ssg82
g1936
sg75
(lp1943
S"set(['/home/kaique/Projects/web2py/applications/synopsis/', '/home/kaique/Projects/web2py/applications/admin/'])"
p1944
asbasbasbag68
(g84
g70
NtRp1945
(dp1946
g73
(dp1947
sg82
g1920
sg75
(lp1948
g68
(g89
g70
NtRp1949
(dp1950
g73
(dp1951
g93
g94
ssg82
g1945
sg75
(lp1952
g892
asbag68
(g89
g70
NtRp1953
(dp1954
g73
(dp1955
g100
g101
ssg82
g1945
sg75
(lp1956
S':'
asbag68
(g89
g70
NtRp1957
(dp1958
g73
(dp1959
sg82
g1945
sg75
(lp1960
g68
(g69
g70
NtRp1961
(dp1962
g73
(dp1963
g81
I4
ssg82
g1957
sg75
(lp1964
g905
asbasbasbag68
(g84
g70
NtRp1965
(dp1966
g73
(dp1967
sg82
g1920
sg75
(lp1968
g68
(g89
g70
NtRp1969
(dp1970
g73
(dp1971
g93
g94
ssg82
g1965
sg75
(lp1972
g914
asbag68
(g89
g70
NtRp1973
(dp1974
g73
(dp1975
g100
g101
ssg82
g1965
sg75
(lp1976
S':'
asbag68
(g89
g70
NtRp1977
(dp1978
g73
(dp1979
sg82
g1965
sg75
(lp1980
g68
(g69
g70
NtRp1981
(dp1982
g73
(dp1983
g81
I4
ssg82
g1977
sg75
(lp1984
g68
(g77
g70
NtRp1985
(dp1986
g73
(dp1987
g81
I3
ssg82
Nsg75
(lp1988
sbasbasbasbag68
(g84
g70
NtRp1989
(dp1990
g73
(dp1991
sg82
g1920
sg75
(lp1992
g68
(g89
g70
NtRp1993
(dp1994
g73
(dp1995
g93
g94
ssg82
g1989
sg75
(lp1996
g939
asbag68
(g89
g70
NtRp1997
(dp1998
g73
(dp1999
g100
g101
ssg82
g1989
sg75
(lp2000
S':'
asbag68
(g89
g70
NtRp2001
(dp2002
g73
(dp2003
sg82
g1989
sg75
(lp2004
g68
(g69
g70
NtRp2005
(dp2006
g73
(dp2007
g81
I4
ssg82
g2001
sg75
(lp2008
S"<Values at 0x2b9f950: {'verbose': False, 'ip': '127.0.0.1', 'shutdown_timeout': 5, 'taskbar': False, 'nocron': False, 'pid_filename': 'httpserver.pid', 'maxthreads': None, 'softcron': False, 'server_name': 'kaique-Pine-Trail-M', 'bpython': False, 'nogui': False, 'port': 8000, 'extcron': False, 'debuglevel': 30, 'test': None, 'folder': '/home/kaique/Projects/web2py', 'config': '', 'import_models': False, 'winservice': '', 'shell': None, 'run': '', 'log_filename': 'httpserver.log', 'args': [''], 'ssl_ca_certificate': None, 'scheduler': None, 'profiler_filename': None, 'ssl_private_key': '', 'password': 'dev', 'request_queue_size': 5, 'ssl_certificate': '', 'cronjob': False, 'plain': False, 'quiet': False, 'interfaces': None, 'minthreads': None, 'timeout': 10, 'numthreads': None, 'nobanner': False}>"
p2009
asbasbasbag68
(g84
g70
NtRp2010
(dp2011
g73
(dp2012
sg82
g1920
sg75
(lp2013
g68
(g89
g70
NtRp2014
(dp2015
g73
(dp2016
g93
g94
ssg82
g2010
sg75
(lp2017
g961
asbag68
(g89
g70
NtRp2018
(dp2019
g73
(dp2020
g100
g101
ssg82
g2010
sg75
(lp2021
S':'
asbag68
(g89
g70
NtRp2022
(dp2023
g73
(dp2024
sg82
g2010
sg75
(lp2025
g68
(g69
g70
NtRp2026
(dp2027
g73
(dp2028
g81
I4
ssg82
g2022
sg75
(lp2029
S'set([])'
p2030
asbasbasbag68
(g84
g70
NtRp2031
(dp2032
g73
(dp2033
sg82
g1920
sg75
(lp2034
g68
(g89
g70
NtRp2035
(dp2036
g73
(dp2037
g93
g94
ssg82
g2031
sg75
(lp2038
g983
asbag68
(g89
g70
NtRp2039
(dp2040
g73
(dp2041
g100
g101
ssg82
g2031
sg75
(lp2042
S':'
asbag68
(g89
g70
NtRp2043
(dp2044
g73
(dp2045
sg82
g2031
sg75
(lp2046
g68
(g69
g70
NtRp2047
(dp2048
g73
(dp2049
g81
I4
ssg82
g2043
sg75
(lp2050
g111
asbasbasbag68
(g84
g70
NtRp2051
(dp2052
g73
(dp2053
sg82
g1920
sg75
(lp2054
g68
(g89
g70
NtRp2055
(dp2056
g73
(dp2057
g93
g94
ssg82
g2051
sg75
(lp2058
g1004
asbag68
(g89
g70
NtRp2059
(dp2060
g73
(dp2061
g100
g101
ssg82
g2051
sg75
(lp2062
S':'
asbag68
(g89
g70
NtRp2063
(dp2064
g73
(dp2065
sg82
g2051
sg75
(lp2066
g68
(g69
g70
NtRp2067
(dp2068
g73
(dp2069
g81
I4
ssg82
g2063
sg75
(lp2070
g1017
asbasbasbag68
(g84
g70
NtRp2071
(dp2072
g73
(dp2073
sg82
g1920
sg75
(lp2074
g68
(g89
g70
NtRp2075
(dp2076
g73
(dp2077
g93
g94
ssg82
g2071
sg75
(lp2078
g1246
asbag68
(g89
g70
NtRp2079
(dp2080
g73
(dp2081
g100
g101
ssg82
g2071
sg75
(lp2082
S':'
asbag68
(g89
g70
NtRp2083
(dp2084
g73
(dp2085
sg82
g2071
sg75
(lp2086
g68
(g69
g70
NtRp2087
(dp2088
g73
(dp2089
g81
I4
ssg82
g2083
sg75
(lp2090
g111
asbasbasbag68
(g84
g70
NtRp2091
(dp2092
g73
(dp2093
sg82
g1920
sg75
(lp2094
g68
(g89
g70
NtRp2095
(dp2096
g73
(dp2097
g93
g94
ssg82
g2091
sg75
(lp2098
g1484
asbag68
(g89
g70
NtRp2099
(dp2100
g73
(dp2101
g100
g101
ssg82
g2091
sg75
(lp2102
S':'
asbag68
(g89
g70
NtRp2103
(dp2104
g73
(dp2105
sg82
g2091
sg75
(lp2106
g68
(g69
g70
NtRp2107
(dp2108
g73
(dp2109
g81
I4
ssg82
g2103
sg75
(lp2110
g1497
asbasbasbag68
(g84
g70
NtRp2111
(dp2112
g73
(dp2113
sg82
g1920
sg75
(lp2114
g68
(g89
g70
NtRp2115
(dp2116
g73
(dp2117
g93
g94
ssg82
g2111
sg75
(lp2118
g1527
asbag68
(g89
g70
NtRp2119
(dp2120
g73
(dp2121
g100
g101
ssg82
g2111
sg75
(lp2122
S':'
asbag68
(g89
g70
NtRp2123
(dp2124
g73
(dp2125
sg82
g2111
sg75
(lp2126
g68
(g69
g70
NtRp2127
(dp2128
g73
(dp2129
g81
I4
ssg82
g2123
sg75
(lp2130
g68
(g77
g70
NtRp2131
(dp2132
g73
(dp2133
g81
I3
ssg82
Nsg75
(lp2134
g68
(g84
g70
NtRp2135
(dp2136
g73
(dp2137
sg82
g2131
sg75
(lp2138
g68
(g89
g70
NtRp2139
(dp2140
g73
(dp2141
sg82
g2135
sg75
(lp2142
g68
(g69
g70
NtRp2143
(dp2144
g73
(dp2145
g81
I3
ssg82
g2139
sg75
(lp2146
S'1'
asbasbasbag68
(g84
g70
NtRp2147
(dp2148
g73
(dp2149
sg82
g2131
sg75
(lp2150
g68
(g89
g70
NtRp2151
(dp2152
g73
(dp2153
sg82
g2147
sg75
(lp2154
g68
(g69
g70
NtRp2155
(dp2156
g73
(dp2157
g81
I3
ssg82
g2151
sg75
(lp2158
S'99'
p2159
asbasbasbag68
(g84
g70
NtRp2160
(dp2161
g73
(dp2162
sg82
g2131
sg75
(lp2163
g68
(g89
g70
NtRp2164
(dp2165
g73
(dp2166
sg82
g2160
sg75
(lp2167
g68
(g69
g70
NtRp2168
(dp2169
g73
(dp2170
g81
I3
ssg82
g2164
sg75
(lp2171
S'2'
asbasbasbag68
(g84
g70
NtRp2172
(dp2173
g73
(dp2174
sg82
g2131
sg75
(lp2175
g68
(g89
g70
NtRp2176
(dp2177
g73
(dp2178
sg82
g2172
sg75
(lp2179
g68
(g69
g70
NtRp2180
(dp2181
g73
(dp2182
g81
I3
ssg82
g2176
sg75
(lp2183
S'datetime.datetime(2011, 9, 26, 6, 55, 33)'
p2184
asbasbasbag68
(g84
g70
NtRp2185
(dp2186
g73
(dp2187
sg82
g2131
sg75
(lp2188
g68
(g89
g70
NtRp2189
(dp2190
g73
(dp2191
sg82
g2185
sg75
(lp2192
g68
(g69
g70
NtRp2193
(dp2194
g73
(dp2195
g81
I3
ssg82
g2189
sg75
(lp2196
g1606
asbasbasbasbasbasbasbasbasbasbasbag68
(g84
g70
NtRp2197
(dp2198
g73
(dp2199
sg82
g78
sg75
(lp2200
g68
(g89
g70
NtRp2201
(dp2202
g73
(dp2203
g93
g94
ssg82
g2197
sg75
(lp2204
S'is_https'
p2205
asbag68
(g89
g70
NtRp2206
(dp2207
g73
(dp2208
g100
g101
ssg82
g2197
sg75
(lp2209
S':'
asbag68
(g89
g70
NtRp2210
(dp2211
g73
(dp2212
sg82
g2197
sg75
(lp2213
g68
(g69
g70
NtRp2214
(dp2215
g73
(dp2216
g81
I5
ssg82
g2210
sg75
(lp2217
g111
asbasbasbag68
(g84
g70
NtRp2218
(dp2219
g73
(dp2220
sg82
g78
sg75
(lp2221
g68
(g89
g70
NtRp2222
(dp2223
g73
(dp2224
g93
g94
ssg82
g2218
sg75
(lp2225
S'is_local'
p2226
asbag68
(g89
g70
NtRp2227
(dp2228
g73
(dp2229
g100
g101
ssg82
g2218
sg75
(lp2230
S':'
asbag68
(g89
g70
NtRp2231
(dp2232
g73
(dp2233
sg82
g2218
sg75
(lp2234
g68
(g69
g70
NtRp2235
(dp2236
g73
(dp2237
g81
I5
ssg82
g2231
sg75
(lp2238
g1715
asbasbasbag68
(g84
g70
NtRp2239
(dp2240
g73
(dp2241
sg82
g78
sg75
(lp2242
g68
(g89
g70
NtRp2243
(dp2244
g73
(dp2245
g93
g94
ssg82
g2239
sg75
(lp2246
S'is_restful'
p2247
asbag68
(g89
g70
NtRp2248
(dp2249
g73
(dp2250
g100
g101
ssg82
g2239
sg75
(lp2251
S':'
asbag68
(g89
g70
NtRp2252
(dp2253
g73
(dp2254
sg82
g2239
sg75
(lp2255
g68
(g69
g70
NtRp2256
(dp2257
g73
(dp2258
g81
I5
ssg82
g2252
sg75
(lp2259
g111
asbasbasbag68
(g84
g70
NtRp2260
(dp2261
g73
(dp2262
sg82
g78
sg75
(lp2263
g68
(g89
g70
NtRp2264
(dp2265
g73
(dp2266
g93
g94
ssg82
g2260
sg75
(lp2267
S'now'
p2268
asbag68
(g89
g70
NtRp2269
(dp2270
g73
(dp2271
g100
g101
ssg82
g2260
sg75
(lp2272
S':'
asbag68
(g89
g70
NtRp2273
(dp2274
g73
(dp2275
sg82
g2260
sg75
(lp2276
g68
(g69
g70
NtRp2277
(dp2278
g73
(dp2279
g81
I5
ssg82
g2273
sg75
(lp2280
S'datetime.datetime(2012, 1, 15, 22, 23, 28, 707346)'
p2281
asbasbasbag68
(g84
g70
NtRp2282
(dp2283
g73
(dp2284
sg82
g78
sg75
(lp2285
g68
(g89
g70
NtRp2286
(dp2287
g73
(dp2288
g93
g94
ssg82
g2282
sg75
(lp2289
S'post_vars'
p2290
asbag68
(g89
g70
NtRp2291
(dp2292
g73
(dp2293
g100
g101
ssg82
g2282
sg75
(lp2294
S':'
asbag68
(g89
g70
NtRp2295
(dp2296
g73
(dp2297
sg82
g2282
sg75
(lp2298
g68
(g69
g70
NtRp2299
(dp2300
g73
(dp2301
g81
I5
ssg82
g2295
sg75
(lp2302
g68
(g77
g70
NtRp2303
(dp2304
g73
(dp2305
g81
I4
ssg82
Nsg75
(lp2306
sbasbasbasbag68
(g84
g70
NtRp2307
(dp2308
g73
(dp2309
sg82
g78
sg75
(lp2310
g68
(g89
g70
NtRp2311
(dp2312
g73
(dp2313
g93
g94
ssg82
g2307
sg75
(lp2314
S'raw_args'
p2315
asbag68
(g89
g70
NtRp2316
(dp2317
g73
(dp2318
g100
g101
ssg82
g2307
sg75
(lp2319
S':'
asbag68
(g89
g70
NtRp2320
(dp2321
g73
(dp2322
sg82
g2307
sg75
(lp2323
g68
(g69
g70
NtRp2324
(dp2325
g73
(dp2326
g81
I5
ssg82
g2320
sg75
(lp2327
S'publication/1'
p2328
asbasbasbag68
(g84
g70
NtRp2329
(dp2330
g73
(dp2331
sg82
g78
sg75
(lp2332
g68
(g89
g70
NtRp2333
(dp2334
g73
(dp2335
g93
g94
ssg82
g2329
sg75
(lp2336
S'url'
p2337
asbag68
(g89
g70
NtRp2338
(dp2339
g73
(dp2340
g100
g101
ssg82
g2329
sg75
(lp2341
S':'
asbag68
(g89
g70
NtRp2342
(dp2343
g73
(dp2344
sg82
g2329
sg75
(lp2345
g68
(g69
g70
NtRp2346
(dp2347
g73
(dp2348
g81
I5
ssg82
g2342
sg75
(lp2349
S'/synopsis/information/new/publication/1'
p2350
asbasbasbag68
(g84
g70
NtRp2351
(dp2352
g73
(dp2353
sg82
g78
sg75
(lp2354
g68
(g89
g70
NtRp2355
(dp2356
g73
(dp2357
g93
g94
ssg82
g2351
sg75
(lp2358
S'utcnow'
p2359
asbag68
(g89
g70
NtRp2360
(dp2361
g73
(dp2362
g100
g101
ssg82
g2351
sg75
(lp2363
S':'
asbag68
(g89
g70
NtRp2364
(dp2365
g73
(dp2366
sg82
g2351
sg75
(lp2367
g68
(g69
g70
NtRp2368
(dp2369
g73
(dp2370
g81
I5
ssg82
g2364
sg75
(lp2371
S'datetime.datetime(2012, 1, 16, 0, 23, 28, 707422)'
p2372
asbasbasbag68
(g84
g70
NtRp2373
(dp2374
g73
(dp2375
sg82
g78
sg75
(lp2376
g68
(g89
g70
NtRp2377
(dp2378
g73
(dp2379
g93
g94
ssg82
g2373
sg75
(lp2380
S'uuid'
p2381
asbag68
(g89
g70
NtRp2382
(dp2383
g73
(dp2384
g100
g101
ssg82
g2373
sg75
(lp2385
S':'
asbag68
(g89
g70
NtRp2386
(dp2387
g73
(dp2388
sg82
g2373
sg75
(lp2389
g68
(g69
g70
NtRp2390
(dp2391
g73
(dp2392
g81
I5
ssg82
g2386
sg75
(lp2393
S'synopsis/127.0.0.1.2012-01-15.22-23-28.dcfb3fb8-0052-4c62-917a-feff66a939de'
p2394
asbasbasbag68
(g84
g70
NtRp2395
(dp2396
g73
(dp2397
sg82
g78
sg75
(lp2398
g68
(g89
g70
NtRp2399
(dp2400
g73
(dp2401
g93
g94
ssg82
g2395
sg75
(lp2402
S'vars'
p2403
asbag68
(g89
g70
NtRp2404
(dp2405
g73
(dp2406
g100
g101
ssg82
g2395
sg75
(lp2407
S':'
asbag68
(g89
g70
NtRp2408
(dp2409
g73
(dp2410
sg82
g2395
sg75
(lp2411
g68
(g69
g70
NtRp2412
(dp2413
g73
(dp2414
g81
I5
ssg82
g2408
sg75
(lp2415
g68
(g77
g70
NtRp2416
(dp2417
g73
(dp2418
g81
I4
ssg82
Nsg75
(lp2419
sbasbasbasbag68
(g84
g70
NtRp2420
(dp2421
g73
(dp2422
sg82
g78
sg75
(lp2423
g68
(g89
g70
NtRp2424
(dp2425
g73
(dp2426
g93
g94
ssg82
g2420
sg75
(lp2427
S'wsgi'
p2428
asbag68
(g89
g70
NtRp2429
(dp2430
g73
(dp2431
g100
g101
ssg82
g2420
sg75
(lp2432
S':'
asbag68
(g89
g70
NtRp2433
(dp2434
g73
(dp2435
sg82
g2420
sg75
(lp2436
g68
(g69
g70
NtRp2437
(dp2438
g73
(dp2439
g81
I5
ssg82
g2433
sg75
(lp2440
g68
(g77
g70
NtRp2441
(dp2442
g73
(dp2443
g81
I4
ssg82
Nsg75
(lp2444
g68
(g84
g70
NtRp2445
(dp2446
g73
(dp2447
sg82
g2441
sg75
(lp2448
g68
(g89
g70
NtRp2449
(dp2450
g73
(dp2451
g93
g94
ssg82
g2445
sg75
(lp2452
S'environ'
p2453
asbag68
(g89
g70
NtRp2454
(dp2455
g73
(dp2456
g100
g101
ssg82
g2445
sg75
(lp2457
S':'
asbag68
(g89
g70
NtRp2458
(dp2459
g73
(dp2460
sg82
g2445
sg75
(lp2461
g68
(g69
g70
NtRp2462
(dp2463
g73
(dp2464
g81
I4
ssg82
g2458
sg75
(lp2465
g68
(g77
g70
NtRp2466
(dp2467
g73
(dp2468
g81
I3
ssg82
Nsg75
(lp2469
g68
(g84
g70
NtRp2470
(dp2471
g73
(dp2472
sg82
g2466
sg75
(lp2473
g68
(g89
g70
NtRp2474
(dp2475
g73
(dp2476
g93
g94
ssg82
g2470
sg75
(lp2477
S'HTTP_ACCEPT'
p2478
asbag68
(g89
g70
NtRp2479
(dp2480
g73
(dp2481
g100
g101
ssg82
g2470
sg75
(lp2482
S':'
asbag68
(g89
g70
NtRp2483
(dp2484
g73
(dp2485
sg82
g2470
sg75
(lp2486
g68
(g69
g70
NtRp2487
(dp2488
g73
(dp2489
g81
I3
ssg82
g2483
sg75
(lp2490
g1039
asbasbasbag68
(g84
g70
NtRp2491
(dp2492
g73
(dp2493
sg82
g2466
sg75
(lp2494
g68
(g89
g70
NtRp2495
(dp2496
g73
(dp2497
g93
g94
ssg82
g2491
sg75
(lp2498
S'HTTP_ACCEPT_CHARSET'
p2499
asbag68
(g89
g70
NtRp2500
(dp2501
g73
(dp2502
g100
g101
ssg82
g2491
sg75
(lp2503
S':'
asbag68
(g89
g70
NtRp2504
(dp2505
g73
(dp2506
sg82
g2491
sg75
(lp2507
g68
(g69
g70
NtRp2508
(dp2509
g73
(dp2510
g81
I3
ssg82
g2504
sg75
(lp2511
g1061
asbasbasbag68
(g84
g70
NtRp2512
(dp2513
g73
(dp2514
sg82
g2466
sg75
(lp2515
g68
(g89
g70
NtRp2516
(dp2517
g73
(dp2518
g93
g94
ssg82
g2512
sg75
(lp2519
S'HTTP_ACCEPT_ENCODING'
p2520
asbag68
(g89
g70
NtRp2521
(dp2522
g73
(dp2523
g100
g101
ssg82
g2512
sg75
(lp2524
S':'
asbag68
(g89
g70
NtRp2525
(dp2526
g73
(dp2527
sg82
g2512
sg75
(lp2528
g68
(g69
g70
NtRp2529
(dp2530
g73
(dp2531
g81
I3
ssg82
g2525
sg75
(lp2532
g1083
asbasbasbag68
(g84
g70
NtRp2533
(dp2534
g73
(dp2535
sg82
g2466
sg75
(lp2536
g68
(g89
g70
NtRp2537
(dp2538
g73
(dp2539
g93
g94
ssg82
g2533
sg75
(lp2540
S'HTTP_ACCEPT_LANGUAGE'
p2541
asbag68
(g89
g70
NtRp2542
(dp2543
g73
(dp2544
g100
g101
ssg82
g2533
sg75
(lp2545
S':'
asbag68
(g89
g70
NtRp2546
(dp2547
g73
(dp2548
sg82
g2533
sg75
(lp2549
g68
(g69
g70
NtRp2550
(dp2551
g73
(dp2552
g81
I3
ssg82
g2546
sg75
(lp2553
g1105
asbasbasbag68
(g84
g70
NtRp2554
(dp2555
g73
(dp2556
sg82
g2466
sg75
(lp2557
g68
(g89
g70
NtRp2558
(dp2559
g73
(dp2560
g93
g94
ssg82
g2554
sg75
(lp2561
S'HTTP_CACHE_CONTROL'
p2562
asbag68
(g89
g70
NtRp2563
(dp2564
g73
(dp2565
g100
g101
ssg82
g2554
sg75
(lp2566
S':'
asbag68
(g89
g70
NtRp2567
(dp2568
g73
(dp2569
sg82
g2554
sg75
(lp2570
g68
(g69
g70
NtRp2571
(dp2572
g73
(dp2573
g81
I3
ssg82
g2567
sg75
(lp2574
g1127
asbasbasbag68
(g84
g70
NtRp2575
(dp2576
g73
(dp2577
sg82
g2466
sg75
(lp2578
g68
(g89
g70
NtRp2579
(dp2580
g73
(dp2581
g93
g94
ssg82
g2575
sg75
(lp2582
S'HTTP_CONNECTION'
p2583
asbag68
(g89
g70
NtRp2584
(dp2585
g73
(dp2586
g100
g101
ssg82
g2575
sg75
(lp2587
S':'
asbag68
(g89
g70
NtRp2588
(dp2589
g73
(dp2590
sg82
g2575
sg75
(lp2591
g68
(g69
g70
NtRp2592
(dp2593
g73
(dp2594
g81
I3
ssg82
g2588
sg75
(lp2595
g1149
asbasbasbag68
(g84
g70
NtRp2596
(dp2597
g73
(dp2598
sg82
g2466
sg75
(lp2599
g68
(g89
g70
NtRp2600
(dp2601
g73
(dp2602
g93
g94
ssg82
g2596
sg75
(lp2603
S'HTTP_COOKIE'
p2604
asbag68
(g89
g70
NtRp2605
(dp2606
g73
(dp2607
g100
g101
ssg82
g2596
sg75
(lp2608
S':'
asbag68
(g89
g70
NtRp2609
(dp2610
g73
(dp2611
sg82
g2596
sg75
(lp2612
g68
(g69
g70
NtRp2613
(dp2614
g73
(dp2615
g81
I3
ssg82
g2609
sg75
(lp2616
g1171
asbasbasbag68
(g84
g70
NtRp2617
(dp2618
g73
(dp2619
sg82
g2466
sg75
(lp2620
g68
(g89
g70
NtRp2621
(dp2622
g73
(dp2623
g93
g94
ssg82
g2617
sg75
(lp2624
S'HTTP_HOST'
p2625
asbag68
(g89
g70
NtRp2626
(dp2627
g73
(dp2628
g100
g101
ssg82
g2617
sg75
(lp2629
S':'
asbag68
(g89
g70
NtRp2630
(dp2631
g73
(dp2632
sg82
g2617
sg75
(lp2633
g68
(g69
g70
NtRp2634
(dp2635
g73
(dp2636
g81
I3
ssg82
g2630
sg75
(lp2637
g1193
asbasbasbag68
(g84
g70
NtRp2638
(dp2639
g73
(dp2640
sg82
g2466
sg75
(lp2641
g68
(g89
g70
NtRp2642
(dp2643
g73
(dp2644
g93
g94
ssg82
g2638
sg75
(lp2645
S'HTTP_REFERER'
p2646
asbag68
(g89
g70
NtRp2647
(dp2648
g73
(dp2649
g100
g101
ssg82
g2638
sg75
(lp2650
S':'
asbag68
(g89
g70
NtRp2651
(dp2652
g73
(dp2653
sg82
g2638
sg75
(lp2654
g68
(g69
g70
NtRp2655
(dp2656
g73
(dp2657
g81
I3
ssg82
g2651
sg75
(lp2658
g1215
asbasbasbag68
(g84
g70
NtRp2659
(dp2660
g73
(dp2661
sg82
g2466
sg75
(lp2662
g68
(g89
g70
NtRp2663
(dp2664
g73
(dp2665
g93
g94
ssg82
g2659
sg75
(lp2666
S'HTTP_USER_AGENT'
p2667
asbag68
(g89
g70
NtRp2668
(dp2669
g73
(dp2670
g100
g101
ssg82
g2659
sg75
(lp2671
S':'
asbag68
(g89
g70
NtRp2672
(dp2673
g73
(dp2674
sg82
g2659
sg75
(lp2675
g68
(g69
g70
NtRp2676
(dp2677
g73
(dp2678
g81
I3
ssg82
g2672
sg75
(lp2679
g1237
asbasbasbag68
(g84
g70
NtRp2680
(dp2681
g73
(dp2682
sg82
g2466
sg75
(lp2683
g68
(g89
g70
NtRp2684
(dp2685
g73
(dp2686
g93
g94
ssg82
g2680
sg75
(lp2687
S'PATH_INFO'
p2688
asbag68
(g89
g70
NtRp2689
(dp2690
g73
(dp2691
g100
g101
ssg82
g2680
sg75
(lp2692
S':'
asbag68
(g89
g70
NtRp2693
(dp2694
g73
(dp2695
sg82
g2680
sg75
(lp2696
g68
(g69
g70
NtRp2697
(dp2698
g73
(dp2699
g81
I3
ssg82
g2693
sg75
(lp2700
g1280
asbasbasbag68
(g84
g70
NtRp2701
(dp2702
g73
(dp2703
sg82
g2466
sg75
(lp2704
g68
(g89
g70
NtRp2705
(dp2706
g73
(dp2707
g93
g94
ssg82
g2701
sg75
(lp2708
S'QUERY_STRING'
p2709
asbag68
(g89
g70
NtRp2710
(dp2711
g73
(dp2712
g100
g101
ssg82
g2701
sg75
(lp2713
S':'
asbag68
(g89
g70
NtRp2714
(dp2715
g73
(dp2716
sg82
g2701
sg75
(lp2717
g68
(g69
g70
NtRp2718
(dp2719
g73
(dp2720
g81
I3
ssg82
g2714
sg75
(lp2721
S''
asbasbasbag68
(g84
g70
NtRp2722
(dp2723
g73
(dp2724
sg82
g2466
sg75
(lp2725
g68
(g89
g70
NtRp2726
(dp2727
g73
(dp2728
g93
g94
ssg82
g2722
sg75
(lp2729
S'REMOTE_ADDR'
p2730
asbag68
(g89
g70
NtRp2731
(dp2732
g73
(dp2733
g100
g101
ssg82
g2722
sg75
(lp2734
S':'
asbag68
(g89
g70
NtRp2735
(dp2736
g73
(dp2737
sg82
g2722
sg75
(lp2738
g68
(g69
g70
NtRp2739
(dp2740
g73
(dp2741
g81
I3
ssg82
g2735
sg75
(lp2742
g226
asbasbasbag68
(g84
g70
NtRp2743
(dp2744
g73
(dp2745
sg82
g2466
sg75
(lp2746
g68
(g89
g70
NtRp2747
(dp2748
g73
(dp2749
g93
g94
ssg82
g2743
sg75
(lp2750
S'REMOTE_PORT'
p2751
asbag68
(g89
g70
NtRp2752
(dp2753
g73
(dp2754
g100
g101
ssg82
g2743
sg75
(lp2755
S':'
asbag68
(g89
g70
NtRp2756
(dp2757
g73
(dp2758
sg82
g2743
sg75
(lp2759
g68
(g69
g70
NtRp2760
(dp2761
g73
(dp2762
g81
I3
ssg82
g2756
sg75
(lp2763
g1344
asbasbasbag68
(g84
g70
NtRp2764
(dp2765
g73
(dp2766
sg82
g2466
sg75
(lp2767
g68
(g89
g70
NtRp2768
(dp2769
g73
(dp2770
g93
g94
ssg82
g2764
sg75
(lp2771
S'REQUEST_METHOD'
p2772
asbag68
(g89
g70
NtRp2773
(dp2774
g73
(dp2775
g100
g101
ssg82
g2764
sg75
(lp2776
S':'
asbag68
(g89
g70
NtRp2777
(dp2778
g73
(dp2779
sg82
g2764
sg75
(lp2780
g68
(g69
g70
NtRp2781
(dp2782
g73
(dp2783
g81
I3
ssg82
g2777
sg75
(lp2784
g1366
asbasbasbag68
(g84
g70
NtRp2785
(dp2786
g73
(dp2787
sg82
g2466
sg75
(lp2788
g68
(g89
g70
NtRp2789
(dp2790
g73
(dp2791
g93
g94
ssg82
g2785
sg75
(lp2792
S'SCRIPT_NAME'
p2793
asbag68
(g89
g70
NtRp2794
(dp2795
g73
(dp2796
g100
g101
ssg82
g2785
sg75
(lp2797
S':'
asbag68
(g89
g70
NtRp2798
(dp2799
g73
(dp2800
sg82
g2785
sg75
(lp2801
g68
(g69
g70
NtRp2802
(dp2803
g73
(dp2804
g81
I3
ssg82
g2798
sg75
(lp2805
S''
asbasbasbag68
(g84
g70
NtRp2806
(dp2807
g73
(dp2808
sg82
g2466
sg75
(lp2809
g68
(g89
g70
NtRp2810
(dp2811
g73
(dp2812
g93
g94
ssg82
g2806
sg75
(lp2813
S'SERVER_NAME'
p2814
asbag68
(g89
g70
NtRp2815
(dp2816
g73
(dp2817
g100
g101
ssg82
g2806
sg75
(lp2818
S':'
asbag68
(g89
g70
NtRp2819
(dp2820
g73
(dp2821
sg82
g2806
sg75
(lp2822
g68
(g69
g70
NtRp2823
(dp2824
g73
(dp2825
g81
I3
ssg82
g2819
sg75
(lp2826
g1409
asbasbasbag68
(g84
g70
NtRp2827
(dp2828
g73
(dp2829
sg82
g2466
sg75
(lp2830
g68
(g89
g70
NtRp2831
(dp2832
g73
(dp2833
g93
g94
ssg82
g2827
sg75
(lp2834
S'SERVER_PORT'
p2835
asbag68
(g89
g70
NtRp2836
(dp2837
g73
(dp2838
g100
g101
ssg82
g2827
sg75
(lp2839
S':'
asbag68
(g89
g70
NtRp2840
(dp2841
g73
(dp2842
sg82
g2827
sg75
(lp2843
g68
(g69
g70
NtRp2844
(dp2845
g73
(dp2846
g81
I3
ssg82
g2840
sg75
(lp2847
g1431
asbasbasbag68
(g84
g70
NtRp2848
(dp2849
g73
(dp2850
sg82
g2466
sg75
(lp2851
g68
(g89
g70
NtRp2852
(dp2853
g73
(dp2854
g93
g94
ssg82
g2848
sg75
(lp2855
S'SERVER_PROTOCOL'
p2856
asbag68
(g89
g70
NtRp2857
(dp2858
g73
(dp2859
g100
g101
ssg82
g2848
sg75
(lp2860
S':'
asbag68
(g89
g70
NtRp2861
(dp2862
g73
(dp2863
sg82
g2848
sg75
(lp2864
g68
(g69
g70
NtRp2865
(dp2866
g73
(dp2867
g81
I3
ssg82
g2861
sg75
(lp2868
g1453
asbasbasbag68
(g84
g70
NtRp2869
(dp2870
g73
(dp2871
sg82
g2466
sg75
(lp2872
g68
(g89
g70
NtRp2873
(dp2874
g73
(dp2875
g93
g94
ssg82
g2869
sg75
(lp2876
S'SERVER_SOFTWARE'
p2877
asbag68
(g89
g70
NtRp2878
(dp2879
g73
(dp2880
g100
g101
ssg82
g2869
sg75
(lp2881
S':'
asbag68
(g89
g70
NtRp2882
(dp2883
g73
(dp2884
sg82
g2869
sg75
(lp2885
g68
(g69
g70
NtRp2886
(dp2887
g73
(dp2888
g81
I3
ssg82
g2882
sg75
(lp2889
g1475
asbasbasbag68
(g84
g70
NtRp2890
(dp2891
g73
(dp2892
sg82
g2466
sg75
(lp2893
g68
(g89
g70
NtRp2894
(dp2895
g73
(dp2896
g93
g94
ssg82
g2890
sg75
(lp2897
S'wsgi.errors'
p2898
asbag68
(g89
g70
NtRp2899
(dp2900
g73
(dp2901
g100
g101
ssg82
g2890
sg75
(lp2902
S':'
asbag68
(g89
g70
NtRp2903
(dp2904
g73
(dp2905
sg82
g2890
sg75
(lp2906
g68
(g69
g70
NtRp2907
(dp2908
g73
(dp2909
g81
I3
ssg82
g2903
sg75
(lp2910
S"<open file '<stderr>', mode 'w' at 0x7f926e5b5270>"
p2911
asbasbasbag68
(g84
g70
NtRp2912
(dp2913
g73
(dp2914
sg82
g2466
sg75
(lp2915
g68
(g89
g70
NtRp2916
(dp2917
g73
(dp2918
g93
g94
ssg82
g2912
sg75
(lp2919
S'wsgi.file_wrapper'
p2920
asbag68
(g89
g70
NtRp2921
(dp2922
g73
(dp2923
g100
g101
ssg82
g2912
sg75
(lp2924
S':'
asbag68
(g89
g70
NtRp2925
(dp2926
g73
(dp2927
sg82
g2912
sg75
(lp2928
g68
(g69
g70
NtRp2929
(dp2930
g73
(dp2931
g81
I3
ssg82
g2925
sg75
(lp2932
S'<class wsgiref.util.FileWrapper at 0x2a56ef0>'
p2933
asbasbasbag68
(g84
g70
NtRp2934
(dp2935
g73
(dp2936
sg82
g2466
sg75
(lp2937
g68
(g89
g70
NtRp2938
(dp2939
g73
(dp2940
g93
g94
ssg82
g2934
sg75
(lp2941
S'wsgi.input'
p2942
asbag68
(g89
g70
NtRp2943
(dp2944
g73
(dp2945
g100
g101
ssg82
g2934
sg75
(lp2946
S':'
asbag68
(g89
g70
NtRp2947
(dp2948
g73
(dp2949
sg82
g2934
sg75
(lp2950
g68
(g69
g70
NtRp2951
(dp2952
g73
(dp2953
g81
I3
ssg82
g2947
sg75
(lp2954
S'<cStringIO.StringO object at 0x3a6bc00>'
p2955
asbasbasbag68
(g84
g70
NtRp2956
(dp2957
g73
(dp2958
sg82
g2466
sg75
(lp2959
g68
(g89
g70
NtRp2960
(dp2961
g73
(dp2962
g93
g94
ssg82
g2956
sg75
(lp2963
S'wsgi.multiprocess'
p2964
asbag68
(g89
g70
NtRp2965
(dp2966
g73
(dp2967
g100
g101
ssg82
g2956
sg75
(lp2968
S':'
asbag68
(g89
g70
NtRp2969
(dp2970
g73
(dp2971
sg82
g2956
sg75
(lp2972
g68
(g69
g70
NtRp2973
(dp2974
g73
(dp2975
g81
I3
ssg82
g2969
sg75
(lp2976
g111
asbasbasbag68
(g84
g70
NtRp2977
(dp2978
g73
(dp2979
sg82
g2466
sg75
(lp2980
g68
(g89
g70
NtRp2981
(dp2982
g73
(dp2983
g93
g94
ssg82
g2977
sg75
(lp2984
S'wsgi.multithread'
p2985
asbag68
(g89
g70
NtRp2986
(dp2987
g73
(dp2988
g100
g101
ssg82
g2977
sg75
(lp2989
S':'
asbag68
(g89
g70
NtRp2990
(dp2991
g73
(dp2992
sg82
g2977
sg75
(lp2993
g68
(g69
g70
NtRp2994
(dp2995
g73
(dp2996
g81
I3
ssg82
g2990
sg75
(lp2997
g1715
asbasbasbag68
(g84
g70
NtRp2998
(dp2999
g73
(dp3000
sg82
g2466
sg75
(lp3001
g68
(g89
g70
NtRp3002
(dp3003
g73
(dp3004
g93
g94
ssg82
g2998
sg75
(lp3005
S'wsgi.run_once'
p3006
asbag68
(g89
g70
NtRp3007
(dp3008
g73
(dp3009
g100
g101
ssg82
g2998
sg75
(lp3010
S':'
asbag68
(g89
g70
NtRp3011
(dp3012
g73
(dp3013
sg82
g2998
sg75
(lp3014
g68
(g69
g70
NtRp3015
(dp3016
g73
(dp3017
g81
I3
ssg82
g3011
sg75
(lp3018
g111
asbasbasbag68
(g84
g70
NtRp3019
(dp3020
g73
(dp3021
sg82
g2466
sg75
(lp3022
g68
(g89
g70
NtRp3023
(dp3024
g73
(dp3025
g93
g94
ssg82
g3019
sg75
(lp3026
S'wsgi.url_scheme'
p3027
asbag68
(g89
g70
NtRp3028
(dp3029
g73
(dp3030
g100
g101
ssg82
g3019
sg75
(lp3031
S':'
asbag68
(g89
g70
NtRp3032
(dp3033
g73
(dp3034
sg82
g3019
sg75
(lp3035
g68
(g69
g70
NtRp3036
(dp3037
g73
(dp3038
g81
I3
ssg82
g3032
sg75
(lp3039
g1758
asbasbasbag68
(g84
g70
NtRp3040
(dp3041
g73
(dp3042
sg82
g2466
sg75
(lp3043
g68
(g89
g70
NtRp3044
(dp3045
g73
(dp3046
g93
g94
ssg82
g3040
sg75
(lp3047
S'wsgi.version'
p3048
asbag68
(g89
g70
NtRp3049
(dp3050
g73
(dp3051
g100
g101
ssg82
g3040
sg75
(lp3052
S':'
asbag68
(g89
g70
NtRp3053
(dp3054
g73
(dp3055
sg82
g3040
sg75
(lp3056
g68
(g69
g70
NtRp3057
(dp3058
g73
(dp3059
g81
I3
ssg82
g3053
sg75
(lp3060
S'1'
asbasbasbasbasbasbasbasbasbasbasbasbasbsS'frames'
p3061
(lp3062
(dp3063
S'file'
p3064
S'/home/kaique/Projects/web2py/gluon/restricted.py'
p3065
sS'dump'
p3066
(dp3067
S'code'
p3068
S'\'response.write(\\\'<!DOCTYPE html>\\\\n<html lang="\\\', ...nse.write(\\\'\\\\n  </body>\\\\n</html>\\\\n\\\', escape=False)\''
p3069
sS'layer'
p3070
S"'/home/kaique/Projects/web2py/applications/synopsis/views/information/new.html'"
p3071
sS'global compile2'
p3072
S'<function compile2>'
p3073
sS'ccode'
p3074
S'undefined'
p3075
ssS'lnum'
p3076
I193
sS'lines'
p3077
(dp3078
I192
S'        else:'
p3079
sI193
S'            ccode = compile2(code,layer)'
p3080
sI194
S'        exec ccode in environment'
p3081
sI195
S'    except HTTP:'
p3082
sI196
S'        raise'
p3083
sI197
S'    except Exception, error:'
p3084
sI188
S"    environment['__file__'] = layer"
p3085
sI189
S'    try:'
p3086
sI190
S'        if type(code) == types.CodeType:'
p3087
sI191
S'            ccode = code'
p3088
ssS'call'
p3089
S'(code=\'response.write(\\\'<!DOCTYPE html>\\\\n<html lang="\\\', ...nse.write(\\\'\\\\n  </body>\\\\n</html>\\\\n\\\', escape=False)\', environment={\'A\': <class \'gluon.html.A\'>, \'Auth\': <class \'gluon.tools.Auth\'>, \'B\': <class \'gluon.html.B\'>, \'BEAUTIFY\': <class \'gluon.html.BEAUTIFY\'>, \'BODY\': <class \'gluon.html.BODY\'>, \'BR\': <class \'gluon.html.BR\'>, \'BUTTON\': <class \'gluon.html.BUTTON\'>, \'CAT\': <class \'gluon.html.CAT\'>, \'CENTER\': <class \'gluon.html.CENTER\'>, \'CLEANUP\': <class \'gluon.validators.CLEANUP\'>, ...}, layer=\'/home/kaique/Projects/web2py/applications/synopsis/views/information/new.html\')'
p3090
sS'func'
p3091
S'restricted'
p3092
sa(dp3093
g3064
S'/home/kaique/Projects/web2py/gluon/restricted.py'
p3094
sg3066
(dp3095
S'builtincompile'
p3096
S'<built-in function compile>'
p3097
sS'code'
p3098
S'\'response.write(\\\'<!DOCTYPE html>\\\\n<html lang="\\\', ...nse.write(\\\'\\\\n  </body>\\\\n</html>\\\\n\\\', escape=False)\''
p3099
sS'code.rstrip'
p3100
S'<built-in method rstrip of str object>'
p3101
sS').replace'
p3102
g3075
sS'layer'
p3103
S"'/home/kaique/Projects/web2py/applications/synopsis/views/information/new.html'"
p3104
ssg3076
I179
sg3077
(dp3105
I174
S''
sI175
S'def compile2(code,layer):'
p3106
sI176
S'    """'
p3107
sI177
S"    The +'\\n' is necessary else compile fails when code ends in a comment."
p3108
sI178
S'    """'
p3109
sI179
S"    return compile(code.rstrip().replace('\\r\\n','\\n')+'\\n', layer, 'exec')"
p3110
sI180
S''
sI181
S"def restricted(code, environment=None, layer='Unknown'):"
p3111
sI182
S'    """'
p3112
sI183
S'    runs code in environment and returns the output. if an exception occurs'
p3113
ssg3089
S'(code=\'response.write(\\\'<!DOCTYPE html>\\\\n<html lang="\\\', ...nse.write(\\\'\\\\n  </body>\\\\n</html>\\\\n\\\', escape=False)\', layer=\'/home/kaique/Projects/web2py/applications/synopsis/views/information/new.html\')'
p3114
sg3091
S'compile2'
p3115
sasS'pyver'
p3116
S'Python 2.7.2+: /usr/bin/python'
p3117
sS'session'
p3118
g68
(g69
g70
NtRp3119
(dp3120
g73
(dp3121
sg75
(lp3122
g68
(g77
g70
NtRp3123
(dp3124
g73
(dp3125
g81
I5
ssg82
Nsg75
(lp3126
g68
(g84
g70
NtRp3127
(dp3128
g73
(dp3129
sg82
g3123
sg75
(lp3130
g68
(g89
g70
NtRp3131
(dp3132
g73
(dp3133
g93
g94
ssg82
g3127
sg75
(lp3134
S'auth'
p3135
asbag68
(g89
g70
NtRp3136
(dp3137
g73
(dp3138
g100
g101
ssg82
g3127
sg75
(lp3139
S':'
asbag68
(g89
g70
NtRp3140
(dp3141
g73
(dp3142
sg82
g3127
sg75
(lp3143
g68
(g69
g70
NtRp3144
(dp3145
g73
(dp3146
g81
I5
ssg82
g3140
sg75
(lp3147
g68
(g77
g70
NtRp3148
(dp3149
g73
(dp3150
g81
I4
ssg82
Nsg75
(lp3151
g68
(g84
g70
NtRp3152
(dp3153
g73
(dp3154
sg82
g3148
sg75
(lp3155
g68
(g89
g70
NtRp3156
(dp3157
g73
(dp3158
g93
g94
ssg82
g3152
sg75
(lp3159
S'expiration'
p3160
asbag68
(g89
g70
NtRp3161
(dp3162
g73
(dp3163
g100
g101
ssg82
g3152
sg75
(lp3164
S':'
asbag68
(g89
g70
NtRp3165
(dp3166
g73
(dp3167
sg82
g3152
sg75
(lp3168
g68
(g69
g70
NtRp3169
(dp3170
g73
(dp3171
g81
I4
ssg82
g3165
sg75
(lp3172
S'2592000'
p3173
asbasbasbag68
(g84
g70
NtRp3174
(dp3175
g73
(dp3176
sg82
g3148
sg75
(lp3177
g68
(g89
g70
NtRp3178
(dp3179
g73
(dp3180
g93
g94
ssg82
g3174
sg75
(lp3181
S'hmac_key'
p3182
asbag68
(g89
g70
NtRp3183
(dp3184
g73
(dp3185
g100
g101
ssg82
g3174
sg75
(lp3186
S':'
asbag68
(g89
g70
NtRp3187
(dp3188
g73
(dp3189
sg82
g3174
sg75
(lp3190
g68
(g69
g70
NtRp3191
(dp3192
g73
(dp3193
g81
I4
ssg82
g3187
sg75
(lp3194
S'1d5aa0af-4cf6-4337-90a1-dbe4f55ac5ff'
p3195
asbasbasbag68
(g84
g70
NtRp3196
(dp3197
g73
(dp3198
sg82
g3148
sg75
(lp3199
g68
(g89
g70
NtRp3200
(dp3201
g73
(dp3202
g93
g94
ssg82
g3196
sg75
(lp3203
S'last_visit'
p3204
asbag68
(g89
g70
NtRp3205
(dp3206
g73
(dp3207
g100
g101
ssg82
g3196
sg75
(lp3208
S':'
asbag68
(g89
g70
NtRp3209
(dp3210
g73
(dp3211
sg82
g3196
sg75
(lp3212
g68
(g69
g70
NtRp3213
(dp3214
g73
(dp3215
g81
I4
ssg82
g3209
sg75
(lp3216
S'datetime.datetime(2012, 1, 15, 17, 21, 43, 927672)'
p3217
asbasbasbag68
(g84
g70
NtRp3218
(dp3219
g73
(dp3220
sg82
g3148
sg75
(lp3221
g68
(g89
g70
NtRp3222
(dp3223
g73
(dp3224
g93
g94
ssg82
g3218
sg75
(lp3225
S'remember'
p3226
asbag68
(g89
g70
NtRp3227
(dp3228
g73
(dp3229
g100
g101
ssg82
g3218
sg75
(lp3230
S':'
asbag68
(g89
g70
NtRp3231
(dp3232
g73
(dp3233
sg82
g3218
sg75
(lp3234
g68
(g69
g70
NtRp3235
(dp3236
g73
(dp3237
g81
I4
ssg82
g3231
sg75
(lp3238
g111
asbasbasbag68
(g84
g70
NtRp3239
(dp3240
g73
(dp3241
sg82
g3148
sg75
(lp3242
g68
(g89
g70
NtRp3243
(dp3244
g73
(dp3245
g93
g94
ssg82
g3239
sg75
(lp3246
S'user'
p3247
asbag68
(g89
g70
NtRp3248
(dp3249
g73
(dp3250
g100
g101
ssg82
g3239
sg75
(lp3251
S':'
asbag68
(g89
g70
NtRp3252
(dp3253
g73
(dp3254
sg82
g3239
sg75
(lp3255
g68
(g69
g70
NtRp3256
(dp3257
g73
(dp3258
g81
I4
ssg82
g3252
sg75
(lp3259
g68
(g77
g70
NtRp3260
(dp3261
g73
(dp3262
g81
I3
ssg82
Nsg75
(lp3263
g68
(g84
g70
NtRp3264
(dp3265
g73
(dp3266
sg82
g3260
sg75
(lp3267
g68
(g89
g70
NtRp3268
(dp3269
g73
(dp3270
g93
g94
ssg82
g3264
sg75
(lp3271
S'email'
p3272
asbag68
(g89
g70
NtRp3273
(dp3274
g73
(dp3275
g100
g101
ssg82
g3264
sg75
(lp3276
S':'
asbag68
(g89
g70
NtRp3277
(dp3278
g73
(dp3279
sg82
g3264
sg75
(lp3280
g68
(g69
g70
NtRp3281
(dp3282
g73
(dp3283
g81
I3
ssg82
g3277
sg75
(lp3284
S'kaique.developer@gmail.com'
p3285
asbasbasbag68
(g84
g70
NtRp3286
(dp3287
g73
(dp3288
sg82
g3260
sg75
(lp3289
g68
(g89
g70
NtRp3290
(dp3291
g73
(dp3292
g93
g94
ssg82
g3286
sg75
(lp3293
S'first_name'
p3294
asbag68
(g89
g70
NtRp3295
(dp3296
g73
(dp3297
g100
g101
ssg82
g3286
sg75
(lp3298
S':'
asbag68
(g89
g70
NtRp3299
(dp3300
g73
(dp3301
sg82
g3286
sg75
(lp3302
g68
(g69
g70
NtRp3303
(dp3304
g73
(dp3305
g81
I3
ssg82
g3299
sg75
(lp3306
S'kaique'
p3307
asbasbasbag68
(g84
g70
NtRp3308
(dp3309
g73
(dp3310
sg82
g3260
sg75
(lp3311
g68
(g89
g70
NtRp3312
(dp3313
g73
(dp3314
g93
g94
ssg82
g3308
sg75
(lp3315
S'id'
p3316
asbag68
(g89
g70
NtRp3317
(dp3318
g73
(dp3319
g100
g101
ssg82
g3308
sg75
(lp3320
S':'
asbag68
(g89
g70
NtRp3321
(dp3322
g73
(dp3323
sg82
g3308
sg75
(lp3324
g68
(g69
g70
NtRp3325
(dp3326
g73
(dp3327
g81
I3
ssg82
g3321
sg75
(lp3328
S'1'
asbasbasbag68
(g84
g70
NtRp3329
(dp3330
g73
(dp3331
sg82
g3260
sg75
(lp3332
g68
(g89
g70
NtRp3333
(dp3334
g73
(dp3335
g93
g94
ssg82
g3329
sg75
(lp3336
S'last_name'
p3337
asbag68
(g89
g70
NtRp3338
(dp3339
g73
(dp3340
g100
g101
ssg82
g3329
sg75
(lp3341
S':'
asbag68
(g89
g70
NtRp3342
(dp3343
g73
(dp3344
sg82
g3329
sg75
(lp3345
g68
(g69
g70
NtRp3346
(dp3347
g73
(dp3348
g81
I3
ssg82
g3342
sg75
(lp3349
S'silva'
p3350
asbasbasbag68
(g84
g70
NtRp3351
(dp3352
g73
(dp3353
sg82
g3260
sg75
(lp3354
g68
(g89
g70
NtRp3355
(dp3356
g73
(dp3357
g93
g94
ssg82
g3351
sg75
(lp3358
S'password'
p3359
asbag68
(g89
g70
NtRp3360
(dp3361
g73
(dp3362
g100
g101
ssg82
g3351
sg75
(lp3363
S':'
asbag68
(g89
g70
NtRp3364
(dp3365
g73
(dp3366
sg82
g3351
sg75
(lp3367
g68
(g69
g70
NtRp3368
(dp3369
g73
(dp3370
g81
I3
ssg82
g3364
sg75
(lp3371
S'72c6a018d62d3fb47d95389e4a062cd2'
p3372
asbasbasbag68
(g84
g70
NtRp3373
(dp3374
g73
(dp3375
sg82
g3260
sg75
(lp3376
g68
(g89
g70
NtRp3377
(dp3378
g73
(dp3379
g93
g94
ssg82
g3373
sg75
(lp3380
S'registration_key'
p3381
asbag68
(g89
g70
NtRp3382
(dp3383
g73
(dp3384
g100
g101
ssg82
g3373
sg75
(lp3385
S':'
asbag68
(g89
g70
NtRp3386
(dp3387
g73
(dp3388
sg82
g3373
sg75
(lp3389
g68
(g69
g70
NtRp3390
(dp3391
g73
(dp3392
g81
I3
ssg82
g3386
sg75
(lp3393
S''
asbasbasbag68
(g84
g70
NtRp3394
(dp3395
g73
(dp3396
sg82
g3260
sg75
(lp3397
g68
(g89
g70
NtRp3398
(dp3399
g73
(dp3400
g93
g94
ssg82
g3394
sg75
(lp3401
S'reset_password_key'
p3402
asbag68
(g89
g70
NtRp3403
(dp3404
g73
(dp3405
g100
g101
ssg82
g3394
sg75
(lp3406
S':'
asbag68
(g89
g70
NtRp3407
(dp3408
g73
(dp3409
sg82
g3394
sg75
(lp3410
g68
(g69
g70
NtRp3411
(dp3412
g73
(dp3413
g81
I3
ssg82
g3407
sg75
(lp3414
S''
asbasbasbasbasbasbasbasbasbasbasbag68
(g84
g70
NtRp3415
(dp3416
g73
(dp3417
sg82
g3123
sg75
(lp3418
g68
(g89
g70
NtRp3419
(dp3420
g73
(dp3421
g93
g94
ssg82
g3415
sg75
(lp3422
S'back'
p3423
asbag68
(g89
g70
NtRp3424
(dp3425
g73
(dp3426
g100
g101
ssg82
g3415
sg75
(lp3427
S':'
asbag68
(g89
g70
NtRp3428
(dp3429
g73
(dp3430
sg82
g3415
sg75
(lp3431
g68
(g69
g70
NtRp3432
(dp3433
g73
(dp3434
g81
I5
ssg82
g3428
sg75
(lp3435
S'9'
asbasbasbag68
(g84
g70
NtRp3436
(dp3437
g73
(dp3438
sg82
g3123
sg75
(lp3439
g68
(g89
g70
NtRp3440
(dp3441
g73
(dp3442
g93
g94
ssg82
g3436
sg75
(lp3443
S'index'
p3444
asbag68
(g89
g70
NtRp3445
(dp3446
g73
(dp3447
g100
g101
ssg82
g3436
sg75
(lp3448
S':'
asbag68
(g89
g70
NtRp3449
(dp3450
g73
(dp3451
sg82
g3436
sg75
(lp3452
g68
(g69
g70
NtRp3453
(dp3454
g73
(dp3455
g81
I5
ssg82
g3449
sg75
(lp3456
S'1'
asbasbasbag68
(g84
g70
NtRp3457
(dp3458
g73
(dp3459
sg82
g3123
sg75
(lp3460
g68
(g89
g70
NtRp3461
(dp3462
g73
(dp3463
g93
g94
ssg82
g3457
sg75
(lp3464
S'last_query'
p3465
asbag68
(g89
g70
NtRp3466
(dp3467
g73
(dp3468
g100
g101
ssg82
g3457
sg75
(lp3469
S':'
asbag68
(g89
g70
NtRp3470
(dp3471
g73
(dp3472
sg82
g3457
sg75
(lp3473
g68
(g69
g70
NtRp3474
(dp3475
g73
(dp3476
g81
I5
ssg82
g3470
sg75
(lp3477
S'db.row.id>0'
p3478
asbasbasbasbasbsS'etype'
p3479
S"<type 'exceptions.SyntaxError'>"
p3480
sS'date'
p3481
S'Sun Jan 15 22:23:28 2012'
p3482
sS'response'
p3483
g68
(g69
g70
NtRp3484
(dp3485
g73
(dp3486
sg75
(lp3487
g68
(g77
g70
NtRp3488
(dp3489
g73
(dp3490
g81
I5
ssg82
Nsg75
(lp3491
g68
(g84
g70
NtRp3492
(dp3493
g73
(dp3494
sg82
g3488
sg75
(lp3495
g68
(g89
g70
NtRp3496
(dp3497
g73
(dp3498
g93
g94
ssg82
g3492
sg75
(lp3499
g191
asbag68
(g89
g70
NtRp3500
(dp3501
g73
(dp3502
g100
g101
ssg82
g3492
sg75
(lp3503
S':'
asbag68
(g89
g70
NtRp3504
(dp3505
g73
(dp3506
sg82
g3492
sg75
(lp3507
g68
(g69
g70
NtRp3508
(dp3509
g73
(dp3510
g81
I5
ssg82
g3504
sg75
(lp3511
S'<cStringIO.StringO object at 0x7f926025bfb8>'
p3512
asbasbasbag68
(g84
g70
NtRp3513
(dp3514
g73
(dp3515
sg82
g3488
sg75
(lp3516
g68
(g89
g70
NtRp3517
(dp3518
g73
(dp3519
g93
g94
ssg82
g3513
sg75
(lp3520
g257
asbag68
(g89
g70
NtRp3521
(dp3522
g73
(dp3523
g100
g101
ssg82
g3513
sg75
(lp3524
S':'
asbag68
(g89
g70
NtRp3525
(dp3526
g73
(dp3527
sg82
g3513
sg75
(lp3528
g68
(g69
g70
NtRp3529
(dp3530
g73
(dp3531
g81
I5
ssg82
g3525
sg75
(lp3532
g68
(g77
g70
NtRp3533
(dp3534
g73
(dp3535
g81
I4
ssg82
Nsg75
(lp3536
g68
(g84
g70
NtRp3537
(dp3538
g73
(dp3539
sg82
g3533
sg75
(lp3540
g68
(g89
g70
NtRp3541
(dp3542
g73
(dp3543
g93
g94
ssg82
g3537
sg75
(lp3544
S'session_id_synopsis'
p3545
asbag68
(g89
g70
NtRp3546
(dp3547
g73
(dp3548
g100
g101
ssg82
g3537
sg75
(lp3549
S':'
asbag68
(g89
g70
NtRp3550
(dp3551
g73
(dp3552
sg82
g3537
sg75
(lp3553
g68
(g69
g70
NtRp3554
(dp3555
g73
(dp3556
g81
I4
ssg82
g3550
sg75
(lp3557
g68
(g77
g70
NtRp3558
(dp3559
g73
(dp3560
g81
I3
ssg82
Nsg75
(lp3561
g68
(g84
g70
NtRp3562
(dp3563
g73
(dp3564
sg82
g3558
sg75
(lp3565
g68
(g89
g70
NtRp3566
(dp3567
g73
(dp3568
g93
g94
ssg82
g3562
sg75
(lp3569
g307
asbag68
(g89
g70
NtRp3570
(dp3571
g73
(dp3572
g100
g101
ssg82
g3562
sg75
(lp3573
S':'
asbag68
(g89
g70
NtRp3574
(dp3575
g73
(dp3576
sg82
g3562
sg75
(lp3577
g68
(g69
g70
NtRp3578
(dp3579
g73
(dp3580
g81
I3
ssg82
g3574
sg75
(lp3581
S''
asbasbasbag68
(g84
g70
NtRp3582
(dp3583
g73
(dp3584
sg82
g3558
sg75
(lp3585
g68
(g89
g70
NtRp3586
(dp3587
g73
(dp3588
g93
g94
ssg82
g3582
sg75
(lp3589
g328
asbag68
(g89
g70
NtRp3590
(dp3591
g73
(dp3592
g100
g101
ssg82
g3582
sg75
(lp3593
S':'
asbag68
(g89
g70
NtRp3594
(dp3595
g73
(dp3596
sg82
g3582
sg75
(lp3597
g68
(g69
g70
NtRp3598
(dp3599
g73
(dp3600
g81
I3
ssg82
g3594
sg75
(lp3601
S''
asbasbasbag68
(g84
g70
NtRp3602
(dp3603
g73
(dp3604
sg82
g3558
sg75
(lp3605
g68
(g89
g70
NtRp3606
(dp3607
g73
(dp3608
g93
g94
ssg82
g3602
sg75
(lp3609
g349
asbag68
(g89
g70
NtRp3610
(dp3611
g73
(dp3612
g100
g101
ssg82
g3602
sg75
(lp3613
S':'
asbag68
(g89
g70
NtRp3614
(dp3615
g73
(dp3616
sg82
g3602
sg75
(lp3617
g68
(g69
g70
NtRp3618
(dp3619
g73
(dp3620
g81
I3
ssg82
g3614
sg75
(lp3621
S''
asbasbasbag68
(g84
g70
NtRp3622
(dp3623
g73
(dp3624
sg82
g3558
sg75
(lp3625
g68
(g89
g70
NtRp3626
(dp3627
g73
(dp3628
g93
g94
ssg82
g3622
sg75
(lp3629
g370
asbag68
(g89
g70
NtRp3630
(dp3631
g73
(dp3632
g100
g101
ssg82
g3622
sg75
(lp3633
S':'
asbag68
(g89
g70
NtRp3634
(dp3635
g73
(dp3636
sg82
g3622
sg75
(lp3637
g68
(g69
g70
NtRp3638
(dp3639
g73
(dp3640
g81
I3
ssg82
g3634
sg75
(lp3641
S''
asbasbasbag68
(g84
g70
NtRp3642
(dp3643
g73
(dp3644
sg82
g3558
sg75
(lp3645
g68
(g89
g70
NtRp3646
(dp3647
g73
(dp3648
g93
g94
ssg82
g3642
sg75
(lp3649
g391
asbag68
(g89
g70
NtRp3650
(dp3651
g73
(dp3652
g100
g101
ssg82
g3642
sg75
(lp3653
S':'
asbag68
(g89
g70
NtRp3654
(dp3655
g73
(dp3656
sg82
g3642
sg75
(lp3657
g68
(g69
g70
NtRp3658
(dp3659
g73
(dp3660
g81
I3
ssg82
g3654
sg75
(lp3661
S''
asbasbasbag68
(g84
g70
NtRp3662
(dp3663
g73
(dp3664
sg82
g3558
sg75
(lp3665
g68
(g89
g70
NtRp3666
(dp3667
g73
(dp3668
g93
g94
ssg82
g3662
sg75
(lp3669
g412
asbag68
(g89
g70
NtRp3670
(dp3671
g73
(dp3672
g100
g101
ssg82
g3662
sg75
(lp3673
S':'
asbag68
(g89
g70
NtRp3674
(dp3675
g73
(dp3676
sg82
g3662
sg75
(lp3677
g68
(g69
g70
NtRp3678
(dp3679
g73
(dp3680
g81
I3
ssg82
g3674
sg75
(lp3681
S'/'
asbasbasbag68
(g84
g70
NtRp3682
(dp3683
g73
(dp3684
sg82
g3558
sg75
(lp3685
g68
(g89
g70
NtRp3686
(dp3687
g73
(dp3688
g93
g94
ssg82
g3682
sg75
(lp3689
g433
asbag68
(g89
g70
NtRp3690
(dp3691
g73
(dp3692
g100
g101
ssg82
g3682
sg75
(lp3693
S':'
asbag68
(g89
g70
NtRp3694
(dp3695
g73
(dp3696
sg82
g3682
sg75
(lp3697
g68
(g69
g70
NtRp3698
(dp3699
g73
(dp3700
g81
I3
ssg82
g3694
sg75
(lp3701
S''
asbasbasbag68
(g84
g70
NtRp3702
(dp3703
g73
(dp3704
sg82
g3558
sg75
(lp3705
g68
(g89
g70
NtRp3706
(dp3707
g73
(dp3708
g93
g94
ssg82
g3702
sg75
(lp3709
g454
asbag68
(g89
g70
NtRp3710
(dp3711
g73
(dp3712
g100
g101
ssg82
g3702
sg75
(lp3713
S':'
asbag68
(g89
g70
NtRp3714
(dp3715
g73
(dp3716
sg82
g3702
sg75
(lp3717
g68
(g69
g70
NtRp3718
(dp3719
g73
(dp3720
g81
I3
ssg82
g3714
sg75
(lp3721
S''
asbasbasbasbasbasbasbasbasbasbasbag68
(g84
g70
NtRp3722
(dp3723
g73
(dp3724
sg82
g3488
sg75
(lp3725
g68
(g89
g70
NtRp3726
(dp3727
g73
(dp3728
g93
g94
ssg82
g3722
sg75
(lp3729
S'files'
p3730
asbag68
(g89
g70
NtRp3731
(dp3732
g73
(dp3733
g100
g101
ssg82
g3722
sg75
(lp3734
S':'
asbag68
(g89
g70
NtRp3735
(dp3736
g73
(dp3737
sg82
g3722
sg75
(lp3738
g68
(g69
g70
NtRp3739
(dp3740
g73
(dp3741
g81
I5
ssg82
g3735
sg75
(lp3742
g68
(g77
g70
NtRp3743
(dp3744
g73
(dp3745
g81
I4
ssg82
Nsg75
(lp3746
sbasbasbasbag68
(g84
g70
NtRp3747
(dp3748
g73
(dp3749
sg82
g3488
sg75
(lp3750
g68
(g89
g70
NtRp3751
(dp3752
g73
(dp3753
g93
g94
ssg82
g3747
sg75
(lp3754
S'flahs'
p3755
asbag68
(g89
g70
NtRp3756
(dp3757
g73
(dp3758
g100
g101
ssg82
g3747
sg75
(lp3759
S':'
asbag68
(g89
g70
NtRp3760
(dp3761
g73
(dp3762
sg82
g3747
sg75
(lp3763
g68
(g69
g70
NtRp3764
(dp3765
g73
(dp3766
g81
I5
ssg82
g3760
sg75
(lp3767
cgluon.languages
lazyT_unpickle
p3768
(S's\x19\x00\x00\x00Please, fill the field...'
tRp3769
asbasbasbag68
(g84
g70
NtRp3770
(dp3771
g73
(dp3772
sg82
g3488
sg75
(lp3773
g68
(g89
g70
NtRp3774
(dp3775
g73
(dp3776
g93
g94
ssg82
g3770
sg75
(lp3777
S'flash'
p3778
asbag68
(g89
g70
NtRp3779
(dp3780
g73
(dp3781
g100
g101
ssg82
g3770
sg75
(lp3782
S':'
asbag68
(g89
g70
NtRp3783
(dp3784
g73
(dp3785
sg82
g3770
sg75
(lp3786
g68
(g69
g70
NtRp3787
(dp3788
g73
(dp3789
g81
I5
ssg82
g3783
sg75
(lp3790
S''
asbasbasbag68
(g84
g70
NtRp3791
(dp3792
g73
(dp3793
sg82
g3488
sg75
(lp3794
g68
(g89
g70
NtRp3795
(dp3796
g73
(dp3797
g93
g94
ssg82
g3791
sg75
(lp3798
S'generic_patterns'
p3799
asbag68
(g89
g70
NtRp3800
(dp3801
g73
(dp3802
g100
g101
ssg82
g3791
sg75
(lp3803
S':'
asbag68
(g89
g70
NtRp3804
(dp3805
g73
(dp3806
sg82
g3791
sg75
(lp3807
g68
(g69
g70
NtRp3808
(dp3809
g73
(dp3810
g81
I5
ssg82
g3804
sg75
(lp3811
g68
(g77
g70
NtRp3812
(dp3813
g73
(dp3814
g81
I4
ssg82
Nsg75
(lp3815
g68
(g84
g70
NtRp3816
(dp3817
g73
(dp3818
sg82
g3812
sg75
(lp3819
g68
(g89
g70
NtRp3820
(dp3821
g73
(dp3822
sg82
g3816
sg75
(lp3823
g68
(g69
g70
NtRp3824
(dp3825
g73
(dp3826
g81
I4
ssg82
g3820
sg75
(lp3827
S'*'
asbasbasbasbasbasbasbag68
(g84
g70
NtRp3828
(dp3829
g73
(dp3830
sg82
g3488
sg75
(lp3831
g68
(g89
g70
NtRp3832
(dp3833
g73
(dp3834
g93
g94
ssg82
g3828
sg75
(lp3835
S'headers'
p3836
asbag68
(g89
g70
NtRp3837
(dp3838
g73
(dp3839
g100
g101
ssg82
g3828
sg75
(lp3840
S':'
asbag68
(g89
g70
NtRp3841
(dp3842
g73
(dp3843
sg82
g3828
sg75
(lp3844
g68
(g69
g70
NtRp3845
(dp3846
g73
(dp3847
g81
I5
ssg82
g3841
sg75
(lp3848
g68
(g77
g70
NtRp3849
(dp3850
g73
(dp3851
g81
I4
ssg82
Nsg75
(lp3852
g68
(g84
g70
NtRp3853
(dp3854
g73
(dp3855
sg82
g3849
sg75
(lp3856
g68
(g89
g70
NtRp3857
(dp3858
g73
(dp3859
g93
g94
ssg82
g3853
sg75
(lp3860
S'Cache-Control'
p3861
asbag68
(g89
g70
NtRp3862
(dp3863
g73
(dp3864
g100
g101
ssg82
g3853
sg75
(lp3865
S':'
asbag68
(g89
g70
NtRp3866
(dp3867
g73
(dp3868
sg82
g3853
sg75
(lp3869
g68
(g69
g70
NtRp3870
(dp3871
g73
(dp3872
g81
I4
ssg82
g3866
sg75
(lp3873
S'no-store, no-cache, must-revalidate, post-check=0, pre-check=0'
p3874
asbasbasbag68
(g84
g70
NtRp3875
(dp3876
g73
(dp3877
sg82
g3849
sg75
(lp3878
g68
(g89
g70
NtRp3879
(dp3880
g73
(dp3881
g93
g94
ssg82
g3875
sg75
(lp3882
S'Content-Type'
p3883
asbag68
(g89
g70
NtRp3884
(dp3885
g73
(dp3886
g100
g101
ssg82
g3875
sg75
(lp3887
S':'
asbag68
(g89
g70
NtRp3888
(dp3889
g73
(dp3890
sg82
g3875
sg75
(lp3891
g68
(g69
g70
NtRp3892
(dp3893
g73
(dp3894
g81
I4
ssg82
g3888
sg75
(lp3895
S'text/html; charset=utf-8'
p3896
asbasbasbag68
(g84
g70
NtRp3897
(dp3898
g73
(dp3899
sg82
g3849
sg75
(lp3900
g68
(g89
g70
NtRp3901
(dp3902
g73
(dp3903
g93
g94
ssg82
g3897
sg75
(lp3904
S'Expires'
p3905
asbag68
(g89
g70
NtRp3906
(dp3907
g73
(dp3908
g100
g101
ssg82
g3897
sg75
(lp3909
S':'
asbag68
(g89
g70
NtRp3910
(dp3911
g73
(dp3912
sg82
g3897
sg75
(lp3913
g68
(g69
g70
NtRp3914
(dp3915
g73
(dp3916
g81
I4
ssg82
g3910
sg75
(lp3917
S'Mon, 16 Jan 2012 00:23:28 GMT'
p3918
asbasbasbag68
(g84
g70
NtRp3919
(dp3920
g73
(dp3921
sg82
g3849
sg75
(lp3922
g68
(g89
g70
NtRp3923
(dp3924
g73
(dp3925
g93
g94
ssg82
g3919
sg75
(lp3926
S'Pragma'
p3927
asbag68
(g89
g70
NtRp3928
(dp3929
g73
(dp3930
g100
g101
ssg82
g3919
sg75
(lp3931
S':'
asbag68
(g89
g70
NtRp3932
(dp3933
g73
(dp3934
sg82
g3919
sg75
(lp3935
g68
(g69
g70
NtRp3936
(dp3937
g73
(dp3938
g81
I4
ssg82
g3932
sg75
(lp3939
S'no-cache'
p3940
asbasbasbag68
(g84
g70
NtRp3941
(dp3942
g73
(dp3943
sg82
g3849
sg75
(lp3944
g68
(g89
g70
NtRp3945
(dp3946
g73
(dp3947
g93
g94
ssg82
g3941
sg75
(lp3948
S'X-Powered-By'
p3949
asbag68
(g89
g70
NtRp3950
(dp3951
g73
(dp3952
g100
g101
ssg82
g3941
sg75
(lp3953
S':'
asbag68
(g89
g70
NtRp3954
(dp3955
g73
(dp3956
sg82
g3941
sg75
(lp3957
g68
(g69
g70
NtRp3958
(dp3959
g73
(dp3960
g81
I4
ssg82
g3954
sg75
(lp3961
S'web2py'
p3962
asbasbasbasbasbasbasbag68
(g84
g70
NtRp3963
(dp3964
g73
(dp3965
sg82
g3488
sg75
(lp3966
g68
(g89
g70
NtRp3967
(dp3968
g73
(dp3969
g93
g94
ssg82
g3963
sg75
(lp3970
S'menu'
p3971
asbag68
(g89
g70
NtRp3972
(dp3973
g73
(dp3974
g100
g101
ssg82
g3963
sg75
(lp3975
S':'
asbag68
(g89
g70
NtRp3976
(dp3977
g73
(dp3978
sg82
g3963
sg75
(lp3979
g68
(g69
g70
NtRp3980
(dp3981
g73
(dp3982
g81
I5
ssg82
g3976
sg75
(lp3983
g68
(g77
g70
NtRp3984
(dp3985
g73
(dp3986
g81
I4
ssg82
Nsg75
(lp3987
g68
(g84
g70
NtRp3988
(dp3989
g73
(dp3990
sg82
g3984
sg75
(lp3991
g68
(g89
g70
NtRp3992
(dp3993
g73
(dp3994
sg82
g3988
sg75
(lp3995
g68
(g69
g70
NtRp3996
(dp3997
g73
(dp3998
g81
I4
ssg82
g3992
sg75
(lp3999
g68
(g77
g70
NtRp4000
(dp4001
g73
(dp4002
g81
I3
ssg82
Nsg75
(lp4003
g68
(g84
g70
NtRp4004
(dp4005
g73
(dp4006
sg82
g4000
sg75
(lp4007
g68
(g89
g70
NtRp4008
(dp4009
g73
(dp4010
sg82
g4004
sg75
(lp4011
g68
(g69
g70
NtRp4012
(dp4013
g73
(dp4014
g81
I3
ssg82
g4008
sg75
(lp4015
g3768
(S't\x04\x00\x00\x00Home'
tRp4016
asbasbasbag68
(g84
g70
NtRp4017
(dp4018
g73
(dp4019
sg82
g4000
sg75
(lp4020
g68
(g89
g70
NtRp4021
(dp4022
g73
(dp4023
sg82
g4017
sg75
(lp4024
g68
(g69
g70
NtRp4025
(dp4026
g73
(dp4027
g81
I3
ssg82
g4021
sg75
(lp4028
g111
asbasbasbag68
(g84
g70
NtRp4029
(dp4030
g73
(dp4031
sg82
g4000
sg75
(lp4032
g68
(g89
g70
NtRp4033
(dp4034
g73
(dp4035
sg82
g4029
sg75
(lp4036
g68
(g69
g70
NtRp4037
(dp4038
g73
(dp4039
g81
I3
ssg82
g4033
sg75
(lp4040
S'/synopsis/default/index'
p4041
asbasbasbag68
(g84
g70
NtRp4042
(dp4043
g73
(dp4044
sg82
g4000
sg75
(lp4045
g68
(g89
g70
NtRp4046
(dp4047
g73
(dp4048
sg82
g4042
sg75
(lp4049
g68
(g69
g70
NtRp4050
(dp4051
g73
(dp4052
g81
I3
ssg82
g4046
sg75
(lp4053
g68
(g77
g70
NtRp4054
(dp4055
g73
(dp4056
g81
I2
ssg82
Nsg75
(lp4057
sbasbasbasbasbasbasbasbag68
(g84
g70
NtRp4058
(dp4059
g73
(dp4060
sg82
g3984
sg75
(lp4061
g68
(g89
g70
NtRp4062
(dp4063
g73
(dp4064
sg82
g4058
sg75
(lp4065
g68
(g69
g70
NtRp4066
(dp4067
g73
(dp4068
g81
I4
ssg82
g4062
sg75
(lp4069
g68
(g77
g70
NtRp4070
(dp4071
g73
(dp4072
g81
I3
ssg82
Nsg75
(lp4073
g68
(g84
g70
NtRp4074
(dp4075
g73
(dp4076
sg82
g4070
sg75
(lp4077
g68
(g89
g70
NtRp4078
(dp4079
g73
(dp4080
sg82
g4074
sg75
(lp4081
g68
(g69
g70
NtRp4082
(dp4083
g73
(dp4084
g81
I3
ssg82
g4078
sg75
(lp4085
g3768
(S't\x0b\x00\x00\x00Information'
tRp4086
asbasbasbag68
(g84
g70
NtRp4087
(dp4088
g73
(dp4089
sg82
g4070
sg75
(lp4090
g68
(g89
g70
NtRp4091
(dp4092
g73
(dp4093
sg82
g4087
sg75
(lp4094
g68
(g69
g70
NtRp4095
(dp4096
g73
(dp4097
g81
I3
ssg82
g4091
sg75
(lp4098
g111
asbasbasbag68
(g84
g70
NtRp4099
(dp4100
g73
(dp4101
sg82
g4070
sg75
(lp4102
g68
(g89
g70
NtRp4103
(dp4104
g73
(dp4105
sg82
g4099
sg75
(lp4106
g68
(g69
g70
NtRp4107
(dp4108
g73
(dp4109
g81
I3
ssg82
g4103
sg75
(lp4110
S'/synopsis/information/index'
p4111
asbasbasbag68
(g84
g70
NtRp4112
(dp4113
g73
(dp4114
sg82
g4070
sg75
(lp4115
g68
(g89
g70
NtRp4116
(dp4117
g73
(dp4118
sg82
g4112
sg75
(lp4119
g68
(g69
g70
NtRp4120
(dp4121
g73
(dp4122
g81
I3
ssg82
g4116
sg75
(lp4123
g68
(g77
g70
NtRp4124
(dp4125
g73
(dp4126
g81
I2
ssg82
Nsg75
(lp4127
sbasbasbasbasbasbasbasbag68
(g84
g70
NtRp4128
(dp4129
g73
(dp4130
sg82
g3984
sg75
(lp4131
g68
(g89
g70
NtRp4132
(dp4133
g73
(dp4134
sg82
g4128
sg75
(lp4135
g68
(g69
g70
NtRp4136
(dp4137
g73
(dp4138
g81
I4
ssg82
g4132
sg75
(lp4139
g68
(g77
g70
NtRp4140
(dp4141
g73
(dp4142
g81
I3
ssg82
Nsg75
(lp4143
g68
(g84
g70
NtRp4144
(dp4145
g73
(dp4146
sg82
g4140
sg75
(lp4147
g68
(g89
g70
NtRp4148
(dp4149
g73
(dp4150
sg82
g4144
sg75
(lp4151
g68
(g69
g70
NtRp4152
(dp4153
g73
(dp4154
g81
I3
ssg82
g4148
sg75
(lp4155
g3768
(S't\x05\x00\x00\x00About'
tRp4156
asbasbasbag68
(g84
g70
NtRp4157
(dp4158
g73
(dp4159
sg82
g4140
sg75
(lp4160
g68
(g89
g70
NtRp4161
(dp4162
g73
(dp4163
sg82
g4157
sg75
(lp4164
g68
(g69
g70
NtRp4165
(dp4166
g73
(dp4167
g81
I3
ssg82
g4161
sg75
(lp4168
g111
asbasbasbag68
(g84
g70
NtRp4169
(dp4170
g73
(dp4171
sg82
g4140
sg75
(lp4172
g68
(g89
g70
NtRp4173
(dp4174
g73
(dp4175
sg82
g4169
sg75
(lp4176
g68
(g69
g70
NtRp4177
(dp4178
g73
(dp4179
g81
I3
ssg82
g4173
sg75
(lp4180
S'/synopsis/about/index'
p4181
asbasbasbag68
(g84
g70
NtRp4182
(dp4183
g73
(dp4184
sg82
g4140
sg75
(lp4185
g68
(g89
g70
NtRp4186
(dp4187
g73
(dp4188
sg82
g4182
sg75
(lp4189
g68
(g69
g70
NtRp4190
(dp4191
g73
(dp4192
g81
I3
ssg82
g4186
sg75
(lp4193
g68
(g77
g70
NtRp4194
(dp4195
g73
(dp4196
g81
I2
ssg82
Nsg75
(lp4197
sbasbasbasbasbasbasbasbasbasbasbasbag68
(g84
g70
NtRp4198
(dp4199
g73
(dp4200
sg82
g3488
sg75
(lp4201
g68
(g89
g70
NtRp4202
(dp4203
g73
(dp4204
g93
g94
ssg82
g4198
sg75
(lp4205
S'meta'
p4206
asbag68
(g89
g70
NtRp4207
(dp4208
g73
(dp4209
g100
g101
ssg82
g4198
sg75
(lp4210
S':'
asbag68
(g89
g70
NtRp4211
(dp4212
g73
(dp4213
sg82
g4198
sg75
(lp4214
g68
(g69
g70
NtRp4215
(dp4216
g73
(dp4217
g81
I5
ssg82
g4211
sg75
(lp4218
g68
(g77
g70
NtRp4219
(dp4220
g73
(dp4221
g81
I4
ssg82
Nsg75
(lp4222
g68
(g84
g70
NtRp4223
(dp4224
g73
(dp4225
sg82
g4219
sg75
(lp4226
g68
(g89
g70
NtRp4227
(dp4228
g73
(dp4229
g93
g94
ssg82
g4223
sg75
(lp4230
S'author'
p4231
asbag68
(g89
g70
NtRp4232
(dp4233
g73
(dp4234
g100
g101
ssg82
g4223
sg75
(lp4235
S':'
asbag68
(g89
g70
NtRp4236
(dp4237
g73
(dp4238
sg82
g4223
sg75
(lp4239
g68
(g69
g70
NtRp4240
(dp4241
g73
(dp4242
g81
I4
ssg82
g4236
sg75
(lp4243
S'Your Name <you@example.com>'
p4244
asbasbasbag68
(g84
g70
NtRp4245
(dp4246
g73
(dp4247
sg82
g4219
sg75
(lp4248
g68
(g89
g70
NtRp4249
(dp4250
g73
(dp4251
g93
g94
ssg82
g4245
sg75
(lp4252
S'copyright'
p4253
asbag68
(g89
g70
NtRp4254
(dp4255
g73
(dp4256
g100
g101
ssg82
g4245
sg75
(lp4257
S':'
asbag68
(g89
g70
NtRp4258
(dp4259
g73
(dp4260
sg82
g4245
sg75
(lp4261
g68
(g69
g70
NtRp4262
(dp4263
g73
(dp4264
g81
I4
ssg82
g4258
sg75
(lp4265
S'Copyright 2011'
p4266
asbasbasbag68
(g84
g70
NtRp4267
(dp4268
g73
(dp4269
sg82
g4219
sg75
(lp4270
g68
(g89
g70
NtRp4271
(dp4272
g73
(dp4273
g93
g94
ssg82
g4267
sg75
(lp4274
S'description'
p4275
asbag68
(g89
g70
NtRp4276
(dp4277
g73
(dp4278
g100
g101
ssg82
g4267
sg75
(lp4279
S':'
asbag68
(g89
g70
NtRp4280
(dp4281
g73
(dp4282
sg82
g4267
sg75
(lp4283
g68
(g69
g70
NtRp4284
(dp4285
g73
(dp4286
g81
I4
ssg82
g4280
sg75
(lp4287
S'a cool new app'
p4288
asbasbasbag68
(g84
g70
NtRp4289
(dp4290
g73
(dp4291
sg82
g4219
sg75
(lp4292
g68
(g89
g70
NtRp4293
(dp4294
g73
(dp4295
g93
g94
ssg82
g4289
sg75
(lp4296
S'generator'
p4297
asbag68
(g89
g70
NtRp4298
(dp4299
g73
(dp4300
g100
g101
ssg82
g4289
sg75
(lp4301
S':'
asbag68
(g89
g70
NtRp4302
(dp4303
g73
(dp4304
sg82
g4289
sg75
(lp4305
g68
(g69
g70
NtRp4306
(dp4307
g73
(dp4308
g81
I4
ssg82
g4302
sg75
(lp4309
S'Web2py Web Framework'
p4310
asbasbasbag68
(g84
g70
NtRp4311
(dp4312
g73
(dp4313
sg82
g4219
sg75
(lp4314
g68
(g89
g70
NtRp4315
(dp4316
g73
(dp4317
g93
g94
ssg82
g4311
sg75
(lp4318
S'keywords'
p4319
asbag68
(g89
g70
NtRp4320
(dp4321
g73
(dp4322
g100
g101
ssg82
g4311
sg75
(lp4323
S':'
asbag68
(g89
g70
NtRp4324
(dp4325
g73
(dp4326
sg82
g4311
sg75
(lp4327
g68
(g69
g70
NtRp4328
(dp4329
g73
(dp4330
g81
I4
ssg82
g4324
sg75
(lp4331
S'web2py, python, framework'
p4332
asbasbasbasbasbasbasbag68
(g84
g70
NtRp4333
(dp4334
g73
(dp4335
sg82
g3488
sg75
(lp4336
g68
(g89
g70
NtRp4337
(dp4338
g73
(dp4339
g93
g94
ssg82
g4333
sg75
(lp4340
S'postprocessing'
p4341
asbag68
(g89
g70
NtRp4342
(dp4343
g73
(dp4344
g100
g101
ssg82
g4333
sg75
(lp4345
S':'
asbag68
(g89
g70
NtRp4346
(dp4347
g73
(dp4348
sg82
g4333
sg75
(lp4349
g68
(g69
g70
NtRp4350
(dp4351
g73
(dp4352
g81
I5
ssg82
g4346
sg75
(lp4353
g68
(g77
g70
NtRp4354
(dp4355
g73
(dp4356
g81
I4
ssg82
Nsg75
(lp4357
sbasbasbasbag68
(g84
g70
NtRp4358
(dp4359
g73
(dp4360
sg82
g3488
sg75
(lp4361
g68
(g89
g70
NtRp4362
(dp4363
g73
(dp4364
g93
g94
ssg82
g4358
sg75
(lp4365
S'session_file'
p4366
asbag68
(g89
g70
NtRp4367
(dp4368
g73
(dp4369
g100
g101
ssg82
g4358
sg75
(lp4370
S':'
asbag68
(g89
g70
NtRp4371
(dp4372
g73
(dp4373
sg82
g4358
sg75
(lp4374
g68
(g69
g70
NtRp4375
(dp4376
g73
(dp4377
g81
I5
ssg82
g4371
sg75
(lp4378
S"<open file '/home/kaique/Projects/web2py/applications/synopsis/sessions/127.0.0.1-6cb7001e-855b-469f-b7b5-c129d0f3ec70', mode 'rb+' at 0x37b1930>"
p4379
asbasbasbag68
(g84
g70
NtRp4380
(dp4381
g73
(dp4382
sg82
g3488
sg75
(lp4383
g68
(g89
g70
NtRp4384
(dp4385
g73
(dp4386
g93
g94
ssg82
g4380
sg75
(lp4387
S'session_filename'
p4388
asbag68
(g89
g70
NtRp4389
(dp4390
g73
(dp4391
g100
g101
ssg82
g4380
sg75
(lp4392
S':'
asbag68
(g89
g70
NtRp4393
(dp4394
g73
(dp4395
sg82
g4380
sg75
(lp4396
g68
(g69
g70
NtRp4397
(dp4398
g73
(dp4399
g81
I5
ssg82
g4393
sg75
(lp4400
S'/home/kaique/Projects/web2py/applications/synopsis/sessions/127.0.0.1-6cb7001e-855b-469f-b7b5-c129d0f3ec70'
p4401
asbasbasbag68
(g84
g70
NtRp4402
(dp4403
g73
(dp4404
sg82
g3488
sg75
(lp4405
g68
(g89
g70
NtRp4406
(dp4407
g73
(dp4408
g93
g94
ssg82
g4402
sg75
(lp4409
S'session_id'
p4410
asbag68
(g89
g70
NtRp4411
(dp4412
g73
(dp4413
g100
g101
ssg82
g4402
sg75
(lp4414
S':'
asbag68
(g89
g70
NtRp4415
(dp4416
g73
(dp4417
sg82
g4402
sg75
(lp4418
g68
(g69
g70
NtRp4419
(dp4420
g73
(dp4421
g81
I5
ssg82
g4415
sg75
(lp4422
S'127.0.0.1-6cb7001e-855b-469f-b7b5-c129d0f3ec70'
p4423
asbasbasbag68
(g84
g70
NtRp4424
(dp4425
g73
(dp4426
sg82
g3488
sg75
(lp4427
g68
(g89
g70
NtRp4428
(dp4429
g73
(dp4430
g93
g94
ssg82
g4424
sg75
(lp4431
S'session_id_name'
p4432
asbag68
(g89
g70
NtRp4433
(dp4434
g73
(dp4435
g100
g101
ssg82
g4424
sg75
(lp4436
S':'
asbag68
(g89
g70
NtRp4437
(dp4438
g73
(dp4439
sg82
g4424
sg75
(lp4440
g68
(g69
g70
NtRp4441
(dp4442
g73
(dp4443
g81
I5
ssg82
g4437
sg75
(lp4444
g3545
asbasbasbag68
(g84
g70
NtRp4445
(dp4446
g73
(dp4447
sg82
g3488
sg75
(lp4448
g68
(g89
g70
NtRp4449
(dp4450
g73
(dp4451
g93
g94
ssg82
g4445
sg75
(lp4452
S'session_locked'
p4453
asbag68
(g89
g70
NtRp4454
(dp4455
g73
(dp4456
g100
g101
ssg82
g4445
sg75
(lp4457
S':'
asbag68
(g89
g70
NtRp4458
(dp4459
g73
(dp4460
sg82
g4445
sg75
(lp4461
g68
(g69
g70
NtRp4462
(dp4463
g73
(dp4464
g81
I5
ssg82
g4458
sg75
(lp4465
g1715
asbasbasbag68
(g84
g70
NtRp4466
(dp4467
g73
(dp4468
sg82
g3488
sg75
(lp4469
g68
(g89
g70
NtRp4470
(dp4471
g73
(dp4472
g93
g94
ssg82
g4466
sg75
(lp4473
S'session_new'
p4474
asbag68
(g89
g70
NtRp4475
(dp4476
g73
(dp4477
g100
g101
ssg82
g4466
sg75
(lp4478
S':'
asbag68
(g89
g70
NtRp4479
(dp4480
g73
(dp4481
sg82
g4466
sg75
(lp4482
g68
(g69
g70
NtRp4483
(dp4484
g73
(dp4485
g81
I5
ssg82
g4479
sg75
(lp4486
g111
asbasbasbag68
(g84
g70
NtRp4487
(dp4488
g73
(dp4489
sg82
g3488
sg75
(lp4490
g68
(g89
g70
NtRp4491
(dp4492
g73
(dp4493
g93
g94
ssg82
g4487
sg75
(lp4494
S'status'
p4495
asbag68
(g89
g70
NtRp4496
(dp4497
g73
(dp4498
g100
g101
ssg82
g4487
sg75
(lp4499
S':'
asbag68
(g89
g70
NtRp4500
(dp4501
g73
(dp4502
sg82
g4487
sg75
(lp4503
g68
(g69
g70
NtRp4504
(dp4505
g73
(dp4506
g81
I5
ssg82
g4500
sg75
(lp4507
S'200'
p4508
asbasbasbag68
(g84
g70
NtRp4509
(dp4510
g73
(dp4511
sg82
g3488
sg75
(lp4512
g68
(g89
g70
NtRp4513
(dp4514
g73
(dp4515
g93
g94
ssg82
g4509
sg75
(lp4516
S'subtitle'
p4517
asbag68
(g89
g70
NtRp4518
(dp4519
g73
(dp4520
g100
g101
ssg82
g4509
sg75
(lp4521
S':'
asbag68
(g89
g70
NtRp4522
(dp4523
g73
(dp4524
sg82
g4509
sg75
(lp4525
g68
(g69
g70
NtRp4526
(dp4527
g73
(dp4528
g81
I5
ssg82
g4522
sg75
(lp4529
g3768
(S's\x0f\x00\x00\x00Personalize-me!'
tRp4530
asbasbasbag68
(g84
g70
NtRp4531
(dp4532
g73
(dp4533
sg82
g3488
sg75
(lp4534
g68
(g89
g70
NtRp4535
(dp4536
g73
(dp4537
g93
g94
ssg82
g4531
sg75
(lp4538
S'title'
p4539
asbag68
(g89
g70
NtRp4540
(dp4541
g73
(dp4542
g100
g101
ssg82
g4531
sg75
(lp4543
S':'
asbag68
(g89
g70
NtRp4544
(dp4545
g73
(dp4546
sg82
g4531
sg75
(lp4547
g68
(g69
g70
NtRp4548
(dp4549
g73
(dp4550
g81
I5
ssg82
g4544
sg75
(lp4551
g133
asbasbasbag68
(g84
g70
NtRp4552
(dp4553
g73
(dp4554
sg82
g3488
sg75
(lp4555
g68
(g89
g70
NtRp4556
(dp4557
g73
(dp4558
g93
g94
ssg82
g4552
sg75
(lp4559
g2381
asbag68
(g89
g70
NtRp4560
(dp4561
g73
(dp4562
g100
g101
ssg82
g4552
sg75
(lp4563
S':'
asbag68
(g89
g70
NtRp4564
(dp4565
g73
(dp4566
sg82
g4552
sg75
(lp4567
g68
(g69
g70
NtRp4568
(dp4569
g73
(dp4570
g81
I5
ssg82
g4564
sg75
(lp4571
g2394
asbasbasbag68
(g84
g70
NtRp4572
(dp4573
g73
(dp4574
sg82
g3488
sg75
(lp4575
g68
(g89
g70
NtRp4576
(dp4577
g73
(dp4578
g93
g94
ssg82
g4572
sg75
(lp4579
S'view'
p4580
asbag68
(g89
g70
NtRp4581
(dp4582
g73
(dp4583
g100
g101
ssg82
g4572
sg75
(lp4584
S':'
asbag68
(g89
g70
NtRp4585
(dp4586
g73
(dp4587
sg82
g4572
sg75
(lp4588
g68
(g69
g70
NtRp4589
(dp4590
g73
(dp4591
g81
I5
ssg82
g4585
sg75
(lp4592
S'information/new.html'
p4593
asbasbasbasbasbsS'locals'
p4594
(dp4595
g3
S"'/home/kaique/Projects/web2py/applications/synopsis/views/information/new.html'"
p4596
sg5
S'\'response.write(\\\'<!DOCTYPE html>\\\\n<html lang="\\\', ...nse.write(\\\'\\\\n  </body>\\\\n</html>\\\\n\\\', escape=False)\''
p4597
sssS'traceback'
p4598
S'Traceback (most recent call last):\n  File "/home/kaique/Projects/web2py/gluon/restricted.py", line 193, in restricted\n    ccode = compile2(code,layer)\n  File "/home/kaique/Projects/web2py/gluon/restricted.py", line 179, in compile2\n    return compile(code.rstrip().replace(\'\\r\\n\',\'\\n\')+\'\\n\', layer, \'exec\')\n  File "/home/kaique/Projects/web2py/applications/synopsis/views/information/new.html", line 89\n    response.write(\'\\t\\n\\t\\t\\t\\t\', escape=False)\n           ^\nSyntaxError: invalid syntax\n'
p4599
s.