(dp1
S'output'
p2
S''
sS'layer'
p3
S'/home/kaique/Projects/web2py/applications/synopsis/views/information/publication.html'
p4
sS'code'
p5
S'response.write(\'<!DOCTYPE html>\\n<html lang="\', escape=False)\nresponse.write(T.accepted_language or \'en\')\nresponse.write(\'" class="no-js"><!-- no-js need it for modernzr -->\\n  <head>\\n    \\n    <meta charset="utf-8" />        \\n    <!-- www.phpied.com/conditional-comments-block-downloads/ -->\\n    <!--[if IE]>\\n      <!-- Always force latest IE rendering engine \\n       (even in intranet) & Chrome Frame \\n       Remove this if you use the .htaccess -->\\n      <meta http-equiv="X-UA-Compatible" content="IE=edge,chrome=1">\\n    <![endif]-->    \\n\\n    <title>\', escape=False)\nresponse.write(response.title or request.application)\nresponse.write(\'</title>\\n    \\n    <!-- http://dev.w3.org/html5/markup/meta.name.html -->\\n    <meta name="application-name" content="\', escape=False)\nresponse.write(request.application)\nresponse.write(\'" /> \\n    \\n    <!-- Speaking of Google, don\\\'t forget to set your site up: \\n     http://google.com/webmasters -->\\n    <meta name="google-site-verification" content="" />\\n    \\n    <!--  Mobile Viewport Fix\\n      j.mp/mobileviewport & davidbcalhoun.com/2010/viewport-metatag \\n      device-width: Occupy full width of the screen in its current orientation\\n      initial-scale = 1.0 retains dimensions instead of zooming out if page height > device height\\n      maximum-scale = 1.0 retains dimensions instead of zooming in if page width < device width\\n      -->\\n    <meta name="viewport" content="width=device-width, initial-scale=1.0, maximum-scale=1.0">\\n    \\n    <!-- Place favicon.ico and apple-touch-icon.png in the root of your domain and delete these references -->\\n    <link rel="shortcut icon" href="\', escape=False)\nresponse.write(URL(\'static\',\'favicon.ico\'))\nresponse.write(\'" type="image/x-icon">\\n    <link rel="apple-touch-icon" href="\', escape=False)\nresponse.write(URL(\'static\',\'favicon.png\'))\nresponse.write(\'">\\n\\n    <!-- For the less-enabled mobile browsers like Opera Mini -->\\n    <link rel="stylesheet" media="handheld" href="\', escape=False)\nresponse.write(URL(\'static\',\'css/handheld.css\'))\nresponse.write(\'">\\n    \\n    <!-- All JavaScript at the bottom, except for Modernizr which enables HTML5 elements & feature detects -->\\n    <script src="\', escape=False)\nresponse.write(URL(\'static\',\'js/modernizr-1.7.min.js\'))\nresponse.write(\'"></script>\\n    \\n    \', escape=False)\n#------  require CSS and JS files for this page (read info in base.css) ------\nresponse.write(\'\\n    \', escape=False)\nresponse.files.append(URL(\'static\',\'css/base.css\'))\nresponse.write(\'\\n    \', escape=False)\nresponse.files.append(URL(\'static\',\'css/superfish.css\'))\nresponse.write(\'\\n    \', escape=False)\nresponse.files.append(URL(\'static\',\'js/superfish.js\'))\nresponse.write(\'\\n    \', escape=False)\n#------ include web2py specific js code (jquery, calendar, form stuff) ------\nresponse.write(\'\\n    \', escape=False)\nresponse.files.insert(0,URL(\'static\',\'js/jquery.js\'))\nresponse.files.insert(1,URL(\'static\',\'css/anytime.css\'))\nresponse.files.insert(2,URL(\'static\',\'js/anytime.js\'))\nresponse.include_meta()\nresponse.include_files()\nresponse.write(\'\\n<script type="text/javascript"><!--\\n    // These variables are used by the web2py_ajax_init function in web2py_ajax.js (which is loaded below).\\n    var w2p_ajax_confirm_message = "\', escape=False)\nresponse.write(T(\'Are you sure you want to delete this object?\'))\nresponse.write(\'";\\n    var w2p_ajax_date_format = "\', escape=False)\nresponse.write(T(\'%Y-%m-%d\'))\nresponse.write(\'";\\n    var w2p_ajax_datetime_format = "\', escape=False)\nresponse.write(T(\'%Y-%m-%d %H:%M:%S\'))\nresponse.write(\'";\\n    //--></script>\\n    <script src="\', escape=False)\nresponse.write(URL(\'static\',\'js/web2py_ajax.js\'))\nresponse.write(\'" type="text/javascript"></script>\\n\', escape=False)\nresponse.write(\'\\n\\n    \', escape=False)\n#using sidebars need to know what sidebar you want to use\n#prior of using it, because of static width size of content, you can use\n#left_sidebar, right_sidebar, both or none (False left and right)\nleft_sidebar_enabled = globals().get(\'left_sidebar_enabled\',False)\nright_sidebar_enabled = globals().get(\'right_sidebar_enabled\',False)\nif left_sidebar_enabled and right_sidebar_enabled: width_content=\'63%\'\nelif left_sidebar_enabled != right_sidebar_enabled: width_content=\'740px\'\nelse: width_content=\'100%\'\nif left_sidebar_enabled: left_sidebar_style = \'style="display: block;"\'\nelse: left_sidebar_style = \'style="display: none;"\'\nif right_sidebar_enabled: right_sidebar_style = \'style="display: block;"\'\nelse: right_sidebar_style = \'style="display: none;"\'\nstyle_content = \'style="width: %s"\' % width_content\nresponse.write(\'\\n    \\n    <!-- uncomment here to load jquery-ui -->\\n    \\n    <link rel="stylesheet" href="http://ajax.googleapis.com/ajax/libs/jqueryui/1.8.16/themes/base/jquery-ui.css" type="text/css" media="all" />\\n    <script src="http://ajax.googleapis.com/ajax/libs/jqueryui/1.8.16/jquery-ui.min.js" type="text/javascript"></script>\\n    \\n   <!-- uncomment to load jquery-ui -->\\n    \\n    \\n  </head>\\n  \\n  <!-- paulirish.com/2008/conditional-stylesheets-vs-css-hacks-answer-neither/ -->  \\n  <!--[if lt IE 7 ]> <body class="ie6"> <![endif]-->\\n  <!--[if IE 7 ]>    <body class="ie7"> <![endif]-->\\n  <!--[if IE 8 ]>    <body class="ie8"> <![endif]-->\\n  <!--[if IE 9 ]>    <body class="ie9"> <![endif]-->\\n  <!--[if (gt IE 9)|!(IE)]><!--> <body> <!--<![endif]-->\\n    \\n    <div class="flash">\', escape=False)\nresponse.write(response.flash or \'\')\nresponse.write(\'</div> <!-- notification div -->\\n\\n        \\n\\n    <div id="container">                        \\n      \\n      <div id="wrapper">        \\n      \', escape=False)\ntry:\n    response.write(auth.navbar(action=URL(\'default\',\'user\')))\nexcept:pass\nresponse.write(\'\\n    \\n    <div id="header"> <!-- header and login nav -->\\n      \', escape=False)\nresponse.write(\' <!-- this is default header -->\\n      \\n      <h1>\\n        <span id="appname">\', escape=False)\nresponse.write(request.application.capitalize())\nresponse.write(\'</span>App\\n      </h1>\\n      <div style="clear: both;"></div><!-- Clear the divs -->\\n      \', escape=False)\nresponse.write(\'\\n    </div><!-- header  -->\\n    \\n    <div id="statusbar"><!-- statusbar is menu zone -->\\n      \', escape=False)\nresponse.write(\' <!-- this is default statusbar -->\\n      \', escape=False)\n#------ superfish menu ------\nresponse.write(\'\\n      \', escape=False)\nresponse.write(MENU(response.menu,_class=\'sf-menu\'))\nresponse.write(\'\\n      <script type="text/javascript">\\n        jQuery(document).ready(function(){\\n        jQuery(\\\'ul.sf-menu\\\').superfish();});\\n      </script>\\n\\n      <!-- AddToAny BEGIN -->\\n      <div style="padding: 7px; float:right;" class="a2a_kit a2a_default_style"><a class="a2a_dd" href="http://www.addtoany.com/share_save">Share</a></div><script type="text/javascript" src="http://static.addtoany.com/menu/page.js"></script>\\n      <!-- AddToAny END -->\\n\\n      <div style="clear: both;"></div><!-- Clear the divs -->   \\n      \', escape=False)\nresponse.write(\'               \\n    </div><!-- statusbar -->\\n    \\n    <div id="page"> <!-- Here my central body -->     \\n\\n      \', escape=False)\nif left_sidebar_enabled:\n    response.write(\'\\n          <div id="left_sidebar" \', escape=False)\n    response.write(XML(left_sidebar_style))\n    response.write(\' >\\n            <div style="padding: 4px;">\\n          \', escape=False)\n    response.write(\'Content Left Sidebar\', escape=False)\n    response.write(\'       \\n            </div>\\n          </div><!-- left_sidebar -->\\n      \', escape=False)\n    pass\nresponse.write(\'\\n\\n      <!-- content -->\\n      <div id="content" \', escape=False)\nresponse.write(XML(style_content))\nresponse.write(\' >\\n        \', escape=False)\nresponse.write(\'\\n\\n<div class="content">\\n\\t<section>\\n\\t\\t<article>\\n\\t\\t\\t\', escape=False)\nfor detail in publication:\n    response.write(\'\\n\\t\\t\\t<header>\\n\\t\\t\\t\\t\', escape=False)\n    response.write(A( T(\'Go to publications\'), _href=URL(\'information\', \'profile\', args=[session.index]) ))\n    response.write(\' |\\n\\t\\t\\t\\t\', escape=False)\n    response.write(A(T(\'Insert a new column\'), _href=URL(\'new\', args=[\'column\', request.args[0]]) ))\n    response.write(\'\\n\\t\\t\\t\\t<hr />\\n\\t\\t\\t\\t<h1>\', escape=False)\n    response.write(detail.title)\n    response.write(\'</h1>\\n\\t\\t\\t\\t<h4 style="font-weight: 200;">\', escape=False)\n    if detail.sub_title:\n        response.write(\' \', escape=False)\n        response.write(detail.sub_title)\n        response.write(\' \', escape=False)\n        pass\n    response.write(\'</h4>\\n\\t\\t\\t\\t<hr />\\n\\t\\t\\t</header>\\n\\t\\t\\t<div>\\t\\n\\t\\t\\t\\t<table style="border: 1px solid #ccc; margin: 10px 0 10px;">\\n\\t\\t\\t\\t\\t<thead>\\n\\t\\t\\t\\t\\t\\t<tr>\\n\\t\\t\\t\\t\\t\\t\\t\', escape=False)\n    for column in detail.column.select():\n        response.write(\'\\n\\t\\t\\t\\t\\t\\t\\t\\t<td>\', escape=False)\n        response.write(A(column.title, _href=URL(\'new\', args=[\'row\', column.id])))\n        response.write(\'</td>\\n\\t\\t\\t\\t\\t\\t\\t\', escape=False)\n        pass\n    response.write(\'\\t\\t\\t\\t\\t\\t\\t\\n\\t\\t\\t\\t\\t\\t</tr>\\n\\t\\t\\t\\t\\t</thead>\\n\\t\\t\\t\\t\\t<tbody>\\n\\t\\t\\t\\t\\t\\t\', escape=False)\n    lines = []\n    response.write(\'\\n\\t\\t\\t\\t\\t\\t\', escape=False)\n    ids = []\n    response.write(\'\\n\\t\\t\\t\\t\\t\\t\', escape=False)\n    for column in detail.column.select():\n        response.write(\'\\n\\t\\t\\t\\t\\t\\t\\t\', escape=False)\n        for row in column.row.select():\n            response.write(\'\\n\\t\\t\\t\\t\\t\\t\\t\\t\\n\\t\\t\\t\\t\\t\\t\\t\\t\', escape=False)\n            if not ids:\n                response.write(\'\\n\\t\\t\\t\\t\\t\\t\\t\\t\\t\', escape=False)\n                ids.append(row.column_id)\n                response.write(\'\\n\\t\\t\\t\\t\\t\\t\\t\\t\\t\', escape=False)\n                lines.append(TR(row.content))\n                response.write(\'\\n\\t\\t\\t\\t\\t\\t\\t\\t\', escape=False)\n            elif ids:\n                response.write(\'\\n\\t\\t\\t\\t\\t\\t\\t\\t\\t\', escape=False)\n                if row.column_id in ids:\n                    response.write(\'\\n\\t\\t\\t\\t\\t\\t\\t\\t\\t\\t\', escape=False)\n                    lines.append(TR(row.content))\n                    response.write(\'\\n\\t\\t\\t\\t\\t\\t\\t\\t\\t\', escape=False)\n                elif row.column_id not ids\n                response.write(\'\\n\\t\\t\\t\\t\\t\\t\\t\\t\\t\\t\', escape=False)\n                for l in lines:\n                    response.write(\'\\n\\t\\t\\t\\t\\t\\t\\t\\t\\t\\t\\t\', escape=False)\n                    l.append(TD(row.content))\n                    response.write(\'\\n\\t\\t\\t\\t\\t\\t\\t\\t\\t\\t\', escape=False)\n                    pass\n                response.write(\'\\n\\t\\t\\t\\t\\t\\t\\t\\t\\t\', escape=False)\n                pass\n            response.write(\'\\n\\t\\t\\t\\t\\t\\t\\t\\t\', escape=False)\n            pass\n        response.write(\'\\n\\t\\t\\t\\t\\t\\t\\t\\t\\n\\t\\t\\t\\t\\t\\t\\t\', escape=False)\n        pass\n    response.write(\'\\n\\t\\t\\t\\t\\t\\t\', escape=False)\n    pass\nresponse.write(\'\\n\\t\\t\\t\\t\\t\\t\\n\\t\\t\\t\\t\\t\\t\', escape=False)\nresponse.write(ids)\nresponse.write(\'\\n\\t\\t\\t\\t\\t\\t\\n\\t\\t\\t\\t\\t\\t\', escape=False)\nfor row in lines:\n    response.write(\'\\n\\t\\t\\t\\t\\t\\t\\t\', escape=False)\n    response.write(row)\n    response.write(\'\\n\\t\\t\\t\\t\\t\\t\', escape=False)\n    pass\nresponse.write(\'\\n\\t\\t\\t\\t\\t</tbody>\\n\\t\\t\\t\\t</table>\\n\\t\\t\\t\\t<div classs="quote">\\n\\t\\t\\t\\t\', escape=False)\nfor quote in detail.quote.select():\n    response.write(\'\\n\\t\\t\\t\\t\\t<p>\', escape=False)\n    response.write(quote.content)\n    response.write(\'</p>\\n\\t\\t\\t\\t\', escape=False)\n    pass\nresponse.write(\'\\n\\t\\t\\t\\t</div>\\n\\t\\t\\t</div>\\n\\t\\t\\t\', escape=False)\npass\nresponse.write(\'\\n\\t\\t</article>\\n\\t</section>\\n</div>\\n\', escape=False)\nresponse.write(\' \\n      </div>\\n      <!-- content -->\\n\\n      \', escape=False)\nif right_sidebar_enabled:\n    response.write(\'\\n          <div id="right_sidebar" \', escape=False)\n    response.write(XML(right_sidebar_style))\n    response.write(\' >\\n            <div style="padding: 4px;">\\n              \', escape=False)\n    response.write(\'Content Right Sidebar\', escape=False)\n    response.write(\'\\n            </div>\\n      </div><!-- right_sidebar -->\\n          \', escape=False)\n    pass\nresponse.write(\'\\n\\n\\n      <div style="clear: both;"></div><!-- Clear the divs -->\\n      \\n    </div><!-- page -->                         \\n    \\n    <div id="footer">\\n      \', escape=False)\nresponse.write(\' <!-- this is default footer -->\\n      <a href="http://www.web2py.com/" style="float: left; padding-right: 6px;">\\n        <img src="\', escape=False)\nresponse.write(URL(\'static\',\'images/poweredby.png\'))\nresponse.write(\'"/>\\n      </a>\\n      \', escape=False)\nresponse.write(T(\'Copyright\'))\nresponse.write(\' &#169; 2011               \\n      <div style="clear: both;"></div><!-- Clear the divs -->\\n      \', escape=False)\nresponse.write(\'\\n\\n    </div><!-- footer -->           \\n      </div><!-- wrapper -->\\n    </div><!-- container -->        \\n    \\n    <!--[if lt IE 7 ]>\\n    <script src="\', escape=False)\nresponse.write(URL(\'static\',\'js/dd_belatedpng.js\'))\nresponse.write(\'"></script>\\n    <script> DD_belatedPNG.fix(\\\'img, .png_bg\\\'); //fix any <img> or .png_bg background-images </script>\\n    <![endif]-->\\n    \', escape=False)\nif response.google_analytics_id:\n    response.write("<script>/* http://mathiasbynens.be/notes/async-analytics-snippet */ var _gaq=[[\'_setAccount\',\'", escape=False)\n    response.write(response.google_analyitics_id)\n    response.write("\'],[\'_trackPageview\']];(function(d,t){var g=d.createElement(t),s=d.getElementsByTagName(t)[0];g.src=\'//www.google-analytics.com/ga.js\';s.parentNode.insertBefore(g,s)}(document,\'script\')) </script>", escape=False)\n    pass\nresponse.write(\'\\n  </body>\\n</html>\\n\', escape=False)'
p6
sS'snapshot'
p7
(dp8
S'exception'
p9
(dp10
S'__getslice__'
p11
S"<method-wrapper '__getslice__' of exceptions.SyntaxError object>"
p12
sS'text'
p13
S"'                elif row.column_id not ids\\n'"
p14
sS'__str__'
p15
S"<method-wrapper '__str__' of exceptions.SyntaxError object>"
p16
sS'__reduce__'
p17
S'<built-in method __reduce__ of exceptions.SyntaxError object>'
p18
sS'__dict__'
p19
S'{}'
p20
sS'__sizeof__'
p21
S'<built-in method __sizeof__ of exceptions.SyntaxError object>'
p22
sS'__init__'
p23
S"<method-wrapper '__init__' of exceptions.SyntaxError object>"
p24
sS'__setattr__'
p25
S"<method-wrapper '__setattr__' of exceptions.SyntaxError object>"
p26
sS'__reduce_ex__'
p27
S'<built-in method __reduce_ex__ of exceptions.SyntaxError object>'
p28
sS'__new__'
p29
S'<built-in method __new__ of type object>'
p30
sS'__format__'
p31
S'<built-in method __format__ of exceptions.SyntaxError object>'
p32
sS'__class__'
p33
S"<type 'exceptions.SyntaxError'>"
p34
sS'filename'
p35
S"'/home/kaique/Projects/web2py/applications/synopsis/views/information/publication.html'"
p36
sS'lineno'
p37
S'122'
p38
sS'msg'
p39
S"'invalid syntax'"
p40
sS'__doc__'
p41
S"'Invalid syntax.'"
p42
sS'__getitem__'
p43
S"<method-wrapper '__getitem__' of exceptions.SyntaxError object>"
p44
sS'__setstate__'
p45
S'<built-in method __setstate__ of exceptions.SyntaxError object>'
p46
sS'__getattribute__'
p47
S"<method-wrapper '__getattribute__' of exceptions.SyntaxError object>"
p48
sS'print_file_and_line'
p49
S'None'
p50
sS'args'
p51
S"('invalid syntax', ('/home/kaique/Projects/web2py/applications/synopsis/views/information/publication.html', 122, 42, '                elif row.column_id not ids\\n'))"
p52
sS'__subclasshook__'
p53
S'<built-in method __subclasshook__ of type object>'
p54
sS'offset'
p55
S'42'
p56
sS'__unicode__'
p57
S'<built-in method __unicode__ of exceptions.SyntaxError object>'
p58
sS'__delattr__'
p59
S"<method-wrapper '__delattr__' of exceptions.SyntaxError object>"
p60
sS'__repr__'
p61
S"<method-wrapper '__repr__' of exceptions.SyntaxError object>"
p62
sS'__hash__'
p63
S"<method-wrapper '__hash__' of exceptions.SyntaxError object>"
p64
ssS'evalue'
p65
S'invalid syntax (publication.html, line 122)'
p66
sS'request'
p67
ccopy_reg
_reconstructor
p68
(cgluon.html
BEAUTIFY
p69
c__builtin__
object
p70
NtRp71
(dp72
S'attributes'
p73
(dp74
sS'components'
p75
(lp76
g68
(cgluon.html
TABLE
p77
g70
NtRp78
(dp79
g73
(dp80
S'level'
p81
I5
ssS'parent'
p82
Nsg75
(lp83
g68
(cgluon.html
TR
p84
g70
NtRp85
(dp86
g73
(dp87
sg82
g78
sg75
(lp88
g68
(cgluon.html
TD
p89
g70
NtRp90
(dp91
g73
(dp92
S'_style'
p93
S'font-weight:bold;'
p94
ssg82
g85
sg75
(lp95
S'ajax'
p96
asbag68
(g89
g70
NtRp97
(dp98
g73
(dp99
S'_valign'
p100
S'top'
p101
ssg82
g85
sg75
(lp102
S':'
asbag68
(g89
g70
NtRp103
(dp104
g73
(dp105
sg82
g85
sg75
(lp106
g68
(g69
g70
NtRp107
(dp108
g73
(dp109
g81
I5
ssg82
g103
sg75
(lp110
S'False'
p111
asbasbasbag68
(g84
g70
NtRp112
(dp113
g73
(dp114
sg82
g78
sg75
(lp115
g68
(g89
g70
NtRp116
(dp117
g73
(dp118
g93
g94
ssg82
g112
sg75
(lp119
S'application'
p120
asbag68
(g89
g70
NtRp121
(dp122
g73
(dp123
g100
g101
ssg82
g112
sg75
(lp124
S':'
asbag68
(g89
g70
NtRp125
(dp126
g73
(dp127
sg82
g112
sg75
(lp128
g68
(g69
g70
NtRp129
(dp130
g73
(dp131
g81
I5
ssg82
g125
sg75
(lp132
S'synopsis'
p133
asbasbasbag68
(g84
g70
NtRp134
(dp135
g73
(dp136
sg82
g78
sg75
(lp137
g68
(g89
g70
NtRp138
(dp139
g73
(dp140
g93
g94
ssg82
g134
sg75
(lp141
g51
asbag68
(g89
g70
NtRp142
(dp143
g73
(dp144
g100
g101
ssg82
g134
sg75
(lp145
S':'
asbag68
(g89
g70
NtRp146
(dp147
g73
(dp148
sg82
g134
sg75
(lp149
g68
(g69
g70
NtRp150
(dp151
g73
(dp152
g81
I5
ssg82
g146
sg75
(lp153
g68
(g77
g70
NtRp154
(dp155
g73
(dp156
g81
I4
ssg82
Nsg75
(lp157
g68
(g84
g70
NtRp158
(dp159
g73
(dp160
sg82
g154
sg75
(lp161
g68
(g89
g70
NtRp162
(dp163
g73
(dp164
sg82
g158
sg75
(lp165
g68
(g69
g70
NtRp166
(dp167
g73
(dp168
g81
I4
ssg82
g162
sg75
(lp169
S'1'
asbasbasbasbasbasbasbag68
(g84
g70
NtRp170
(dp171
g73
(dp172
sg82
g78
sg75
(lp173
g68
(g89
g70
NtRp174
(dp175
g73
(dp176
g93
g94
ssg82
g170
sg75
(lp177
S'body'
p178
asbag68
(g89
g70
NtRp179
(dp180
g73
(dp181
g100
g101
ssg82
g170
sg75
(lp182
S':'
asbag68
(g89
g70
NtRp183
(dp184
g73
(dp185
sg82
g170
sg75
(lp186
g68
(g69
g70
NtRp187
(dp188
g73
(dp189
g81
I5
ssg82
g183
sg75
(lp190
S'<cStringIO.StringO object at 0x2a300d8>'
p191
asbasbasbag68
(g84
g70
NtRp192
(dp193
g73
(dp194
sg82
g78
sg75
(lp195
g68
(g89
g70
NtRp196
(dp197
g73
(dp198
g93
g94
ssg82
g192
sg75
(lp199
S'client'
p200
asbag68
(g89
g70
NtRp201
(dp202
g73
(dp203
g100
g101
ssg82
g192
sg75
(lp204
S':'
asbag68
(g89
g70
NtRp205
(dp206
g73
(dp207
sg82
g192
sg75
(lp208
g68
(g69
g70
NtRp209
(dp210
g73
(dp211
g81
I5
ssg82
g205
sg75
(lp212
S'127.0.0.1'
p213
asbasbasbag68
(g84
g70
NtRp214
(dp215
g73
(dp216
sg82
g78
sg75
(lp217
g68
(g89
g70
NtRp218
(dp219
g73
(dp220
g93
g94
ssg82
g214
sg75
(lp221
S'controller'
p222
asbag68
(g89
g70
NtRp223
(dp224
g73
(dp225
g100
g101
ssg82
g214
sg75
(lp226
S':'
asbag68
(g89
g70
NtRp227
(dp228
g73
(dp229
sg82
g214
sg75
(lp230
g68
(g69
g70
NtRp231
(dp232
g73
(dp233
g81
I5
ssg82
g227
sg75
(lp234
S'information'
p235
asbasbasbag68
(g84
g70
NtRp236
(dp237
g73
(dp238
sg82
g78
sg75
(lp239
g68
(g89
g70
NtRp240
(dp241
g73
(dp242
g93
g94
ssg82
g236
sg75
(lp243
S'cookies'
p244
asbag68
(g89
g70
NtRp245
(dp246
g73
(dp247
g100
g101
ssg82
g236
sg75
(lp248
S':'
asbag68
(g89
g70
NtRp249
(dp250
g73
(dp251
sg82
g236
sg75
(lp252
g68
(g69
g70
NtRp253
(dp254
g73
(dp255
g81
I5
ssg82
g249
sg75
(lp256
g68
(g77
g70
NtRp257
(dp258
g73
(dp259
g81
I4
ssg82
Nsg75
(lp260
g68
(g84
g70
NtRp261
(dp262
g73
(dp263
sg82
g257
sg75
(lp264
g68
(g89
g70
NtRp265
(dp266
g73
(dp267
g93
g94
ssg82
g261
sg75
(lp268
S'PHPSESSID'
p269
asbag68
(g89
g70
NtRp270
(dp271
g73
(dp272
g100
g101
ssg82
g261
sg75
(lp273
S':'
asbag68
(g89
g70
NtRp274
(dp275
g73
(dp276
sg82
g261
sg75
(lp277
g68
(g69
g70
NtRp278
(dp279
g73
(dp280
g81
I4
ssg82
g274
sg75
(lp281
g68
(g77
g70
NtRp282
(dp283
g73
(dp284
g81
I3
ssg82
Nsg75
(lp285
g68
(g84
g70
NtRp286
(dp287
g73
(dp288
sg82
g282
sg75
(lp289
g68
(g89
g70
NtRp290
(dp291
g73
(dp292
g93
g94
ssg82
g286
sg75
(lp293
S'comment'
p294
asbag68
(g89
g70
NtRp295
(dp296
g73
(dp297
g100
g101
ssg82
g286
sg75
(lp298
S':'
asbag68
(g89
g70
NtRp299
(dp300
g73
(dp301
sg82
g286
sg75
(lp302
g68
(g69
g70
NtRp303
(dp304
g73
(dp305
g81
I3
ssg82
g299
sg75
(lp306
S''
asbasbasbag68
(g84
g70
NtRp307
(dp308
g73
(dp309
sg82
g282
sg75
(lp310
g68
(g89
g70
NtRp311
(dp312
g73
(dp313
g93
g94
ssg82
g307
sg75
(lp314
S'domain'
p315
asbag68
(g89
g70
NtRp316
(dp317
g73
(dp318
g100
g101
ssg82
g307
sg75
(lp319
S':'
asbag68
(g89
g70
NtRp320
(dp321
g73
(dp322
sg82
g307
sg75
(lp323
g68
(g69
g70
NtRp324
(dp325
g73
(dp326
g81
I3
ssg82
g320
sg75
(lp327
S''
asbasbasbag68
(g84
g70
NtRp328
(dp329
g73
(dp330
sg82
g282
sg75
(lp331
g68
(g89
g70
NtRp332
(dp333
g73
(dp334
g93
g94
ssg82
g328
sg75
(lp335
S'expires'
p336
asbag68
(g89
g70
NtRp337
(dp338
g73
(dp339
g100
g101
ssg82
g328
sg75
(lp340
S':'
asbag68
(g89
g70
NtRp341
(dp342
g73
(dp343
sg82
g328
sg75
(lp344
g68
(g69
g70
NtRp345
(dp346
g73
(dp347
g81
I3
ssg82
g341
sg75
(lp348
S''
asbasbasbag68
(g84
g70
NtRp349
(dp350
g73
(dp351
sg82
g282
sg75
(lp352
g68
(g89
g70
NtRp353
(dp354
g73
(dp355
g93
g94
ssg82
g349
sg75
(lp356
S'httponly'
p357
asbag68
(g89
g70
NtRp358
(dp359
g73
(dp360
g100
g101
ssg82
g349
sg75
(lp361
S':'
asbag68
(g89
g70
NtRp362
(dp363
g73
(dp364
sg82
g349
sg75
(lp365
g68
(g69
g70
NtRp366
(dp367
g73
(dp368
g81
I3
ssg82
g362
sg75
(lp369
S''
asbasbasbag68
(g84
g70
NtRp370
(dp371
g73
(dp372
sg82
g282
sg75
(lp373
g68
(g89
g70
NtRp374
(dp375
g73
(dp376
g93
g94
ssg82
g370
sg75
(lp377
S'max-age'
p378
asbag68
(g89
g70
NtRp379
(dp380
g73
(dp381
g100
g101
ssg82
g370
sg75
(lp382
S':'
asbag68
(g89
g70
NtRp383
(dp384
g73
(dp385
sg82
g370
sg75
(lp386
g68
(g69
g70
NtRp387
(dp388
g73
(dp389
g81
I3
ssg82
g383
sg75
(lp390
S''
asbasbasbag68
(g84
g70
NtRp391
(dp392
g73
(dp393
sg82
g282
sg75
(lp394
g68
(g89
g70
NtRp395
(dp396
g73
(dp397
g93
g94
ssg82
g391
sg75
(lp398
S'path'
p399
asbag68
(g89
g70
NtRp400
(dp401
g73
(dp402
g100
g101
ssg82
g391
sg75
(lp403
S':'
asbag68
(g89
g70
NtRp404
(dp405
g73
(dp406
sg82
g391
sg75
(lp407
g68
(g69
g70
NtRp408
(dp409
g73
(dp410
g81
I3
ssg82
g404
sg75
(lp411
S''
asbasbasbag68
(g84
g70
NtRp412
(dp413
g73
(dp414
sg82
g282
sg75
(lp415
g68
(g89
g70
NtRp416
(dp417
g73
(dp418
g93
g94
ssg82
g412
sg75
(lp419
S'secure'
p420
asbag68
(g89
g70
NtRp421
(dp422
g73
(dp423
g100
g101
ssg82
g412
sg75
(lp424
S':'
asbag68
(g89
g70
NtRp425
(dp426
g73
(dp427
sg82
g412
sg75
(lp428
g68
(g69
g70
NtRp429
(dp430
g73
(dp431
g81
I3
ssg82
g425
sg75
(lp432
S''
asbasbasbag68
(g84
g70
NtRp433
(dp434
g73
(dp435
sg82
g282
sg75
(lp436
g68
(g89
g70
NtRp437
(dp438
g73
(dp439
g93
g94
ssg82
g433
sg75
(lp440
S'version'
p441
asbag68
(g89
g70
NtRp442
(dp443
g73
(dp444
g100
g101
ssg82
g433
sg75
(lp445
S':'
asbag68
(g89
g70
NtRp446
(dp447
g73
(dp448
sg82
g433
sg75
(lp449
g68
(g69
g70
NtRp450
(dp451
g73
(dp452
g81
I3
ssg82
g446
sg75
(lp453
S''
asbasbasbasbasbasbasbag68
(g84
g70
NtRp454
(dp455
g73
(dp456
sg82
g257
sg75
(lp457
g68
(g89
g70
NtRp458
(dp459
g73
(dp460
g93
g94
ssg82
g454
sg75
(lp461
S'currency'
p462
asbag68
(g89
g70
NtRp463
(dp464
g73
(dp465
g100
g101
ssg82
g454
sg75
(lp466
S':'
asbag68
(g89
g70
NtRp467
(dp468
g73
(dp469
sg82
g454
sg75
(lp470
g68
(g69
g70
NtRp471
(dp472
g73
(dp473
g81
I4
ssg82
g467
sg75
(lp474
g68
(g77
g70
NtRp475
(dp476
g73
(dp477
g81
I3
ssg82
Nsg75
(lp478
g68
(g84
g70
NtRp479
(dp480
g73
(dp481
sg82
g475
sg75
(lp482
g68
(g89
g70
NtRp483
(dp484
g73
(dp485
g93
g94
ssg82
g479
sg75
(lp486
g294
asbag68
(g89
g70
NtRp487
(dp488
g73
(dp489
g100
g101
ssg82
g479
sg75
(lp490
S':'
asbag68
(g89
g70
NtRp491
(dp492
g73
(dp493
sg82
g479
sg75
(lp494
g68
(g69
g70
NtRp495
(dp496
g73
(dp497
g81
I3
ssg82
g491
sg75
(lp498
S''
asbasbasbag68
(g84
g70
NtRp499
(dp500
g73
(dp501
sg82
g475
sg75
(lp502
g68
(g89
g70
NtRp503
(dp504
g73
(dp505
g93
g94
ssg82
g499
sg75
(lp506
g315
asbag68
(g89
g70
NtRp507
(dp508
g73
(dp509
g100
g101
ssg82
g499
sg75
(lp510
S':'
asbag68
(g89
g70
NtRp511
(dp512
g73
(dp513
sg82
g499
sg75
(lp514
g68
(g69
g70
NtRp515
(dp516
g73
(dp517
g81
I3
ssg82
g511
sg75
(lp518
S''
asbasbasbag68
(g84
g70
NtRp519
(dp520
g73
(dp521
sg82
g475
sg75
(lp522
g68
(g89
g70
NtRp523
(dp524
g73
(dp525
g93
g94
ssg82
g519
sg75
(lp526
g336
asbag68
(g89
g70
NtRp527
(dp528
g73
(dp529
g100
g101
ssg82
g519
sg75
(lp530
S':'
asbag68
(g89
g70
NtRp531
(dp532
g73
(dp533
sg82
g519
sg75
(lp534
g68
(g69
g70
NtRp535
(dp536
g73
(dp537
g81
I3
ssg82
g531
sg75
(lp538
S''
asbasbasbag68
(g84
g70
NtRp539
(dp540
g73
(dp541
sg82
g475
sg75
(lp542
g68
(g89
g70
NtRp543
(dp544
g73
(dp545
g93
g94
ssg82
g539
sg75
(lp546
g357
asbag68
(g89
g70
NtRp547
(dp548
g73
(dp549
g100
g101
ssg82
g539
sg75
(lp550
S':'
asbag68
(g89
g70
NtRp551
(dp552
g73
(dp553
sg82
g539
sg75
(lp554
g68
(g69
g70
NtRp555
(dp556
g73
(dp557
g81
I3
ssg82
g551
sg75
(lp558
S''
asbasbasbag68
(g84
g70
NtRp559
(dp560
g73
(dp561
sg82
g475
sg75
(lp562
g68
(g89
g70
NtRp563
(dp564
g73
(dp565
g93
g94
ssg82
g559
sg75
(lp566
g378
asbag68
(g89
g70
NtRp567
(dp568
g73
(dp569
g100
g101
ssg82
g559
sg75
(lp570
S':'
asbag68
(g89
g70
NtRp571
(dp572
g73
(dp573
sg82
g559
sg75
(lp574
g68
(g69
g70
NtRp575
(dp576
g73
(dp577
g81
I3
ssg82
g571
sg75
(lp578
S''
asbasbasbag68
(g84
g70
NtRp579
(dp580
g73
(dp581
sg82
g475
sg75
(lp582
g68
(g89
g70
NtRp583
(dp584
g73
(dp585
g93
g94
ssg82
g579
sg75
(lp586
g399
asbag68
(g89
g70
NtRp587
(dp588
g73
(dp589
g100
g101
ssg82
g579
sg75
(lp590
S':'
asbag68
(g89
g70
NtRp591
(dp592
g73
(dp593
sg82
g579
sg75
(lp594
g68
(g69
g70
NtRp595
(dp596
g73
(dp597
g81
I3
ssg82
g591
sg75
(lp598
S''
asbasbasbag68
(g84
g70
NtRp599
(dp600
g73
(dp601
sg82
g475
sg75
(lp602
g68
(g89
g70
NtRp603
(dp604
g73
(dp605
g93
g94
ssg82
g599
sg75
(lp606
g420
asbag68
(g89
g70
NtRp607
(dp608
g73
(dp609
g100
g101
ssg82
g599
sg75
(lp610
S':'
asbag68
(g89
g70
NtRp611
(dp612
g73
(dp613
sg82
g599
sg75
(lp614
g68
(g69
g70
NtRp615
(dp616
g73
(dp617
g81
I3
ssg82
g611
sg75
(lp618
S''
asbasbasbag68
(g84
g70
NtRp619
(dp620
g73
(dp621
sg82
g475
sg75
(lp622
g68
(g89
g70
NtRp623
(dp624
g73
(dp625
g93
g94
ssg82
g619
sg75
(lp626
g441
asbag68
(g89
g70
NtRp627
(dp628
g73
(dp629
g100
g101
ssg82
g619
sg75
(lp630
S':'
asbag68
(g89
g70
NtRp631
(dp632
g73
(dp633
sg82
g619
sg75
(lp634
g68
(g69
g70
NtRp635
(dp636
g73
(dp637
g81
I3
ssg82
g631
sg75
(lp638
S''
asbasbasbasbasbasbasbag68
(g84
g70
NtRp639
(dp640
g73
(dp641
sg82
g257
sg75
(lp642
g68
(g89
g70
NtRp643
(dp644
g73
(dp645
g93
g94
ssg82
g639
sg75
(lp646
S'session_id_admin'
p647
asbag68
(g89
g70
NtRp648
(dp649
g73
(dp650
g100
g101
ssg82
g639
sg75
(lp651
S':'
asbag68
(g89
g70
NtRp652
(dp653
g73
(dp654
sg82
g639
sg75
(lp655
g68
(g69
g70
NtRp656
(dp657
g73
(dp658
g81
I4
ssg82
g652
sg75
(lp659
g68
(g77
g70
NtRp660
(dp661
g73
(dp662
g81
I3
ssg82
Nsg75
(lp663
g68
(g84
g70
NtRp664
(dp665
g73
(dp666
sg82
g660
sg75
(lp667
g68
(g89
g70
NtRp668
(dp669
g73
(dp670
g93
g94
ssg82
g664
sg75
(lp671
g294
asbag68
(g89
g70
NtRp672
(dp673
g73
(dp674
g100
g101
ssg82
g664
sg75
(lp675
S':'
asbag68
(g89
g70
NtRp676
(dp677
g73
(dp678
sg82
g664
sg75
(lp679
g68
(g69
g70
NtRp680
(dp681
g73
(dp682
g81
I3
ssg82
g676
sg75
(lp683
S''
asbasbasbag68
(g84
g70
NtRp684
(dp685
g73
(dp686
sg82
g660
sg75
(lp687
g68
(g89
g70
NtRp688
(dp689
g73
(dp690
g93
g94
ssg82
g684
sg75
(lp691
g315
asbag68
(g89
g70
NtRp692
(dp693
g73
(dp694
g100
g101
ssg82
g684
sg75
(lp695
S':'
asbag68
(g89
g70
NtRp696
(dp697
g73
(dp698
sg82
g684
sg75
(lp699
g68
(g69
g70
NtRp700
(dp701
g73
(dp702
g81
I3
ssg82
g696
sg75
(lp703
S''
asbasbasbag68
(g84
g70
NtRp704
(dp705
g73
(dp706
sg82
g660
sg75
(lp707
g68
(g89
g70
NtRp708
(dp709
g73
(dp710
g93
g94
ssg82
g704
sg75
(lp711
g336
asbag68
(g89
g70
NtRp712
(dp713
g73
(dp714
g100
g101
ssg82
g704
sg75
(lp715
S':'
asbag68
(g89
g70
NtRp716
(dp717
g73
(dp718
sg82
g704
sg75
(lp719
g68
(g69
g70
NtRp720
(dp721
g73
(dp722
g81
I3
ssg82
g716
sg75
(lp723
S''
asbasbasbag68
(g84
g70
NtRp724
(dp725
g73
(dp726
sg82
g660
sg75
(lp727
g68
(g89
g70
NtRp728
(dp729
g73
(dp730
g93
g94
ssg82
g724
sg75
(lp731
g357
asbag68
(g89
g70
NtRp732
(dp733
g73
(dp734
g100
g101
ssg82
g724
sg75
(lp735
S':'
asbag68
(g89
g70
NtRp736
(dp737
g73
(dp738
sg82
g724
sg75
(lp739
g68
(g69
g70
NtRp740
(dp741
g73
(dp742
g81
I3
ssg82
g736
sg75
(lp743
S''
asbasbasbag68
(g84
g70
NtRp744
(dp745
g73
(dp746
sg82
g660
sg75
(lp747
g68
(g89
g70
NtRp748
(dp749
g73
(dp750
g93
g94
ssg82
g744
sg75
(lp751
g378
asbag68
(g89
g70
NtRp752
(dp753
g73
(dp754
g100
g101
ssg82
g744
sg75
(lp755
S':'
asbag68
(g89
g70
NtRp756
(dp757
g73
(dp758
sg82
g744
sg75
(lp759
g68
(g69
g70
NtRp760
(dp761
g73
(dp762
g81
I3
ssg82
g756
sg75
(lp763
S''
asbasbasbag68
(g84
g70
NtRp764
(dp765
g73
(dp766
sg82
g660
sg75
(lp767
g68
(g89
g70
NtRp768
(dp769
g73
(dp770
g93
g94
ssg82
g764
sg75
(lp771
g399
asbag68
(g89
g70
NtRp772
(dp773
g73
(dp774
g100
g101
ssg82
g764
sg75
(lp775
S':'
asbag68
(g89
g70
NtRp776
(dp777
g73
(dp778
sg82
g764
sg75
(lp779
g68
(g69
g70
NtRp780
(dp781
g73
(dp782
g81
I3
ssg82
g776
sg75
(lp783
S''
asbasbasbag68
(g84
g70
NtRp784
(dp785
g73
(dp786
sg82
g660
sg75
(lp787
g68
(g89
g70
NtRp788
(dp789
g73
(dp790
g93
g94
ssg82
g784
sg75
(lp791
g420
asbag68
(g89
g70
NtRp792
(dp793
g73
(dp794
g100
g101
ssg82
g784
sg75
(lp795
S':'
asbag68
(g89
g70
NtRp796
(dp797
g73
(dp798
sg82
g784
sg75
(lp799
g68
(g69
g70
NtRp800
(dp801
g73
(dp802
g81
I3
ssg82
g796
sg75
(lp803
S''
asbasbasbag68
(g84
g70
NtRp804
(dp805
g73
(dp806
sg82
g660
sg75
(lp807
g68
(g89
g70
NtRp808
(dp809
g73
(dp810
g93
g94
ssg82
g804
sg75
(lp811
g441
asbag68
(g89
g70
NtRp812
(dp813
g73
(dp814
g100
g101
ssg82
g804
sg75
(lp815
S':'
asbag68
(g89
g70
NtRp816
(dp817
g73
(dp818
sg82
g804
sg75
(lp819
g68
(g69
g70
NtRp820
(dp821
g73
(dp822
g81
I3
ssg82
g816
sg75
(lp823
S''
asbasbasbasbasbasbasbag68
(g84
g70
NtRp824
(dp825
g73
(dp826
sg82
g257
sg75
(lp827
g68
(g89
g70
NtRp828
(dp829
g73
(dp830
g93
g94
ssg82
g824
sg75
(lp831
S'session_id_synopsis'
p832
asbag68
(g89
g70
NtRp833
(dp834
g73
(dp835
g100
g101
ssg82
g824
sg75
(lp836
S':'
asbag68
(g89
g70
NtRp837
(dp838
g73
(dp839
sg82
g824
sg75
(lp840
g68
(g69
g70
NtRp841
(dp842
g73
(dp843
g81
I4
ssg82
g837
sg75
(lp844
g68
(g77
g70
NtRp845
(dp846
g73
(dp847
g81
I3
ssg82
Nsg75
(lp848
g68
(g84
g70
NtRp849
(dp850
g73
(dp851
sg82
g845
sg75
(lp852
g68
(g89
g70
NtRp853
(dp854
g73
(dp855
g93
g94
ssg82
g849
sg75
(lp856
g294
asbag68
(g89
g70
NtRp857
(dp858
g73
(dp859
g100
g101
ssg82
g849
sg75
(lp860
S':'
asbag68
(g89
g70
NtRp861
(dp862
g73
(dp863
sg82
g849
sg75
(lp864
g68
(g69
g70
NtRp865
(dp866
g73
(dp867
g81
I3
ssg82
g861
sg75
(lp868
S''
asbasbasbag68
(g84
g70
NtRp869
(dp870
g73
(dp871
sg82
g845
sg75
(lp872
g68
(g89
g70
NtRp873
(dp874
g73
(dp875
g93
g94
ssg82
g869
sg75
(lp876
g315
asbag68
(g89
g70
NtRp877
(dp878
g73
(dp879
g100
g101
ssg82
g869
sg75
(lp880
S':'
asbag68
(g89
g70
NtRp881
(dp882
g73
(dp883
sg82
g869
sg75
(lp884
g68
(g69
g70
NtRp885
(dp886
g73
(dp887
g81
I3
ssg82
g881
sg75
(lp888
S''
asbasbasbag68
(g84
g70
NtRp889
(dp890
g73
(dp891
sg82
g845
sg75
(lp892
g68
(g89
g70
NtRp893
(dp894
g73
(dp895
g93
g94
ssg82
g889
sg75
(lp896
g336
asbag68
(g89
g70
NtRp897
(dp898
g73
(dp899
g100
g101
ssg82
g889
sg75
(lp900
S':'
asbag68
(g89
g70
NtRp901
(dp902
g73
(dp903
sg82
g889
sg75
(lp904
g68
(g69
g70
NtRp905
(dp906
g73
(dp907
g81
I3
ssg82
g901
sg75
(lp908
S''
asbasbasbag68
(g84
g70
NtRp909
(dp910
g73
(dp911
sg82
g845
sg75
(lp912
g68
(g89
g70
NtRp913
(dp914
g73
(dp915
g93
g94
ssg82
g909
sg75
(lp916
g357
asbag68
(g89
g70
NtRp917
(dp918
g73
(dp919
g100
g101
ssg82
g909
sg75
(lp920
S':'
asbag68
(g89
g70
NtRp921
(dp922
g73
(dp923
sg82
g909
sg75
(lp924
g68
(g69
g70
NtRp925
(dp926
g73
(dp927
g81
I3
ssg82
g921
sg75
(lp928
S''
asbasbasbag68
(g84
g70
NtRp929
(dp930
g73
(dp931
sg82
g845
sg75
(lp932
g68
(g89
g70
NtRp933
(dp934
g73
(dp935
g93
g94
ssg82
g929
sg75
(lp936
g378
asbag68
(g89
g70
NtRp937
(dp938
g73
(dp939
g100
g101
ssg82
g929
sg75
(lp940
S':'
asbag68
(g89
g70
NtRp941
(dp942
g73
(dp943
sg82
g929
sg75
(lp944
g68
(g69
g70
NtRp945
(dp946
g73
(dp947
g81
I3
ssg82
g941
sg75
(lp948
S''
asbasbasbag68
(g84
g70
NtRp949
(dp950
g73
(dp951
sg82
g845
sg75
(lp952
g68
(g89
g70
NtRp953
(dp954
g73
(dp955
g93
g94
ssg82
g949
sg75
(lp956
g399
asbag68
(g89
g70
NtRp957
(dp958
g73
(dp959
g100
g101
ssg82
g949
sg75
(lp960
S':'
asbag68
(g89
g70
NtRp961
(dp962
g73
(dp963
sg82
g949
sg75
(lp964
g68
(g69
g70
NtRp965
(dp966
g73
(dp967
g81
I3
ssg82
g961
sg75
(lp968
S''
asbasbasbag68
(g84
g70
NtRp969
(dp970
g73
(dp971
sg82
g845
sg75
(lp972
g68
(g89
g70
NtRp973
(dp974
g73
(dp975
g93
g94
ssg82
g969
sg75
(lp976
g420
asbag68
(g89
g70
NtRp977
(dp978
g73
(dp979
g100
g101
ssg82
g969
sg75
(lp980
S':'
asbag68
(g89
g70
NtRp981
(dp982
g73
(dp983
sg82
g969
sg75
(lp984
g68
(g69
g70
NtRp985
(dp986
g73
(dp987
g81
I3
ssg82
g981
sg75
(lp988
S''
asbasbasbag68
(g84
g70
NtRp989
(dp990
g73
(dp991
sg82
g845
sg75
(lp992
g68
(g89
g70
NtRp993
(dp994
g73
(dp995
g93
g94
ssg82
g989
sg75
(lp996
g441
asbag68
(g89
g70
NtRp997
(dp998
g73
(dp999
g100
g101
ssg82
g989
sg75
(lp1000
S':'
asbag68
(g89
g70
NtRp1001
(dp1002
g73
(dp1003
sg82
g989
sg75
(lp1004
g68
(g69
g70
NtRp1005
(dp1006
g73
(dp1007
g81
I3
ssg82
g1001
sg75
(lp1008
S''
asbasbasbasbasbasbasbag68
(g84
g70
NtRp1009
(dp1010
g73
(dp1011
sg82
g257
sg75
(lp1012
g68
(g89
g70
NtRp1013
(dp1014
g73
(dp1015
g93
g94
ssg82
g1009
sg75
(lp1016
S'session_id_welcome'
p1017
asbag68
(g89
g70
NtRp1018
(dp1019
g73
(dp1020
g100
g101
ssg82
g1009
sg75
(lp1021
S':'
asbag68
(g89
g70
NtRp1022
(dp1023
g73
(dp1024
sg82
g1009
sg75
(lp1025
g68
(g69
g70
NtRp1026
(dp1027
g73
(dp1028
g81
I4
ssg82
g1022
sg75
(lp1029
g68
(g77
g70
NtRp1030
(dp1031
g73
(dp1032
g81
I3
ssg82
Nsg75
(lp1033
g68
(g84
g70
NtRp1034
(dp1035
g73
(dp1036
sg82
g1030
sg75
(lp1037
g68
(g89
g70
NtRp1038
(dp1039
g73
(dp1040
g93
g94
ssg82
g1034
sg75
(lp1041
g294
asbag68
(g89
g70
NtRp1042
(dp1043
g73
(dp1044
g100
g101
ssg82
g1034
sg75
(lp1045
S':'
asbag68
(g89
g70
NtRp1046
(dp1047
g73
(dp1048
sg82
g1034
sg75
(lp1049
g68
(g69
g70
NtRp1050
(dp1051
g73
(dp1052
g81
I3
ssg82
g1046
sg75
(lp1053
S''
asbasbasbag68
(g84
g70
NtRp1054
(dp1055
g73
(dp1056
sg82
g1030
sg75
(lp1057
g68
(g89
g70
NtRp1058
(dp1059
g73
(dp1060
g93
g94
ssg82
g1054
sg75
(lp1061
g315
asbag68
(g89
g70
NtRp1062
(dp1063
g73
(dp1064
g100
g101
ssg82
g1054
sg75
(lp1065
S':'
asbag68
(g89
g70
NtRp1066
(dp1067
g73
(dp1068
sg82
g1054
sg75
(lp1069
g68
(g69
g70
NtRp1070
(dp1071
g73
(dp1072
g81
I3
ssg82
g1066
sg75
(lp1073
S''
asbasbasbag68
(g84
g70
NtRp1074
(dp1075
g73
(dp1076
sg82
g1030
sg75
(lp1077
g68
(g89
g70
NtRp1078
(dp1079
g73
(dp1080
g93
g94
ssg82
g1074
sg75
(lp1081
g336
asbag68
(g89
g70
NtRp1082
(dp1083
g73
(dp1084
g100
g101
ssg82
g1074
sg75
(lp1085
S':'
asbag68
(g89
g70
NtRp1086
(dp1087
g73
(dp1088
sg82
g1074
sg75
(lp1089
g68
(g69
g70
NtRp1090
(dp1091
g73
(dp1092
g81
I3
ssg82
g1086
sg75
(lp1093
S''
asbasbasbag68
(g84
g70
NtRp1094
(dp1095
g73
(dp1096
sg82
g1030
sg75
(lp1097
g68
(g89
g70
NtRp1098
(dp1099
g73
(dp1100
g93
g94
ssg82
g1094
sg75
(lp1101
g357
asbag68
(g89
g70
NtRp1102
(dp1103
g73
(dp1104
g100
g101
ssg82
g1094
sg75
(lp1105
S':'
asbag68
(g89
g70
NtRp1106
(dp1107
g73
(dp1108
sg82
g1094
sg75
(lp1109
g68
(g69
g70
NtRp1110
(dp1111
g73
(dp1112
g81
I3
ssg82
g1106
sg75
(lp1113
S''
asbasbasbag68
(g84
g70
NtRp1114
(dp1115
g73
(dp1116
sg82
g1030
sg75
(lp1117
g68
(g89
g70
NtRp1118
(dp1119
g73
(dp1120
g93
g94
ssg82
g1114
sg75
(lp1121
g378
asbag68
(g89
g70
NtRp1122
(dp1123
g73
(dp1124
g100
g101
ssg82
g1114
sg75
(lp1125
S':'
asbag68
(g89
g70
NtRp1126
(dp1127
g73
(dp1128
sg82
g1114
sg75
(lp1129
g68
(g69
g70
NtRp1130
(dp1131
g73
(dp1132
g81
I3
ssg82
g1126
sg75
(lp1133
S''
asbasbasbag68
(g84
g70
NtRp1134
(dp1135
g73
(dp1136
sg82
g1030
sg75
(lp1137
g68
(g89
g70
NtRp1138
(dp1139
g73
(dp1140
g93
g94
ssg82
g1134
sg75
(lp1141
g399
asbag68
(g89
g70
NtRp1142
(dp1143
g73
(dp1144
g100
g101
ssg82
g1134
sg75
(lp1145
S':'
asbag68
(g89
g70
NtRp1146
(dp1147
g73
(dp1148
sg82
g1134
sg75
(lp1149
g68
(g69
g70
NtRp1150
(dp1151
g73
(dp1152
g81
I3
ssg82
g1146
sg75
(lp1153
S''
asbasbasbag68
(g84
g70
NtRp1154
(dp1155
g73
(dp1156
sg82
g1030
sg75
(lp1157
g68
(g89
g70
NtRp1158
(dp1159
g73
(dp1160
g93
g94
ssg82
g1154
sg75
(lp1161
g420
asbag68
(g89
g70
NtRp1162
(dp1163
g73
(dp1164
g100
g101
ssg82
g1154
sg75
(lp1165
S':'
asbag68
(g89
g70
NtRp1166
(dp1167
g73
(dp1168
sg82
g1154
sg75
(lp1169
g68
(g69
g70
NtRp1170
(dp1171
g73
(dp1172
g81
I3
ssg82
g1166
sg75
(lp1173
S''
asbasbasbag68
(g84
g70
NtRp1174
(dp1175
g73
(dp1176
sg82
g1030
sg75
(lp1177
g68
(g89
g70
NtRp1178
(dp1179
g73
(dp1180
g93
g94
ssg82
g1174
sg75
(lp1181
g441
asbag68
(g89
g70
NtRp1182
(dp1183
g73
(dp1184
g100
g101
ssg82
g1174
sg75
(lp1185
S':'
asbag68
(g89
g70
NtRp1186
(dp1187
g73
(dp1188
sg82
g1174
sg75
(lp1189
g68
(g69
g70
NtRp1190
(dp1191
g73
(dp1192
g81
I3
ssg82
g1186
sg75
(lp1193
S''
asbasbasbasbasbasbasbasbasbasbasbag68
(g84
g70
NtRp1194
(dp1195
g73
(dp1196
sg82
g78
sg75
(lp1197
g68
(g89
g70
NtRp1198
(dp1199
g73
(dp1200
g93
g94
ssg82
g1194
sg75
(lp1201
S'env'
p1202
asbag68
(g89
g70
NtRp1203
(dp1204
g73
(dp1205
g100
g101
ssg82
g1194
sg75
(lp1206
S':'
asbag68
(g89
g70
NtRp1207
(dp1208
g73
(dp1209
sg82
g1194
sg75
(lp1210
g68
(g69
g70
NtRp1211
(dp1212
g73
(dp1213
g81
I5
ssg82
g1207
sg75
(lp1214
g68
(g77
g70
NtRp1215
(dp1216
g73
(dp1217
g81
I4
ssg82
Nsg75
(lp1218
g68
(g84
g70
NtRp1219
(dp1220
g73
(dp1221
sg82
g1215
sg75
(lp1222
g68
(g89
g70
NtRp1223
(dp1224
g73
(dp1225
g93
g94
ssg82
g1219
sg75
(lp1226
S'app_folders'
p1227
asbag68
(g89
g70
NtRp1228
(dp1229
g73
(dp1230
g100
g101
ssg82
g1219
sg75
(lp1231
S':'
asbag68
(g89
g70
NtRp1232
(dp1233
g73
(dp1234
sg82
g1219
sg75
(lp1235
g68
(g69
g70
NtRp1236
(dp1237
g73
(dp1238
g81
I4
ssg82
g1232
sg75
(lp1239
S"set(['/home/kaique/Projects/web2py/applications/synopsis/', '/home/kaique/Projects/web2py/applications/admin/'])"
p1240
asbasbasbag68
(g84
g70
NtRp1241
(dp1242
g73
(dp1243
sg82
g1215
sg75
(lp1244
g68
(g89
g70
NtRp1245
(dp1246
g73
(dp1247
g93
g94
ssg82
g1241
sg75
(lp1248
S'applications_parent'
p1249
asbag68
(g89
g70
NtRp1250
(dp1251
g73
(dp1252
g100
g101
ssg82
g1241
sg75
(lp1253
S':'
asbag68
(g89
g70
NtRp1254
(dp1255
g73
(dp1256
sg82
g1241
sg75
(lp1257
g68
(g69
g70
NtRp1258
(dp1259
g73
(dp1260
g81
I4
ssg82
g1254
sg75
(lp1261
S'/home/kaique/Projects/web2py'
p1262
asbasbasbag68
(g84
g70
NtRp1263
(dp1264
g73
(dp1265
sg82
g1215
sg75
(lp1266
g68
(g89
g70
NtRp1267
(dp1268
g73
(dp1269
g93
g94
ssg82
g1263
sg75
(lp1270
S'cmd_args'
p1271
asbag68
(g89
g70
NtRp1272
(dp1273
g73
(dp1274
g100
g101
ssg82
g1263
sg75
(lp1275
S':'
asbag68
(g89
g70
NtRp1276
(dp1277
g73
(dp1278
sg82
g1263
sg75
(lp1279
g68
(g69
g70
NtRp1280
(dp1281
g73
(dp1282
g81
I4
ssg82
g1276
sg75
(lp1283
g68
(g77
g70
NtRp1284
(dp1285
g73
(dp1286
g81
I3
ssg82
Nsg75
(lp1287
sbasbasbasbag68
(g84
g70
NtRp1288
(dp1289
g73
(dp1290
sg82
g1215
sg75
(lp1291
g68
(g89
g70
NtRp1292
(dp1293
g73
(dp1294
g93
g94
ssg82
g1288
sg75
(lp1295
S'cmd_options'
p1296
asbag68
(g89
g70
NtRp1297
(dp1298
g73
(dp1299
g100
g101
ssg82
g1288
sg75
(lp1300
S':'
asbag68
(g89
g70
NtRp1301
(dp1302
g73
(dp1303
sg82
g1288
sg75
(lp1304
g68
(g69
g70
NtRp1305
(dp1306
g73
(dp1307
g81
I4
ssg82
g1301
sg75
(lp1308
S"<Values at 0x256e950: {'verbose': False, 'ip': '127.0.0.1', 'shutdown_timeout': 5, 'taskbar': False, 'nocron': False, 'pid_filename': 'httpserver.pid', 'maxthreads': None, 'softcron': False, 'server_name': 'kaique-Pine-Trail-M', 'bpython': False, 'nogui': False, 'port': 8000, 'extcron': False, 'debuglevel': 30, 'test': None, 'folder': '/home/kaique/Projects/web2py', 'config': '', 'import_models': False, 'winservice': '', 'shell': None, 'run': '', 'log_filename': 'httpserver.log', 'args': [''], 'ssl_ca_certificate': None, 'scheduler': None, 'profiler_filename': None, 'ssl_private_key': '', 'password': 'dev', 'request_queue_size': 5, 'ssl_certificate': '', 'cronjob': False, 'plain': False, 'quiet': False, 'interfaces': None, 'minthreads': None, 'timeout': 10, 'numthreads': None, 'nobanner': False}>"
p1309
asbasbasbag68
(g84
g70
NtRp1310
(dp1311
g73
(dp1312
sg82
g1215
sg75
(lp1313
g68
(g89
g70
NtRp1314
(dp1315
g73
(dp1316
g93
g94
ssg82
g1310
sg75
(lp1317
S'db_sessions'
p1318
asbag68
(g89
g70
NtRp1319
(dp1320
g73
(dp1321
g100
g101
ssg82
g1310
sg75
(lp1322
S':'
asbag68
(g89
g70
NtRp1323
(dp1324
g73
(dp1325
sg82
g1310
sg75
(lp1326
g68
(g69
g70
NtRp1327
(dp1328
g73
(dp1329
g81
I4
ssg82
g1323
sg75
(lp1330
S'set([])'
p1331
asbasbasbag68
(g84
g70
NtRp1332
(dp1333
g73
(dp1334
sg82
g1215
sg75
(lp1335
g68
(g89
g70
NtRp1336
(dp1337
g73
(dp1338
g93
g94
ssg82
g1332
sg75
(lp1339
S'debugging'
p1340
asbag68
(g89
g70
NtRp1341
(dp1342
g73
(dp1343
g100
g101
ssg82
g1332
sg75
(lp1344
S':'
asbag68
(g89
g70
NtRp1345
(dp1346
g73
(dp1347
sg82
g1332
sg75
(lp1348
g68
(g69
g70
NtRp1349
(dp1350
g73
(dp1351
g81
I4
ssg82
g1345
sg75
(lp1352
g111
asbasbasbag68
(g84
g70
NtRp1353
(dp1354
g73
(dp1355
sg82
g1215
sg75
(lp1356
g68
(g89
g70
NtRp1357
(dp1358
g73
(dp1359
g93
g94
ssg82
g1353
sg75
(lp1360
S'gluon_parent'
p1361
asbag68
(g89
g70
NtRp1362
(dp1363
g73
(dp1364
g100
g101
ssg82
g1353
sg75
(lp1365
S':'
asbag68
(g89
g70
NtRp1366
(dp1367
g73
(dp1368
sg82
g1353
sg75
(lp1369
g68
(g69
g70
NtRp1370
(dp1371
g73
(dp1372
g81
I4
ssg82
g1366
sg75
(lp1373
S'/home/kaique/Projects/web2py'
p1374
asbasbasbag68
(g84
g70
NtRp1375
(dp1376
g73
(dp1377
sg82
g1215
sg75
(lp1378
g68
(g89
g70
NtRp1379
(dp1380
g73
(dp1381
g93
g94
ssg82
g1375
sg75
(lp1382
S'http_accept'
p1383
asbag68
(g89
g70
NtRp1384
(dp1385
g73
(dp1386
g100
g101
ssg82
g1375
sg75
(lp1387
S':'
asbag68
(g89
g70
NtRp1388
(dp1389
g73
(dp1390
sg82
g1375
sg75
(lp1391
g68
(g69
g70
NtRp1392
(dp1393
g73
(dp1394
g81
I4
ssg82
g1388
sg75
(lp1395
S'text/html,application/xhtml+xml,application/xml;q=0.9,*/*;q=0.8'
p1396
asbasbasbag68
(g84
g70
NtRp1397
(dp1398
g73
(dp1399
sg82
g1215
sg75
(lp1400
g68
(g89
g70
NtRp1401
(dp1402
g73
(dp1403
g93
g94
ssg82
g1397
sg75
(lp1404
S'http_accept_charset'
p1405
asbag68
(g89
g70
NtRp1406
(dp1407
g73
(dp1408
g100
g101
ssg82
g1397
sg75
(lp1409
S':'
asbag68
(g89
g70
NtRp1410
(dp1411
g73
(dp1412
sg82
g1397
sg75
(lp1413
g68
(g69
g70
NtRp1414
(dp1415
g73
(dp1416
g81
I4
ssg82
g1410
sg75
(lp1417
S'ISO-8859-1,utf-8;q=0.7,*;q=0.7'
p1418
asbasbasbag68
(g84
g70
NtRp1419
(dp1420
g73
(dp1421
sg82
g1215
sg75
(lp1422
g68
(g89
g70
NtRp1423
(dp1424
g73
(dp1425
g93
g94
ssg82
g1419
sg75
(lp1426
S'http_accept_encoding'
p1427
asbag68
(g89
g70
NtRp1428
(dp1429
g73
(dp1430
g100
g101
ssg82
g1419
sg75
(lp1431
S':'
asbag68
(g89
g70
NtRp1432
(dp1433
g73
(dp1434
sg82
g1419
sg75
(lp1435
g68
(g69
g70
NtRp1436
(dp1437
g73
(dp1438
g81
I4
ssg82
g1432
sg75
(lp1439
S'gzip, deflate'
p1440
asbasbasbag68
(g84
g70
NtRp1441
(dp1442
g73
(dp1443
sg82
g1215
sg75
(lp1444
g68
(g89
g70
NtRp1445
(dp1446
g73
(dp1447
g93
g94
ssg82
g1441
sg75
(lp1448
S'http_accept_language'
p1449
asbag68
(g89
g70
NtRp1450
(dp1451
g73
(dp1452
g100
g101
ssg82
g1441
sg75
(lp1453
S':'
asbag68
(g89
g70
NtRp1454
(dp1455
g73
(dp1456
sg82
g1441
sg75
(lp1457
g68
(g69
g70
NtRp1458
(dp1459
g73
(dp1460
g81
I4
ssg82
g1454
sg75
(lp1461
S'pt-br,pt;q=0.8,en-us;q=0.5,en;q=0.3'
p1462
asbasbasbag68
(g84
g70
NtRp1463
(dp1464
g73
(dp1465
sg82
g1215
sg75
(lp1466
g68
(g89
g70
NtRp1467
(dp1468
g73
(dp1469
g93
g94
ssg82
g1463
sg75
(lp1470
S'http_cache_control'
p1471
asbag68
(g89
g70
NtRp1472
(dp1473
g73
(dp1474
g100
g101
ssg82
g1463
sg75
(lp1475
S':'
asbag68
(g89
g70
NtRp1476
(dp1477
g73
(dp1478
sg82
g1463
sg75
(lp1479
g68
(g69
g70
NtRp1480
(dp1481
g73
(dp1482
g81
I4
ssg82
g1476
sg75
(lp1483
S'max-age=0'
p1484
asbasbasbag68
(g84
g70
NtRp1485
(dp1486
g73
(dp1487
sg82
g1215
sg75
(lp1488
g68
(g89
g70
NtRp1489
(dp1490
g73
(dp1491
g93
g94
ssg82
g1485
sg75
(lp1492
S'http_connection'
p1493
asbag68
(g89
g70
NtRp1494
(dp1495
g73
(dp1496
g100
g101
ssg82
g1485
sg75
(lp1497
S':'
asbag68
(g89
g70
NtRp1498
(dp1499
g73
(dp1500
sg82
g1485
sg75
(lp1501
g68
(g69
g70
NtRp1502
(dp1503
g73
(dp1504
g81
I4
ssg82
g1498
sg75
(lp1505
S'keep-alive'
p1506
asbasbasbag68
(g84
g70
NtRp1507
(dp1508
g73
(dp1509
sg82
g1215
sg75
(lp1510
g68
(g89
g70
NtRp1511
(dp1512
g73
(dp1513
g93
g94
ssg82
g1507
sg75
(lp1514
S'http_cookie'
p1515
asbag68
(g89
g70
NtRp1516
(dp1517
g73
(dp1518
g100
g101
ssg82
g1507
sg75
(lp1519
S':'
asbag68
(g89
g70
NtRp1520
(dp1521
g73
(dp1522
sg82
g1507
sg75
(lp1523
g68
(g69
g70
NtRp1524
(dp1525
g73
(dp1526
g81
I4
ssg82
g1520
sg75
(lp1527
S'currency=GBP; PHPSESSID=9p6ovvset7bb455bs5oc3eara3; session_id_welcome=127.0.0.1-2178f248-6721-4586-ae68-1cad380386a5; session_id_synopsis=127.0.0.1-22caa4ed-0448-4782-a756-bcb437fd81d3; session_id_admin=127.0.0.1-0b87d24d-feef-4771-9611-26979c7dbdf1'
p1528
asbasbasbag68
(g84
g70
NtRp1529
(dp1530
g73
(dp1531
sg82
g1215
sg75
(lp1532
g68
(g89
g70
NtRp1533
(dp1534
g73
(dp1535
g93
g94
ssg82
g1529
sg75
(lp1536
S'http_host'
p1537
asbag68
(g89
g70
NtRp1538
(dp1539
g73
(dp1540
g100
g101
ssg82
g1529
sg75
(lp1541
S':'
asbag68
(g89
g70
NtRp1542
(dp1543
g73
(dp1544
sg82
g1529
sg75
(lp1545
g68
(g69
g70
NtRp1546
(dp1547
g73
(dp1548
g81
I4
ssg82
g1542
sg75
(lp1549
S'localhost:8000'
p1550
asbasbasbag68
(g84
g70
NtRp1551
(dp1552
g73
(dp1553
sg82
g1215
sg75
(lp1554
g68
(g89
g70
NtRp1555
(dp1556
g73
(dp1557
g93
g94
ssg82
g1551
sg75
(lp1558
S'http_referer'
p1559
asbag68
(g89
g70
NtRp1560
(dp1561
g73
(dp1562
g100
g101
ssg82
g1551
sg75
(lp1563
S':'
asbag68
(g89
g70
NtRp1564
(dp1565
g73
(dp1566
sg82
g1551
sg75
(lp1567
g68
(g69
g70
NtRp1568
(dp1569
g73
(dp1570
g81
I4
ssg82
g1564
sg75
(lp1571
S'http://localhost:8000/synopsis/information/new/row/3'
p1572
asbasbasbag68
(g84
g70
NtRp1573
(dp1574
g73
(dp1575
sg82
g1215
sg75
(lp1576
g68
(g89
g70
NtRp1577
(dp1578
g73
(dp1579
g93
g94
ssg82
g1573
sg75
(lp1580
S'http_user_agent'
p1581
asbag68
(g89
g70
NtRp1582
(dp1583
g73
(dp1584
g100
g101
ssg82
g1573
sg75
(lp1585
S':'
asbag68
(g89
g70
NtRp1586
(dp1587
g73
(dp1588
sg82
g1573
sg75
(lp1589
g68
(g69
g70
NtRp1590
(dp1591
g73
(dp1592
g81
I4
ssg82
g1586
sg75
(lp1593
S'Mozilla/5.0 (Ubuntu; X11; Linux x86_64; rv:9.0.1) Gecko/20100101 Firefox/9.0.1'
p1594
asbasbasbag68
(g84
g70
NtRp1595
(dp1596
g73
(dp1597
sg82
g1215
sg75
(lp1598
g68
(g89
g70
NtRp1599
(dp1600
g73
(dp1601
g93
g94
ssg82
g1595
sg75
(lp1602
S'is_jython'
p1603
asbag68
(g89
g70
NtRp1604
(dp1605
g73
(dp1606
g100
g101
ssg82
g1595
sg75
(lp1607
S':'
asbag68
(g89
g70
NtRp1608
(dp1609
g73
(dp1610
sg82
g1595
sg75
(lp1611
g68
(g69
g70
NtRp1612
(dp1613
g73
(dp1614
g81
I4
ssg82
g1608
sg75
(lp1615
g111
asbasbasbag68
(g84
g70
NtRp1616
(dp1617
g73
(dp1618
sg82
g1215
sg75
(lp1619
g68
(g89
g70
NtRp1620
(dp1621
g73
(dp1622
g93
g94
ssg82
g1616
sg75
(lp1623
S'path_info'
p1624
asbag68
(g89
g70
NtRp1625
(dp1626
g73
(dp1627
g100
g101
ssg82
g1616
sg75
(lp1628
S':'
asbag68
(g89
g70
NtRp1629
(dp1630
g73
(dp1631
sg82
g1616
sg75
(lp1632
g68
(g69
g70
NtRp1633
(dp1634
g73
(dp1635
g81
I4
ssg82
g1629
sg75
(lp1636
S'/synopsis/information/publication/1'
p1637
asbasbasbag68
(g84
g70
NtRp1638
(dp1639
g73
(dp1640
sg82
g1215
sg75
(lp1641
g68
(g89
g70
NtRp1642
(dp1643
g73
(dp1644
g93
g94
ssg82
g1638
sg75
(lp1645
S'query_string'
p1646
asbag68
(g89
g70
NtRp1647
(dp1648
g73
(dp1649
g100
g101
ssg82
g1638
sg75
(lp1650
S':'
asbag68
(g89
g70
NtRp1651
(dp1652
g73
(dp1653
sg82
g1638
sg75
(lp1654
g68
(g69
g70
NtRp1655
(dp1656
g73
(dp1657
g81
I4
ssg82
g1651
sg75
(lp1658
S''
asbasbasbag68
(g84
g70
NtRp1659
(dp1660
g73
(dp1661
sg82
g1215
sg75
(lp1662
g68
(g89
g70
NtRp1663
(dp1664
g73
(dp1665
g93
g94
ssg82
g1659
sg75
(lp1666
S'remote_addr'
p1667
asbag68
(g89
g70
NtRp1668
(dp1669
g73
(dp1670
g100
g101
ssg82
g1659
sg75
(lp1671
S':'
asbag68
(g89
g70
NtRp1672
(dp1673
g73
(dp1674
sg82
g1659
sg75
(lp1675
g68
(g69
g70
NtRp1676
(dp1677
g73
(dp1678
g81
I4
ssg82
g1672
sg75
(lp1679
g213
asbasbasbag68
(g84
g70
NtRp1680
(dp1681
g73
(dp1682
sg82
g1215
sg75
(lp1683
g68
(g89
g70
NtRp1684
(dp1685
g73
(dp1686
g93
g94
ssg82
g1680
sg75
(lp1687
S'remote_port'
p1688
asbag68
(g89
g70
NtRp1689
(dp1690
g73
(dp1691
g100
g101
ssg82
g1680
sg75
(lp1692
S':'
asbag68
(g89
g70
NtRp1693
(dp1694
g73
(dp1695
sg82
g1680
sg75
(lp1696
g68
(g69
g70
NtRp1697
(dp1698
g73
(dp1699
g81
I4
ssg82
g1693
sg75
(lp1700
S'60752'
p1701
asbasbasbag68
(g84
g70
NtRp1702
(dp1703
g73
(dp1704
sg82
g1215
sg75
(lp1705
g68
(g89
g70
NtRp1706
(dp1707
g73
(dp1708
g93
g94
ssg82
g1702
sg75
(lp1709
S'request_method'
p1710
asbag68
(g89
g70
NtRp1711
(dp1712
g73
(dp1713
g100
g101
ssg82
g1702
sg75
(lp1714
S':'
asbag68
(g89
g70
NtRp1715
(dp1716
g73
(dp1717
sg82
g1702
sg75
(lp1718
g68
(g69
g70
NtRp1719
(dp1720
g73
(dp1721
g81
I4
ssg82
g1715
sg75
(lp1722
S'GET'
p1723
asbasbasbag68
(g84
g70
NtRp1724
(dp1725
g73
(dp1726
sg82
g1215
sg75
(lp1727
g68
(g89
g70
NtRp1728
(dp1729
g73
(dp1730
g93
g94
ssg82
g1724
sg75
(lp1731
S'script_name'
p1732
asbag68
(g89
g70
NtRp1733
(dp1734
g73
(dp1735
g100
g101
ssg82
g1724
sg75
(lp1736
S':'
asbag68
(g89
g70
NtRp1737
(dp1738
g73
(dp1739
sg82
g1724
sg75
(lp1740
g68
(g69
g70
NtRp1741
(dp1742
g73
(dp1743
g81
I4
ssg82
g1737
sg75
(lp1744
S''
asbasbasbag68
(g84
g70
NtRp1745
(dp1746
g73
(dp1747
sg82
g1215
sg75
(lp1748
g68
(g89
g70
NtRp1749
(dp1750
g73
(dp1751
g93
g94
ssg82
g1745
sg75
(lp1752
S'server_name'
p1753
asbag68
(g89
g70
NtRp1754
(dp1755
g73
(dp1756
g100
g101
ssg82
g1745
sg75
(lp1757
S':'
asbag68
(g89
g70
NtRp1758
(dp1759
g73
(dp1760
sg82
g1745
sg75
(lp1761
g68
(g69
g70
NtRp1762
(dp1763
g73
(dp1764
g81
I4
ssg82
g1758
sg75
(lp1765
S'kaique-Pine-Trail-M'
p1766
asbasbasbag68
(g84
g70
NtRp1767
(dp1768
g73
(dp1769
sg82
g1215
sg75
(lp1770
g68
(g89
g70
NtRp1771
(dp1772
g73
(dp1773
g93
g94
ssg82
g1767
sg75
(lp1774
S'server_port'
p1775
asbag68
(g89
g70
NtRp1776
(dp1777
g73
(dp1778
g100
g101
ssg82
g1767
sg75
(lp1779
S':'
asbag68
(g89
g70
NtRp1780
(dp1781
g73
(dp1782
sg82
g1767
sg75
(lp1783
g68
(g69
g70
NtRp1784
(dp1785
g73
(dp1786
g81
I4
ssg82
g1780
sg75
(lp1787
S'8000'
p1788
asbasbasbag68
(g84
g70
NtRp1789
(dp1790
g73
(dp1791
sg82
g1215
sg75
(lp1792
g68
(g89
g70
NtRp1793
(dp1794
g73
(dp1795
g93
g94
ssg82
g1789
sg75
(lp1796
S'server_protocol'
p1797
asbag68
(g89
g70
NtRp1798
(dp1799
g73
(dp1800
g100
g101
ssg82
g1789
sg75
(lp1801
S':'
asbag68
(g89
g70
NtRp1802
(dp1803
g73
(dp1804
sg82
g1789
sg75
(lp1805
g68
(g69
g70
NtRp1806
(dp1807
g73
(dp1808
g81
I4
ssg82
g1802
sg75
(lp1809
S'HTTP/1.1'
p1810
asbasbasbag68
(g84
g70
NtRp1811
(dp1812
g73
(dp1813
sg82
g1215
sg75
(lp1814
g68
(g89
g70
NtRp1815
(dp1816
g73
(dp1817
g93
g94
ssg82
g1811
sg75
(lp1818
S'server_software'
p1819
asbag68
(g89
g70
NtRp1820
(dp1821
g73
(dp1822
g100
g101
ssg82
g1811
sg75
(lp1823
S':'
asbag68
(g89
g70
NtRp1824
(dp1825
g73
(dp1826
sg82
g1811
sg75
(lp1827
g68
(g69
g70
NtRp1828
(dp1829
g73
(dp1830
g81
I4
ssg82
g1824
sg75
(lp1831
S'Rocket 1.2.4'
p1832
asbasbasbag68
(g84
g70
NtRp1833
(dp1834
g73
(dp1835
sg82
g1215
sg75
(lp1836
g68
(g89
g70
NtRp1837
(dp1838
g73
(dp1839
g93
g94
ssg82
g1833
sg75
(lp1840
S'web2py_crontype'
p1841
asbag68
(g89
g70
NtRp1842
(dp1843
g73
(dp1844
g100
g101
ssg82
g1833
sg75
(lp1845
S':'
asbag68
(g89
g70
NtRp1846
(dp1847
g73
(dp1848
sg82
g1833
sg75
(lp1849
g68
(g69
g70
NtRp1850
(dp1851
g73
(dp1852
g81
I4
ssg82
g1846
sg75
(lp1853
S'hard'
p1854
asbasbasbag68
(g84
g70
NtRp1855
(dp1856
g73
(dp1857
sg82
g1215
sg75
(lp1858
g68
(g89
g70
NtRp1859
(dp1860
g73
(dp1861
g93
g94
ssg82
g1855
sg75
(lp1862
S'web2py_path'
p1863
asbag68
(g89
g70
NtRp1864
(dp1865
g73
(dp1866
g100
g101
ssg82
g1855
sg75
(lp1867
S':'
asbag68
(g89
g70
NtRp1868
(dp1869
g73
(dp1870
sg82
g1855
sg75
(lp1871
g68
(g69
g70
NtRp1872
(dp1873
g73
(dp1874
g81
I4
ssg82
g1868
sg75
(lp1875
g1262
asbasbasbag68
(g84
g70
NtRp1876
(dp1877
g73
(dp1878
sg82
g1215
sg75
(lp1879
g68
(g89
g70
NtRp1880
(dp1881
g73
(dp1882
g93
g94
ssg82
g1876
sg75
(lp1883
S'web2py_version'
p1884
asbag68
(g89
g70
NtRp1885
(dp1886
g73
(dp1887
g100
g101
ssg82
g1876
sg75
(lp1888
S':'
asbag68
(g89
g70
NtRp1889
(dp1890
g73
(dp1891
sg82
g1876
sg75
(lp1892
g68
(g69
g70
NtRp1893
(dp1894
g73
(dp1895
g81
I4
ssg82
g1889
sg75
(lp1896
g68
(g77
g70
NtRp1897
(dp1898
g73
(dp1899
g81
I3
ssg82
Nsg75
(lp1900
g68
(g84
g70
NtRp1901
(dp1902
g73
(dp1903
sg82
g1897
sg75
(lp1904
g68
(g89
g70
NtRp1905
(dp1906
g73
(dp1907
sg82
g1901
sg75
(lp1908
g68
(g69
g70
NtRp1909
(dp1910
g73
(dp1911
g81
I3
ssg82
g1905
sg75
(lp1912
S'1'
asbasbasbag68
(g84
g70
NtRp1913
(dp1914
g73
(dp1915
sg82
g1897
sg75
(lp1916
g68
(g89
g70
NtRp1917
(dp1918
g73
(dp1919
sg82
g1913
sg75
(lp1920
g68
(g69
g70
NtRp1921
(dp1922
g73
(dp1923
g81
I3
ssg82
g1917
sg75
(lp1924
S'99'
p1925
asbasbasbag68
(g84
g70
NtRp1926
(dp1927
g73
(dp1928
sg82
g1897
sg75
(lp1929
g68
(g89
g70
NtRp1930
(dp1931
g73
(dp1932
sg82
g1926
sg75
(lp1933
g68
(g69
g70
NtRp1934
(dp1935
g73
(dp1936
g81
I3
ssg82
g1930
sg75
(lp1937
S'2'
asbasbasbag68
(g84
g70
NtRp1938
(dp1939
g73
(dp1940
sg82
g1897
sg75
(lp1941
g68
(g89
g70
NtRp1942
(dp1943
g73
(dp1944
sg82
g1938
sg75
(lp1945
g68
(g69
g70
NtRp1946
(dp1947
g73
(dp1948
g81
I3
ssg82
g1942
sg75
(lp1949
S'datetime.datetime(2011, 9, 26, 6, 55, 33)'
p1950
asbasbasbag68
(g84
g70
NtRp1951
(dp1952
g73
(dp1953
sg82
g1897
sg75
(lp1954
g68
(g89
g70
NtRp1955
(dp1956
g73
(dp1957
sg82
g1951
sg75
(lp1958
g68
(g69
g70
NtRp1959
(dp1960
g73
(dp1961
g81
I3
ssg82
g1955
sg75
(lp1962
S'stable'
p1963
asbasbasbasbasbasbasbag68
(g84
g70
NtRp1964
(dp1965
g73
(dp1966
sg82
g1215
sg75
(lp1967
g68
(g89
g70
NtRp1968
(dp1969
g73
(dp1970
g93
g94
ssg82
g1964
sg75
(lp1971
S'wsgi_errors'
p1972
asbag68
(g89
g70
NtRp1973
(dp1974
g73
(dp1975
g100
g101
ssg82
g1964
sg75
(lp1976
S':'
asbag68
(g89
g70
NtRp1977
(dp1978
g73
(dp1979
sg82
g1964
sg75
(lp1980
g68
(g69
g70
NtRp1981
(dp1982
g73
(dp1983
g81
I4
ssg82
g1977
sg75
(lp1984
S"<open file '<stderr>', mode 'w' at 0x7f6e78474270>"
p1985
asbasbasbag68
(g84
g70
NtRp1986
(dp1987
g73
(dp1988
sg82
g1215
sg75
(lp1989
g68
(g89
g70
NtRp1990
(dp1991
g73
(dp1992
g93
g94
ssg82
g1986
sg75
(lp1993
S'wsgi_file_wrapper'
p1994
asbag68
(g89
g70
NtRp1995
(dp1996
g73
(dp1997
g100
g101
ssg82
g1986
sg75
(lp1998
S':'
asbag68
(g89
g70
NtRp1999
(dp2000
g73
(dp2001
sg82
g1986
sg75
(lp2002
g68
(g69
g70
NtRp2003
(dp2004
g73
(dp2005
g81
I4
ssg82
g1999
sg75
(lp2006
S'<class wsgiref.util.FileWrapper at 0x2425ef0>'
p2007
asbasbasbag68
(g84
g70
NtRp2008
(dp2009
g73
(dp2010
sg82
g1215
sg75
(lp2011
g68
(g89
g70
NtRp2012
(dp2013
g73
(dp2014
g93
g94
ssg82
g2008
sg75
(lp2015
S'wsgi_input'
p2016
asbag68
(g89
g70
NtRp2017
(dp2018
g73
(dp2019
g100
g101
ssg82
g2008
sg75
(lp2020
S':'
asbag68
(g89
g70
NtRp2021
(dp2022
g73
(dp2023
sg82
g2008
sg75
(lp2024
g68
(g69
g70
NtRp2025
(dp2026
g73
(dp2027
g81
I4
ssg82
g2021
sg75
(lp2028
S'<socket._fileobject object at 0x2a00c50>'
p2029
asbasbasbag68
(g84
g70
NtRp2030
(dp2031
g73
(dp2032
sg82
g1215
sg75
(lp2033
g68
(g89
g70
NtRp2034
(dp2035
g73
(dp2036
g93
g94
ssg82
g2030
sg75
(lp2037
S'wsgi_multiprocess'
p2038
asbag68
(g89
g70
NtRp2039
(dp2040
g73
(dp2041
g100
g101
ssg82
g2030
sg75
(lp2042
S':'
asbag68
(g89
g70
NtRp2043
(dp2044
g73
(dp2045
sg82
g2030
sg75
(lp2046
g68
(g69
g70
NtRp2047
(dp2048
g73
(dp2049
g81
I4
ssg82
g2043
sg75
(lp2050
g111
asbasbasbag68
(g84
g70
NtRp2051
(dp2052
g73
(dp2053
sg82
g1215
sg75
(lp2054
g68
(g89
g70
NtRp2055
(dp2056
g73
(dp2057
g93
g94
ssg82
g2051
sg75
(lp2058
S'wsgi_multithread'
p2059
asbag68
(g89
g70
NtRp2060
(dp2061
g73
(dp2062
g100
g101
ssg82
g2051
sg75
(lp2063
S':'
asbag68
(g89
g70
NtRp2064
(dp2065
g73
(dp2066
sg82
g2051
sg75
(lp2067
g68
(g69
g70
NtRp2068
(dp2069
g73
(dp2070
g81
I4
ssg82
g2064
sg75
(lp2071
S'True'
p2072
asbasbasbag68
(g84
g70
NtRp2073
(dp2074
g73
(dp2075
sg82
g1215
sg75
(lp2076
g68
(g89
g70
NtRp2077
(dp2078
g73
(dp2079
g93
g94
ssg82
g2073
sg75
(lp2080
S'wsgi_run_once'
p2081
asbag68
(g89
g70
NtRp2082
(dp2083
g73
(dp2084
g100
g101
ssg82
g2073
sg75
(lp2085
S':'
asbag68
(g89
g70
NtRp2086
(dp2087
g73
(dp2088
sg82
g2073
sg75
(lp2089
g68
(g69
g70
NtRp2090
(dp2091
g73
(dp2092
g81
I4
ssg82
g2086
sg75
(lp2093
g111
asbasbasbag68
(g84
g70
NtRp2094
(dp2095
g73
(dp2096
sg82
g1215
sg75
(lp2097
g68
(g89
g70
NtRp2098
(dp2099
g73
(dp2100
g93
g94
ssg82
g2094
sg75
(lp2101
S'wsgi_url_scheme'
p2102
asbag68
(g89
g70
NtRp2103
(dp2104
g73
(dp2105
g100
g101
ssg82
g2094
sg75
(lp2106
S':'
asbag68
(g89
g70
NtRp2107
(dp2108
g73
(dp2109
sg82
g2094
sg75
(lp2110
g68
(g69
g70
NtRp2111
(dp2112
g73
(dp2113
g81
I4
ssg82
g2107
sg75
(lp2114
S'http'
p2115
asbasbasbag68
(g84
g70
NtRp2116
(dp2117
g73
(dp2118
sg82
g1215
sg75
(lp2119
g68
(g89
g70
NtRp2120
(dp2121
g73
(dp2122
g93
g94
ssg82
g2116
sg75
(lp2123
S'wsgi_version'
p2124
asbag68
(g89
g70
NtRp2125
(dp2126
g73
(dp2127
g100
g101
ssg82
g2116
sg75
(lp2128
S':'
asbag68
(g89
g70
NtRp2129
(dp2130
g73
(dp2131
sg82
g2116
sg75
(lp2132
g68
(g69
g70
NtRp2133
(dp2134
g73
(dp2135
g81
I4
ssg82
g2129
sg75
(lp2136
g68
(g77
g70
NtRp2137
(dp2138
g73
(dp2139
g81
I3
ssg82
Nsg75
(lp2140
g68
(g84
g70
NtRp2141
(dp2142
g73
(dp2143
sg82
g2137
sg75
(lp2144
g68
(g89
g70
NtRp2145
(dp2146
g73
(dp2147
sg82
g2141
sg75
(lp2148
g68
(g69
g70
NtRp2149
(dp2150
g73
(dp2151
g81
I3
ssg82
g2145
sg75
(lp2152
S'1'
asbasbasbag68
(g84
g70
NtRp2153
(dp2154
g73
(dp2155
sg82
g2137
sg75
(lp2156
g68
(g89
g70
NtRp2157
(dp2158
g73
(dp2159
sg82
g2153
sg75
(lp2160
g68
(g69
g70
NtRp2161
(dp2162
g73
(dp2163
g81
I3
ssg82
g2157
sg75
(lp2164
S'0'
asbasbasbasbasbasbasbasbasbasbasbag68
(g84
g70
NtRp2165
(dp2166
g73
(dp2167
sg82
g78
sg75
(lp2168
g68
(g89
g70
NtRp2169
(dp2170
g73
(dp2171
g93
g94
ssg82
g2165
sg75
(lp2172
S'extension'
p2173
asbag68
(g89
g70
NtRp2174
(dp2175
g73
(dp2176
g100
g101
ssg82
g2165
sg75
(lp2177
S':'
asbag68
(g89
g70
NtRp2178
(dp2179
g73
(dp2180
sg82
g2165
sg75
(lp2181
g68
(g69
g70
NtRp2182
(dp2183
g73
(dp2184
g81
I5
ssg82
g2178
sg75
(lp2185
S'html'
p2186
asbasbasbag68
(g84
g70
NtRp2187
(dp2188
g73
(dp2189
sg82
g78
sg75
(lp2190
g68
(g89
g70
NtRp2191
(dp2192
g73
(dp2193
g93
g94
ssg82
g2187
sg75
(lp2194
S'folder'
p2195
asbag68
(g89
g70
NtRp2196
(dp2197
g73
(dp2198
g100
g101
ssg82
g2187
sg75
(lp2199
S':'
asbag68
(g89
g70
NtRp2200
(dp2201
g73
(dp2202
sg82
g2187
sg75
(lp2203
g68
(g69
g70
NtRp2204
(dp2205
g73
(dp2206
g81
I5
ssg82
g2200
sg75
(lp2207
S'/home/kaique/Projects/web2py/applications/synopsis/'
p2208
asbasbasbag68
(g84
g70
NtRp2209
(dp2210
g73
(dp2211
sg82
g78
sg75
(lp2212
g68
(g89
g70
NtRp2213
(dp2214
g73
(dp2215
g93
g94
ssg82
g2209
sg75
(lp2216
S'function'
p2217
asbag68
(g89
g70
NtRp2218
(dp2219
g73
(dp2220
g100
g101
ssg82
g2209
sg75
(lp2221
S':'
asbag68
(g89
g70
NtRp2222
(dp2223
g73
(dp2224
sg82
g2209
sg75
(lp2225
g68
(g69
g70
NtRp2226
(dp2227
g73
(dp2228
g81
I5
ssg82
g2222
sg75
(lp2229
S'publication'
p2230
asbasbasbag68
(g84
g70
NtRp2231
(dp2232
g73
(dp2233
sg82
g78
sg75
(lp2234
g68
(g89
g70
NtRp2235
(dp2236
g73
(dp2237
g93
g94
ssg82
g2231
sg75
(lp2238
S'get_vars'
p2239
asbag68
(g89
g70
NtRp2240
(dp2241
g73
(dp2242
g100
g101
ssg82
g2231
sg75
(lp2243
S':'
asbag68
(g89
g70
NtRp2244
(dp2245
g73
(dp2246
sg82
g2231
sg75
(lp2247
g68
(g69
g70
NtRp2248
(dp2249
g73
(dp2250
g81
I5
ssg82
g2244
sg75
(lp2251
g68
(g77
g70
NtRp2252
(dp2253
g73
(dp2254
g81
I4
ssg82
Nsg75
(lp2255
sbasbasbasbag68
(g84
g70
NtRp2256
(dp2257
g73
(dp2258
sg82
g78
sg75
(lp2259
g68
(g89
g70
NtRp2260
(dp2261
g73
(dp2262
g93
g94
ssg82
g2256
sg75
(lp2263
S'global_settings'
p2264
asbag68
(g89
g70
NtRp2265
(dp2266
g73
(dp2267
g100
g101
ssg82
g2256
sg75
(lp2268
S':'
asbag68
(g89
g70
NtRp2269
(dp2270
g73
(dp2271
sg82
g2256
sg75
(lp2272
g68
(g69
g70
NtRp2273
(dp2274
g73
(dp2275
g81
I5
ssg82
g2269
sg75
(lp2276
g68
(g77
g70
NtRp2277
(dp2278
g73
(dp2279
g81
I4
ssg82
Nsg75
(lp2280
g68
(g84
g70
NtRp2281
(dp2282
g73
(dp2283
sg82
g2277
sg75
(lp2284
g68
(g89
g70
NtRp2285
(dp2286
g73
(dp2287
g93
g94
ssg82
g2281
sg75
(lp2288
g1227
asbag68
(g89
g70
NtRp2289
(dp2290
g73
(dp2291
g100
g101
ssg82
g2281
sg75
(lp2292
S':'
asbag68
(g89
g70
NtRp2293
(dp2294
g73
(dp2295
sg82
g2281
sg75
(lp2296
g68
(g69
g70
NtRp2297
(dp2298
g73
(dp2299
g81
I4
ssg82
g2293
sg75
(lp2300
S"set(['/home/kaique/Projects/web2py/applications/synopsis/', '/home/kaique/Projects/web2py/applications/admin/'])"
p2301
asbasbasbag68
(g84
g70
NtRp2302
(dp2303
g73
(dp2304
sg82
g2277
sg75
(lp2305
g68
(g89
g70
NtRp2306
(dp2307
g73
(dp2308
g93
g94
ssg82
g2302
sg75
(lp2309
g1249
asbag68
(g89
g70
NtRp2310
(dp2311
g73
(dp2312
g100
g101
ssg82
g2302
sg75
(lp2313
S':'
asbag68
(g89
g70
NtRp2314
(dp2315
g73
(dp2316
sg82
g2302
sg75
(lp2317
g68
(g69
g70
NtRp2318
(dp2319
g73
(dp2320
g81
I4
ssg82
g2314
sg75
(lp2321
g1262
asbasbasbag68
(g84
g70
NtRp2322
(dp2323
g73
(dp2324
sg82
g2277
sg75
(lp2325
g68
(g89
g70
NtRp2326
(dp2327
g73
(dp2328
g93
g94
ssg82
g2322
sg75
(lp2329
g1271
asbag68
(g89
g70
NtRp2330
(dp2331
g73
(dp2332
g100
g101
ssg82
g2322
sg75
(lp2333
S':'
asbag68
(g89
g70
NtRp2334
(dp2335
g73
(dp2336
sg82
g2322
sg75
(lp2337
g68
(g69
g70
NtRp2338
(dp2339
g73
(dp2340
g81
I4
ssg82
g2334
sg75
(lp2341
g68
(g77
g70
NtRp2342
(dp2343
g73
(dp2344
g81
I3
ssg82
Nsg75
(lp2345
sbasbasbasbag68
(g84
g70
NtRp2346
(dp2347
g73
(dp2348
sg82
g2277
sg75
(lp2349
g68
(g89
g70
NtRp2350
(dp2351
g73
(dp2352
g93
g94
ssg82
g2346
sg75
(lp2353
g1296
asbag68
(g89
g70
NtRp2354
(dp2355
g73
(dp2356
g100
g101
ssg82
g2346
sg75
(lp2357
S':'
asbag68
(g89
g70
NtRp2358
(dp2359
g73
(dp2360
sg82
g2346
sg75
(lp2361
g68
(g69
g70
NtRp2362
(dp2363
g73
(dp2364
g81
I4
ssg82
g2358
sg75
(lp2365
S"<Values at 0x256e950: {'verbose': False, 'ip': '127.0.0.1', 'shutdown_timeout': 5, 'taskbar': False, 'nocron': False, 'pid_filename': 'httpserver.pid', 'maxthreads': None, 'softcron': False, 'server_name': 'kaique-Pine-Trail-M', 'bpython': False, 'nogui': False, 'port': 8000, 'extcron': False, 'debuglevel': 30, 'test': None, 'folder': '/home/kaique/Projects/web2py', 'config': '', 'import_models': False, 'winservice': '', 'shell': None, 'run': '', 'log_filename': 'httpserver.log', 'args': [''], 'ssl_ca_certificate': None, 'scheduler': None, 'profiler_filename': None, 'ssl_private_key': '', 'password': 'dev', 'request_queue_size': 5, 'ssl_certificate': '', 'cronjob': False, 'plain': False, 'quiet': False, 'interfaces': None, 'minthreads': None, 'timeout': 10, 'numthreads': None, 'nobanner': False}>"
p2366
asbasbasbag68
(g84
g70
NtRp2367
(dp2368
g73
(dp2369
sg82
g2277
sg75
(lp2370
g68
(g89
g70
NtRp2371
(dp2372
g73
(dp2373
g93
g94
ssg82
g2367
sg75
(lp2374
g1318
asbag68
(g89
g70
NtRp2375
(dp2376
g73
(dp2377
g100
g101
ssg82
g2367
sg75
(lp2378
S':'
asbag68
(g89
g70
NtRp2379
(dp2380
g73
(dp2381
sg82
g2367
sg75
(lp2382
g68
(g69
g70
NtRp2383
(dp2384
g73
(dp2385
g81
I4
ssg82
g2379
sg75
(lp2386
S'set([])'
p2387
asbasbasbag68
(g84
g70
NtRp2388
(dp2389
g73
(dp2390
sg82
g2277
sg75
(lp2391
g68
(g89
g70
NtRp2392
(dp2393
g73
(dp2394
g93
g94
ssg82
g2388
sg75
(lp2395
g1340
asbag68
(g89
g70
NtRp2396
(dp2397
g73
(dp2398
g100
g101
ssg82
g2388
sg75
(lp2399
S':'
asbag68
(g89
g70
NtRp2400
(dp2401
g73
(dp2402
sg82
g2388
sg75
(lp2403
g68
(g69
g70
NtRp2404
(dp2405
g73
(dp2406
g81
I4
ssg82
g2400
sg75
(lp2407
g111
asbasbasbag68
(g84
g70
NtRp2408
(dp2409
g73
(dp2410
sg82
g2277
sg75
(lp2411
g68
(g89
g70
NtRp2412
(dp2413
g73
(dp2414
g93
g94
ssg82
g2408
sg75
(lp2415
g1361
asbag68
(g89
g70
NtRp2416
(dp2417
g73
(dp2418
g100
g101
ssg82
g2408
sg75
(lp2419
S':'
asbag68
(g89
g70
NtRp2420
(dp2421
g73
(dp2422
sg82
g2408
sg75
(lp2423
g68
(g69
g70
NtRp2424
(dp2425
g73
(dp2426
g81
I4
ssg82
g2420
sg75
(lp2427
g1374
asbasbasbag68
(g84
g70
NtRp2428
(dp2429
g73
(dp2430
sg82
g2277
sg75
(lp2431
g68
(g89
g70
NtRp2432
(dp2433
g73
(dp2434
g93
g94
ssg82
g2428
sg75
(lp2435
g1603
asbag68
(g89
g70
NtRp2436
(dp2437
g73
(dp2438
g100
g101
ssg82
g2428
sg75
(lp2439
S':'
asbag68
(g89
g70
NtRp2440
(dp2441
g73
(dp2442
sg82
g2428
sg75
(lp2443
g68
(g69
g70
NtRp2444
(dp2445
g73
(dp2446
g81
I4
ssg82
g2440
sg75
(lp2447
g111
asbasbasbag68
(g84
g70
NtRp2448
(dp2449
g73
(dp2450
sg82
g2277
sg75
(lp2451
g68
(g89
g70
NtRp2452
(dp2453
g73
(dp2454
g93
g94
ssg82
g2448
sg75
(lp2455
g1841
asbag68
(g89
g70
NtRp2456
(dp2457
g73
(dp2458
g100
g101
ssg82
g2448
sg75
(lp2459
S':'
asbag68
(g89
g70
NtRp2460
(dp2461
g73
(dp2462
sg82
g2448
sg75
(lp2463
g68
(g69
g70
NtRp2464
(dp2465
g73
(dp2466
g81
I4
ssg82
g2460
sg75
(lp2467
g1854
asbasbasbag68
(g84
g70
NtRp2468
(dp2469
g73
(dp2470
sg82
g2277
sg75
(lp2471
g68
(g89
g70
NtRp2472
(dp2473
g73
(dp2474
g93
g94
ssg82
g2468
sg75
(lp2475
g1884
asbag68
(g89
g70
NtRp2476
(dp2477
g73
(dp2478
g100
g101
ssg82
g2468
sg75
(lp2479
S':'
asbag68
(g89
g70
NtRp2480
(dp2481
g73
(dp2482
sg82
g2468
sg75
(lp2483
g68
(g69
g70
NtRp2484
(dp2485
g73
(dp2486
g81
I4
ssg82
g2480
sg75
(lp2487
g68
(g77
g70
NtRp2488
(dp2489
g73
(dp2490
g81
I3
ssg82
Nsg75
(lp2491
g68
(g84
g70
NtRp2492
(dp2493
g73
(dp2494
sg82
g2488
sg75
(lp2495
g68
(g89
g70
NtRp2496
(dp2497
g73
(dp2498
sg82
g2492
sg75
(lp2499
g68
(g69
g70
NtRp2500
(dp2501
g73
(dp2502
g81
I3
ssg82
g2496
sg75
(lp2503
S'1'
asbasbasbag68
(g84
g70
NtRp2504
(dp2505
g73
(dp2506
sg82
g2488
sg75
(lp2507
g68
(g89
g70
NtRp2508
(dp2509
g73
(dp2510
sg82
g2504
sg75
(lp2511
g68
(g69
g70
NtRp2512
(dp2513
g73
(dp2514
g81
I3
ssg82
g2508
sg75
(lp2515
S'99'
p2516
asbasbasbag68
(g84
g70
NtRp2517
(dp2518
g73
(dp2519
sg82
g2488
sg75
(lp2520
g68
(g89
g70
NtRp2521
(dp2522
g73
(dp2523
sg82
g2517
sg75
(lp2524
g68
(g69
g70
NtRp2525
(dp2526
g73
(dp2527
g81
I3
ssg82
g2521
sg75
(lp2528
S'2'
asbasbasbag68
(g84
g70
NtRp2529
(dp2530
g73
(dp2531
sg82
g2488
sg75
(lp2532
g68
(g89
g70
NtRp2533
(dp2534
g73
(dp2535
sg82
g2529
sg75
(lp2536
g68
(g69
g70
NtRp2537
(dp2538
g73
(dp2539
g81
I3
ssg82
g2533
sg75
(lp2540
S'datetime.datetime(2011, 9, 26, 6, 55, 33)'
p2541
asbasbasbag68
(g84
g70
NtRp2542
(dp2543
g73
(dp2544
sg82
g2488
sg75
(lp2545
g68
(g89
g70
NtRp2546
(dp2547
g73
(dp2548
sg82
g2542
sg75
(lp2549
g68
(g69
g70
NtRp2550
(dp2551
g73
(dp2552
g81
I3
ssg82
g2546
sg75
(lp2553
g1963
asbasbasbasbasbasbasbasbasbasbasbag68
(g84
g70
NtRp2554
(dp2555
g73
(dp2556
sg82
g78
sg75
(lp2557
g68
(g89
g70
NtRp2558
(dp2559
g73
(dp2560
g93
g94
ssg82
g2554
sg75
(lp2561
S'is_https'
p2562
asbag68
(g89
g70
NtRp2563
(dp2564
g73
(dp2565
g100
g101
ssg82
g2554
sg75
(lp2566
S':'
asbag68
(g89
g70
NtRp2567
(dp2568
g73
(dp2569
sg82
g2554
sg75
(lp2570
g68
(g69
g70
NtRp2571
(dp2572
g73
(dp2573
g81
I5
ssg82
g2567
sg75
(lp2574
g111
asbasbasbag68
(g84
g70
NtRp2575
(dp2576
g73
(dp2577
sg82
g78
sg75
(lp2578
g68
(g89
g70
NtRp2579
(dp2580
g73
(dp2581
g93
g94
ssg82
g2575
sg75
(lp2582
S'is_local'
p2583
asbag68
(g89
g70
NtRp2584
(dp2585
g73
(dp2586
g100
g101
ssg82
g2575
sg75
(lp2587
S':'
asbag68
(g89
g70
NtRp2588
(dp2589
g73
(dp2590
sg82
g2575
sg75
(lp2591
g68
(g69
g70
NtRp2592
(dp2593
g73
(dp2594
g81
I5
ssg82
g2588
sg75
(lp2595
g2072
asbasbasbag68
(g84
g70
NtRp2596
(dp2597
g73
(dp2598
sg82
g78
sg75
(lp2599
g68
(g89
g70
NtRp2600
(dp2601
g73
(dp2602
g93
g94
ssg82
g2596
sg75
(lp2603
S'is_restful'
p2604
asbag68
(g89
g70
NtRp2605
(dp2606
g73
(dp2607
g100
g101
ssg82
g2596
sg75
(lp2608
S':'
asbag68
(g89
g70
NtRp2609
(dp2610
g73
(dp2611
sg82
g2596
sg75
(lp2612
g68
(g69
g70
NtRp2613
(dp2614
g73
(dp2615
g81
I5
ssg82
g2609
sg75
(lp2616
g111
asbasbasbag68
(g84
g70
NtRp2617
(dp2618
g73
(dp2619
sg82
g78
sg75
(lp2620
g68
(g89
g70
NtRp2621
(dp2622
g73
(dp2623
g93
g94
ssg82
g2617
sg75
(lp2624
S'now'
p2625
asbag68
(g89
g70
NtRp2626
(dp2627
g73
(dp2628
g100
g101
ssg82
g2617
sg75
(lp2629
S':'
asbag68
(g89
g70
NtRp2630
(dp2631
g73
(dp2632
sg82
g2617
sg75
(lp2633
g68
(g69
g70
NtRp2634
(dp2635
g73
(dp2636
g81
I5
ssg82
g2630
sg75
(lp2637
S'datetime.datetime(2012, 1, 14, 0, 11, 36, 574768)'
p2638
asbasbasbag68
(g84
g70
NtRp2639
(dp2640
g73
(dp2641
sg82
g78
sg75
(lp2642
g68
(g89
g70
NtRp2643
(dp2644
g73
(dp2645
g93
g94
ssg82
g2639
sg75
(lp2646
S'post_vars'
p2647
asbag68
(g89
g70
NtRp2648
(dp2649
g73
(dp2650
g100
g101
ssg82
g2639
sg75
(lp2651
S':'
asbag68
(g89
g70
NtRp2652
(dp2653
g73
(dp2654
sg82
g2639
sg75
(lp2655
g68
(g69
g70
NtRp2656
(dp2657
g73
(dp2658
g81
I5
ssg82
g2652
sg75
(lp2659
g68
(g77
g70
NtRp2660
(dp2661
g73
(dp2662
g81
I4
ssg82
Nsg75
(lp2663
sbasbasbasbag68
(g84
g70
NtRp2664
(dp2665
g73
(dp2666
sg82
g78
sg75
(lp2667
g68
(g89
g70
NtRp2668
(dp2669
g73
(dp2670
g93
g94
ssg82
g2664
sg75
(lp2671
S'raw_args'
p2672
asbag68
(g89
g70
NtRp2673
(dp2674
g73
(dp2675
g100
g101
ssg82
g2664
sg75
(lp2676
S':'
asbag68
(g89
g70
NtRp2677
(dp2678
g73
(dp2679
sg82
g2664
sg75
(lp2680
g68
(g69
g70
NtRp2681
(dp2682
g73
(dp2683
g81
I5
ssg82
g2677
sg75
(lp2684
S'1'
asbasbasbag68
(g84
g70
NtRp2685
(dp2686
g73
(dp2687
sg82
g78
sg75
(lp2688
g68
(g89
g70
NtRp2689
(dp2690
g73
(dp2691
g93
g94
ssg82
g2685
sg75
(lp2692
S'url'
p2693
asbag68
(g89
g70
NtRp2694
(dp2695
g73
(dp2696
g100
g101
ssg82
g2685
sg75
(lp2697
S':'
asbag68
(g89
g70
NtRp2698
(dp2699
g73
(dp2700
sg82
g2685
sg75
(lp2701
g68
(g69
g70
NtRp2702
(dp2703
g73
(dp2704
g81
I5
ssg82
g2698
sg75
(lp2705
S'/synopsis/information/publication/1'
p2706
asbasbasbag68
(g84
g70
NtRp2707
(dp2708
g73
(dp2709
sg82
g78
sg75
(lp2710
g68
(g89
g70
NtRp2711
(dp2712
g73
(dp2713
g93
g94
ssg82
g2707
sg75
(lp2714
S'utcnow'
p2715
asbag68
(g89
g70
NtRp2716
(dp2717
g73
(dp2718
g100
g101
ssg82
g2707
sg75
(lp2719
S':'
asbag68
(g89
g70
NtRp2720
(dp2721
g73
(dp2722
sg82
g2707
sg75
(lp2723
g68
(g69
g70
NtRp2724
(dp2725
g73
(dp2726
g81
I5
ssg82
g2720
sg75
(lp2727
S'datetime.datetime(2012, 1, 14, 2, 11, 36, 574857)'
p2728
asbasbasbag68
(g84
g70
NtRp2729
(dp2730
g73
(dp2731
sg82
g78
sg75
(lp2732
g68
(g89
g70
NtRp2733
(dp2734
g73
(dp2735
g93
g94
ssg82
g2729
sg75
(lp2736
S'uuid'
p2737
asbag68
(g89
g70
NtRp2738
(dp2739
g73
(dp2740
g100
g101
ssg82
g2729
sg75
(lp2741
S':'
asbag68
(g89
g70
NtRp2742
(dp2743
g73
(dp2744
sg82
g2729
sg75
(lp2745
g68
(g69
g70
NtRp2746
(dp2747
g73
(dp2748
g81
I5
ssg82
g2742
sg75
(lp2749
S'synopsis/127.0.0.1.2012-01-14.00-11-36.8438beb6-e285-4a64-9f10-ea27f3299ccb'
p2750
asbasbasbag68
(g84
g70
NtRp2751
(dp2752
g73
(dp2753
sg82
g78
sg75
(lp2754
g68
(g89
g70
NtRp2755
(dp2756
g73
(dp2757
g93
g94
ssg82
g2751
sg75
(lp2758
S'vars'
p2759
asbag68
(g89
g70
NtRp2760
(dp2761
g73
(dp2762
g100
g101
ssg82
g2751
sg75
(lp2763
S':'
asbag68
(g89
g70
NtRp2764
(dp2765
g73
(dp2766
sg82
g2751
sg75
(lp2767
g68
(g69
g70
NtRp2768
(dp2769
g73
(dp2770
g81
I5
ssg82
g2764
sg75
(lp2771
g68
(g77
g70
NtRp2772
(dp2773
g73
(dp2774
g81
I4
ssg82
Nsg75
(lp2775
sbasbasbasbag68
(g84
g70
NtRp2776
(dp2777
g73
(dp2778
sg82
g78
sg75
(lp2779
g68
(g89
g70
NtRp2780
(dp2781
g73
(dp2782
g93
g94
ssg82
g2776
sg75
(lp2783
S'wsgi'
p2784
asbag68
(g89
g70
NtRp2785
(dp2786
g73
(dp2787
g100
g101
ssg82
g2776
sg75
(lp2788
S':'
asbag68
(g89
g70
NtRp2789
(dp2790
g73
(dp2791
sg82
g2776
sg75
(lp2792
g68
(g69
g70
NtRp2793
(dp2794
g73
(dp2795
g81
I5
ssg82
g2789
sg75
(lp2796
g68
(g77
g70
NtRp2797
(dp2798
g73
(dp2799
g81
I4
ssg82
Nsg75
(lp2800
g68
(g84
g70
NtRp2801
(dp2802
g73
(dp2803
sg82
g2797
sg75
(lp2804
g68
(g89
g70
NtRp2805
(dp2806
g73
(dp2807
g93
g94
ssg82
g2801
sg75
(lp2808
S'environ'
p2809
asbag68
(g89
g70
NtRp2810
(dp2811
g73
(dp2812
g100
g101
ssg82
g2801
sg75
(lp2813
S':'
asbag68
(g89
g70
NtRp2814
(dp2815
g73
(dp2816
sg82
g2801
sg75
(lp2817
g68
(g69
g70
NtRp2818
(dp2819
g73
(dp2820
g81
I4
ssg82
g2814
sg75
(lp2821
g68
(g77
g70
NtRp2822
(dp2823
g73
(dp2824
g81
I3
ssg82
Nsg75
(lp2825
g68
(g84
g70
NtRp2826
(dp2827
g73
(dp2828
sg82
g2822
sg75
(lp2829
g68
(g89
g70
NtRp2830
(dp2831
g73
(dp2832
g93
g94
ssg82
g2826
sg75
(lp2833
S'HTTP_ACCEPT'
p2834
asbag68
(g89
g70
NtRp2835
(dp2836
g73
(dp2837
g100
g101
ssg82
g2826
sg75
(lp2838
S':'
asbag68
(g89
g70
NtRp2839
(dp2840
g73
(dp2841
sg82
g2826
sg75
(lp2842
g68
(g69
g70
NtRp2843
(dp2844
g73
(dp2845
g81
I3
ssg82
g2839
sg75
(lp2846
g1396
asbasbasbag68
(g84
g70
NtRp2847
(dp2848
g73
(dp2849
sg82
g2822
sg75
(lp2850
g68
(g89
g70
NtRp2851
(dp2852
g73
(dp2853
g93
g94
ssg82
g2847
sg75
(lp2854
S'HTTP_ACCEPT_CHARSET'
p2855
asbag68
(g89
g70
NtRp2856
(dp2857
g73
(dp2858
g100
g101
ssg82
g2847
sg75
(lp2859
S':'
asbag68
(g89
g70
NtRp2860
(dp2861
g73
(dp2862
sg82
g2847
sg75
(lp2863
g68
(g69
g70
NtRp2864
(dp2865
g73
(dp2866
g81
I3
ssg82
g2860
sg75
(lp2867
g1418
asbasbasbag68
(g84
g70
NtRp2868
(dp2869
g73
(dp2870
sg82
g2822
sg75
(lp2871
g68
(g89
g70
NtRp2872
(dp2873
g73
(dp2874
g93
g94
ssg82
g2868
sg75
(lp2875
S'HTTP_ACCEPT_ENCODING'
p2876
asbag68
(g89
g70
NtRp2877
(dp2878
g73
(dp2879
g100
g101
ssg82
g2868
sg75
(lp2880
S':'
asbag68
(g89
g70
NtRp2881
(dp2882
g73
(dp2883
sg82
g2868
sg75
(lp2884
g68
(g69
g70
NtRp2885
(dp2886
g73
(dp2887
g81
I3
ssg82
g2881
sg75
(lp2888
g1440
asbasbasbag68
(g84
g70
NtRp2889
(dp2890
g73
(dp2891
sg82
g2822
sg75
(lp2892
g68
(g89
g70
NtRp2893
(dp2894
g73
(dp2895
g93
g94
ssg82
g2889
sg75
(lp2896
S'HTTP_ACCEPT_LANGUAGE'
p2897
asbag68
(g89
g70
NtRp2898
(dp2899
g73
(dp2900
g100
g101
ssg82
g2889
sg75
(lp2901
S':'
asbag68
(g89
g70
NtRp2902
(dp2903
g73
(dp2904
sg82
g2889
sg75
(lp2905
g68
(g69
g70
NtRp2906
(dp2907
g73
(dp2908
g81
I3
ssg82
g2902
sg75
(lp2909
g1462
asbasbasbag68
(g84
g70
NtRp2910
(dp2911
g73
(dp2912
sg82
g2822
sg75
(lp2913
g68
(g89
g70
NtRp2914
(dp2915
g73
(dp2916
g93
g94
ssg82
g2910
sg75
(lp2917
S'HTTP_CACHE_CONTROL'
p2918
asbag68
(g89
g70
NtRp2919
(dp2920
g73
(dp2921
g100
g101
ssg82
g2910
sg75
(lp2922
S':'
asbag68
(g89
g70
NtRp2923
(dp2924
g73
(dp2925
sg82
g2910
sg75
(lp2926
g68
(g69
g70
NtRp2927
(dp2928
g73
(dp2929
g81
I3
ssg82
g2923
sg75
(lp2930
g1484
asbasbasbag68
(g84
g70
NtRp2931
(dp2932
g73
(dp2933
sg82
g2822
sg75
(lp2934
g68
(g89
g70
NtRp2935
(dp2936
g73
(dp2937
g93
g94
ssg82
g2931
sg75
(lp2938
S'HTTP_CONNECTION'
p2939
asbag68
(g89
g70
NtRp2940
(dp2941
g73
(dp2942
g100
g101
ssg82
g2931
sg75
(lp2943
S':'
asbag68
(g89
g70
NtRp2944
(dp2945
g73
(dp2946
sg82
g2931
sg75
(lp2947
g68
(g69
g70
NtRp2948
(dp2949
g73
(dp2950
g81
I3
ssg82
g2944
sg75
(lp2951
g1506
asbasbasbag68
(g84
g70
NtRp2952
(dp2953
g73
(dp2954
sg82
g2822
sg75
(lp2955
g68
(g89
g70
NtRp2956
(dp2957
g73
(dp2958
g93
g94
ssg82
g2952
sg75
(lp2959
S'HTTP_COOKIE'
p2960
asbag68
(g89
g70
NtRp2961
(dp2962
g73
(dp2963
g100
g101
ssg82
g2952
sg75
(lp2964
S':'
asbag68
(g89
g70
NtRp2965
(dp2966
g73
(dp2967
sg82
g2952
sg75
(lp2968
g68
(g69
g70
NtRp2969
(dp2970
g73
(dp2971
g81
I3
ssg82
g2965
sg75
(lp2972
g1528
asbasbasbag68
(g84
g70
NtRp2973
(dp2974
g73
(dp2975
sg82
g2822
sg75
(lp2976
g68
(g89
g70
NtRp2977
(dp2978
g73
(dp2979
g93
g94
ssg82
g2973
sg75
(lp2980
S'HTTP_HOST'
p2981
asbag68
(g89
g70
NtRp2982
(dp2983
g73
(dp2984
g100
g101
ssg82
g2973
sg75
(lp2985
S':'
asbag68
(g89
g70
NtRp2986
(dp2987
g73
(dp2988
sg82
g2973
sg75
(lp2989
g68
(g69
g70
NtRp2990
(dp2991
g73
(dp2992
g81
I3
ssg82
g2986
sg75
(lp2993
g1550
asbasbasbag68
(g84
g70
NtRp2994
(dp2995
g73
(dp2996
sg82
g2822
sg75
(lp2997
g68
(g89
g70
NtRp2998
(dp2999
g73
(dp3000
g93
g94
ssg82
g2994
sg75
(lp3001
S'HTTP_REFERER'
p3002
asbag68
(g89
g70
NtRp3003
(dp3004
g73
(dp3005
g100
g101
ssg82
g2994
sg75
(lp3006
S':'
asbag68
(g89
g70
NtRp3007
(dp3008
g73
(dp3009
sg82
g2994
sg75
(lp3010
g68
(g69
g70
NtRp3011
(dp3012
g73
(dp3013
g81
I3
ssg82
g3007
sg75
(lp3014
g1572
asbasbasbag68
(g84
g70
NtRp3015
(dp3016
g73
(dp3017
sg82
g2822
sg75
(lp3018
g68
(g89
g70
NtRp3019
(dp3020
g73
(dp3021
g93
g94
ssg82
g3015
sg75
(lp3022
S'HTTP_USER_AGENT'
p3023
asbag68
(g89
g70
NtRp3024
(dp3025
g73
(dp3026
g100
g101
ssg82
g3015
sg75
(lp3027
S':'
asbag68
(g89
g70
NtRp3028
(dp3029
g73
(dp3030
sg82
g3015
sg75
(lp3031
g68
(g69
g70
NtRp3032
(dp3033
g73
(dp3034
g81
I3
ssg82
g3028
sg75
(lp3035
g1594
asbasbasbag68
(g84
g70
NtRp3036
(dp3037
g73
(dp3038
sg82
g2822
sg75
(lp3039
g68
(g89
g70
NtRp3040
(dp3041
g73
(dp3042
g93
g94
ssg82
g3036
sg75
(lp3043
S'PATH_INFO'
p3044
asbag68
(g89
g70
NtRp3045
(dp3046
g73
(dp3047
g100
g101
ssg82
g3036
sg75
(lp3048
S':'
asbag68
(g89
g70
NtRp3049
(dp3050
g73
(dp3051
sg82
g3036
sg75
(lp3052
g68
(g69
g70
NtRp3053
(dp3054
g73
(dp3055
g81
I3
ssg82
g3049
sg75
(lp3056
g1637
asbasbasbag68
(g84
g70
NtRp3057
(dp3058
g73
(dp3059
sg82
g2822
sg75
(lp3060
g68
(g89
g70
NtRp3061
(dp3062
g73
(dp3063
g93
g94
ssg82
g3057
sg75
(lp3064
S'QUERY_STRING'
p3065
asbag68
(g89
g70
NtRp3066
(dp3067
g73
(dp3068
g100
g101
ssg82
g3057
sg75
(lp3069
S':'
asbag68
(g89
g70
NtRp3070
(dp3071
g73
(dp3072
sg82
g3057
sg75
(lp3073
g68
(g69
g70
NtRp3074
(dp3075
g73
(dp3076
g81
I3
ssg82
g3070
sg75
(lp3077
S''
asbasbasbag68
(g84
g70
NtRp3078
(dp3079
g73
(dp3080
sg82
g2822
sg75
(lp3081
g68
(g89
g70
NtRp3082
(dp3083
g73
(dp3084
g93
g94
ssg82
g3078
sg75
(lp3085
S'REMOTE_ADDR'
p3086
asbag68
(g89
g70
NtRp3087
(dp3088
g73
(dp3089
g100
g101
ssg82
g3078
sg75
(lp3090
S':'
asbag68
(g89
g70
NtRp3091
(dp3092
g73
(dp3093
sg82
g3078
sg75
(lp3094
g68
(g69
g70
NtRp3095
(dp3096
g73
(dp3097
g81
I3
ssg82
g3091
sg75
(lp3098
g213
asbasbasbag68
(g84
g70
NtRp3099
(dp3100
g73
(dp3101
sg82
g2822
sg75
(lp3102
g68
(g89
g70
NtRp3103
(dp3104
g73
(dp3105
g93
g94
ssg82
g3099
sg75
(lp3106
S'REMOTE_PORT'
p3107
asbag68
(g89
g70
NtRp3108
(dp3109
g73
(dp3110
g100
g101
ssg82
g3099
sg75
(lp3111
S':'
asbag68
(g89
g70
NtRp3112
(dp3113
g73
(dp3114
sg82
g3099
sg75
(lp3115
g68
(g69
g70
NtRp3116
(dp3117
g73
(dp3118
g81
I3
ssg82
g3112
sg75
(lp3119
g1701
asbasbasbag68
(g84
g70
NtRp3120
(dp3121
g73
(dp3122
sg82
g2822
sg75
(lp3123
g68
(g89
g70
NtRp3124
(dp3125
g73
(dp3126
g93
g94
ssg82
g3120
sg75
(lp3127
S'REQUEST_METHOD'
p3128
asbag68
(g89
g70
NtRp3129
(dp3130
g73
(dp3131
g100
g101
ssg82
g3120
sg75
(lp3132
S':'
asbag68
(g89
g70
NtRp3133
(dp3134
g73
(dp3135
sg82
g3120
sg75
(lp3136
g68
(g69
g70
NtRp3137
(dp3138
g73
(dp3139
g81
I3
ssg82
g3133
sg75
(lp3140
g1723
asbasbasbag68
(g84
g70
NtRp3141
(dp3142
g73
(dp3143
sg82
g2822
sg75
(lp3144
g68
(g89
g70
NtRp3145
(dp3146
g73
(dp3147
g93
g94
ssg82
g3141
sg75
(lp3148
S'SCRIPT_NAME'
p3149
asbag68
(g89
g70
NtRp3150
(dp3151
g73
(dp3152
g100
g101
ssg82
g3141
sg75
(lp3153
S':'
asbag68
(g89
g70
NtRp3154
(dp3155
g73
(dp3156
sg82
g3141
sg75
(lp3157
g68
(g69
g70
NtRp3158
(dp3159
g73
(dp3160
g81
I3
ssg82
g3154
sg75
(lp3161
S''
asbasbasbag68
(g84
g70
NtRp3162
(dp3163
g73
(dp3164
sg82
g2822
sg75
(lp3165
g68
(g89
g70
NtRp3166
(dp3167
g73
(dp3168
g93
g94
ssg82
g3162
sg75
(lp3169
S'SERVER_NAME'
p3170
asbag68
(g89
g70
NtRp3171
(dp3172
g73
(dp3173
g100
g101
ssg82
g3162
sg75
(lp3174
S':'
asbag68
(g89
g70
NtRp3175
(dp3176
g73
(dp3177
sg82
g3162
sg75
(lp3178
g68
(g69
g70
NtRp3179
(dp3180
g73
(dp3181
g81
I3
ssg82
g3175
sg75
(lp3182
g1766
asbasbasbag68
(g84
g70
NtRp3183
(dp3184
g73
(dp3185
sg82
g2822
sg75
(lp3186
g68
(g89
g70
NtRp3187
(dp3188
g73
(dp3189
g93
g94
ssg82
g3183
sg75
(lp3190
S'SERVER_PORT'
p3191
asbag68
(g89
g70
NtRp3192
(dp3193
g73
(dp3194
g100
g101
ssg82
g3183
sg75
(lp3195
S':'
asbag68
(g89
g70
NtRp3196
(dp3197
g73
(dp3198
sg82
g3183
sg75
(lp3199
g68
(g69
g70
NtRp3200
(dp3201
g73
(dp3202
g81
I3
ssg82
g3196
sg75
(lp3203
g1788
asbasbasbag68
(g84
g70
NtRp3204
(dp3205
g73
(dp3206
sg82
g2822
sg75
(lp3207
g68
(g89
g70
NtRp3208
(dp3209
g73
(dp3210
g93
g94
ssg82
g3204
sg75
(lp3211
S'SERVER_PROTOCOL'
p3212
asbag68
(g89
g70
NtRp3213
(dp3214
g73
(dp3215
g100
g101
ssg82
g3204
sg75
(lp3216
S':'
asbag68
(g89
g70
NtRp3217
(dp3218
g73
(dp3219
sg82
g3204
sg75
(lp3220
g68
(g69
g70
NtRp3221
(dp3222
g73
(dp3223
g81
I3
ssg82
g3217
sg75
(lp3224
g1810
asbasbasbag68
(g84
g70
NtRp3225
(dp3226
g73
(dp3227
sg82
g2822
sg75
(lp3228
g68
(g89
g70
NtRp3229
(dp3230
g73
(dp3231
g93
g94
ssg82
g3225
sg75
(lp3232
S'SERVER_SOFTWARE'
p3233
asbag68
(g89
g70
NtRp3234
(dp3235
g73
(dp3236
g100
g101
ssg82
g3225
sg75
(lp3237
S':'
asbag68
(g89
g70
NtRp3238
(dp3239
g73
(dp3240
sg82
g3225
sg75
(lp3241
g68
(g69
g70
NtRp3242
(dp3243
g73
(dp3244
g81
I3
ssg82
g3238
sg75
(lp3245
g1832
asbasbasbag68
(g84
g70
NtRp3246
(dp3247
g73
(dp3248
sg82
g2822
sg75
(lp3249
g68
(g89
g70
NtRp3250
(dp3251
g73
(dp3252
g93
g94
ssg82
g3246
sg75
(lp3253
S'wsgi.errors'
p3254
asbag68
(g89
g70
NtRp3255
(dp3256
g73
(dp3257
g100
g101
ssg82
g3246
sg75
(lp3258
S':'
asbag68
(g89
g70
NtRp3259
(dp3260
g73
(dp3261
sg82
g3246
sg75
(lp3262
g68
(g69
g70
NtRp3263
(dp3264
g73
(dp3265
g81
I3
ssg82
g3259
sg75
(lp3266
S"<open file '<stderr>', mode 'w' at 0x7f6e78474270>"
p3267
asbasbasbag68
(g84
g70
NtRp3268
(dp3269
g73
(dp3270
sg82
g2822
sg75
(lp3271
g68
(g89
g70
NtRp3272
(dp3273
g73
(dp3274
g93
g94
ssg82
g3268
sg75
(lp3275
S'wsgi.file_wrapper'
p3276
asbag68
(g89
g70
NtRp3277
(dp3278
g73
(dp3279
g100
g101
ssg82
g3268
sg75
(lp3280
S':'
asbag68
(g89
g70
NtRp3281
(dp3282
g73
(dp3283
sg82
g3268
sg75
(lp3284
g68
(g69
g70
NtRp3285
(dp3286
g73
(dp3287
g81
I3
ssg82
g3281
sg75
(lp3288
S'<class wsgiref.util.FileWrapper at 0x2425ef0>'
p3289
asbasbasbag68
(g84
g70
NtRp3290
(dp3291
g73
(dp3292
sg82
g2822
sg75
(lp3293
g68
(g89
g70
NtRp3294
(dp3295
g73
(dp3296
g93
g94
ssg82
g3290
sg75
(lp3297
S'wsgi.input'
p3298
asbag68
(g89
g70
NtRp3299
(dp3300
g73
(dp3301
g100
g101
ssg82
g3290
sg75
(lp3302
S':'
asbag68
(g89
g70
NtRp3303
(dp3304
g73
(dp3305
sg82
g3290
sg75
(lp3306
g68
(g69
g70
NtRp3307
(dp3308
g73
(dp3309
g81
I3
ssg82
g3303
sg75
(lp3310
S'<cStringIO.StringO object at 0x2a300d8>'
p3311
asbasbasbag68
(g84
g70
NtRp3312
(dp3313
g73
(dp3314
sg82
g2822
sg75
(lp3315
g68
(g89
g70
NtRp3316
(dp3317
g73
(dp3318
g93
g94
ssg82
g3312
sg75
(lp3319
S'wsgi.multiprocess'
p3320
asbag68
(g89
g70
NtRp3321
(dp3322
g73
(dp3323
g100
g101
ssg82
g3312
sg75
(lp3324
S':'
asbag68
(g89
g70
NtRp3325
(dp3326
g73
(dp3327
sg82
g3312
sg75
(lp3328
g68
(g69
g70
NtRp3329
(dp3330
g73
(dp3331
g81
I3
ssg82
g3325
sg75
(lp3332
g111
asbasbasbag68
(g84
g70
NtRp3333
(dp3334
g73
(dp3335
sg82
g2822
sg75
(lp3336
g68
(g89
g70
NtRp3337
(dp3338
g73
(dp3339
g93
g94
ssg82
g3333
sg75
(lp3340
S'wsgi.multithread'
p3341
asbag68
(g89
g70
NtRp3342
(dp3343
g73
(dp3344
g100
g101
ssg82
g3333
sg75
(lp3345
S':'
asbag68
(g89
g70
NtRp3346
(dp3347
g73
(dp3348
sg82
g3333
sg75
(lp3349
g68
(g69
g70
NtRp3350
(dp3351
g73
(dp3352
g81
I3
ssg82
g3346
sg75
(lp3353
g2072
asbasbasbag68
(g84
g70
NtRp3354
(dp3355
g73
(dp3356
sg82
g2822
sg75
(lp3357
g68
(g89
g70
NtRp3358
(dp3359
g73
(dp3360
g93
g94
ssg82
g3354
sg75
(lp3361
S'wsgi.run_once'
p3362
asbag68
(g89
g70
NtRp3363
(dp3364
g73
(dp3365
g100
g101
ssg82
g3354
sg75
(lp3366
S':'
asbag68
(g89
g70
NtRp3367
(dp3368
g73
(dp3369
sg82
g3354
sg75
(lp3370
g68
(g69
g70
NtRp3371
(dp3372
g73
(dp3373
g81
I3
ssg82
g3367
sg75
(lp3374
g111
asbasbasbag68
(g84
g70
NtRp3375
(dp3376
g73
(dp3377
sg82
g2822
sg75
(lp3378
g68
(g89
g70
NtRp3379
(dp3380
g73
(dp3381
g93
g94
ssg82
g3375
sg75
(lp3382
S'wsgi.url_scheme'
p3383
asbag68
(g89
g70
NtRp3384
(dp3385
g73
(dp3386
g100
g101
ssg82
g3375
sg75
(lp3387
S':'
asbag68
(g89
g70
NtRp3388
(dp3389
g73
(dp3390
sg82
g3375
sg75
(lp3391
g68
(g69
g70
NtRp3392
(dp3393
g73
(dp3394
g81
I3
ssg82
g3388
sg75
(lp3395
g2115
asbasbasbag68
(g84
g70
NtRp3396
(dp3397
g73
(dp3398
sg82
g2822
sg75
(lp3399
g68
(g89
g70
NtRp3400
(dp3401
g73
(dp3402
g93
g94
ssg82
g3396
sg75
(lp3403
S'wsgi.version'
p3404
asbag68
(g89
g70
NtRp3405
(dp3406
g73
(dp3407
g100
g101
ssg82
g3396
sg75
(lp3408
S':'
asbag68
(g89
g70
NtRp3409
(dp3410
g73
(dp3411
sg82
g3396
sg75
(lp3412
g68
(g69
g70
NtRp3413
(dp3414
g73
(dp3415
g81
I3
ssg82
g3409
sg75
(lp3416
S'1'
asbasbasbasbasbasbasbasbasbasbasbasbasbsS'frames'
p3417
(lp3418
(dp3419
S'file'
p3420
S'/home/kaique/Projects/web2py/gluon/restricted.py'
p3421
sS'dump'
p3422
(dp3423
S'code'
p3424
S'\'response.write(\\\'<!DOCTYPE html>\\\\n<html lang="\\\', ...nse.write(\\\'\\\\n  </body>\\\\n</html>\\\\n\\\', escape=False)\''
p3425
sS'layer'
p3426
S"'/home/kaique/Projects/web2py/applications/synopsis/views/information/publication.html'"
p3427
sS'global compile2'
p3428
S'<function compile2>'
p3429
sS'ccode'
p3430
S'undefined'
p3431
ssS'lnum'
p3432
I193
sS'lines'
p3433
(dp3434
I192
S'        else:'
p3435
sI193
S'            ccode = compile2(code,layer)'
p3436
sI194
S'        exec ccode in environment'
p3437
sI195
S'    except HTTP:'
p3438
sI196
S'        raise'
p3439
sI197
S'    except Exception, error:'
p3440
sI188
S"    environment['__file__'] = layer"
p3441
sI189
S'    try:'
p3442
sI190
S'        if type(code) == types.CodeType:'
p3443
sI191
S'            ccode = code'
p3444
ssS'call'
p3445
S'(code=\'response.write(\\\'<!DOCTYPE html>\\\\n<html lang="\\\', ...nse.write(\\\'\\\\n  </body>\\\\n</html>\\\\n\\\', escape=False)\', environment={\'A\': <class \'gluon.html.A\'>, \'Auth\': <class \'gluon.tools.Auth\'>, \'B\': <class \'gluon.html.B\'>, \'BEAUTIFY\': <class \'gluon.html.BEAUTIFY\'>, \'BODY\': <class \'gluon.html.BODY\'>, \'BR\': <class \'gluon.html.BR\'>, \'BUTTON\': <class \'gluon.html.BUTTON\'>, \'CAT\': <class \'gluon.html.CAT\'>, \'CENTER\': <class \'gluon.html.CENTER\'>, \'CLEANUP\': <class \'gluon.validators.CLEANUP\'>, ...}, layer=\'/home/kaique/Projects/web2py/applications/synopsis/views/information/publication.html\')'
p3446
sS'func'
p3447
S'restricted'
p3448
sa(dp3449
g3420
S'/home/kaique/Projects/web2py/gluon/restricted.py'
p3450
sg3422
(dp3451
S'builtincompile'
p3452
S'<built-in function compile>'
p3453
sS'code'
p3454
S'\'response.write(\\\'<!DOCTYPE html>\\\\n<html lang="\\\', ...nse.write(\\\'\\\\n  </body>\\\\n</html>\\\\n\\\', escape=False)\''
p3455
sS'code.rstrip'
p3456
S'<built-in method rstrip of str object>'
p3457
sS').replace'
p3458
g3431
sS'layer'
p3459
S"'/home/kaique/Projects/web2py/applications/synopsis/views/information/publication.html'"
p3460
ssg3432
I179
sg3433
(dp3461
I174
S''
sI175
S'def compile2(code,layer):'
p3462
sI176
S'    """'
p3463
sI177
S"    The +'\\n' is necessary else compile fails when code ends in a comment."
p3464
sI178
S'    """'
p3465
sI179
S"    return compile(code.rstrip().replace('\\r\\n','\\n')+'\\n', layer, 'exec')"
p3466
sI180
S''
sI181
S"def restricted(code, environment=None, layer='Unknown'):"
p3467
sI182
S'    """'
p3468
sI183
S'    runs code in environment and returns the output. if an exception occurs'
p3469
ssg3445
S'(code=\'response.write(\\\'<!DOCTYPE html>\\\\n<html lang="\\\', ...nse.write(\\\'\\\\n  </body>\\\\n</html>\\\\n\\\', escape=False)\', layer=\'/home/kaique/Projects/web2py/applications/synopsis/views/information/publication.html\')'
p3470
sg3447
S'compile2'
p3471
sasS'pyver'
p3472
S'Python 2.7.2+: /usr/bin/python'
p3473
sS'session'
p3474
g68
(g69
g70
NtRp3475
(dp3476
g73
(dp3477
sg75
(lp3478
g68
(g77
g70
NtRp3479
(dp3480
g73
(dp3481
g81
I5
ssg82
Nsg75
(lp3482
g68
(g84
g70
NtRp3483
(dp3484
g73
(dp3485
sg82
g3479
sg75
(lp3486
g68
(g89
g70
NtRp3487
(dp3488
g73
(dp3489
g93
g94
ssg82
g3483
sg75
(lp3490
S'auth'
p3491
asbag68
(g89
g70
NtRp3492
(dp3493
g73
(dp3494
g100
g101
ssg82
g3483
sg75
(lp3495
S':'
asbag68
(g89
g70
NtRp3496
(dp3497
g73
(dp3498
sg82
g3483
sg75
(lp3499
g68
(g69
g70
NtRp3500
(dp3501
g73
(dp3502
g81
I5
ssg82
g3496
sg75
(lp3503
g68
(g77
g70
NtRp3504
(dp3505
g73
(dp3506
g81
I4
ssg82
Nsg75
(lp3507
g68
(g84
g70
NtRp3508
(dp3509
g73
(dp3510
sg82
g3504
sg75
(lp3511
g68
(g89
g70
NtRp3512
(dp3513
g73
(dp3514
g93
g94
ssg82
g3508
sg75
(lp3515
S'expiration'
p3516
asbag68
(g89
g70
NtRp3517
(dp3518
g73
(dp3519
g100
g101
ssg82
g3508
sg75
(lp3520
S':'
asbag68
(g89
g70
NtRp3521
(dp3522
g73
(dp3523
sg82
g3508
sg75
(lp3524
g68
(g69
g70
NtRp3525
(dp3526
g73
(dp3527
g81
I4
ssg82
g3521
sg75
(lp3528
S'2592000'
p3529
asbasbasbag68
(g84
g70
NtRp3530
(dp3531
g73
(dp3532
sg82
g3504
sg75
(lp3533
g68
(g89
g70
NtRp3534
(dp3535
g73
(dp3536
g93
g94
ssg82
g3530
sg75
(lp3537
S'hmac_key'
p3538
asbag68
(g89
g70
NtRp3539
(dp3540
g73
(dp3541
g100
g101
ssg82
g3530
sg75
(lp3542
S':'
asbag68
(g89
g70
NtRp3543
(dp3544
g73
(dp3545
sg82
g3530
sg75
(lp3546
g68
(g69
g70
NtRp3547
(dp3548
g73
(dp3549
g81
I4
ssg82
g3543
sg75
(lp3550
S'63ff9364-0b36-492d-81fa-9c003e42e522'
p3551
asbasbasbag68
(g84
g70
NtRp3552
(dp3553
g73
(dp3554
sg82
g3504
sg75
(lp3555
g68
(g89
g70
NtRp3556
(dp3557
g73
(dp3558
g93
g94
ssg82
g3552
sg75
(lp3559
S'last_visit'
p3560
asbag68
(g89
g70
NtRp3561
(dp3562
g73
(dp3563
g100
g101
ssg82
g3552
sg75
(lp3564
S':'
asbag68
(g89
g70
NtRp3565
(dp3566
g73
(dp3567
sg82
g3552
sg75
(lp3568
g68
(g69
g70
NtRp3569
(dp3570
g73
(dp3571
g81
I4
ssg82
g3565
sg75
(lp3572
S'datetime.datetime(2012, 1, 13, 22, 9, 29, 822346)'
p3573
asbasbasbag68
(g84
g70
NtRp3574
(dp3575
g73
(dp3576
sg82
g3504
sg75
(lp3577
g68
(g89
g70
NtRp3578
(dp3579
g73
(dp3580
g93
g94
ssg82
g3574
sg75
(lp3581
S'remember'
p3582
asbag68
(g89
g70
NtRp3583
(dp3584
g73
(dp3585
g100
g101
ssg82
g3574
sg75
(lp3586
S':'
asbag68
(g89
g70
NtRp3587
(dp3588
g73
(dp3589
sg82
g3574
sg75
(lp3590
g68
(g69
g70
NtRp3591
(dp3592
g73
(dp3593
g81
I4
ssg82
g3587
sg75
(lp3594
g111
asbasbasbag68
(g84
g70
NtRp3595
(dp3596
g73
(dp3597
sg82
g3504
sg75
(lp3598
g68
(g89
g70
NtRp3599
(dp3600
g73
(dp3601
g93
g94
ssg82
g3595
sg75
(lp3602
S'user'
p3603
asbag68
(g89
g70
NtRp3604
(dp3605
g73
(dp3606
g100
g101
ssg82
g3595
sg75
(lp3607
S':'
asbag68
(g89
g70
NtRp3608
(dp3609
g73
(dp3610
sg82
g3595
sg75
(lp3611
g68
(g69
g70
NtRp3612
(dp3613
g73
(dp3614
g81
I4
ssg82
g3608
sg75
(lp3615
g68
(g77
g70
NtRp3616
(dp3617
g73
(dp3618
g81
I3
ssg82
Nsg75
(lp3619
g68
(g84
g70
NtRp3620
(dp3621
g73
(dp3622
sg82
g3616
sg75
(lp3623
g68
(g89
g70
NtRp3624
(dp3625
g73
(dp3626
g93
g94
ssg82
g3620
sg75
(lp3627
S'email'
p3628
asbag68
(g89
g70
NtRp3629
(dp3630
g73
(dp3631
g100
g101
ssg82
g3620
sg75
(lp3632
S':'
asbag68
(g89
g70
NtRp3633
(dp3634
g73
(dp3635
sg82
g3620
sg75
(lp3636
g68
(g69
g70
NtRp3637
(dp3638
g73
(dp3639
g81
I3
ssg82
g3633
sg75
(lp3640
S'kaique.developer@gmail.com'
p3641
asbasbasbag68
(g84
g70
NtRp3642
(dp3643
g73
(dp3644
sg82
g3616
sg75
(lp3645
g68
(g89
g70
NtRp3646
(dp3647
g73
(dp3648
g93
g94
ssg82
g3642
sg75
(lp3649
S'first_name'
p3650
asbag68
(g89
g70
NtRp3651
(dp3652
g73
(dp3653
g100
g101
ssg82
g3642
sg75
(lp3654
S':'
asbag68
(g89
g70
NtRp3655
(dp3656
g73
(dp3657
sg82
g3642
sg75
(lp3658
g68
(g69
g70
NtRp3659
(dp3660
g73
(dp3661
g81
I3
ssg82
g3655
sg75
(lp3662
S'kaique'
p3663
asbasbasbag68
(g84
g70
NtRp3664
(dp3665
g73
(dp3666
sg82
g3616
sg75
(lp3667
g68
(g89
g70
NtRp3668
(dp3669
g73
(dp3670
g93
g94
ssg82
g3664
sg75
(lp3671
S'id'
p3672
asbag68
(g89
g70
NtRp3673
(dp3674
g73
(dp3675
g100
g101
ssg82
g3664
sg75
(lp3676
S':'
asbag68
(g89
g70
NtRp3677
(dp3678
g73
(dp3679
sg82
g3664
sg75
(lp3680
g68
(g69
g70
NtRp3681
(dp3682
g73
(dp3683
g81
I3
ssg82
g3677
sg75
(lp3684
S'1'
asbasbasbag68
(g84
g70
NtRp3685
(dp3686
g73
(dp3687
sg82
g3616
sg75
(lp3688
g68
(g89
g70
NtRp3689
(dp3690
g73
(dp3691
g93
g94
ssg82
g3685
sg75
(lp3692
S'last_name'
p3693
asbag68
(g89
g70
NtRp3694
(dp3695
g73
(dp3696
g100
g101
ssg82
g3685
sg75
(lp3697
S':'
asbag68
(g89
g70
NtRp3698
(dp3699
g73
(dp3700
sg82
g3685
sg75
(lp3701
g68
(g69
g70
NtRp3702
(dp3703
g73
(dp3704
g81
I3
ssg82
g3698
sg75
(lp3705
S'silva'
p3706
asbasbasbag68
(g84
g70
NtRp3707
(dp3708
g73
(dp3709
sg82
g3616
sg75
(lp3710
g68
(g89
g70
NtRp3711
(dp3712
g73
(dp3713
g93
g94
ssg82
g3707
sg75
(lp3714
S'password'
p3715
asbag68
(g89
g70
NtRp3716
(dp3717
g73
(dp3718
g100
g101
ssg82
g3707
sg75
(lp3719
S':'
asbag68
(g89
g70
NtRp3720
(dp3721
g73
(dp3722
sg82
g3707
sg75
(lp3723
g68
(g69
g70
NtRp3724
(dp3725
g73
(dp3726
g81
I3
ssg82
g3720
sg75
(lp3727
S'72c6a018d62d3fb47d95389e4a062cd2'
p3728
asbasbasbag68
(g84
g70
NtRp3729
(dp3730
g73
(dp3731
sg82
g3616
sg75
(lp3732
g68
(g89
g70
NtRp3733
(dp3734
g73
(dp3735
g93
g94
ssg82
g3729
sg75
(lp3736
S'registration_key'
p3737
asbag68
(g89
g70
NtRp3738
(dp3739
g73
(dp3740
g100
g101
ssg82
g3729
sg75
(lp3741
S':'
asbag68
(g89
g70
NtRp3742
(dp3743
g73
(dp3744
sg82
g3729
sg75
(lp3745
g68
(g69
g70
NtRp3746
(dp3747
g73
(dp3748
g81
I3
ssg82
g3742
sg75
(lp3749
S''
asbasbasbag68
(g84
g70
NtRp3750
(dp3751
g73
(dp3752
sg82
g3616
sg75
(lp3753
g68
(g89
g70
NtRp3754
(dp3755
g73
(dp3756
g93
g94
ssg82
g3750
sg75
(lp3757
S'reset_password_key'
p3758
asbag68
(g89
g70
NtRp3759
(dp3760
g73
(dp3761
g100
g101
ssg82
g3750
sg75
(lp3762
S':'
asbag68
(g89
g70
NtRp3763
(dp3764
g73
(dp3765
sg82
g3750
sg75
(lp3766
g68
(g69
g70
NtRp3767
(dp3768
g73
(dp3769
g81
I3
ssg82
g3763
sg75
(lp3770
S''
asbasbasbasbasbasbasbasbasbasbasbag68
(g84
g70
NtRp3771
(dp3772
g73
(dp3773
sg82
g3479
sg75
(lp3774
g68
(g89
g70
NtRp3775
(dp3776
g73
(dp3777
g93
g94
ssg82
g3771
sg75
(lp3778
S'back'
p3779
asbag68
(g89
g70
NtRp3780
(dp3781
g73
(dp3782
g100
g101
ssg82
g3771
sg75
(lp3783
S':'
asbag68
(g89
g70
NtRp3784
(dp3785
g73
(dp3786
sg82
g3771
sg75
(lp3787
g68
(g69
g70
NtRp3788
(dp3789
g73
(dp3790
g81
I5
ssg82
g3784
sg75
(lp3791
S'1'
asbasbasbag68
(g84
g70
NtRp3792
(dp3793
g73
(dp3794
sg82
g3479
sg75
(lp3795
g68
(g89
g70
NtRp3796
(dp3797
g73
(dp3798
g93
g94
ssg82
g3792
sg75
(lp3799
S'index'
p3800
asbag68
(g89
g70
NtRp3801
(dp3802
g73
(dp3803
g100
g101
ssg82
g3792
sg75
(lp3804
S':'
asbag68
(g89
g70
NtRp3805
(dp3806
g73
(dp3807
sg82
g3792
sg75
(lp3808
g68
(g69
g70
NtRp3809
(dp3810
g73
(dp3811
g81
I5
ssg82
g3805
sg75
(lp3812
S'1'
asbasbasbag68
(g84
g70
NtRp3813
(dp3814
g73
(dp3815
sg82
g3479
sg75
(lp3816
g68
(g89
g70
NtRp3817
(dp3818
g73
(dp3819
g93
g94
ssg82
g3813
sg75
(lp3820
S'last_query'
p3821
asbag68
(g89
g70
NtRp3822
(dp3823
g73
(dp3824
g100
g101
ssg82
g3813
sg75
(lp3825
S':'
asbag68
(g89
g70
NtRp3826
(dp3827
g73
(dp3828
sg82
g3813
sg75
(lp3829
g68
(g69
g70
NtRp3830
(dp3831
g73
(dp3832
g81
I5
ssg82
g3826
sg75
(lp3833
S'db.row.id>0'
p3834
asbasbasbasbasbsS'etype'
p3835
S"<type 'exceptions.SyntaxError'>"
p3836
sS'date'
p3837
S'Sat Jan 14 00:11:36 2012'
p3838
sS'response'
p3839
g68
(g69
g70
NtRp3840
(dp3841
g73
(dp3842
sg75
(lp3843
g68
(g77
g70
NtRp3844
(dp3845
g73
(dp3846
g81
I5
ssg82
Nsg75
(lp3847
g68
(g84
g70
NtRp3848
(dp3849
g73
(dp3850
sg82
g3844
sg75
(lp3851
g68
(g89
g70
NtRp3852
(dp3853
g73
(dp3854
g93
g94
ssg82
g3848
sg75
(lp3855
g178
asbag68
(g89
g70
NtRp3856
(dp3857
g73
(dp3858
g100
g101
ssg82
g3848
sg75
(lp3859
S':'
asbag68
(g89
g70
NtRp3860
(dp3861
g73
(dp3862
sg82
g3848
sg75
(lp3863
g68
(g69
g70
NtRp3864
(dp3865
g73
(dp3866
g81
I5
ssg82
g3860
sg75
(lp3867
S'<cStringIO.StringO object at 0x2a59f48>'
p3868
asbasbasbag68
(g84
g70
NtRp3869
(dp3870
g73
(dp3871
sg82
g3844
sg75
(lp3872
g68
(g89
g70
NtRp3873
(dp3874
g73
(dp3875
g93
g94
ssg82
g3869
sg75
(lp3876
g244
asbag68
(g89
g70
NtRp3877
(dp3878
g73
(dp3879
g100
g101
ssg82
g3869
sg75
(lp3880
S':'
asbag68
(g89
g70
NtRp3881
(dp3882
g73
(dp3883
sg82
g3869
sg75
(lp3884
g68
(g69
g70
NtRp3885
(dp3886
g73
(dp3887
g81
I5
ssg82
g3881
sg75
(lp3888
g68
(g77
g70
NtRp3889
(dp3890
g73
(dp3891
g81
I4
ssg82
Nsg75
(lp3892
g68
(g84
g70
NtRp3893
(dp3894
g73
(dp3895
sg82
g3889
sg75
(lp3896
g68
(g89
g70
NtRp3897
(dp3898
g73
(dp3899
g93
g94
ssg82
g3893
sg75
(lp3900
S'session_id_synopsis'
p3901
asbag68
(g89
g70
NtRp3902
(dp3903
g73
(dp3904
g100
g101
ssg82
g3893
sg75
(lp3905
S':'
asbag68
(g89
g70
NtRp3906
(dp3907
g73
(dp3908
sg82
g3893
sg75
(lp3909
g68
(g69
g70
NtRp3910
(dp3911
g73
(dp3912
g81
I4
ssg82
g3906
sg75
(lp3913
g68
(g77
g70
NtRp3914
(dp3915
g73
(dp3916
g81
I3
ssg82
Nsg75
(lp3917
g68
(g84
g70
NtRp3918
(dp3919
g73
(dp3920
sg82
g3914
sg75
(lp3921
g68
(g89
g70
NtRp3922
(dp3923
g73
(dp3924
g93
g94
ssg82
g3918
sg75
(lp3925
g294
asbag68
(g89
g70
NtRp3926
(dp3927
g73
(dp3928
g100
g101
ssg82
g3918
sg75
(lp3929
S':'
asbag68
(g89
g70
NtRp3930
(dp3931
g73
(dp3932
sg82
g3918
sg75
(lp3933
g68
(g69
g70
NtRp3934
(dp3935
g73
(dp3936
g81
I3
ssg82
g3930
sg75
(lp3937
S''
asbasbasbag68
(g84
g70
NtRp3938
(dp3939
g73
(dp3940
sg82
g3914
sg75
(lp3941
g68
(g89
g70
NtRp3942
(dp3943
g73
(dp3944
g93
g94
ssg82
g3938
sg75
(lp3945
g315
asbag68
(g89
g70
NtRp3946
(dp3947
g73
(dp3948
g100
g101
ssg82
g3938
sg75
(lp3949
S':'
asbag68
(g89
g70
NtRp3950
(dp3951
g73
(dp3952
sg82
g3938
sg75
(lp3953
g68
(g69
g70
NtRp3954
(dp3955
g73
(dp3956
g81
I3
ssg82
g3950
sg75
(lp3957
S''
asbasbasbag68
(g84
g70
NtRp3958
(dp3959
g73
(dp3960
sg82
g3914
sg75
(lp3961
g68
(g89
g70
NtRp3962
(dp3963
g73
(dp3964
g93
g94
ssg82
g3958
sg75
(lp3965
g336
asbag68
(g89
g70
NtRp3966
(dp3967
g73
(dp3968
g100
g101
ssg82
g3958
sg75
(lp3969
S':'
asbag68
(g89
g70
NtRp3970
(dp3971
g73
(dp3972
sg82
g3958
sg75
(lp3973
g68
(g69
g70
NtRp3974
(dp3975
g73
(dp3976
g81
I3
ssg82
g3970
sg75
(lp3977
S''
asbasbasbag68
(g84
g70
NtRp3978
(dp3979
g73
(dp3980
sg82
g3914
sg75
(lp3981
g68
(g89
g70
NtRp3982
(dp3983
g73
(dp3984
g93
g94
ssg82
g3978
sg75
(lp3985
g357
asbag68
(g89
g70
NtRp3986
(dp3987
g73
(dp3988
g100
g101
ssg82
g3978
sg75
(lp3989
S':'
asbag68
(g89
g70
NtRp3990
(dp3991
g73
(dp3992
sg82
g3978
sg75
(lp3993
g68
(g69
g70
NtRp3994
(dp3995
g73
(dp3996
g81
I3
ssg82
g3990
sg75
(lp3997
S''
asbasbasbag68
(g84
g70
NtRp3998
(dp3999
g73
(dp4000
sg82
g3914
sg75
(lp4001
g68
(g89
g70
NtRp4002
(dp4003
g73
(dp4004
g93
g94
ssg82
g3998
sg75
(lp4005
g378
asbag68
(g89
g70
NtRp4006
(dp4007
g73
(dp4008
g100
g101
ssg82
g3998
sg75
(lp4009
S':'
asbag68
(g89
g70
NtRp4010
(dp4011
g73
(dp4012
sg82
g3998
sg75
(lp4013
g68
(g69
g70
NtRp4014
(dp4015
g73
(dp4016
g81
I3
ssg82
g4010
sg75
(lp4017
S''
asbasbasbag68
(g84
g70
NtRp4018
(dp4019
g73
(dp4020
sg82
g3914
sg75
(lp4021
g68
(g89
g70
NtRp4022
(dp4023
g73
(dp4024
g93
g94
ssg82
g4018
sg75
(lp4025
g399
asbag68
(g89
g70
NtRp4026
(dp4027
g73
(dp4028
g100
g101
ssg82
g4018
sg75
(lp4029
S':'
asbag68
(g89
g70
NtRp4030
(dp4031
g73
(dp4032
sg82
g4018
sg75
(lp4033
g68
(g69
g70
NtRp4034
(dp4035
g73
(dp4036
g81
I3
ssg82
g4030
sg75
(lp4037
S'/'
asbasbasbag68
(g84
g70
NtRp4038
(dp4039
g73
(dp4040
sg82
g3914
sg75
(lp4041
g68
(g89
g70
NtRp4042
(dp4043
g73
(dp4044
g93
g94
ssg82
g4038
sg75
(lp4045
g420
asbag68
(g89
g70
NtRp4046
(dp4047
g73
(dp4048
g100
g101
ssg82
g4038
sg75
(lp4049
S':'
asbag68
(g89
g70
NtRp4050
(dp4051
g73
(dp4052
sg82
g4038
sg75
(lp4053
g68
(g69
g70
NtRp4054
(dp4055
g73
(dp4056
g81
I3
ssg82
g4050
sg75
(lp4057
S''
asbasbasbag68
(g84
g70
NtRp4058
(dp4059
g73
(dp4060
sg82
g3914
sg75
(lp4061
g68
(g89
g70
NtRp4062
(dp4063
g73
(dp4064
g93
g94
ssg82
g4058
sg75
(lp4065
g441
asbag68
(g89
g70
NtRp4066
(dp4067
g73
(dp4068
g100
g101
ssg82
g4058
sg75
(lp4069
S':'
asbag68
(g89
g70
NtRp4070
(dp4071
g73
(dp4072
sg82
g4058
sg75
(lp4073
g68
(g69
g70
NtRp4074
(dp4075
g73
(dp4076
g81
I3
ssg82
g4070
sg75
(lp4077
S''
asbasbasbasbasbasbasbasbasbasbasbag68
(g84
g70
NtRp4078
(dp4079
g73
(dp4080
sg82
g3844
sg75
(lp4081
g68
(g89
g70
NtRp4082
(dp4083
g73
(dp4084
g93
g94
ssg82
g4078
sg75
(lp4085
S'files'
p4086
asbag68
(g89
g70
NtRp4087
(dp4088
g73
(dp4089
g100
g101
ssg82
g4078
sg75
(lp4090
S':'
asbag68
(g89
g70
NtRp4091
(dp4092
g73
(dp4093
sg82
g4078
sg75
(lp4094
g68
(g69
g70
NtRp4095
(dp4096
g73
(dp4097
g81
I5
ssg82
g4091
sg75
(lp4098
g68
(g77
g70
NtRp4099
(dp4100
g73
(dp4101
g81
I4
ssg82
Nsg75
(lp4102
sbasbasbasbag68
(g84
g70
NtRp4103
(dp4104
g73
(dp4105
sg82
g3844
sg75
(lp4106
g68
(g89
g70
NtRp4107
(dp4108
g73
(dp4109
g93
g94
ssg82
g4103
sg75
(lp4110
S'flash'
p4111
asbag68
(g89
g70
NtRp4112
(dp4113
g73
(dp4114
g100
g101
ssg82
g4103
sg75
(lp4115
S':'
asbag68
(g89
g70
NtRp4116
(dp4117
g73
(dp4118
sg82
g4103
sg75
(lp4119
g68
(g69
g70
NtRp4120
(dp4121
g73
(dp4122
g81
I5
ssg82
g4116
sg75
(lp4123
S''
asbasbasbag68
(g84
g70
NtRp4124
(dp4125
g73
(dp4126
sg82
g3844
sg75
(lp4127
g68
(g89
g70
NtRp4128
(dp4129
g73
(dp4130
g93
g94
ssg82
g4124
sg75
(lp4131
S'generic_patterns'
p4132
asbag68
(g89
g70
NtRp4133
(dp4134
g73
(dp4135
g100
g101
ssg82
g4124
sg75
(lp4136
S':'
asbag68
(g89
g70
NtRp4137
(dp4138
g73
(dp4139
sg82
g4124
sg75
(lp4140
g68
(g69
g70
NtRp4141
(dp4142
g73
(dp4143
g81
I5
ssg82
g4137
sg75
(lp4144
g68
(g77
g70
NtRp4145
(dp4146
g73
(dp4147
g81
I4
ssg82
Nsg75
(lp4148
g68
(g84
g70
NtRp4149
(dp4150
g73
(dp4151
sg82
g4145
sg75
(lp4152
g68
(g89
g70
NtRp4153
(dp4154
g73
(dp4155
sg82
g4149
sg75
(lp4156
g68
(g69
g70
NtRp4157
(dp4158
g73
(dp4159
g81
I4
ssg82
g4153
sg75
(lp4160
S'*'
asbasbasbasbasbasbasbag68
(g84
g70
NtRp4161
(dp4162
g73
(dp4163
sg82
g3844
sg75
(lp4164
g68
(g89
g70
NtRp4165
(dp4166
g73
(dp4167
g93
g94
ssg82
g4161
sg75
(lp4168
S'headers'
p4169
asbag68
(g89
g70
NtRp4170
(dp4171
g73
(dp4172
g100
g101
ssg82
g4161
sg75
(lp4173
S':'
asbag68
(g89
g70
NtRp4174
(dp4175
g73
(dp4176
sg82
g4161
sg75
(lp4177
g68
(g69
g70
NtRp4178
(dp4179
g73
(dp4180
g81
I5
ssg82
g4174
sg75
(lp4181
g68
(g77
g70
NtRp4182
(dp4183
g73
(dp4184
g81
I4
ssg82
Nsg75
(lp4185
g68
(g84
g70
NtRp4186
(dp4187
g73
(dp4188
sg82
g4182
sg75
(lp4189
g68
(g89
g70
NtRp4190
(dp4191
g73
(dp4192
g93
g94
ssg82
g4186
sg75
(lp4193
S'Cache-Control'
p4194
asbag68
(g89
g70
NtRp4195
(dp4196
g73
(dp4197
g100
g101
ssg82
g4186
sg75
(lp4198
S':'
asbag68
(g89
g70
NtRp4199
(dp4200
g73
(dp4201
sg82
g4186
sg75
(lp4202
g68
(g69
g70
NtRp4203
(dp4204
g73
(dp4205
g81
I4
ssg82
g4199
sg75
(lp4206
S'no-store, no-cache, must-revalidate, post-check=0, pre-check=0'
p4207
asbasbasbag68
(g84
g70
NtRp4208
(dp4209
g73
(dp4210
sg82
g4182
sg75
(lp4211
g68
(g89
g70
NtRp4212
(dp4213
g73
(dp4214
g93
g94
ssg82
g4208
sg75
(lp4215
S'Content-Type'
p4216
asbag68
(g89
g70
NtRp4217
(dp4218
g73
(dp4219
g100
g101
ssg82
g4208
sg75
(lp4220
S':'
asbag68
(g89
g70
NtRp4221
(dp4222
g73
(dp4223
sg82
g4208
sg75
(lp4224
g68
(g69
g70
NtRp4225
(dp4226
g73
(dp4227
g81
I4
ssg82
g4221
sg75
(lp4228
S'text/html; charset=utf-8'
p4229
asbasbasbag68
(g84
g70
NtRp4230
(dp4231
g73
(dp4232
sg82
g4182
sg75
(lp4233
g68
(g89
g70
NtRp4234
(dp4235
g73
(dp4236
g93
g94
ssg82
g4230
sg75
(lp4237
S'Expires'
p4238
asbag68
(g89
g70
NtRp4239
(dp4240
g73
(dp4241
g100
g101
ssg82
g4230
sg75
(lp4242
S':'
asbag68
(g89
g70
NtRp4243
(dp4244
g73
(dp4245
sg82
g4230
sg75
(lp4246
g68
(g69
g70
NtRp4247
(dp4248
g73
(dp4249
g81
I4
ssg82
g4243
sg75
(lp4250
S'Sat, 14 Jan 2012 02:11:36 GMT'
p4251
asbasbasbag68
(g84
g70
NtRp4252
(dp4253
g73
(dp4254
sg82
g4182
sg75
(lp4255
g68
(g89
g70
NtRp4256
(dp4257
g73
(dp4258
g93
g94
ssg82
g4252
sg75
(lp4259
S'Pragma'
p4260
asbag68
(g89
g70
NtRp4261
(dp4262
g73
(dp4263
g100
g101
ssg82
g4252
sg75
(lp4264
S':'
asbag68
(g89
g70
NtRp4265
(dp4266
g73
(dp4267
sg82
g4252
sg75
(lp4268
g68
(g69
g70
NtRp4269
(dp4270
g73
(dp4271
g81
I4
ssg82
g4265
sg75
(lp4272
S'no-cache'
p4273
asbasbasbag68
(g84
g70
NtRp4274
(dp4275
g73
(dp4276
sg82
g4182
sg75
(lp4277
g68
(g89
g70
NtRp4278
(dp4279
g73
(dp4280
g93
g94
ssg82
g4274
sg75
(lp4281
S'X-Powered-By'
p4282
asbag68
(g89
g70
NtRp4283
(dp4284
g73
(dp4285
g100
g101
ssg82
g4274
sg75
(lp4286
S':'
asbag68
(g89
g70
NtRp4287
(dp4288
g73
(dp4289
sg82
g4274
sg75
(lp4290
g68
(g69
g70
NtRp4291
(dp4292
g73
(dp4293
g81
I4
ssg82
g4287
sg75
(lp4294
S'web2py'
p4295
asbasbasbasbasbasbasbag68
(g84
g70
NtRp4296
(dp4297
g73
(dp4298
sg82
g3844
sg75
(lp4299
g68
(g89
g70
NtRp4300
(dp4301
g73
(dp4302
g93
g94
ssg82
g4296
sg75
(lp4303
S'menu'
p4304
asbag68
(g89
g70
NtRp4305
(dp4306
g73
(dp4307
g100
g101
ssg82
g4296
sg75
(lp4308
S':'
asbag68
(g89
g70
NtRp4309
(dp4310
g73
(dp4311
sg82
g4296
sg75
(lp4312
g68
(g69
g70
NtRp4313
(dp4314
g73
(dp4315
g81
I5
ssg82
g4309
sg75
(lp4316
g68
(g77
g70
NtRp4317
(dp4318
g73
(dp4319
g81
I4
ssg82
Nsg75
(lp4320
g68
(g84
g70
NtRp4321
(dp4322
g73
(dp4323
sg82
g4317
sg75
(lp4324
g68
(g89
g70
NtRp4325
(dp4326
g73
(dp4327
sg82
g4321
sg75
(lp4328
g68
(g69
g70
NtRp4329
(dp4330
g73
(dp4331
g81
I4
ssg82
g4325
sg75
(lp4332
g68
(g77
g70
NtRp4333
(dp4334
g73
(dp4335
g81
I3
ssg82
Nsg75
(lp4336
g68
(g84
g70
NtRp4337
(dp4338
g73
(dp4339
sg82
g4333
sg75
(lp4340
g68
(g89
g70
NtRp4341
(dp4342
g73
(dp4343
sg82
g4337
sg75
(lp4344
g68
(g69
g70
NtRp4345
(dp4346
g73
(dp4347
g81
I3
ssg82
g4341
sg75
(lp4348
cgluon.languages
lazyT_unpickle
p4349
(S't\x04\x00\x00\x00Home'
tRp4350
asbasbasbag68
(g84
g70
NtRp4351
(dp4352
g73
(dp4353
sg82
g4333
sg75
(lp4354
g68
(g89
g70
NtRp4355
(dp4356
g73
(dp4357
sg82
g4351
sg75
(lp4358
g68
(g69
g70
NtRp4359
(dp4360
g73
(dp4361
g81
I3
ssg82
g4355
sg75
(lp4362
g111
asbasbasbag68
(g84
g70
NtRp4363
(dp4364
g73
(dp4365
sg82
g4333
sg75
(lp4366
g68
(g89
g70
NtRp4367
(dp4368
g73
(dp4369
sg82
g4363
sg75
(lp4370
g68
(g69
g70
NtRp4371
(dp4372
g73
(dp4373
g81
I3
ssg82
g4367
sg75
(lp4374
S'/synopsis/default/index'
p4375
asbasbasbag68
(g84
g70
NtRp4376
(dp4377
g73
(dp4378
sg82
g4333
sg75
(lp4379
g68
(g89
g70
NtRp4380
(dp4381
g73
(dp4382
sg82
g4376
sg75
(lp4383
g68
(g69
g70
NtRp4384
(dp4385
g73
(dp4386
g81
I3
ssg82
g4380
sg75
(lp4387
g68
(g77
g70
NtRp4388
(dp4389
g73
(dp4390
g81
I2
ssg82
Nsg75
(lp4391
sbasbasbasbasbasbasbasbag68
(g84
g70
NtRp4392
(dp4393
g73
(dp4394
sg82
g4317
sg75
(lp4395
g68
(g89
g70
NtRp4396
(dp4397
g73
(dp4398
sg82
g4392
sg75
(lp4399
g68
(g69
g70
NtRp4400
(dp4401
g73
(dp4402
g81
I4
ssg82
g4396
sg75
(lp4403
g68
(g77
g70
NtRp4404
(dp4405
g73
(dp4406
g81
I3
ssg82
Nsg75
(lp4407
g68
(g84
g70
NtRp4408
(dp4409
g73
(dp4410
sg82
g4404
sg75
(lp4411
g68
(g89
g70
NtRp4412
(dp4413
g73
(dp4414
sg82
g4408
sg75
(lp4415
g68
(g69
g70
NtRp4416
(dp4417
g73
(dp4418
g81
I3
ssg82
g4412
sg75
(lp4419
g4349
(S't\x0b\x00\x00\x00Information'
tRp4420
asbasbasbag68
(g84
g70
NtRp4421
(dp4422
g73
(dp4423
sg82
g4404
sg75
(lp4424
g68
(g89
g70
NtRp4425
(dp4426
g73
(dp4427
sg82
g4421
sg75
(lp4428
g68
(g69
g70
NtRp4429
(dp4430
g73
(dp4431
g81
I3
ssg82
g4425
sg75
(lp4432
g111
asbasbasbag68
(g84
g70
NtRp4433
(dp4434
g73
(dp4435
sg82
g4404
sg75
(lp4436
g68
(g89
g70
NtRp4437
(dp4438
g73
(dp4439
sg82
g4433
sg75
(lp4440
g68
(g69
g70
NtRp4441
(dp4442
g73
(dp4443
g81
I3
ssg82
g4437
sg75
(lp4444
S'/synopsis/information/index'
p4445
asbasbasbag68
(g84
g70
NtRp4446
(dp4447
g73
(dp4448
sg82
g4404
sg75
(lp4449
g68
(g89
g70
NtRp4450
(dp4451
g73
(dp4452
sg82
g4446
sg75
(lp4453
g68
(g69
g70
NtRp4454
(dp4455
g73
(dp4456
g81
I3
ssg82
g4450
sg75
(lp4457
g68
(g77
g70
NtRp4458
(dp4459
g73
(dp4460
g81
I2
ssg82
Nsg75
(lp4461
sbasbasbasbasbasbasbasbag68
(g84
g70
NtRp4462
(dp4463
g73
(dp4464
sg82
g4317
sg75
(lp4465
g68
(g89
g70
NtRp4466
(dp4467
g73
(dp4468
sg82
g4462
sg75
(lp4469
g68
(g69
g70
NtRp4470
(dp4471
g73
(dp4472
g81
I4
ssg82
g4466
sg75
(lp4473
g68
(g77
g70
NtRp4474
(dp4475
g73
(dp4476
g81
I3
ssg82
Nsg75
(lp4477
g68
(g84
g70
NtRp4478
(dp4479
g73
(dp4480
sg82
g4474
sg75
(lp4481
g68
(g89
g70
NtRp4482
(dp4483
g73
(dp4484
sg82
g4478
sg75
(lp4485
g68
(g69
g70
NtRp4486
(dp4487
g73
(dp4488
g81
I3
ssg82
g4482
sg75
(lp4489
g4349
(S't\x05\x00\x00\x00About'
tRp4490
asbasbasbag68
(g84
g70
NtRp4491
(dp4492
g73
(dp4493
sg82
g4474
sg75
(lp4494
g68
(g89
g70
NtRp4495
(dp4496
g73
(dp4497
sg82
g4491
sg75
(lp4498
g68
(g69
g70
NtRp4499
(dp4500
g73
(dp4501
g81
I3
ssg82
g4495
sg75
(lp4502
g111
asbasbasbag68
(g84
g70
NtRp4503
(dp4504
g73
(dp4505
sg82
g4474
sg75
(lp4506
g68
(g89
g70
NtRp4507
(dp4508
g73
(dp4509
sg82
g4503
sg75
(lp4510
g68
(g69
g70
NtRp4511
(dp4512
g73
(dp4513
g81
I3
ssg82
g4507
sg75
(lp4514
S'/synopsis/about/index'
p4515
asbasbasbag68
(g84
g70
NtRp4516
(dp4517
g73
(dp4518
sg82
g4474
sg75
(lp4519
g68
(g89
g70
NtRp4520
(dp4521
g73
(dp4522
sg82
g4516
sg75
(lp4523
g68
(g69
g70
NtRp4524
(dp4525
g73
(dp4526
g81
I3
ssg82
g4520
sg75
(lp4527
g68
(g77
g70
NtRp4528
(dp4529
g73
(dp4530
g81
I2
ssg82
Nsg75
(lp4531
sbasbasbasbasbasbasbasbasbasbasbasbag68
(g84
g70
NtRp4532
(dp4533
g73
(dp4534
sg82
g3844
sg75
(lp4535
g68
(g89
g70
NtRp4536
(dp4537
g73
(dp4538
g93
g94
ssg82
g4532
sg75
(lp4539
S'meta'
p4540
asbag68
(g89
g70
NtRp4541
(dp4542
g73
(dp4543
g100
g101
ssg82
g4532
sg75
(lp4544
S':'
asbag68
(g89
g70
NtRp4545
(dp4546
g73
(dp4547
sg82
g4532
sg75
(lp4548
g68
(g69
g70
NtRp4549
(dp4550
g73
(dp4551
g81
I5
ssg82
g4545
sg75
(lp4552
g68
(g77
g70
NtRp4553
(dp4554
g73
(dp4555
g81
I4
ssg82
Nsg75
(lp4556
g68
(g84
g70
NtRp4557
(dp4558
g73
(dp4559
sg82
g4553
sg75
(lp4560
g68
(g89
g70
NtRp4561
(dp4562
g73
(dp4563
g93
g94
ssg82
g4557
sg75
(lp4564
S'author'
p4565
asbag68
(g89
g70
NtRp4566
(dp4567
g73
(dp4568
g100
g101
ssg82
g4557
sg75
(lp4569
S':'
asbag68
(g89
g70
NtRp4570
(dp4571
g73
(dp4572
sg82
g4557
sg75
(lp4573
g68
(g69
g70
NtRp4574
(dp4575
g73
(dp4576
g81
I4
ssg82
g4570
sg75
(lp4577
S'Your Name <you@example.com>'
p4578
asbasbasbag68
(g84
g70
NtRp4579
(dp4580
g73
(dp4581
sg82
g4553
sg75
(lp4582
g68
(g89
g70
NtRp4583
(dp4584
g73
(dp4585
g93
g94
ssg82
g4579
sg75
(lp4586
S'copyright'
p4587
asbag68
(g89
g70
NtRp4588
(dp4589
g73
(dp4590
g100
g101
ssg82
g4579
sg75
(lp4591
S':'
asbag68
(g89
g70
NtRp4592
(dp4593
g73
(dp4594
sg82
g4579
sg75
(lp4595
g68
(g69
g70
NtRp4596
(dp4597
g73
(dp4598
g81
I4
ssg82
g4592
sg75
(lp4599
S'Copyright 2011'
p4600
asbasbasbag68
(g84
g70
NtRp4601
(dp4602
g73
(dp4603
sg82
g4553
sg75
(lp4604
g68
(g89
g70
NtRp4605
(dp4606
g73
(dp4607
g93
g94
ssg82
g4601
sg75
(lp4608
S'description'
p4609
asbag68
(g89
g70
NtRp4610
(dp4611
g73
(dp4612
g100
g101
ssg82
g4601
sg75
(lp4613
S':'
asbag68
(g89
g70
NtRp4614
(dp4615
g73
(dp4616
sg82
g4601
sg75
(lp4617
g68
(g69
g70
NtRp4618
(dp4619
g73
(dp4620
g81
I4
ssg82
g4614
sg75
(lp4621
S'a cool new app'
p4622
asbasbasbag68
(g84
g70
NtRp4623
(dp4624
g73
(dp4625
sg82
g4553
sg75
(lp4626
g68
(g89
g70
NtRp4627
(dp4628
g73
(dp4629
g93
g94
ssg82
g4623
sg75
(lp4630
S'generator'
p4631
asbag68
(g89
g70
NtRp4632
(dp4633
g73
(dp4634
g100
g101
ssg82
g4623
sg75
(lp4635
S':'
asbag68
(g89
g70
NtRp4636
(dp4637
g73
(dp4638
sg82
g4623
sg75
(lp4639
g68
(g69
g70
NtRp4640
(dp4641
g73
(dp4642
g81
I4
ssg82
g4636
sg75
(lp4643
S'Web2py Web Framework'
p4644
asbasbasbag68
(g84
g70
NtRp4645
(dp4646
g73
(dp4647
sg82
g4553
sg75
(lp4648
g68
(g89
g70
NtRp4649
(dp4650
g73
(dp4651
g93
g94
ssg82
g4645
sg75
(lp4652
S'keywords'
p4653
asbag68
(g89
g70
NtRp4654
(dp4655
g73
(dp4656
g100
g101
ssg82
g4645
sg75
(lp4657
S':'
asbag68
(g89
g70
NtRp4658
(dp4659
g73
(dp4660
sg82
g4645
sg75
(lp4661
g68
(g69
g70
NtRp4662
(dp4663
g73
(dp4664
g81
I4
ssg82
g4658
sg75
(lp4665
S'web2py, python, framework'
p4666
asbasbasbasbasbasbasbag68
(g84
g70
NtRp4667
(dp4668
g73
(dp4669
sg82
g3844
sg75
(lp4670
g68
(g89
g70
NtRp4671
(dp4672
g73
(dp4673
g93
g94
ssg82
g4667
sg75
(lp4674
S'postprocessing'
p4675
asbag68
(g89
g70
NtRp4676
(dp4677
g73
(dp4678
g100
g101
ssg82
g4667
sg75
(lp4679
S':'
asbag68
(g89
g70
NtRp4680
(dp4681
g73
(dp4682
sg82
g4667
sg75
(lp4683
g68
(g69
g70
NtRp4684
(dp4685
g73
(dp4686
g81
I5
ssg82
g4680
sg75
(lp4687
g68
(g77
g70
NtRp4688
(dp4689
g73
(dp4690
g81
I4
ssg82
Nsg75
(lp4691
sbasbasbasbag68
(g84
g70
NtRp4692
(dp4693
g73
(dp4694
sg82
g3844
sg75
(lp4695
g68
(g89
g70
NtRp4696
(dp4697
g73
(dp4698
g93
g94
ssg82
g4692
sg75
(lp4699
S'session_file'
p4700
asbag68
(g89
g70
NtRp4701
(dp4702
g73
(dp4703
g100
g101
ssg82
g4692
sg75
(lp4704
S':'
asbag68
(g89
g70
NtRp4705
(dp4706
g73
(dp4707
sg82
g4692
sg75
(lp4708
g68
(g69
g70
NtRp4709
(dp4710
g73
(dp4711
g81
I5
ssg82
g4705
sg75
(lp4712
S"<open file '/home/kaique/Projects/web2py/applications/synopsis/sessions/127.0.0.1-22caa4ed-0448-4782-a756-bcb437fd81d3', mode 'rb+' at 0x2a38f60>"
p4713
asbasbasbag68
(g84
g70
NtRp4714
(dp4715
g73
(dp4716
sg82
g3844
sg75
(lp4717
g68
(g89
g70
NtRp4718
(dp4719
g73
(dp4720
g93
g94
ssg82
g4714
sg75
(lp4721
S'session_filename'
p4722
asbag68
(g89
g70
NtRp4723
(dp4724
g73
(dp4725
g100
g101
ssg82
g4714
sg75
(lp4726
S':'
asbag68
(g89
g70
NtRp4727
(dp4728
g73
(dp4729
sg82
g4714
sg75
(lp4730
g68
(g69
g70
NtRp4731
(dp4732
g73
(dp4733
g81
I5
ssg82
g4727
sg75
(lp4734
S'/home/kaique/Projects/web2py/applications/synopsis/sessions/127.0.0.1-22caa4ed-0448-4782-a756-bcb437fd81d3'
p4735
asbasbasbag68
(g84
g70
NtRp4736
(dp4737
g73
(dp4738
sg82
g3844
sg75
(lp4739
g68
(g89
g70
NtRp4740
(dp4741
g73
(dp4742
g93
g94
ssg82
g4736
sg75
(lp4743
S'session_id'
p4744
asbag68
(g89
g70
NtRp4745
(dp4746
g73
(dp4747
g100
g101
ssg82
g4736
sg75
(lp4748
S':'
asbag68
(g89
g70
NtRp4749
(dp4750
g73
(dp4751
sg82
g4736
sg75
(lp4752
g68
(g69
g70
NtRp4753
(dp4754
g73
(dp4755
g81
I5
ssg82
g4749
sg75
(lp4756
S'127.0.0.1-22caa4ed-0448-4782-a756-bcb437fd81d3'
p4757
asbasbasbag68
(g84
g70
NtRp4758
(dp4759
g73
(dp4760
sg82
g3844
sg75
(lp4761
g68
(g89
g70
NtRp4762
(dp4763
g73
(dp4764
g93
g94
ssg82
g4758
sg75
(lp4765
S'session_id_name'
p4766
asbag68
(g89
g70
NtRp4767
(dp4768
g73
(dp4769
g100
g101
ssg82
g4758
sg75
(lp4770
S':'
asbag68
(g89
g70
NtRp4771
(dp4772
g73
(dp4773
sg82
g4758
sg75
(lp4774
g68
(g69
g70
NtRp4775
(dp4776
g73
(dp4777
g81
I5
ssg82
g4771
sg75
(lp4778
g3901
asbasbasbag68
(g84
g70
NtRp4779
(dp4780
g73
(dp4781
sg82
g3844
sg75
(lp4782
g68
(g89
g70
NtRp4783
(dp4784
g73
(dp4785
g93
g94
ssg82
g4779
sg75
(lp4786
S'session_locked'
p4787
asbag68
(g89
g70
NtRp4788
(dp4789
g73
(dp4790
g100
g101
ssg82
g4779
sg75
(lp4791
S':'
asbag68
(g89
g70
NtRp4792
(dp4793
g73
(dp4794
sg82
g4779
sg75
(lp4795
g68
(g69
g70
NtRp4796
(dp4797
g73
(dp4798
g81
I5
ssg82
g4792
sg75
(lp4799
g2072
asbasbasbag68
(g84
g70
NtRp4800
(dp4801
g73
(dp4802
sg82
g3844
sg75
(lp4803
g68
(g89
g70
NtRp4804
(dp4805
g73
(dp4806
g93
g94
ssg82
g4800
sg75
(lp4807
S'session_new'
p4808
asbag68
(g89
g70
NtRp4809
(dp4810
g73
(dp4811
g100
g101
ssg82
g4800
sg75
(lp4812
S':'
asbag68
(g89
g70
NtRp4813
(dp4814
g73
(dp4815
sg82
g4800
sg75
(lp4816
g68
(g69
g70
NtRp4817
(dp4818
g73
(dp4819
g81
I5
ssg82
g4813
sg75
(lp4820
g111
asbasbasbag68
(g84
g70
NtRp4821
(dp4822
g73
(dp4823
sg82
g3844
sg75
(lp4824
g68
(g89
g70
NtRp4825
(dp4826
g73
(dp4827
g93
g94
ssg82
g4821
sg75
(lp4828
S'status'
p4829
asbag68
(g89
g70
NtRp4830
(dp4831
g73
(dp4832
g100
g101
ssg82
g4821
sg75
(lp4833
S':'
asbag68
(g89
g70
NtRp4834
(dp4835
g73
(dp4836
sg82
g4821
sg75
(lp4837
g68
(g69
g70
NtRp4838
(dp4839
g73
(dp4840
g81
I5
ssg82
g4834
sg75
(lp4841
S'200'
p4842
asbasbasbag68
(g84
g70
NtRp4843
(dp4844
g73
(dp4845
sg82
g3844
sg75
(lp4846
g68
(g89
g70
NtRp4847
(dp4848
g73
(dp4849
g93
g94
ssg82
g4843
sg75
(lp4850
S'subtitle'
p4851
asbag68
(g89
g70
NtRp4852
(dp4853
g73
(dp4854
g100
g101
ssg82
g4843
sg75
(lp4855
S':'
asbag68
(g89
g70
NtRp4856
(dp4857
g73
(dp4858
sg82
g4843
sg75
(lp4859
g68
(g69
g70
NtRp4860
(dp4861
g73
(dp4862
g81
I5
ssg82
g4856
sg75
(lp4863
g4349
(S's\x0f\x00\x00\x00Personalize-me!'
tRp4864
asbasbasbag68
(g84
g70
NtRp4865
(dp4866
g73
(dp4867
sg82
g3844
sg75
(lp4868
g68
(g89
g70
NtRp4869
(dp4870
g73
(dp4871
g93
g94
ssg82
g4865
sg75
(lp4872
S'title'
p4873
asbag68
(g89
g70
NtRp4874
(dp4875
g73
(dp4876
g100
g101
ssg82
g4865
sg75
(lp4877
S':'
asbag68
(g89
g70
NtRp4878
(dp4879
g73
(dp4880
sg82
g4865
sg75
(lp4881
g68
(g69
g70
NtRp4882
(dp4883
g73
(dp4884
g81
I5
ssg82
g4878
sg75
(lp4885
g133
asbasbasbag68
(g84
g70
NtRp4886
(dp4887
g73
(dp4888
sg82
g3844
sg75
(lp4889
g68
(g89
g70
NtRp4890
(dp4891
g73
(dp4892
g93
g94
ssg82
g4886
sg75
(lp4893
g2737
asbag68
(g89
g70
NtRp4894
(dp4895
g73
(dp4896
g100
g101
ssg82
g4886
sg75
(lp4897
S':'
asbag68
(g89
g70
NtRp4898
(dp4899
g73
(dp4900
sg82
g4886
sg75
(lp4901
g68
(g69
g70
NtRp4902
(dp4903
g73
(dp4904
g81
I5
ssg82
g4898
sg75
(lp4905
g2750
asbasbasbag68
(g84
g70
NtRp4906
(dp4907
g73
(dp4908
sg82
g3844
sg75
(lp4909
g68
(g89
g70
NtRp4910
(dp4911
g73
(dp4912
g93
g94
ssg82
g4906
sg75
(lp4913
S'view'
p4914
asbag68
(g89
g70
NtRp4915
(dp4916
g73
(dp4917
g100
g101
ssg82
g4906
sg75
(lp4918
S':'
asbag68
(g89
g70
NtRp4919
(dp4920
g73
(dp4921
sg82
g4906
sg75
(lp4922
g68
(g69
g70
NtRp4923
(dp4924
g73
(dp4925
g81
I5
ssg82
g4919
sg75
(lp4926
S'information/publication.html'
p4927
asbasbasbasbasbsS'locals'
p4928
(dp4929
g3
S"'/home/kaique/Projects/web2py/applications/synopsis/views/information/publication.html'"
p4930
sg5
S'\'response.write(\\\'<!DOCTYPE html>\\\\n<html lang="\\\', ...nse.write(\\\'\\\\n  </body>\\\\n</html>\\\\n\\\', escape=False)\''
p4931
sssS'traceback'
p4932
S'Traceback (most recent call last):\n  File "/home/kaique/Projects/web2py/gluon/restricted.py", line 193, in restricted\n    ccode = compile2(code,layer)\n  File "/home/kaique/Projects/web2py/gluon/restricted.py", line 179, in compile2\n    return compile(code.rstrip().replace(\'\\r\\n\',\'\\n\')+\'\\n\', layer, \'exec\')\n  File "/home/kaique/Projects/web2py/applications/synopsis/views/information/publication.html", line 122\n    elif row.column_id not ids\n                             ^\nSyntaxError: invalid syntax\n'
p4933
s.