(dp1
S'output'
p2
S''
sS'layer'
p3
S'/home/kaique/Projects/web2py/applications/synopsis/views/information/publication.html'
p4
sS'code'
p5
S'response.write(\'<!DOCTYPE html>\\n<html lang="\', escape=False)\nresponse.write(T.accepted_language or \'en\')\nresponse.write(\'" class="no-js"><!-- no-js need it for modernzr -->\\n  <head>\\n    \\n    <meta charset="utf-8" />        \\n    <!-- www.phpied.com/conditional-comments-block-downloads/ -->\\n    <!--[if IE]>\\n      <!-- Always force latest IE rendering engine \\n       (even in intranet) & Chrome Frame \\n       Remove this if you use the .htaccess -->\\n      <meta http-equiv="X-UA-Compatible" content="IE=edge,chrome=1">\\n    <![endif]-->    \\n\\n    <title>\', escape=False)\nresponse.write(response.title or request.application)\nresponse.write(\'</title>\\n    \\n    <!-- http://dev.w3.org/html5/markup/meta.name.html -->\\n    <meta name="application-name" content="\', escape=False)\nresponse.write(request.application)\nresponse.write(\'" /> \\n    \\n    <!-- Speaking of Google, don\\\'t forget to set your site up: \\n     http://google.com/webmasters -->\\n    <meta name="google-site-verification" content="" />\\n    \\n    <!--  Mobile Viewport Fix\\n      j.mp/mobileviewport & davidbcalhoun.com/2010/viewport-metatag \\n      device-width: Occupy full width of the screen in its current orientation\\n      initial-scale = 1.0 retains dimensions instead of zooming out if page height > device height\\n      maximum-scale = 1.0 retains dimensions instead of zooming in if page width < device width\\n      -->\\n    <meta name="viewport" content="width=device-width, initial-scale=1.0, maximum-scale=1.0">\\n    \\n    <!-- Place favicon.ico and apple-touch-icon.png in the root of your domain and delete these references -->\\n    <link rel="shortcut icon" href="\', escape=False)\nresponse.write(URL(\'static\',\'favicon.ico\'))\nresponse.write(\'" type="image/x-icon">\\n    <link rel="apple-touch-icon" href="\', escape=False)\nresponse.write(URL(\'static\',\'favicon.png\'))\nresponse.write(\'">\\n\\n    <!-- For the less-enabled mobile browsers like Opera Mini -->\\n    <link rel="stylesheet" media="handheld" href="\', escape=False)\nresponse.write(URL(\'static\',\'css/handheld.css\'))\nresponse.write(\'">\\n    \\n    <!-- All JavaScript at the bottom, except for Modernizr which enables HTML5 elements & feature detects -->\\n    <script src="\', escape=False)\nresponse.write(URL(\'static\',\'js/modernizr-1.7.min.js\'))\nresponse.write(\'"></script>\\n    \\n    \', escape=False)\n#------  require CSS and JS files for this page (read info in base.css) ------\nresponse.write(\'\\n    \', escape=False)\nresponse.files.append(URL(\'static\',\'css/base.css\'))\nresponse.write(\'\\n    \', escape=False)\nresponse.files.append(URL(\'static\',\'css/superfish.css\'))\nresponse.write(\'\\n    \', escape=False)\nresponse.files.append(URL(\'static\',\'js/superfish.js\'))\nresponse.write(\'\\n    \', escape=False)\n#------ include web2py specific js code (jquery, calendar, form stuff) ------\nresponse.write(\'\\n    \', escape=False)\nresponse.files.insert(0,URL(\'static\',\'js/jquery.js\'))\nresponse.files.insert(1,URL(\'static\',\'css/anytime.css\'))\nresponse.files.insert(2,URL(\'static\',\'js/anytime.js\'))\nresponse.include_meta()\nresponse.include_files()\nresponse.write(\'\\n<script type="text/javascript"><!--\\n    // These variables are used by the web2py_ajax_init function in web2py_ajax.js (which is loaded below).\\n    var w2p_ajax_confirm_message = "\', escape=False)\nresponse.write(T(\'Are you sure you want to delete this object?\'))\nresponse.write(\'";\\n    var w2p_ajax_date_format = "\', escape=False)\nresponse.write(T(\'%Y-%m-%d\'))\nresponse.write(\'";\\n    var w2p_ajax_datetime_format = "\', escape=False)\nresponse.write(T(\'%Y-%m-%d %H:%M:%S\'))\nresponse.write(\'";\\n    //--></script>\\n    <script src="\', escape=False)\nresponse.write(URL(\'static\',\'js/web2py_ajax.js\'))\nresponse.write(\'" type="text/javascript"></script>\\n\', escape=False)\nresponse.write(\'\\n\\n    \', escape=False)\n#using sidebars need to know what sidebar you want to use\n#prior of using it, because of static width size of content, you can use\n#left_sidebar, right_sidebar, both or none (False left and right)\nleft_sidebar_enabled = globals().get(\'left_sidebar_enabled\',False)\nright_sidebar_enabled = globals().get(\'right_sidebar_enabled\',False)\nif left_sidebar_enabled and right_sidebar_enabled: width_content=\'63%\'\nelif left_sidebar_enabled != right_sidebar_enabled: width_content=\'740px\'\nelse: width_content=\'100%\'\nif left_sidebar_enabled: left_sidebar_style = \'style="display: block;"\'\nelse: left_sidebar_style = \'style="display: none;"\'\nif right_sidebar_enabled: right_sidebar_style = \'style="display: block;"\'\nelse: right_sidebar_style = \'style="display: none;"\'\nstyle_content = \'style="width: %s"\' % width_content\nresponse.write(\'\\n    \\n    <!-- uncomment here to load jquery-ui -->\\n    \\n    <link rel="stylesheet" href="http://ajax.googleapis.com/ajax/libs/jqueryui/1.8.16/themes/base/jquery-ui.css" type="text/css" media="all" />\\n    <script src="http://ajax.googleapis.com/ajax/libs/jqueryui/1.8.16/jquery-ui.min.js" type="text/javascript"></script>\\n    \\n   <!-- uncomment to load jquery-ui -->\\n    \\n    \\n  </head>\\n  \\n  <!-- paulirish.com/2008/conditional-stylesheets-vs-css-hacks-answer-neither/ -->  \\n  <!--[if lt IE 7 ]> <body class="ie6"> <![endif]-->\\n  <!--[if IE 7 ]>    <body class="ie7"> <![endif]-->\\n  <!--[if IE 8 ]>    <body class="ie8"> <![endif]-->\\n  <!--[if IE 9 ]>    <body class="ie9"> <![endif]-->\\n  <!--[if (gt IE 9)|!(IE)]><!--> <body> <!--<![endif]-->\\n    \\n    <div class="flash">\', escape=False)\nresponse.write(response.flash or \'\')\nresponse.write(\'</div> <!-- notification div -->\\n\\n        \\n\\n    <div id="container">                        \\n      \\n      <div id="wrapper">        \\n      \', escape=False)\ntry:\n    response.write(auth.navbar(action=URL(\'default\',\'user\')))\nexcept:pass\nresponse.write(\'\\n    \\n    <div id="header"> <!-- header and login nav -->\\n      \', escape=False)\nresponse.write(\' <!-- this is default header -->\\n      \\n      <h1>\\n        <span id="appname">\', escape=False)\nresponse.write(request.application.capitalize())\nresponse.write(\'</span>App\\n      </h1>\\n      <div style="clear: both;"></div><!-- Clear the divs -->\\n      \', escape=False)\nresponse.write(\'\\n    </div><!-- header  -->\\n    \\n    <div id="statusbar"><!-- statusbar is menu zone -->\\n      \', escape=False)\nresponse.write(\' <!-- this is default statusbar -->\\n      \', escape=False)\n#------ superfish menu ------\nresponse.write(\'\\n      \', escape=False)\nresponse.write(MENU(response.menu,_class=\'sf-menu\'))\nresponse.write(\'\\n      <script type="text/javascript">\\n        jQuery(document).ready(function(){\\n        jQuery(\\\'ul.sf-menu\\\').superfish();});\\n      </script>\\n\\n      <!-- AddToAny BEGIN -->\\n      <div style="padding: 7px; float:right;" class="a2a_kit a2a_default_style"><a class="a2a_dd" href="http://www.addtoany.com/share_save">Share</a></div><script type="text/javascript" src="http://static.addtoany.com/menu/page.js"></script>\\n      <!-- AddToAny END -->\\n\\n      <div style="clear: both;"></div><!-- Clear the divs -->   \\n      \', escape=False)\nresponse.write(\'               \\n    </div><!-- statusbar -->\\n    \\n    <div id="page"> <!-- Here my central body -->     \\n\\n      \', escape=False)\nif left_sidebar_enabled:\n    response.write(\'\\n          <div id="left_sidebar" \', escape=False)\n    response.write(XML(left_sidebar_style))\n    response.write(\' >\\n            <div style="padding: 4px;">\\n          \', escape=False)\n    response.write(\'Content Left Sidebar\', escape=False)\n    response.write(\'       \\n            </div>\\n          </div><!-- left_sidebar -->\\n      \', escape=False)\n    pass\nresponse.write(\'\\n\\n      <!-- content -->\\n      <div id="content" \', escape=False)\nresponse.write(XML(style_content))\nresponse.write(\' >\\n        \', escape=False)\nresponse.write(\'\\n\\n<div class="content">\\n\\t<section>\\n\\t\\t<article>\\n\\t\\t\\t\', escape=False)\nfor detail in publication:\n    response.write(\'\\n\\t\\t\\t<header>\\n\\t\\t\\t\\t\', escape=False)\n    response.write(A( T(\'Go to publications\'), _href=URL(\'information\', \'profile\', args=[session.index]) ))\n    response.write(\' |\\n\\t\\t\\t\\t\', escape=False)\n    response.write(A(T(\'Insert a new column\'), _href=URL(\'new\', args=[\'column\', request.args[0]]) ))\n    response.write(\'\\n\\t\\t\\t\\t<hr />\\n\\t\\t\\t\\t<h1>\', escape=False)\n    response.write(detail.title)\n    response.write(\'</h1>\\n\\t\\t\\t\\t<h4 style="font-weight: 200;">\', escape=False)\n    if detail.sub_title:\n        response.write(\' \', escape=False)\n        response.write(detail.sub_title)\n        response.write(\' \', escape=False)\n        pass\n    response.write(\'</h4>\\n\\t\\t\\t\\t<hr />\\n\\t\\t\\t</header>\\n\\t\\t\\t<div>\\t\\n\\t\\t\\t\\t<table style="border: 1px solid #ccc; margin: 10px 0 10px;">\\n\\t\\t\\t\\t\\t<thead>\\n\\t\\t\\t\\t\\t\\t<tr>\\n\\t\\t\\t\\t\\t\\t\\t\', escape=False)\n    for column in detail.column.select():\n        response.write(\'\\n\\t\\t\\t\\t\\t\\t\\t\\t<td>\', escape=False)\n        response.write(A(column.title, _href=URL(\'new\', args=[\'row\', column.id])))\n        response.write(\'</td>\\n\\t\\t\\t\\t\\t\\t\\t\', escape=False)\n        pass\n    response.write(\'\\t\\t\\t\\t\\t\\t\\t\\n\\t\\t\\t\\t\\t\\t</tr>\\n\\t\\t\\t\\t\\t</thead>\\n\\t\\t\\t\\t\\t<tbody>\\n\\t\\t\\t\\t\\t\\t\', escape=False)\n    lines = {}\n    response.write(\'\\n\\t\\t\\t\\t\\t\\t\', escape=False)\n    for column in detail.column.select():\n        response.write(\'\\n\\t\\t\\t\\t\\t\\t\\t\', escape=False)\n        for row in column.row.select():\n            response.write(\'\\n\\t\\t\\t\\t\\t\\t\\t\\t\', escape=False)\n            if lines[row.column_id]:\n                response.write(\'\\n\\t\\t\\t\\t\\t\\t\\t\\t\\t\', escape=False)\n                lines[row.column_id] = TR(row.content)\n                response.write(\'\\n\\t\\t\\t\\t\\t\\t\\t\\t\', escape=False)\n            else:\n                response.write(\'\\n\\t\\t\\t\\t\\t\\t\\t\\t\\t\', escape=False)\n                lines[row.column_id].append(row.content)\n                response.write(\'\\n\\t\\t\\t\\t\\t\\t\\t\\t\', escape=False)\n                pass\n            response.write(\'\\n\\t\\t\\t\\t\\t\\t\\t\', escape=False)\n            pass\n        response.write(\'\\n\\t\\t\\t\\t\\t\\t\', escape=False)\n        pass\n    response.write(\'\\n\\t\\t\\t\\t\\t\\t\\n\\t\\t\\t\\t\\t\\t\', escape=False)\n    for row in lines:\n        response.write(\'\\n\\t\\t\\t\\t\\t\\t\\t\', escape=False)\n        response.write(row)\n        response.write(\'\\n\\t\\t\\t\\t\\t\\t\', escape=False)\n        pass\n    response.write(\'\\n\\t\\t\\t\\t\\t</tbody>\\n\\t\\t\\t\\t</table>\\n\\t\\t\\t\\t<div classs="quote">\\n\\t\\t\\t\\t\', escape=False)\n    for quote in detail.quote.select():\n        response.write(\'\\n\\t\\t\\t\\t\\t<p>\', escape=False)\n        response.write(quote.content)\n        response.write(\'</p>\\n\\t\\t\\t\\t\', escape=False)\n        pass\n    response.write(\'\\n\\t\\t\\t\\t</div>\\n\\t\\t\\t</div>\\n\\t\\t\\t\', escape=False)\n    pass\nresponse.write(\'\\n\\t\\t</article>\\n\\t</section>\\n</div>\\n\', escape=False)\nresponse.write(\' \\n      </div>\\n      <!-- content -->\\n\\n      \', escape=False)\nif right_sidebar_enabled:\n    response.write(\'\\n          <div id="right_sidebar" \', escape=False)\n    response.write(XML(right_sidebar_style))\n    response.write(\' >\\n            <div style="padding: 4px;">\\n              \', escape=False)\n    response.write(\'Content Right Sidebar\', escape=False)\n    response.write(\'\\n            </div>\\n      </div><!-- right_sidebar -->\\n          \', escape=False)\n    pass\nresponse.write(\'\\n\\n\\n      <div style="clear: both;"></div><!-- Clear the divs -->\\n      \\n    </div><!-- page -->                         \\n    \\n    <div id="footer">\\n      \', escape=False)\nresponse.write(\' <!-- this is default footer -->\\n      <a href="http://www.web2py.com/" style="float: left; padding-right: 6px;">\\n        <img src="\', escape=False)\nresponse.write(URL(\'static\',\'images/poweredby.png\'))\nresponse.write(\'"/>\\n      </a>\\n      \', escape=False)\nresponse.write(T(\'Copyright\'))\nresponse.write(\' &#169; 2011               \\n      <div style="clear: both;"></div><!-- Clear the divs -->\\n      \', escape=False)\nresponse.write(\'\\n\\n    </div><!-- footer -->           \\n      </div><!-- wrapper -->\\n    </div><!-- container -->        \\n    \\n    <!--[if lt IE 7 ]>\\n    <script src="\', escape=False)\nresponse.write(URL(\'static\',\'js/dd_belatedpng.js\'))\nresponse.write(\'"></script>\\n    <script> DD_belatedPNG.fix(\\\'img, .png_bg\\\'); //fix any <img> or .png_bg background-images </script>\\n    <![endif]-->\\n    \', escape=False)\nif response.google_analytics_id:\n    response.write("<script>/* http://mathiasbynens.be/notes/async-analytics-snippet */ var _gaq=[[\'_setAccount\',\'", escape=False)\n    response.write(response.google_analyitics_id)\n    response.write("\'],[\'_trackPageview\']];(function(d,t){var g=d.createElement(t),s=d.getElementsByTagName(t)[0];g.src=\'//www.google-analytics.com/ga.js\';s.parentNode.insertBefore(g,s)}(document,\'script\')) </script>", escape=False)\n    pass\nresponse.write(\'\\n  </body>\\n</html>\\n\', escape=False)'
p6
sS'snapshot'
p7
(dp8
S'exception'
p9
(dp10
S'__hash__'
p11
S"<method-wrapper '__hash__' of exceptions.KeyError object>"
p12
sS'__setattr__'
p13
S"<method-wrapper '__setattr__' of exceptions.KeyError object>"
p14
sS'__reduce_ex__'
p15
S'<built-in method __reduce_ex__ of exceptions.KeyError object>'
p16
sS'__getslice__'
p17
S"<method-wrapper '__getslice__' of exceptions.KeyError object>"
p18
sS'__getitem__'
p19
S"<method-wrapper '__getitem__' of exceptions.KeyError object>"
p20
sS'__setstate__'
p21
S'<built-in method __setstate__ of exceptions.KeyError object>'
p22
sS'args'
p23
S'(1,)'
p24
sS'__reduce__'
p25
S'<built-in method __reduce__ of exceptions.KeyError object>'
p26
sS'__str__'
p27
S"<method-wrapper '__str__' of exceptions.KeyError object>"
p28
sS'__format__'
p29
S'<built-in method __format__ of exceptions.KeyError object>'
p30
sS'__getattribute__'
p31
S"<method-wrapper '__getattribute__' of exceptions.KeyError object>"
p32
sS'__class__'
p33
S"<type 'exceptions.KeyError'>"
p34
sS'__unicode__'
p35
S'<built-in method __unicode__ of exceptions.KeyError object>'
p36
sS'__delattr__'
p37
S"<method-wrapper '__delattr__' of exceptions.KeyError object>"
p38
sS'__subclasshook__'
p39
S'<built-in method __subclasshook__ of type object>'
p40
sS'__repr__'
p41
S"<method-wrapper '__repr__' of exceptions.KeyError object>"
p42
sS'__dict__'
p43
S'{}'
p44
sS'__sizeof__'
p45
S'<built-in method __sizeof__ of exceptions.KeyError object>'
p46
sS'__doc__'
p47
S"'Mapping key not found.'"
p48
sS'__init__'
p49
S"<method-wrapper '__init__' of exceptions.KeyError object>"
p50
sS'__new__'
p51
S'<built-in method __new__ of type object>'
p52
ssS'evalue'
p53
S'1'
sS'request'
p54
ccopy_reg
_reconstructor
p55
(cgluon.html
BEAUTIFY
p56
c__builtin__
object
p57
NtRp58
(dp59
S'attributes'
p60
(dp61
sS'components'
p62
(lp63
g55
(cgluon.html
TABLE
p64
g57
NtRp65
(dp66
g60
(dp67
S'level'
p68
I5
ssS'parent'
p69
Nsg62
(lp70
g55
(cgluon.html
TR
p71
g57
NtRp72
(dp73
g60
(dp74
sg69
g65
sg62
(lp75
g55
(cgluon.html
TD
p76
g57
NtRp77
(dp78
g60
(dp79
S'_style'
p80
S'font-weight:bold;'
p81
ssg69
g72
sg62
(lp82
S'ajax'
p83
asbag55
(g76
g57
NtRp84
(dp85
g60
(dp86
S'_valign'
p87
S'top'
p88
ssg69
g72
sg62
(lp89
S':'
asbag55
(g76
g57
NtRp90
(dp91
g60
(dp92
sg69
g72
sg62
(lp93
g55
(g56
g57
NtRp94
(dp95
g60
(dp96
g68
I5
ssg69
g90
sg62
(lp97
S'False'
p98
asbasbasbag55
(g71
g57
NtRp99
(dp100
g60
(dp101
sg69
g65
sg62
(lp102
g55
(g76
g57
NtRp103
(dp104
g60
(dp105
g80
g81
ssg69
g99
sg62
(lp106
S'application'
p107
asbag55
(g76
g57
NtRp108
(dp109
g60
(dp110
g87
g88
ssg69
g99
sg62
(lp111
S':'
asbag55
(g76
g57
NtRp112
(dp113
g60
(dp114
sg69
g99
sg62
(lp115
g55
(g56
g57
NtRp116
(dp117
g60
(dp118
g68
I5
ssg69
g112
sg62
(lp119
S'synopsis'
p120
asbasbasbag55
(g71
g57
NtRp121
(dp122
g60
(dp123
sg69
g65
sg62
(lp124
g55
(g76
g57
NtRp125
(dp126
g60
(dp127
g80
g81
ssg69
g121
sg62
(lp128
g23
asbag55
(g76
g57
NtRp129
(dp130
g60
(dp131
g87
g88
ssg69
g121
sg62
(lp132
S':'
asbag55
(g76
g57
NtRp133
(dp134
g60
(dp135
sg69
g121
sg62
(lp136
g55
(g56
g57
NtRp137
(dp138
g60
(dp139
g68
I5
ssg69
g133
sg62
(lp140
g55
(g64
g57
NtRp141
(dp142
g60
(dp143
g68
I4
ssg69
Nsg62
(lp144
g55
(g71
g57
NtRp145
(dp146
g60
(dp147
sg69
g141
sg62
(lp148
g55
(g76
g57
NtRp149
(dp150
g60
(dp151
sg69
g145
sg62
(lp152
g55
(g56
g57
NtRp153
(dp154
g60
(dp155
g68
I4
ssg69
g149
sg62
(lp156
S'1'
asbasbasbasbasbasbasbag55
(g71
g57
NtRp157
(dp158
g60
(dp159
sg69
g65
sg62
(lp160
g55
(g76
g57
NtRp161
(dp162
g60
(dp163
g80
g81
ssg69
g157
sg62
(lp164
S'body'
p165
asbag55
(g76
g57
NtRp166
(dp167
g60
(dp168
g87
g88
ssg69
g157
sg62
(lp169
S':'
asbag55
(g76
g57
NtRp170
(dp171
g60
(dp172
sg69
g157
sg62
(lp173
g55
(g56
g57
NtRp174
(dp175
g60
(dp176
g68
I5
ssg69
g170
sg62
(lp177
S'<cStringIO.StringO object at 0x2a8bc70>'
p178
asbasbasbag55
(g71
g57
NtRp179
(dp180
g60
(dp181
sg69
g65
sg62
(lp182
g55
(g76
g57
NtRp183
(dp184
g60
(dp185
g80
g81
ssg69
g179
sg62
(lp186
S'client'
p187
asbag55
(g76
g57
NtRp188
(dp189
g60
(dp190
g87
g88
ssg69
g179
sg62
(lp191
S':'
asbag55
(g76
g57
NtRp192
(dp193
g60
(dp194
sg69
g179
sg62
(lp195
g55
(g56
g57
NtRp196
(dp197
g60
(dp198
g68
I5
ssg69
g192
sg62
(lp199
S'127.0.0.1'
p200
asbasbasbag55
(g71
g57
NtRp201
(dp202
g60
(dp203
sg69
g65
sg62
(lp204
g55
(g76
g57
NtRp205
(dp206
g60
(dp207
g80
g81
ssg69
g201
sg62
(lp208
S'controller'
p209
asbag55
(g76
g57
NtRp210
(dp211
g60
(dp212
g87
g88
ssg69
g201
sg62
(lp213
S':'
asbag55
(g76
g57
NtRp214
(dp215
g60
(dp216
sg69
g201
sg62
(lp217
g55
(g56
g57
NtRp218
(dp219
g60
(dp220
g68
I5
ssg69
g214
sg62
(lp221
S'information'
p222
asbasbasbag55
(g71
g57
NtRp223
(dp224
g60
(dp225
sg69
g65
sg62
(lp226
g55
(g76
g57
NtRp227
(dp228
g60
(dp229
g80
g81
ssg69
g223
sg62
(lp230
S'cookies'
p231
asbag55
(g76
g57
NtRp232
(dp233
g60
(dp234
g87
g88
ssg69
g223
sg62
(lp235
S':'
asbag55
(g76
g57
NtRp236
(dp237
g60
(dp238
sg69
g223
sg62
(lp239
g55
(g56
g57
NtRp240
(dp241
g60
(dp242
g68
I5
ssg69
g236
sg62
(lp243
g55
(g64
g57
NtRp244
(dp245
g60
(dp246
g68
I4
ssg69
Nsg62
(lp247
g55
(g71
g57
NtRp248
(dp249
g60
(dp250
sg69
g244
sg62
(lp251
g55
(g76
g57
NtRp252
(dp253
g60
(dp254
g80
g81
ssg69
g248
sg62
(lp255
S'PHPSESSID'
p256
asbag55
(g76
g57
NtRp257
(dp258
g60
(dp259
g87
g88
ssg69
g248
sg62
(lp260
S':'
asbag55
(g76
g57
NtRp261
(dp262
g60
(dp263
sg69
g248
sg62
(lp264
g55
(g56
g57
NtRp265
(dp266
g60
(dp267
g68
I4
ssg69
g261
sg62
(lp268
g55
(g64
g57
NtRp269
(dp270
g60
(dp271
g68
I3
ssg69
Nsg62
(lp272
g55
(g71
g57
NtRp273
(dp274
g60
(dp275
sg69
g269
sg62
(lp276
g55
(g76
g57
NtRp277
(dp278
g60
(dp279
g80
g81
ssg69
g273
sg62
(lp280
S'comment'
p281
asbag55
(g76
g57
NtRp282
(dp283
g60
(dp284
g87
g88
ssg69
g273
sg62
(lp285
S':'
asbag55
(g76
g57
NtRp286
(dp287
g60
(dp288
sg69
g273
sg62
(lp289
g55
(g56
g57
NtRp290
(dp291
g60
(dp292
g68
I3
ssg69
g286
sg62
(lp293
S''
asbasbasbag55
(g71
g57
NtRp294
(dp295
g60
(dp296
sg69
g269
sg62
(lp297
g55
(g76
g57
NtRp298
(dp299
g60
(dp300
g80
g81
ssg69
g294
sg62
(lp301
S'domain'
p302
asbag55
(g76
g57
NtRp303
(dp304
g60
(dp305
g87
g88
ssg69
g294
sg62
(lp306
S':'
asbag55
(g76
g57
NtRp307
(dp308
g60
(dp309
sg69
g294
sg62
(lp310
g55
(g56
g57
NtRp311
(dp312
g60
(dp313
g68
I3
ssg69
g307
sg62
(lp314
S''
asbasbasbag55
(g71
g57
NtRp315
(dp316
g60
(dp317
sg69
g269
sg62
(lp318
g55
(g76
g57
NtRp319
(dp320
g60
(dp321
g80
g81
ssg69
g315
sg62
(lp322
S'expires'
p323
asbag55
(g76
g57
NtRp324
(dp325
g60
(dp326
g87
g88
ssg69
g315
sg62
(lp327
S':'
asbag55
(g76
g57
NtRp328
(dp329
g60
(dp330
sg69
g315
sg62
(lp331
g55
(g56
g57
NtRp332
(dp333
g60
(dp334
g68
I3
ssg69
g328
sg62
(lp335
S''
asbasbasbag55
(g71
g57
NtRp336
(dp337
g60
(dp338
sg69
g269
sg62
(lp339
g55
(g76
g57
NtRp340
(dp341
g60
(dp342
g80
g81
ssg69
g336
sg62
(lp343
S'httponly'
p344
asbag55
(g76
g57
NtRp345
(dp346
g60
(dp347
g87
g88
ssg69
g336
sg62
(lp348
S':'
asbag55
(g76
g57
NtRp349
(dp350
g60
(dp351
sg69
g336
sg62
(lp352
g55
(g56
g57
NtRp353
(dp354
g60
(dp355
g68
I3
ssg69
g349
sg62
(lp356
S''
asbasbasbag55
(g71
g57
NtRp357
(dp358
g60
(dp359
sg69
g269
sg62
(lp360
g55
(g76
g57
NtRp361
(dp362
g60
(dp363
g80
g81
ssg69
g357
sg62
(lp364
S'max-age'
p365
asbag55
(g76
g57
NtRp366
(dp367
g60
(dp368
g87
g88
ssg69
g357
sg62
(lp369
S':'
asbag55
(g76
g57
NtRp370
(dp371
g60
(dp372
sg69
g357
sg62
(lp373
g55
(g56
g57
NtRp374
(dp375
g60
(dp376
g68
I3
ssg69
g370
sg62
(lp377
S''
asbasbasbag55
(g71
g57
NtRp378
(dp379
g60
(dp380
sg69
g269
sg62
(lp381
g55
(g76
g57
NtRp382
(dp383
g60
(dp384
g80
g81
ssg69
g378
sg62
(lp385
S'path'
p386
asbag55
(g76
g57
NtRp387
(dp388
g60
(dp389
g87
g88
ssg69
g378
sg62
(lp390
S':'
asbag55
(g76
g57
NtRp391
(dp392
g60
(dp393
sg69
g378
sg62
(lp394
g55
(g56
g57
NtRp395
(dp396
g60
(dp397
g68
I3
ssg69
g391
sg62
(lp398
S''
asbasbasbag55
(g71
g57
NtRp399
(dp400
g60
(dp401
sg69
g269
sg62
(lp402
g55
(g76
g57
NtRp403
(dp404
g60
(dp405
g80
g81
ssg69
g399
sg62
(lp406
S'secure'
p407
asbag55
(g76
g57
NtRp408
(dp409
g60
(dp410
g87
g88
ssg69
g399
sg62
(lp411
S':'
asbag55
(g76
g57
NtRp412
(dp413
g60
(dp414
sg69
g399
sg62
(lp415
g55
(g56
g57
NtRp416
(dp417
g60
(dp418
g68
I3
ssg69
g412
sg62
(lp419
S''
asbasbasbag55
(g71
g57
NtRp420
(dp421
g60
(dp422
sg69
g269
sg62
(lp423
g55
(g76
g57
NtRp424
(dp425
g60
(dp426
g80
g81
ssg69
g420
sg62
(lp427
S'version'
p428
asbag55
(g76
g57
NtRp429
(dp430
g60
(dp431
g87
g88
ssg69
g420
sg62
(lp432
S':'
asbag55
(g76
g57
NtRp433
(dp434
g60
(dp435
sg69
g420
sg62
(lp436
g55
(g56
g57
NtRp437
(dp438
g60
(dp439
g68
I3
ssg69
g433
sg62
(lp440
S''
asbasbasbasbasbasbasbag55
(g71
g57
NtRp441
(dp442
g60
(dp443
sg69
g244
sg62
(lp444
g55
(g76
g57
NtRp445
(dp446
g60
(dp447
g80
g81
ssg69
g441
sg62
(lp448
S'currency'
p449
asbag55
(g76
g57
NtRp450
(dp451
g60
(dp452
g87
g88
ssg69
g441
sg62
(lp453
S':'
asbag55
(g76
g57
NtRp454
(dp455
g60
(dp456
sg69
g441
sg62
(lp457
g55
(g56
g57
NtRp458
(dp459
g60
(dp460
g68
I4
ssg69
g454
sg62
(lp461
g55
(g64
g57
NtRp462
(dp463
g60
(dp464
g68
I3
ssg69
Nsg62
(lp465
g55
(g71
g57
NtRp466
(dp467
g60
(dp468
sg69
g462
sg62
(lp469
g55
(g76
g57
NtRp470
(dp471
g60
(dp472
g80
g81
ssg69
g466
sg62
(lp473
g281
asbag55
(g76
g57
NtRp474
(dp475
g60
(dp476
g87
g88
ssg69
g466
sg62
(lp477
S':'
asbag55
(g76
g57
NtRp478
(dp479
g60
(dp480
sg69
g466
sg62
(lp481
g55
(g56
g57
NtRp482
(dp483
g60
(dp484
g68
I3
ssg69
g478
sg62
(lp485
S''
asbasbasbag55
(g71
g57
NtRp486
(dp487
g60
(dp488
sg69
g462
sg62
(lp489
g55
(g76
g57
NtRp490
(dp491
g60
(dp492
g80
g81
ssg69
g486
sg62
(lp493
g302
asbag55
(g76
g57
NtRp494
(dp495
g60
(dp496
g87
g88
ssg69
g486
sg62
(lp497
S':'
asbag55
(g76
g57
NtRp498
(dp499
g60
(dp500
sg69
g486
sg62
(lp501
g55
(g56
g57
NtRp502
(dp503
g60
(dp504
g68
I3
ssg69
g498
sg62
(lp505
S''
asbasbasbag55
(g71
g57
NtRp506
(dp507
g60
(dp508
sg69
g462
sg62
(lp509
g55
(g76
g57
NtRp510
(dp511
g60
(dp512
g80
g81
ssg69
g506
sg62
(lp513
g323
asbag55
(g76
g57
NtRp514
(dp515
g60
(dp516
g87
g88
ssg69
g506
sg62
(lp517
S':'
asbag55
(g76
g57
NtRp518
(dp519
g60
(dp520
sg69
g506
sg62
(lp521
g55
(g56
g57
NtRp522
(dp523
g60
(dp524
g68
I3
ssg69
g518
sg62
(lp525
S''
asbasbasbag55
(g71
g57
NtRp526
(dp527
g60
(dp528
sg69
g462
sg62
(lp529
g55
(g76
g57
NtRp530
(dp531
g60
(dp532
g80
g81
ssg69
g526
sg62
(lp533
g344
asbag55
(g76
g57
NtRp534
(dp535
g60
(dp536
g87
g88
ssg69
g526
sg62
(lp537
S':'
asbag55
(g76
g57
NtRp538
(dp539
g60
(dp540
sg69
g526
sg62
(lp541
g55
(g56
g57
NtRp542
(dp543
g60
(dp544
g68
I3
ssg69
g538
sg62
(lp545
S''
asbasbasbag55
(g71
g57
NtRp546
(dp547
g60
(dp548
sg69
g462
sg62
(lp549
g55
(g76
g57
NtRp550
(dp551
g60
(dp552
g80
g81
ssg69
g546
sg62
(lp553
g365
asbag55
(g76
g57
NtRp554
(dp555
g60
(dp556
g87
g88
ssg69
g546
sg62
(lp557
S':'
asbag55
(g76
g57
NtRp558
(dp559
g60
(dp560
sg69
g546
sg62
(lp561
g55
(g56
g57
NtRp562
(dp563
g60
(dp564
g68
I3
ssg69
g558
sg62
(lp565
S''
asbasbasbag55
(g71
g57
NtRp566
(dp567
g60
(dp568
sg69
g462
sg62
(lp569
g55
(g76
g57
NtRp570
(dp571
g60
(dp572
g80
g81
ssg69
g566
sg62
(lp573
g386
asbag55
(g76
g57
NtRp574
(dp575
g60
(dp576
g87
g88
ssg69
g566
sg62
(lp577
S':'
asbag55
(g76
g57
NtRp578
(dp579
g60
(dp580
sg69
g566
sg62
(lp581
g55
(g56
g57
NtRp582
(dp583
g60
(dp584
g68
I3
ssg69
g578
sg62
(lp585
S''
asbasbasbag55
(g71
g57
NtRp586
(dp587
g60
(dp588
sg69
g462
sg62
(lp589
g55
(g76
g57
NtRp590
(dp591
g60
(dp592
g80
g81
ssg69
g586
sg62
(lp593
g407
asbag55
(g76
g57
NtRp594
(dp595
g60
(dp596
g87
g88
ssg69
g586
sg62
(lp597
S':'
asbag55
(g76
g57
NtRp598
(dp599
g60
(dp600
sg69
g586
sg62
(lp601
g55
(g56
g57
NtRp602
(dp603
g60
(dp604
g68
I3
ssg69
g598
sg62
(lp605
S''
asbasbasbag55
(g71
g57
NtRp606
(dp607
g60
(dp608
sg69
g462
sg62
(lp609
g55
(g76
g57
NtRp610
(dp611
g60
(dp612
g80
g81
ssg69
g606
sg62
(lp613
g428
asbag55
(g76
g57
NtRp614
(dp615
g60
(dp616
g87
g88
ssg69
g606
sg62
(lp617
S':'
asbag55
(g76
g57
NtRp618
(dp619
g60
(dp620
sg69
g606
sg62
(lp621
g55
(g56
g57
NtRp622
(dp623
g60
(dp624
g68
I3
ssg69
g618
sg62
(lp625
S''
asbasbasbasbasbasbasbag55
(g71
g57
NtRp626
(dp627
g60
(dp628
sg69
g244
sg62
(lp629
g55
(g76
g57
NtRp630
(dp631
g60
(dp632
g80
g81
ssg69
g626
sg62
(lp633
S'session_id_admin'
p634
asbag55
(g76
g57
NtRp635
(dp636
g60
(dp637
g87
g88
ssg69
g626
sg62
(lp638
S':'
asbag55
(g76
g57
NtRp639
(dp640
g60
(dp641
sg69
g626
sg62
(lp642
g55
(g56
g57
NtRp643
(dp644
g60
(dp645
g68
I4
ssg69
g639
sg62
(lp646
g55
(g64
g57
NtRp647
(dp648
g60
(dp649
g68
I3
ssg69
Nsg62
(lp650
g55
(g71
g57
NtRp651
(dp652
g60
(dp653
sg69
g647
sg62
(lp654
g55
(g76
g57
NtRp655
(dp656
g60
(dp657
g80
g81
ssg69
g651
sg62
(lp658
g281
asbag55
(g76
g57
NtRp659
(dp660
g60
(dp661
g87
g88
ssg69
g651
sg62
(lp662
S':'
asbag55
(g76
g57
NtRp663
(dp664
g60
(dp665
sg69
g651
sg62
(lp666
g55
(g56
g57
NtRp667
(dp668
g60
(dp669
g68
I3
ssg69
g663
sg62
(lp670
S''
asbasbasbag55
(g71
g57
NtRp671
(dp672
g60
(dp673
sg69
g647
sg62
(lp674
g55
(g76
g57
NtRp675
(dp676
g60
(dp677
g80
g81
ssg69
g671
sg62
(lp678
g302
asbag55
(g76
g57
NtRp679
(dp680
g60
(dp681
g87
g88
ssg69
g671
sg62
(lp682
S':'
asbag55
(g76
g57
NtRp683
(dp684
g60
(dp685
sg69
g671
sg62
(lp686
g55
(g56
g57
NtRp687
(dp688
g60
(dp689
g68
I3
ssg69
g683
sg62
(lp690
S''
asbasbasbag55
(g71
g57
NtRp691
(dp692
g60
(dp693
sg69
g647
sg62
(lp694
g55
(g76
g57
NtRp695
(dp696
g60
(dp697
g80
g81
ssg69
g691
sg62
(lp698
g323
asbag55
(g76
g57
NtRp699
(dp700
g60
(dp701
g87
g88
ssg69
g691
sg62
(lp702
S':'
asbag55
(g76
g57
NtRp703
(dp704
g60
(dp705
sg69
g691
sg62
(lp706
g55
(g56
g57
NtRp707
(dp708
g60
(dp709
g68
I3
ssg69
g703
sg62
(lp710
S''
asbasbasbag55
(g71
g57
NtRp711
(dp712
g60
(dp713
sg69
g647
sg62
(lp714
g55
(g76
g57
NtRp715
(dp716
g60
(dp717
g80
g81
ssg69
g711
sg62
(lp718
g344
asbag55
(g76
g57
NtRp719
(dp720
g60
(dp721
g87
g88
ssg69
g711
sg62
(lp722
S':'
asbag55
(g76
g57
NtRp723
(dp724
g60
(dp725
sg69
g711
sg62
(lp726
g55
(g56
g57
NtRp727
(dp728
g60
(dp729
g68
I3
ssg69
g723
sg62
(lp730
S''
asbasbasbag55
(g71
g57
NtRp731
(dp732
g60
(dp733
sg69
g647
sg62
(lp734
g55
(g76
g57
NtRp735
(dp736
g60
(dp737
g80
g81
ssg69
g731
sg62
(lp738
g365
asbag55
(g76
g57
NtRp739
(dp740
g60
(dp741
g87
g88
ssg69
g731
sg62
(lp742
S':'
asbag55
(g76
g57
NtRp743
(dp744
g60
(dp745
sg69
g731
sg62
(lp746
g55
(g56
g57
NtRp747
(dp748
g60
(dp749
g68
I3
ssg69
g743
sg62
(lp750
S''
asbasbasbag55
(g71
g57
NtRp751
(dp752
g60
(dp753
sg69
g647
sg62
(lp754
g55
(g76
g57
NtRp755
(dp756
g60
(dp757
g80
g81
ssg69
g751
sg62
(lp758
g386
asbag55
(g76
g57
NtRp759
(dp760
g60
(dp761
g87
g88
ssg69
g751
sg62
(lp762
S':'
asbag55
(g76
g57
NtRp763
(dp764
g60
(dp765
sg69
g751
sg62
(lp766
g55
(g56
g57
NtRp767
(dp768
g60
(dp769
g68
I3
ssg69
g763
sg62
(lp770
S''
asbasbasbag55
(g71
g57
NtRp771
(dp772
g60
(dp773
sg69
g647
sg62
(lp774
g55
(g76
g57
NtRp775
(dp776
g60
(dp777
g80
g81
ssg69
g771
sg62
(lp778
g407
asbag55
(g76
g57
NtRp779
(dp780
g60
(dp781
g87
g88
ssg69
g771
sg62
(lp782
S':'
asbag55
(g76
g57
NtRp783
(dp784
g60
(dp785
sg69
g771
sg62
(lp786
g55
(g56
g57
NtRp787
(dp788
g60
(dp789
g68
I3
ssg69
g783
sg62
(lp790
S''
asbasbasbag55
(g71
g57
NtRp791
(dp792
g60
(dp793
sg69
g647
sg62
(lp794
g55
(g76
g57
NtRp795
(dp796
g60
(dp797
g80
g81
ssg69
g791
sg62
(lp798
g428
asbag55
(g76
g57
NtRp799
(dp800
g60
(dp801
g87
g88
ssg69
g791
sg62
(lp802
S':'
asbag55
(g76
g57
NtRp803
(dp804
g60
(dp805
sg69
g791
sg62
(lp806
g55
(g56
g57
NtRp807
(dp808
g60
(dp809
g68
I3
ssg69
g803
sg62
(lp810
S''
asbasbasbasbasbasbasbag55
(g71
g57
NtRp811
(dp812
g60
(dp813
sg69
g244
sg62
(lp814
g55
(g76
g57
NtRp815
(dp816
g60
(dp817
g80
g81
ssg69
g811
sg62
(lp818
S'session_id_synopsis'
p819
asbag55
(g76
g57
NtRp820
(dp821
g60
(dp822
g87
g88
ssg69
g811
sg62
(lp823
S':'
asbag55
(g76
g57
NtRp824
(dp825
g60
(dp826
sg69
g811
sg62
(lp827
g55
(g56
g57
NtRp828
(dp829
g60
(dp830
g68
I4
ssg69
g824
sg62
(lp831
g55
(g64
g57
NtRp832
(dp833
g60
(dp834
g68
I3
ssg69
Nsg62
(lp835
g55
(g71
g57
NtRp836
(dp837
g60
(dp838
sg69
g832
sg62
(lp839
g55
(g76
g57
NtRp840
(dp841
g60
(dp842
g80
g81
ssg69
g836
sg62
(lp843
g281
asbag55
(g76
g57
NtRp844
(dp845
g60
(dp846
g87
g88
ssg69
g836
sg62
(lp847
S':'
asbag55
(g76
g57
NtRp848
(dp849
g60
(dp850
sg69
g836
sg62
(lp851
g55
(g56
g57
NtRp852
(dp853
g60
(dp854
g68
I3
ssg69
g848
sg62
(lp855
S''
asbasbasbag55
(g71
g57
NtRp856
(dp857
g60
(dp858
sg69
g832
sg62
(lp859
g55
(g76
g57
NtRp860
(dp861
g60
(dp862
g80
g81
ssg69
g856
sg62
(lp863
g302
asbag55
(g76
g57
NtRp864
(dp865
g60
(dp866
g87
g88
ssg69
g856
sg62
(lp867
S':'
asbag55
(g76
g57
NtRp868
(dp869
g60
(dp870
sg69
g856
sg62
(lp871
g55
(g56
g57
NtRp872
(dp873
g60
(dp874
g68
I3
ssg69
g868
sg62
(lp875
S''
asbasbasbag55
(g71
g57
NtRp876
(dp877
g60
(dp878
sg69
g832
sg62
(lp879
g55
(g76
g57
NtRp880
(dp881
g60
(dp882
g80
g81
ssg69
g876
sg62
(lp883
g323
asbag55
(g76
g57
NtRp884
(dp885
g60
(dp886
g87
g88
ssg69
g876
sg62
(lp887
S':'
asbag55
(g76
g57
NtRp888
(dp889
g60
(dp890
sg69
g876
sg62
(lp891
g55
(g56
g57
NtRp892
(dp893
g60
(dp894
g68
I3
ssg69
g888
sg62
(lp895
S''
asbasbasbag55
(g71
g57
NtRp896
(dp897
g60
(dp898
sg69
g832
sg62
(lp899
g55
(g76
g57
NtRp900
(dp901
g60
(dp902
g80
g81
ssg69
g896
sg62
(lp903
g344
asbag55
(g76
g57
NtRp904
(dp905
g60
(dp906
g87
g88
ssg69
g896
sg62
(lp907
S':'
asbag55
(g76
g57
NtRp908
(dp909
g60
(dp910
sg69
g896
sg62
(lp911
g55
(g56
g57
NtRp912
(dp913
g60
(dp914
g68
I3
ssg69
g908
sg62
(lp915
S''
asbasbasbag55
(g71
g57
NtRp916
(dp917
g60
(dp918
sg69
g832
sg62
(lp919
g55
(g76
g57
NtRp920
(dp921
g60
(dp922
g80
g81
ssg69
g916
sg62
(lp923
g365
asbag55
(g76
g57
NtRp924
(dp925
g60
(dp926
g87
g88
ssg69
g916
sg62
(lp927
S':'
asbag55
(g76
g57
NtRp928
(dp929
g60
(dp930
sg69
g916
sg62
(lp931
g55
(g56
g57
NtRp932
(dp933
g60
(dp934
g68
I3
ssg69
g928
sg62
(lp935
S''
asbasbasbag55
(g71
g57
NtRp936
(dp937
g60
(dp938
sg69
g832
sg62
(lp939
g55
(g76
g57
NtRp940
(dp941
g60
(dp942
g80
g81
ssg69
g936
sg62
(lp943
g386
asbag55
(g76
g57
NtRp944
(dp945
g60
(dp946
g87
g88
ssg69
g936
sg62
(lp947
S':'
asbag55
(g76
g57
NtRp948
(dp949
g60
(dp950
sg69
g936
sg62
(lp951
g55
(g56
g57
NtRp952
(dp953
g60
(dp954
g68
I3
ssg69
g948
sg62
(lp955
S''
asbasbasbag55
(g71
g57
NtRp956
(dp957
g60
(dp958
sg69
g832
sg62
(lp959
g55
(g76
g57
NtRp960
(dp961
g60
(dp962
g80
g81
ssg69
g956
sg62
(lp963
g407
asbag55
(g76
g57
NtRp964
(dp965
g60
(dp966
g87
g88
ssg69
g956
sg62
(lp967
S':'
asbag55
(g76
g57
NtRp968
(dp969
g60
(dp970
sg69
g956
sg62
(lp971
g55
(g56
g57
NtRp972
(dp973
g60
(dp974
g68
I3
ssg69
g968
sg62
(lp975
S''
asbasbasbag55
(g71
g57
NtRp976
(dp977
g60
(dp978
sg69
g832
sg62
(lp979
g55
(g76
g57
NtRp980
(dp981
g60
(dp982
g80
g81
ssg69
g976
sg62
(lp983
g428
asbag55
(g76
g57
NtRp984
(dp985
g60
(dp986
g87
g88
ssg69
g976
sg62
(lp987
S':'
asbag55
(g76
g57
NtRp988
(dp989
g60
(dp990
sg69
g976
sg62
(lp991
g55
(g56
g57
NtRp992
(dp993
g60
(dp994
g68
I3
ssg69
g988
sg62
(lp995
S''
asbasbasbasbasbasbasbag55
(g71
g57
NtRp996
(dp997
g60
(dp998
sg69
g244
sg62
(lp999
g55
(g76
g57
NtRp1000
(dp1001
g60
(dp1002
g80
g81
ssg69
g996
sg62
(lp1003
S'session_id_welcome'
p1004
asbag55
(g76
g57
NtRp1005
(dp1006
g60
(dp1007
g87
g88
ssg69
g996
sg62
(lp1008
S':'
asbag55
(g76
g57
NtRp1009
(dp1010
g60
(dp1011
sg69
g996
sg62
(lp1012
g55
(g56
g57
NtRp1013
(dp1014
g60
(dp1015
g68
I4
ssg69
g1009
sg62
(lp1016
g55
(g64
g57
NtRp1017
(dp1018
g60
(dp1019
g68
I3
ssg69
Nsg62
(lp1020
g55
(g71
g57
NtRp1021
(dp1022
g60
(dp1023
sg69
g1017
sg62
(lp1024
g55
(g76
g57
NtRp1025
(dp1026
g60
(dp1027
g80
g81
ssg69
g1021
sg62
(lp1028
g281
asbag55
(g76
g57
NtRp1029
(dp1030
g60
(dp1031
g87
g88
ssg69
g1021
sg62
(lp1032
S':'
asbag55
(g76
g57
NtRp1033
(dp1034
g60
(dp1035
sg69
g1021
sg62
(lp1036
g55
(g56
g57
NtRp1037
(dp1038
g60
(dp1039
g68
I3
ssg69
g1033
sg62
(lp1040
S''
asbasbasbag55
(g71
g57
NtRp1041
(dp1042
g60
(dp1043
sg69
g1017
sg62
(lp1044
g55
(g76
g57
NtRp1045
(dp1046
g60
(dp1047
g80
g81
ssg69
g1041
sg62
(lp1048
g302
asbag55
(g76
g57
NtRp1049
(dp1050
g60
(dp1051
g87
g88
ssg69
g1041
sg62
(lp1052
S':'
asbag55
(g76
g57
NtRp1053
(dp1054
g60
(dp1055
sg69
g1041
sg62
(lp1056
g55
(g56
g57
NtRp1057
(dp1058
g60
(dp1059
g68
I3
ssg69
g1053
sg62
(lp1060
S''
asbasbasbag55
(g71
g57
NtRp1061
(dp1062
g60
(dp1063
sg69
g1017
sg62
(lp1064
g55
(g76
g57
NtRp1065
(dp1066
g60
(dp1067
g80
g81
ssg69
g1061
sg62
(lp1068
g323
asbag55
(g76
g57
NtRp1069
(dp1070
g60
(dp1071
g87
g88
ssg69
g1061
sg62
(lp1072
S':'
asbag55
(g76
g57
NtRp1073
(dp1074
g60
(dp1075
sg69
g1061
sg62
(lp1076
g55
(g56
g57
NtRp1077
(dp1078
g60
(dp1079
g68
I3
ssg69
g1073
sg62
(lp1080
S''
asbasbasbag55
(g71
g57
NtRp1081
(dp1082
g60
(dp1083
sg69
g1017
sg62
(lp1084
g55
(g76
g57
NtRp1085
(dp1086
g60
(dp1087
g80
g81
ssg69
g1081
sg62
(lp1088
g344
asbag55
(g76
g57
NtRp1089
(dp1090
g60
(dp1091
g87
g88
ssg69
g1081
sg62
(lp1092
S':'
asbag55
(g76
g57
NtRp1093
(dp1094
g60
(dp1095
sg69
g1081
sg62
(lp1096
g55
(g56
g57
NtRp1097
(dp1098
g60
(dp1099
g68
I3
ssg69
g1093
sg62
(lp1100
S''
asbasbasbag55
(g71
g57
NtRp1101
(dp1102
g60
(dp1103
sg69
g1017
sg62
(lp1104
g55
(g76
g57
NtRp1105
(dp1106
g60
(dp1107
g80
g81
ssg69
g1101
sg62
(lp1108
g365
asbag55
(g76
g57
NtRp1109
(dp1110
g60
(dp1111
g87
g88
ssg69
g1101
sg62
(lp1112
S':'
asbag55
(g76
g57
NtRp1113
(dp1114
g60
(dp1115
sg69
g1101
sg62
(lp1116
g55
(g56
g57
NtRp1117
(dp1118
g60
(dp1119
g68
I3
ssg69
g1113
sg62
(lp1120
S''
asbasbasbag55
(g71
g57
NtRp1121
(dp1122
g60
(dp1123
sg69
g1017
sg62
(lp1124
g55
(g76
g57
NtRp1125
(dp1126
g60
(dp1127
g80
g81
ssg69
g1121
sg62
(lp1128
g386
asbag55
(g76
g57
NtRp1129
(dp1130
g60
(dp1131
g87
g88
ssg69
g1121
sg62
(lp1132
S':'
asbag55
(g76
g57
NtRp1133
(dp1134
g60
(dp1135
sg69
g1121
sg62
(lp1136
g55
(g56
g57
NtRp1137
(dp1138
g60
(dp1139
g68
I3
ssg69
g1133
sg62
(lp1140
S''
asbasbasbag55
(g71
g57
NtRp1141
(dp1142
g60
(dp1143
sg69
g1017
sg62
(lp1144
g55
(g76
g57
NtRp1145
(dp1146
g60
(dp1147
g80
g81
ssg69
g1141
sg62
(lp1148
g407
asbag55
(g76
g57
NtRp1149
(dp1150
g60
(dp1151
g87
g88
ssg69
g1141
sg62
(lp1152
S':'
asbag55
(g76
g57
NtRp1153
(dp1154
g60
(dp1155
sg69
g1141
sg62
(lp1156
g55
(g56
g57
NtRp1157
(dp1158
g60
(dp1159
g68
I3
ssg69
g1153
sg62
(lp1160
S''
asbasbasbag55
(g71
g57
NtRp1161
(dp1162
g60
(dp1163
sg69
g1017
sg62
(lp1164
g55
(g76
g57
NtRp1165
(dp1166
g60
(dp1167
g80
g81
ssg69
g1161
sg62
(lp1168
g428
asbag55
(g76
g57
NtRp1169
(dp1170
g60
(dp1171
g87
g88
ssg69
g1161
sg62
(lp1172
S':'
asbag55
(g76
g57
NtRp1173
(dp1174
g60
(dp1175
sg69
g1161
sg62
(lp1176
g55
(g56
g57
NtRp1177
(dp1178
g60
(dp1179
g68
I3
ssg69
g1173
sg62
(lp1180
S''
asbasbasbasbasbasbasbasbasbasbasbag55
(g71
g57
NtRp1181
(dp1182
g60
(dp1183
sg69
g65
sg62
(lp1184
g55
(g76
g57
NtRp1185
(dp1186
g60
(dp1187
g80
g81
ssg69
g1181
sg62
(lp1188
S'env'
p1189
asbag55
(g76
g57
NtRp1190
(dp1191
g60
(dp1192
g87
g88
ssg69
g1181
sg62
(lp1193
S':'
asbag55
(g76
g57
NtRp1194
(dp1195
g60
(dp1196
sg69
g1181
sg62
(lp1197
g55
(g56
g57
NtRp1198
(dp1199
g60
(dp1200
g68
I5
ssg69
g1194
sg62
(lp1201
g55
(g64
g57
NtRp1202
(dp1203
g60
(dp1204
g68
I4
ssg69
Nsg62
(lp1205
g55
(g71
g57
NtRp1206
(dp1207
g60
(dp1208
sg69
g1202
sg62
(lp1209
g55
(g76
g57
NtRp1210
(dp1211
g60
(dp1212
g80
g81
ssg69
g1206
sg62
(lp1213
S'app_folders'
p1214
asbag55
(g76
g57
NtRp1215
(dp1216
g60
(dp1217
g87
g88
ssg69
g1206
sg62
(lp1218
S':'
asbag55
(g76
g57
NtRp1219
(dp1220
g60
(dp1221
sg69
g1206
sg62
(lp1222
g55
(g56
g57
NtRp1223
(dp1224
g60
(dp1225
g68
I4
ssg69
g1219
sg62
(lp1226
S"set(['/home/kaique/Projects/web2py/applications/synopsis/', '/home/kaique/Projects/web2py/applications/admin/'])"
p1227
asbasbasbag55
(g71
g57
NtRp1228
(dp1229
g60
(dp1230
sg69
g1202
sg62
(lp1231
g55
(g76
g57
NtRp1232
(dp1233
g60
(dp1234
g80
g81
ssg69
g1228
sg62
(lp1235
S'applications_parent'
p1236
asbag55
(g76
g57
NtRp1237
(dp1238
g60
(dp1239
g87
g88
ssg69
g1228
sg62
(lp1240
S':'
asbag55
(g76
g57
NtRp1241
(dp1242
g60
(dp1243
sg69
g1228
sg62
(lp1244
g55
(g56
g57
NtRp1245
(dp1246
g60
(dp1247
g68
I4
ssg69
g1241
sg62
(lp1248
S'/home/kaique/Projects/web2py'
p1249
asbasbasbag55
(g71
g57
NtRp1250
(dp1251
g60
(dp1252
sg69
g1202
sg62
(lp1253
g55
(g76
g57
NtRp1254
(dp1255
g60
(dp1256
g80
g81
ssg69
g1250
sg62
(lp1257
S'cmd_args'
p1258
asbag55
(g76
g57
NtRp1259
(dp1260
g60
(dp1261
g87
g88
ssg69
g1250
sg62
(lp1262
S':'
asbag55
(g76
g57
NtRp1263
(dp1264
g60
(dp1265
sg69
g1250
sg62
(lp1266
g55
(g56
g57
NtRp1267
(dp1268
g60
(dp1269
g68
I4
ssg69
g1263
sg62
(lp1270
g55
(g64
g57
NtRp1271
(dp1272
g60
(dp1273
g68
I3
ssg69
Nsg62
(lp1274
sbasbasbasbag55
(g71
g57
NtRp1275
(dp1276
g60
(dp1277
sg69
g1202
sg62
(lp1278
g55
(g76
g57
NtRp1279
(dp1280
g60
(dp1281
g80
g81
ssg69
g1275
sg62
(lp1282
S'cmd_options'
p1283
asbag55
(g76
g57
NtRp1284
(dp1285
g60
(dp1286
g87
g88
ssg69
g1275
sg62
(lp1287
S':'
asbag55
(g76
g57
NtRp1288
(dp1289
g60
(dp1290
sg69
g1275
sg62
(lp1291
g55
(g56
g57
NtRp1292
(dp1293
g60
(dp1294
g68
I4
ssg69
g1288
sg62
(lp1295
S"<Values at 0x256e950: {'verbose': False, 'ip': '127.0.0.1', 'shutdown_timeout': 5, 'taskbar': False, 'nocron': False, 'pid_filename': 'httpserver.pid', 'maxthreads': None, 'softcron': False, 'server_name': 'kaique-Pine-Trail-M', 'bpython': False, 'nogui': False, 'port': 8000, 'extcron': False, 'debuglevel': 30, 'test': None, 'folder': '/home/kaique/Projects/web2py', 'config': '', 'import_models': False, 'winservice': '', 'shell': None, 'run': '', 'log_filename': 'httpserver.log', 'args': [''], 'ssl_ca_certificate': None, 'scheduler': None, 'profiler_filename': None, 'ssl_private_key': '', 'password': 'dev', 'request_queue_size': 5, 'ssl_certificate': '', 'cronjob': False, 'plain': False, 'quiet': False, 'interfaces': None, 'minthreads': None, 'timeout': 10, 'numthreads': None, 'nobanner': False}>"
p1296
asbasbasbag55
(g71
g57
NtRp1297
(dp1298
g60
(dp1299
sg69
g1202
sg62
(lp1300
g55
(g76
g57
NtRp1301
(dp1302
g60
(dp1303
g80
g81
ssg69
g1297
sg62
(lp1304
S'db_sessions'
p1305
asbag55
(g76
g57
NtRp1306
(dp1307
g60
(dp1308
g87
g88
ssg69
g1297
sg62
(lp1309
S':'
asbag55
(g76
g57
NtRp1310
(dp1311
g60
(dp1312
sg69
g1297
sg62
(lp1313
g55
(g56
g57
NtRp1314
(dp1315
g60
(dp1316
g68
I4
ssg69
g1310
sg62
(lp1317
S'set([])'
p1318
asbasbasbag55
(g71
g57
NtRp1319
(dp1320
g60
(dp1321
sg69
g1202
sg62
(lp1322
g55
(g76
g57
NtRp1323
(dp1324
g60
(dp1325
g80
g81
ssg69
g1319
sg62
(lp1326
S'debugging'
p1327
asbag55
(g76
g57
NtRp1328
(dp1329
g60
(dp1330
g87
g88
ssg69
g1319
sg62
(lp1331
S':'
asbag55
(g76
g57
NtRp1332
(dp1333
g60
(dp1334
sg69
g1319
sg62
(lp1335
g55
(g56
g57
NtRp1336
(dp1337
g60
(dp1338
g68
I4
ssg69
g1332
sg62
(lp1339
g98
asbasbasbag55
(g71
g57
NtRp1340
(dp1341
g60
(dp1342
sg69
g1202
sg62
(lp1343
g55
(g76
g57
NtRp1344
(dp1345
g60
(dp1346
g80
g81
ssg69
g1340
sg62
(lp1347
S'gluon_parent'
p1348
asbag55
(g76
g57
NtRp1349
(dp1350
g60
(dp1351
g87
g88
ssg69
g1340
sg62
(lp1352
S':'
asbag55
(g76
g57
NtRp1353
(dp1354
g60
(dp1355
sg69
g1340
sg62
(lp1356
g55
(g56
g57
NtRp1357
(dp1358
g60
(dp1359
g68
I4
ssg69
g1353
sg62
(lp1360
S'/home/kaique/Projects/web2py'
p1361
asbasbasbag55
(g71
g57
NtRp1362
(dp1363
g60
(dp1364
sg69
g1202
sg62
(lp1365
g55
(g76
g57
NtRp1366
(dp1367
g60
(dp1368
g80
g81
ssg69
g1362
sg62
(lp1369
S'http_accept'
p1370
asbag55
(g76
g57
NtRp1371
(dp1372
g60
(dp1373
g87
g88
ssg69
g1362
sg62
(lp1374
S':'
asbag55
(g76
g57
NtRp1375
(dp1376
g60
(dp1377
sg69
g1362
sg62
(lp1378
g55
(g56
g57
NtRp1379
(dp1380
g60
(dp1381
g68
I4
ssg69
g1375
sg62
(lp1382
S'text/html,application/xhtml+xml,application/xml;q=0.9,*/*;q=0.8'
p1383
asbasbasbag55
(g71
g57
NtRp1384
(dp1385
g60
(dp1386
sg69
g1202
sg62
(lp1387
g55
(g76
g57
NtRp1388
(dp1389
g60
(dp1390
g80
g81
ssg69
g1384
sg62
(lp1391
S'http_accept_charset'
p1392
asbag55
(g76
g57
NtRp1393
(dp1394
g60
(dp1395
g87
g88
ssg69
g1384
sg62
(lp1396
S':'
asbag55
(g76
g57
NtRp1397
(dp1398
g60
(dp1399
sg69
g1384
sg62
(lp1400
g55
(g56
g57
NtRp1401
(dp1402
g60
(dp1403
g68
I4
ssg69
g1397
sg62
(lp1404
S'ISO-8859-1,utf-8;q=0.7,*;q=0.7'
p1405
asbasbasbag55
(g71
g57
NtRp1406
(dp1407
g60
(dp1408
sg69
g1202
sg62
(lp1409
g55
(g76
g57
NtRp1410
(dp1411
g60
(dp1412
g80
g81
ssg69
g1406
sg62
(lp1413
S'http_accept_encoding'
p1414
asbag55
(g76
g57
NtRp1415
(dp1416
g60
(dp1417
g87
g88
ssg69
g1406
sg62
(lp1418
S':'
asbag55
(g76
g57
NtRp1419
(dp1420
g60
(dp1421
sg69
g1406
sg62
(lp1422
g55
(g56
g57
NtRp1423
(dp1424
g60
(dp1425
g68
I4
ssg69
g1419
sg62
(lp1426
S'gzip, deflate'
p1427
asbasbasbag55
(g71
g57
NtRp1428
(dp1429
g60
(dp1430
sg69
g1202
sg62
(lp1431
g55
(g76
g57
NtRp1432
(dp1433
g60
(dp1434
g80
g81
ssg69
g1428
sg62
(lp1435
S'http_accept_language'
p1436
asbag55
(g76
g57
NtRp1437
(dp1438
g60
(dp1439
g87
g88
ssg69
g1428
sg62
(lp1440
S':'
asbag55
(g76
g57
NtRp1441
(dp1442
g60
(dp1443
sg69
g1428
sg62
(lp1444
g55
(g56
g57
NtRp1445
(dp1446
g60
(dp1447
g68
I4
ssg69
g1441
sg62
(lp1448
S'pt-br,pt;q=0.8,en-us;q=0.5,en;q=0.3'
p1449
asbasbasbag55
(g71
g57
NtRp1450
(dp1451
g60
(dp1452
sg69
g1202
sg62
(lp1453
g55
(g76
g57
NtRp1454
(dp1455
g60
(dp1456
g80
g81
ssg69
g1450
sg62
(lp1457
S'http_cache_control'
p1458
asbag55
(g76
g57
NtRp1459
(dp1460
g60
(dp1461
g87
g88
ssg69
g1450
sg62
(lp1462
S':'
asbag55
(g76
g57
NtRp1463
(dp1464
g60
(dp1465
sg69
g1450
sg62
(lp1466
g55
(g56
g57
NtRp1467
(dp1468
g60
(dp1469
g68
I4
ssg69
g1463
sg62
(lp1470
S'max-age=0'
p1471
asbasbasbag55
(g71
g57
NtRp1472
(dp1473
g60
(dp1474
sg69
g1202
sg62
(lp1475
g55
(g76
g57
NtRp1476
(dp1477
g60
(dp1478
g80
g81
ssg69
g1472
sg62
(lp1479
S'http_connection'
p1480
asbag55
(g76
g57
NtRp1481
(dp1482
g60
(dp1483
g87
g88
ssg69
g1472
sg62
(lp1484
S':'
asbag55
(g76
g57
NtRp1485
(dp1486
g60
(dp1487
sg69
g1472
sg62
(lp1488
g55
(g56
g57
NtRp1489
(dp1490
g60
(dp1491
g68
I4
ssg69
g1485
sg62
(lp1492
S'keep-alive'
p1493
asbasbasbag55
(g71
g57
NtRp1494
(dp1495
g60
(dp1496
sg69
g1202
sg62
(lp1497
g55
(g76
g57
NtRp1498
(dp1499
g60
(dp1500
g80
g81
ssg69
g1494
sg62
(lp1501
S'http_cookie'
p1502
asbag55
(g76
g57
NtRp1503
(dp1504
g60
(dp1505
g87
g88
ssg69
g1494
sg62
(lp1506
S':'
asbag55
(g76
g57
NtRp1507
(dp1508
g60
(dp1509
sg69
g1494
sg62
(lp1510
g55
(g56
g57
NtRp1511
(dp1512
g60
(dp1513
g68
I4
ssg69
g1507
sg62
(lp1514
S'currency=GBP; PHPSESSID=9p6ovvset7bb455bs5oc3eara3; session_id_welcome=127.0.0.1-2178f248-6721-4586-ae68-1cad380386a5; session_id_synopsis=127.0.0.1-22caa4ed-0448-4782-a756-bcb437fd81d3; session_id_admin=127.0.0.1-0b87d24d-feef-4771-9611-26979c7dbdf1'
p1515
asbasbasbag55
(g71
g57
NtRp1516
(dp1517
g60
(dp1518
sg69
g1202
sg62
(lp1519
g55
(g76
g57
NtRp1520
(dp1521
g60
(dp1522
g80
g81
ssg69
g1516
sg62
(lp1523
S'http_host'
p1524
asbag55
(g76
g57
NtRp1525
(dp1526
g60
(dp1527
g87
g88
ssg69
g1516
sg62
(lp1528
S':'
asbag55
(g76
g57
NtRp1529
(dp1530
g60
(dp1531
sg69
g1516
sg62
(lp1532
g55
(g56
g57
NtRp1533
(dp1534
g60
(dp1535
g68
I4
ssg69
g1529
sg62
(lp1536
S'localhost:8000'
p1537
asbasbasbag55
(g71
g57
NtRp1538
(dp1539
g60
(dp1540
sg69
g1202
sg62
(lp1541
g55
(g76
g57
NtRp1542
(dp1543
g60
(dp1544
g80
g81
ssg69
g1538
sg62
(lp1545
S'http_referer'
p1546
asbag55
(g76
g57
NtRp1547
(dp1548
g60
(dp1549
g87
g88
ssg69
g1538
sg62
(lp1550
S':'
asbag55
(g76
g57
NtRp1551
(dp1552
g60
(dp1553
sg69
g1538
sg62
(lp1554
g55
(g56
g57
NtRp1555
(dp1556
g60
(dp1557
g68
I4
ssg69
g1551
sg62
(lp1558
S'http://localhost:8000/synopsis/information/new/row/3'
p1559
asbasbasbag55
(g71
g57
NtRp1560
(dp1561
g60
(dp1562
sg69
g1202
sg62
(lp1563
g55
(g76
g57
NtRp1564
(dp1565
g60
(dp1566
g80
g81
ssg69
g1560
sg62
(lp1567
S'http_user_agent'
p1568
asbag55
(g76
g57
NtRp1569
(dp1570
g60
(dp1571
g87
g88
ssg69
g1560
sg62
(lp1572
S':'
asbag55
(g76
g57
NtRp1573
(dp1574
g60
(dp1575
sg69
g1560
sg62
(lp1576
g55
(g56
g57
NtRp1577
(dp1578
g60
(dp1579
g68
I4
ssg69
g1573
sg62
(lp1580
S'Mozilla/5.0 (Ubuntu; X11; Linux x86_64; rv:9.0.1) Gecko/20100101 Firefox/9.0.1'
p1581
asbasbasbag55
(g71
g57
NtRp1582
(dp1583
g60
(dp1584
sg69
g1202
sg62
(lp1585
g55
(g76
g57
NtRp1586
(dp1587
g60
(dp1588
g80
g81
ssg69
g1582
sg62
(lp1589
S'is_jython'
p1590
asbag55
(g76
g57
NtRp1591
(dp1592
g60
(dp1593
g87
g88
ssg69
g1582
sg62
(lp1594
S':'
asbag55
(g76
g57
NtRp1595
(dp1596
g60
(dp1597
sg69
g1582
sg62
(lp1598
g55
(g56
g57
NtRp1599
(dp1600
g60
(dp1601
g68
I4
ssg69
g1595
sg62
(lp1602
g98
asbasbasbag55
(g71
g57
NtRp1603
(dp1604
g60
(dp1605
sg69
g1202
sg62
(lp1606
g55
(g76
g57
NtRp1607
(dp1608
g60
(dp1609
g80
g81
ssg69
g1603
sg62
(lp1610
S'path_info'
p1611
asbag55
(g76
g57
NtRp1612
(dp1613
g60
(dp1614
g87
g88
ssg69
g1603
sg62
(lp1615
S':'
asbag55
(g76
g57
NtRp1616
(dp1617
g60
(dp1618
sg69
g1603
sg62
(lp1619
g55
(g56
g57
NtRp1620
(dp1621
g60
(dp1622
g68
I4
ssg69
g1616
sg62
(lp1623
S'/synopsis/information/publication/1'
p1624
asbasbasbag55
(g71
g57
NtRp1625
(dp1626
g60
(dp1627
sg69
g1202
sg62
(lp1628
g55
(g76
g57
NtRp1629
(dp1630
g60
(dp1631
g80
g81
ssg69
g1625
sg62
(lp1632
S'query_string'
p1633
asbag55
(g76
g57
NtRp1634
(dp1635
g60
(dp1636
g87
g88
ssg69
g1625
sg62
(lp1637
S':'
asbag55
(g76
g57
NtRp1638
(dp1639
g60
(dp1640
sg69
g1625
sg62
(lp1641
g55
(g56
g57
NtRp1642
(dp1643
g60
(dp1644
g68
I4
ssg69
g1638
sg62
(lp1645
S''
asbasbasbag55
(g71
g57
NtRp1646
(dp1647
g60
(dp1648
sg69
g1202
sg62
(lp1649
g55
(g76
g57
NtRp1650
(dp1651
g60
(dp1652
g80
g81
ssg69
g1646
sg62
(lp1653
S'remote_addr'
p1654
asbag55
(g76
g57
NtRp1655
(dp1656
g60
(dp1657
g87
g88
ssg69
g1646
sg62
(lp1658
S':'
asbag55
(g76
g57
NtRp1659
(dp1660
g60
(dp1661
sg69
g1646
sg62
(lp1662
g55
(g56
g57
NtRp1663
(dp1664
g60
(dp1665
g68
I4
ssg69
g1659
sg62
(lp1666
g200
asbasbasbag55
(g71
g57
NtRp1667
(dp1668
g60
(dp1669
sg69
g1202
sg62
(lp1670
g55
(g76
g57
NtRp1671
(dp1672
g60
(dp1673
g80
g81
ssg69
g1667
sg62
(lp1674
S'remote_port'
p1675
asbag55
(g76
g57
NtRp1676
(dp1677
g60
(dp1678
g87
g88
ssg69
g1667
sg62
(lp1679
S':'
asbag55
(g76
g57
NtRp1680
(dp1681
g60
(dp1682
sg69
g1667
sg62
(lp1683
g55
(g56
g57
NtRp1684
(dp1685
g60
(dp1686
g68
I4
ssg69
g1680
sg62
(lp1687
S'60774'
p1688
asbasbasbag55
(g71
g57
NtRp1689
(dp1690
g60
(dp1691
sg69
g1202
sg62
(lp1692
g55
(g76
g57
NtRp1693
(dp1694
g60
(dp1695
g80
g81
ssg69
g1689
sg62
(lp1696
S'request_method'
p1697
asbag55
(g76
g57
NtRp1698
(dp1699
g60
(dp1700
g87
g88
ssg69
g1689
sg62
(lp1701
S':'
asbag55
(g76
g57
NtRp1702
(dp1703
g60
(dp1704
sg69
g1689
sg62
(lp1705
g55
(g56
g57
NtRp1706
(dp1707
g60
(dp1708
g68
I4
ssg69
g1702
sg62
(lp1709
S'GET'
p1710
asbasbasbag55
(g71
g57
NtRp1711
(dp1712
g60
(dp1713
sg69
g1202
sg62
(lp1714
g55
(g76
g57
NtRp1715
(dp1716
g60
(dp1717
g80
g81
ssg69
g1711
sg62
(lp1718
S'script_name'
p1719
asbag55
(g76
g57
NtRp1720
(dp1721
g60
(dp1722
g87
g88
ssg69
g1711
sg62
(lp1723
S':'
asbag55
(g76
g57
NtRp1724
(dp1725
g60
(dp1726
sg69
g1711
sg62
(lp1727
g55
(g56
g57
NtRp1728
(dp1729
g60
(dp1730
g68
I4
ssg69
g1724
sg62
(lp1731
S''
asbasbasbag55
(g71
g57
NtRp1732
(dp1733
g60
(dp1734
sg69
g1202
sg62
(lp1735
g55
(g76
g57
NtRp1736
(dp1737
g60
(dp1738
g80
g81
ssg69
g1732
sg62
(lp1739
S'server_name'
p1740
asbag55
(g76
g57
NtRp1741
(dp1742
g60
(dp1743
g87
g88
ssg69
g1732
sg62
(lp1744
S':'
asbag55
(g76
g57
NtRp1745
(dp1746
g60
(dp1747
sg69
g1732
sg62
(lp1748
g55
(g56
g57
NtRp1749
(dp1750
g60
(dp1751
g68
I4
ssg69
g1745
sg62
(lp1752
S'kaique-Pine-Trail-M'
p1753
asbasbasbag55
(g71
g57
NtRp1754
(dp1755
g60
(dp1756
sg69
g1202
sg62
(lp1757
g55
(g76
g57
NtRp1758
(dp1759
g60
(dp1760
g80
g81
ssg69
g1754
sg62
(lp1761
S'server_port'
p1762
asbag55
(g76
g57
NtRp1763
(dp1764
g60
(dp1765
g87
g88
ssg69
g1754
sg62
(lp1766
S':'
asbag55
(g76
g57
NtRp1767
(dp1768
g60
(dp1769
sg69
g1754
sg62
(lp1770
g55
(g56
g57
NtRp1771
(dp1772
g60
(dp1773
g68
I4
ssg69
g1767
sg62
(lp1774
S'8000'
p1775
asbasbasbag55
(g71
g57
NtRp1776
(dp1777
g60
(dp1778
sg69
g1202
sg62
(lp1779
g55
(g76
g57
NtRp1780
(dp1781
g60
(dp1782
g80
g81
ssg69
g1776
sg62
(lp1783
S'server_protocol'
p1784
asbag55
(g76
g57
NtRp1785
(dp1786
g60
(dp1787
g87
g88
ssg69
g1776
sg62
(lp1788
S':'
asbag55
(g76
g57
NtRp1789
(dp1790
g60
(dp1791
sg69
g1776
sg62
(lp1792
g55
(g56
g57
NtRp1793
(dp1794
g60
(dp1795
g68
I4
ssg69
g1789
sg62
(lp1796
S'HTTP/1.1'
p1797
asbasbasbag55
(g71
g57
NtRp1798
(dp1799
g60
(dp1800
sg69
g1202
sg62
(lp1801
g55
(g76
g57
NtRp1802
(dp1803
g60
(dp1804
g80
g81
ssg69
g1798
sg62
(lp1805
S'server_software'
p1806
asbag55
(g76
g57
NtRp1807
(dp1808
g60
(dp1809
g87
g88
ssg69
g1798
sg62
(lp1810
S':'
asbag55
(g76
g57
NtRp1811
(dp1812
g60
(dp1813
sg69
g1798
sg62
(lp1814
g55
(g56
g57
NtRp1815
(dp1816
g60
(dp1817
g68
I4
ssg69
g1811
sg62
(lp1818
S'Rocket 1.2.4'
p1819
asbasbasbag55
(g71
g57
NtRp1820
(dp1821
g60
(dp1822
sg69
g1202
sg62
(lp1823
g55
(g76
g57
NtRp1824
(dp1825
g60
(dp1826
g80
g81
ssg69
g1820
sg62
(lp1827
S'web2py_crontype'
p1828
asbag55
(g76
g57
NtRp1829
(dp1830
g60
(dp1831
g87
g88
ssg69
g1820
sg62
(lp1832
S':'
asbag55
(g76
g57
NtRp1833
(dp1834
g60
(dp1835
sg69
g1820
sg62
(lp1836
g55
(g56
g57
NtRp1837
(dp1838
g60
(dp1839
g68
I4
ssg69
g1833
sg62
(lp1840
S'hard'
p1841
asbasbasbag55
(g71
g57
NtRp1842
(dp1843
g60
(dp1844
sg69
g1202
sg62
(lp1845
g55
(g76
g57
NtRp1846
(dp1847
g60
(dp1848
g80
g81
ssg69
g1842
sg62
(lp1849
S'web2py_path'
p1850
asbag55
(g76
g57
NtRp1851
(dp1852
g60
(dp1853
g87
g88
ssg69
g1842
sg62
(lp1854
S':'
asbag55
(g76
g57
NtRp1855
(dp1856
g60
(dp1857
sg69
g1842
sg62
(lp1858
g55
(g56
g57
NtRp1859
(dp1860
g60
(dp1861
g68
I4
ssg69
g1855
sg62
(lp1862
g1249
asbasbasbag55
(g71
g57
NtRp1863
(dp1864
g60
(dp1865
sg69
g1202
sg62
(lp1866
g55
(g76
g57
NtRp1867
(dp1868
g60
(dp1869
g80
g81
ssg69
g1863
sg62
(lp1870
S'web2py_version'
p1871
asbag55
(g76
g57
NtRp1872
(dp1873
g60
(dp1874
g87
g88
ssg69
g1863
sg62
(lp1875
S':'
asbag55
(g76
g57
NtRp1876
(dp1877
g60
(dp1878
sg69
g1863
sg62
(lp1879
g55
(g56
g57
NtRp1880
(dp1881
g60
(dp1882
g68
I4
ssg69
g1876
sg62
(lp1883
g55
(g64
g57
NtRp1884
(dp1885
g60
(dp1886
g68
I3
ssg69
Nsg62
(lp1887
g55
(g71
g57
NtRp1888
(dp1889
g60
(dp1890
sg69
g1884
sg62
(lp1891
g55
(g76
g57
NtRp1892
(dp1893
g60
(dp1894
sg69
g1888
sg62
(lp1895
g55
(g56
g57
NtRp1896
(dp1897
g60
(dp1898
g68
I3
ssg69
g1892
sg62
(lp1899
S'1'
asbasbasbag55
(g71
g57
NtRp1900
(dp1901
g60
(dp1902
sg69
g1884
sg62
(lp1903
g55
(g76
g57
NtRp1904
(dp1905
g60
(dp1906
sg69
g1900
sg62
(lp1907
g55
(g56
g57
NtRp1908
(dp1909
g60
(dp1910
g68
I3
ssg69
g1904
sg62
(lp1911
S'99'
p1912
asbasbasbag55
(g71
g57
NtRp1913
(dp1914
g60
(dp1915
sg69
g1884
sg62
(lp1916
g55
(g76
g57
NtRp1917
(dp1918
g60
(dp1919
sg69
g1913
sg62
(lp1920
g55
(g56
g57
NtRp1921
(dp1922
g60
(dp1923
g68
I3
ssg69
g1917
sg62
(lp1924
S'2'
asbasbasbag55
(g71
g57
NtRp1925
(dp1926
g60
(dp1927
sg69
g1884
sg62
(lp1928
g55
(g76
g57
NtRp1929
(dp1930
g60
(dp1931
sg69
g1925
sg62
(lp1932
g55
(g56
g57
NtRp1933
(dp1934
g60
(dp1935
g68
I3
ssg69
g1929
sg62
(lp1936
S'datetime.datetime(2011, 9, 26, 6, 55, 33)'
p1937
asbasbasbag55
(g71
g57
NtRp1938
(dp1939
g60
(dp1940
sg69
g1884
sg62
(lp1941
g55
(g76
g57
NtRp1942
(dp1943
g60
(dp1944
sg69
g1938
sg62
(lp1945
g55
(g56
g57
NtRp1946
(dp1947
g60
(dp1948
g68
I3
ssg69
g1942
sg62
(lp1949
S'stable'
p1950
asbasbasbasbasbasbasbag55
(g71
g57
NtRp1951
(dp1952
g60
(dp1953
sg69
g1202
sg62
(lp1954
g55
(g76
g57
NtRp1955
(dp1956
g60
(dp1957
g80
g81
ssg69
g1951
sg62
(lp1958
S'wsgi_errors'
p1959
asbag55
(g76
g57
NtRp1960
(dp1961
g60
(dp1962
g87
g88
ssg69
g1951
sg62
(lp1963
S':'
asbag55
(g76
g57
NtRp1964
(dp1965
g60
(dp1966
sg69
g1951
sg62
(lp1967
g55
(g56
g57
NtRp1968
(dp1969
g60
(dp1970
g68
I4
ssg69
g1964
sg62
(lp1971
S"<open file '<stderr>', mode 'w' at 0x7f6e78474270>"
p1972
asbasbasbag55
(g71
g57
NtRp1973
(dp1974
g60
(dp1975
sg69
g1202
sg62
(lp1976
g55
(g76
g57
NtRp1977
(dp1978
g60
(dp1979
g80
g81
ssg69
g1973
sg62
(lp1980
S'wsgi_file_wrapper'
p1981
asbag55
(g76
g57
NtRp1982
(dp1983
g60
(dp1984
g87
g88
ssg69
g1973
sg62
(lp1985
S':'
asbag55
(g76
g57
NtRp1986
(dp1987
g60
(dp1988
sg69
g1973
sg62
(lp1989
g55
(g56
g57
NtRp1990
(dp1991
g60
(dp1992
g68
I4
ssg69
g1986
sg62
(lp1993
S'<class wsgiref.util.FileWrapper at 0x2425ef0>'
p1994
asbasbasbag55
(g71
g57
NtRp1995
(dp1996
g60
(dp1997
sg69
g1202
sg62
(lp1998
g55
(g76
g57
NtRp1999
(dp2000
g60
(dp2001
g80
g81
ssg69
g1995
sg62
(lp2002
S'wsgi_input'
p2003
asbag55
(g76
g57
NtRp2004
(dp2005
g60
(dp2006
g87
g88
ssg69
g1995
sg62
(lp2007
S':'
asbag55
(g76
g57
NtRp2008
(dp2009
g60
(dp2010
sg69
g1995
sg62
(lp2011
g55
(g56
g57
NtRp2012
(dp2013
g60
(dp2014
g68
I4
ssg69
g2008
sg62
(lp2015
S'<socket._fileobject object at 0x2a680d0>'
p2016
asbasbasbag55
(g71
g57
NtRp2017
(dp2018
g60
(dp2019
sg69
g1202
sg62
(lp2020
g55
(g76
g57
NtRp2021
(dp2022
g60
(dp2023
g80
g81
ssg69
g2017
sg62
(lp2024
S'wsgi_multiprocess'
p2025
asbag55
(g76
g57
NtRp2026
(dp2027
g60
(dp2028
g87
g88
ssg69
g2017
sg62
(lp2029
S':'
asbag55
(g76
g57
NtRp2030
(dp2031
g60
(dp2032
sg69
g2017
sg62
(lp2033
g55
(g56
g57
NtRp2034
(dp2035
g60
(dp2036
g68
I4
ssg69
g2030
sg62
(lp2037
g98
asbasbasbag55
(g71
g57
NtRp2038
(dp2039
g60
(dp2040
sg69
g1202
sg62
(lp2041
g55
(g76
g57
NtRp2042
(dp2043
g60
(dp2044
g80
g81
ssg69
g2038
sg62
(lp2045
S'wsgi_multithread'
p2046
asbag55
(g76
g57
NtRp2047
(dp2048
g60
(dp2049
g87
g88
ssg69
g2038
sg62
(lp2050
S':'
asbag55
(g76
g57
NtRp2051
(dp2052
g60
(dp2053
sg69
g2038
sg62
(lp2054
g55
(g56
g57
NtRp2055
(dp2056
g60
(dp2057
g68
I4
ssg69
g2051
sg62
(lp2058
S'True'
p2059
asbasbasbag55
(g71
g57
NtRp2060
(dp2061
g60
(dp2062
sg69
g1202
sg62
(lp2063
g55
(g76
g57
NtRp2064
(dp2065
g60
(dp2066
g80
g81
ssg69
g2060
sg62
(lp2067
S'wsgi_run_once'
p2068
asbag55
(g76
g57
NtRp2069
(dp2070
g60
(dp2071
g87
g88
ssg69
g2060
sg62
(lp2072
S':'
asbag55
(g76
g57
NtRp2073
(dp2074
g60
(dp2075
sg69
g2060
sg62
(lp2076
g55
(g56
g57
NtRp2077
(dp2078
g60
(dp2079
g68
I4
ssg69
g2073
sg62
(lp2080
g98
asbasbasbag55
(g71
g57
NtRp2081
(dp2082
g60
(dp2083
sg69
g1202
sg62
(lp2084
g55
(g76
g57
NtRp2085
(dp2086
g60
(dp2087
g80
g81
ssg69
g2081
sg62
(lp2088
S'wsgi_url_scheme'
p2089
asbag55
(g76
g57
NtRp2090
(dp2091
g60
(dp2092
g87
g88
ssg69
g2081
sg62
(lp2093
S':'
asbag55
(g76
g57
NtRp2094
(dp2095
g60
(dp2096
sg69
g2081
sg62
(lp2097
g55
(g56
g57
NtRp2098
(dp2099
g60
(dp2100
g68
I4
ssg69
g2094
sg62
(lp2101
S'http'
p2102
asbasbasbag55
(g71
g57
NtRp2103
(dp2104
g60
(dp2105
sg69
g1202
sg62
(lp2106
g55
(g76
g57
NtRp2107
(dp2108
g60
(dp2109
g80
g81
ssg69
g2103
sg62
(lp2110
S'wsgi_version'
p2111
asbag55
(g76
g57
NtRp2112
(dp2113
g60
(dp2114
g87
g88
ssg69
g2103
sg62
(lp2115
S':'
asbag55
(g76
g57
NtRp2116
(dp2117
g60
(dp2118
sg69
g2103
sg62
(lp2119
g55
(g56
g57
NtRp2120
(dp2121
g60
(dp2122
g68
I4
ssg69
g2116
sg62
(lp2123
g55
(g64
g57
NtRp2124
(dp2125
g60
(dp2126
g68
I3
ssg69
Nsg62
(lp2127
g55
(g71
g57
NtRp2128
(dp2129
g60
(dp2130
sg69
g2124
sg62
(lp2131
g55
(g76
g57
NtRp2132
(dp2133
g60
(dp2134
sg69
g2128
sg62
(lp2135
g55
(g56
g57
NtRp2136
(dp2137
g60
(dp2138
g68
I3
ssg69
g2132
sg62
(lp2139
S'1'
asbasbasbag55
(g71
g57
NtRp2140
(dp2141
g60
(dp2142
sg69
g2124
sg62
(lp2143
g55
(g76
g57
NtRp2144
(dp2145
g60
(dp2146
sg69
g2140
sg62
(lp2147
g55
(g56
g57
NtRp2148
(dp2149
g60
(dp2150
g68
I3
ssg69
g2144
sg62
(lp2151
S'0'
asbasbasbasbasbasbasbasbasbasbasbag55
(g71
g57
NtRp2152
(dp2153
g60
(dp2154
sg69
g65
sg62
(lp2155
g55
(g76
g57
NtRp2156
(dp2157
g60
(dp2158
g80
g81
ssg69
g2152
sg62
(lp2159
S'extension'
p2160
asbag55
(g76
g57
NtRp2161
(dp2162
g60
(dp2163
g87
g88
ssg69
g2152
sg62
(lp2164
S':'
asbag55
(g76
g57
NtRp2165
(dp2166
g60
(dp2167
sg69
g2152
sg62
(lp2168
g55
(g56
g57
NtRp2169
(dp2170
g60
(dp2171
g68
I5
ssg69
g2165
sg62
(lp2172
S'html'
p2173
asbasbasbag55
(g71
g57
NtRp2174
(dp2175
g60
(dp2176
sg69
g65
sg62
(lp2177
g55
(g76
g57
NtRp2178
(dp2179
g60
(dp2180
g80
g81
ssg69
g2174
sg62
(lp2181
S'folder'
p2182
asbag55
(g76
g57
NtRp2183
(dp2184
g60
(dp2185
g87
g88
ssg69
g2174
sg62
(lp2186
S':'
asbag55
(g76
g57
NtRp2187
(dp2188
g60
(dp2189
sg69
g2174
sg62
(lp2190
g55
(g56
g57
NtRp2191
(dp2192
g60
(dp2193
g68
I5
ssg69
g2187
sg62
(lp2194
S'/home/kaique/Projects/web2py/applications/synopsis/'
p2195
asbasbasbag55
(g71
g57
NtRp2196
(dp2197
g60
(dp2198
sg69
g65
sg62
(lp2199
g55
(g76
g57
NtRp2200
(dp2201
g60
(dp2202
g80
g81
ssg69
g2196
sg62
(lp2203
S'function'
p2204
asbag55
(g76
g57
NtRp2205
(dp2206
g60
(dp2207
g87
g88
ssg69
g2196
sg62
(lp2208
S':'
asbag55
(g76
g57
NtRp2209
(dp2210
g60
(dp2211
sg69
g2196
sg62
(lp2212
g55
(g56
g57
NtRp2213
(dp2214
g60
(dp2215
g68
I5
ssg69
g2209
sg62
(lp2216
S'publication'
p2217
asbasbasbag55
(g71
g57
NtRp2218
(dp2219
g60
(dp2220
sg69
g65
sg62
(lp2221
g55
(g76
g57
NtRp2222
(dp2223
g60
(dp2224
g80
g81
ssg69
g2218
sg62
(lp2225
S'get_vars'
p2226
asbag55
(g76
g57
NtRp2227
(dp2228
g60
(dp2229
g87
g88
ssg69
g2218
sg62
(lp2230
S':'
asbag55
(g76
g57
NtRp2231
(dp2232
g60
(dp2233
sg69
g2218
sg62
(lp2234
g55
(g56
g57
NtRp2235
(dp2236
g60
(dp2237
g68
I5
ssg69
g2231
sg62
(lp2238
g55
(g64
g57
NtRp2239
(dp2240
g60
(dp2241
g68
I4
ssg69
Nsg62
(lp2242
sbasbasbasbag55
(g71
g57
NtRp2243
(dp2244
g60
(dp2245
sg69
g65
sg62
(lp2246
g55
(g76
g57
NtRp2247
(dp2248
g60
(dp2249
g80
g81
ssg69
g2243
sg62
(lp2250
S'global_settings'
p2251
asbag55
(g76
g57
NtRp2252
(dp2253
g60
(dp2254
g87
g88
ssg69
g2243
sg62
(lp2255
S':'
asbag55
(g76
g57
NtRp2256
(dp2257
g60
(dp2258
sg69
g2243
sg62
(lp2259
g55
(g56
g57
NtRp2260
(dp2261
g60
(dp2262
g68
I5
ssg69
g2256
sg62
(lp2263
g55
(g64
g57
NtRp2264
(dp2265
g60
(dp2266
g68
I4
ssg69
Nsg62
(lp2267
g55
(g71
g57
NtRp2268
(dp2269
g60
(dp2270
sg69
g2264
sg62
(lp2271
g55
(g76
g57
NtRp2272
(dp2273
g60
(dp2274
g80
g81
ssg69
g2268
sg62
(lp2275
g1214
asbag55
(g76
g57
NtRp2276
(dp2277
g60
(dp2278
g87
g88
ssg69
g2268
sg62
(lp2279
S':'
asbag55
(g76
g57
NtRp2280
(dp2281
g60
(dp2282
sg69
g2268
sg62
(lp2283
g55
(g56
g57
NtRp2284
(dp2285
g60
(dp2286
g68
I4
ssg69
g2280
sg62
(lp2287
S"set(['/home/kaique/Projects/web2py/applications/synopsis/', '/home/kaique/Projects/web2py/applications/admin/'])"
p2288
asbasbasbag55
(g71
g57
NtRp2289
(dp2290
g60
(dp2291
sg69
g2264
sg62
(lp2292
g55
(g76
g57
NtRp2293
(dp2294
g60
(dp2295
g80
g81
ssg69
g2289
sg62
(lp2296
g1236
asbag55
(g76
g57
NtRp2297
(dp2298
g60
(dp2299
g87
g88
ssg69
g2289
sg62
(lp2300
S':'
asbag55
(g76
g57
NtRp2301
(dp2302
g60
(dp2303
sg69
g2289
sg62
(lp2304
g55
(g56
g57
NtRp2305
(dp2306
g60
(dp2307
g68
I4
ssg69
g2301
sg62
(lp2308
g1249
asbasbasbag55
(g71
g57
NtRp2309
(dp2310
g60
(dp2311
sg69
g2264
sg62
(lp2312
g55
(g76
g57
NtRp2313
(dp2314
g60
(dp2315
g80
g81
ssg69
g2309
sg62
(lp2316
g1258
asbag55
(g76
g57
NtRp2317
(dp2318
g60
(dp2319
g87
g88
ssg69
g2309
sg62
(lp2320
S':'
asbag55
(g76
g57
NtRp2321
(dp2322
g60
(dp2323
sg69
g2309
sg62
(lp2324
g55
(g56
g57
NtRp2325
(dp2326
g60
(dp2327
g68
I4
ssg69
g2321
sg62
(lp2328
g55
(g64
g57
NtRp2329
(dp2330
g60
(dp2331
g68
I3
ssg69
Nsg62
(lp2332
sbasbasbasbag55
(g71
g57
NtRp2333
(dp2334
g60
(dp2335
sg69
g2264
sg62
(lp2336
g55
(g76
g57
NtRp2337
(dp2338
g60
(dp2339
g80
g81
ssg69
g2333
sg62
(lp2340
g1283
asbag55
(g76
g57
NtRp2341
(dp2342
g60
(dp2343
g87
g88
ssg69
g2333
sg62
(lp2344
S':'
asbag55
(g76
g57
NtRp2345
(dp2346
g60
(dp2347
sg69
g2333
sg62
(lp2348
g55
(g56
g57
NtRp2349
(dp2350
g60
(dp2351
g68
I4
ssg69
g2345
sg62
(lp2352
S"<Values at 0x256e950: {'verbose': False, 'ip': '127.0.0.1', 'shutdown_timeout': 5, 'taskbar': False, 'nocron': False, 'pid_filename': 'httpserver.pid', 'maxthreads': None, 'softcron': False, 'server_name': 'kaique-Pine-Trail-M', 'bpython': False, 'nogui': False, 'port': 8000, 'extcron': False, 'debuglevel': 30, 'test': None, 'folder': '/home/kaique/Projects/web2py', 'config': '', 'import_models': False, 'winservice': '', 'shell': None, 'run': '', 'log_filename': 'httpserver.log', 'args': [''], 'ssl_ca_certificate': None, 'scheduler': None, 'profiler_filename': None, 'ssl_private_key': '', 'password': 'dev', 'request_queue_size': 5, 'ssl_certificate': '', 'cronjob': False, 'plain': False, 'quiet': False, 'interfaces': None, 'minthreads': None, 'timeout': 10, 'numthreads': None, 'nobanner': False}>"
p2353
asbasbasbag55
(g71
g57
NtRp2354
(dp2355
g60
(dp2356
sg69
g2264
sg62
(lp2357
g55
(g76
g57
NtRp2358
(dp2359
g60
(dp2360
g80
g81
ssg69
g2354
sg62
(lp2361
g1305
asbag55
(g76
g57
NtRp2362
(dp2363
g60
(dp2364
g87
g88
ssg69
g2354
sg62
(lp2365
S':'
asbag55
(g76
g57
NtRp2366
(dp2367
g60
(dp2368
sg69
g2354
sg62
(lp2369
g55
(g56
g57
NtRp2370
(dp2371
g60
(dp2372
g68
I4
ssg69
g2366
sg62
(lp2373
S'set([])'
p2374
asbasbasbag55
(g71
g57
NtRp2375
(dp2376
g60
(dp2377
sg69
g2264
sg62
(lp2378
g55
(g76
g57
NtRp2379
(dp2380
g60
(dp2381
g80
g81
ssg69
g2375
sg62
(lp2382
g1327
asbag55
(g76
g57
NtRp2383
(dp2384
g60
(dp2385
g87
g88
ssg69
g2375
sg62
(lp2386
S':'
asbag55
(g76
g57
NtRp2387
(dp2388
g60
(dp2389
sg69
g2375
sg62
(lp2390
g55
(g56
g57
NtRp2391
(dp2392
g60
(dp2393
g68
I4
ssg69
g2387
sg62
(lp2394
g98
asbasbasbag55
(g71
g57
NtRp2395
(dp2396
g60
(dp2397
sg69
g2264
sg62
(lp2398
g55
(g76
g57
NtRp2399
(dp2400
g60
(dp2401
g80
g81
ssg69
g2395
sg62
(lp2402
g1348
asbag55
(g76
g57
NtRp2403
(dp2404
g60
(dp2405
g87
g88
ssg69
g2395
sg62
(lp2406
S':'
asbag55
(g76
g57
NtRp2407
(dp2408
g60
(dp2409
sg69
g2395
sg62
(lp2410
g55
(g56
g57
NtRp2411
(dp2412
g60
(dp2413
g68
I4
ssg69
g2407
sg62
(lp2414
g1361
asbasbasbag55
(g71
g57
NtRp2415
(dp2416
g60
(dp2417
sg69
g2264
sg62
(lp2418
g55
(g76
g57
NtRp2419
(dp2420
g60
(dp2421
g80
g81
ssg69
g2415
sg62
(lp2422
g1590
asbag55
(g76
g57
NtRp2423
(dp2424
g60
(dp2425
g87
g88
ssg69
g2415
sg62
(lp2426
S':'
asbag55
(g76
g57
NtRp2427
(dp2428
g60
(dp2429
sg69
g2415
sg62
(lp2430
g55
(g56
g57
NtRp2431
(dp2432
g60
(dp2433
g68
I4
ssg69
g2427
sg62
(lp2434
g98
asbasbasbag55
(g71
g57
NtRp2435
(dp2436
g60
(dp2437
sg69
g2264
sg62
(lp2438
g55
(g76
g57
NtRp2439
(dp2440
g60
(dp2441
g80
g81
ssg69
g2435
sg62
(lp2442
g1828
asbag55
(g76
g57
NtRp2443
(dp2444
g60
(dp2445
g87
g88
ssg69
g2435
sg62
(lp2446
S':'
asbag55
(g76
g57
NtRp2447
(dp2448
g60
(dp2449
sg69
g2435
sg62
(lp2450
g55
(g56
g57
NtRp2451
(dp2452
g60
(dp2453
g68
I4
ssg69
g2447
sg62
(lp2454
g1841
asbasbasbag55
(g71
g57
NtRp2455
(dp2456
g60
(dp2457
sg69
g2264
sg62
(lp2458
g55
(g76
g57
NtRp2459
(dp2460
g60
(dp2461
g80
g81
ssg69
g2455
sg62
(lp2462
g1871
asbag55
(g76
g57
NtRp2463
(dp2464
g60
(dp2465
g87
g88
ssg69
g2455
sg62
(lp2466
S':'
asbag55
(g76
g57
NtRp2467
(dp2468
g60
(dp2469
sg69
g2455
sg62
(lp2470
g55
(g56
g57
NtRp2471
(dp2472
g60
(dp2473
g68
I4
ssg69
g2467
sg62
(lp2474
g55
(g64
g57
NtRp2475
(dp2476
g60
(dp2477
g68
I3
ssg69
Nsg62
(lp2478
g55
(g71
g57
NtRp2479
(dp2480
g60
(dp2481
sg69
g2475
sg62
(lp2482
g55
(g76
g57
NtRp2483
(dp2484
g60
(dp2485
sg69
g2479
sg62
(lp2486
g55
(g56
g57
NtRp2487
(dp2488
g60
(dp2489
g68
I3
ssg69
g2483
sg62
(lp2490
S'1'
asbasbasbag55
(g71
g57
NtRp2491
(dp2492
g60
(dp2493
sg69
g2475
sg62
(lp2494
g55
(g76
g57
NtRp2495
(dp2496
g60
(dp2497
sg69
g2491
sg62
(lp2498
g55
(g56
g57
NtRp2499
(dp2500
g60
(dp2501
g68
I3
ssg69
g2495
sg62
(lp2502
S'99'
p2503
asbasbasbag55
(g71
g57
NtRp2504
(dp2505
g60
(dp2506
sg69
g2475
sg62
(lp2507
g55
(g76
g57
NtRp2508
(dp2509
g60
(dp2510
sg69
g2504
sg62
(lp2511
g55
(g56
g57
NtRp2512
(dp2513
g60
(dp2514
g68
I3
ssg69
g2508
sg62
(lp2515
S'2'
asbasbasbag55
(g71
g57
NtRp2516
(dp2517
g60
(dp2518
sg69
g2475
sg62
(lp2519
g55
(g76
g57
NtRp2520
(dp2521
g60
(dp2522
sg69
g2516
sg62
(lp2523
g55
(g56
g57
NtRp2524
(dp2525
g60
(dp2526
g68
I3
ssg69
g2520
sg62
(lp2527
S'datetime.datetime(2011, 9, 26, 6, 55, 33)'
p2528
asbasbasbag55
(g71
g57
NtRp2529
(dp2530
g60
(dp2531
sg69
g2475
sg62
(lp2532
g55
(g76
g57
NtRp2533
(dp2534
g60
(dp2535
sg69
g2529
sg62
(lp2536
g55
(g56
g57
NtRp2537
(dp2538
g60
(dp2539
g68
I3
ssg69
g2533
sg62
(lp2540
g1950
asbasbasbasbasbasbasbasbasbasbasbag55
(g71
g57
NtRp2541
(dp2542
g60
(dp2543
sg69
g65
sg62
(lp2544
g55
(g76
g57
NtRp2545
(dp2546
g60
(dp2547
g80
g81
ssg69
g2541
sg62
(lp2548
S'is_https'
p2549
asbag55
(g76
g57
NtRp2550
(dp2551
g60
(dp2552
g87
g88
ssg69
g2541
sg62
(lp2553
S':'
asbag55
(g76
g57
NtRp2554
(dp2555
g60
(dp2556
sg69
g2541
sg62
(lp2557
g55
(g56
g57
NtRp2558
(dp2559
g60
(dp2560
g68
I5
ssg69
g2554
sg62
(lp2561
g98
asbasbasbag55
(g71
g57
NtRp2562
(dp2563
g60
(dp2564
sg69
g65
sg62
(lp2565
g55
(g76
g57
NtRp2566
(dp2567
g60
(dp2568
g80
g81
ssg69
g2562
sg62
(lp2569
S'is_local'
p2570
asbag55
(g76
g57
NtRp2571
(dp2572
g60
(dp2573
g87
g88
ssg69
g2562
sg62
(lp2574
S':'
asbag55
(g76
g57
NtRp2575
(dp2576
g60
(dp2577
sg69
g2562
sg62
(lp2578
g55
(g56
g57
NtRp2579
(dp2580
g60
(dp2581
g68
I5
ssg69
g2575
sg62
(lp2582
g2059
asbasbasbag55
(g71
g57
NtRp2583
(dp2584
g60
(dp2585
sg69
g65
sg62
(lp2586
g55
(g76
g57
NtRp2587
(dp2588
g60
(dp2589
g80
g81
ssg69
g2583
sg62
(lp2590
S'is_restful'
p2591
asbag55
(g76
g57
NtRp2592
(dp2593
g60
(dp2594
g87
g88
ssg69
g2583
sg62
(lp2595
S':'
asbag55
(g76
g57
NtRp2596
(dp2597
g60
(dp2598
sg69
g2583
sg62
(lp2599
g55
(g56
g57
NtRp2600
(dp2601
g60
(dp2602
g68
I5
ssg69
g2596
sg62
(lp2603
g98
asbasbasbag55
(g71
g57
NtRp2604
(dp2605
g60
(dp2606
sg69
g65
sg62
(lp2607
g55
(g76
g57
NtRp2608
(dp2609
g60
(dp2610
g80
g81
ssg69
g2604
sg62
(lp2611
S'now'
p2612
asbag55
(g76
g57
NtRp2613
(dp2614
g60
(dp2615
g87
g88
ssg69
g2604
sg62
(lp2616
S':'
asbag55
(g76
g57
NtRp2617
(dp2618
g60
(dp2619
sg69
g2604
sg62
(lp2620
g55
(g56
g57
NtRp2621
(dp2622
g60
(dp2623
g68
I5
ssg69
g2617
sg62
(lp2624
S'datetime.datetime(2012, 1, 14, 0, 33, 18, 116511)'
p2625
asbasbasbag55
(g71
g57
NtRp2626
(dp2627
g60
(dp2628
sg69
g65
sg62
(lp2629
g55
(g76
g57
NtRp2630
(dp2631
g60
(dp2632
g80
g81
ssg69
g2626
sg62
(lp2633
S'post_vars'
p2634
asbag55
(g76
g57
NtRp2635
(dp2636
g60
(dp2637
g87
g88
ssg69
g2626
sg62
(lp2638
S':'
asbag55
(g76
g57
NtRp2639
(dp2640
g60
(dp2641
sg69
g2626
sg62
(lp2642
g55
(g56
g57
NtRp2643
(dp2644
g60
(dp2645
g68
I5
ssg69
g2639
sg62
(lp2646
g55
(g64
g57
NtRp2647
(dp2648
g60
(dp2649
g68
I4
ssg69
Nsg62
(lp2650
sbasbasbasbag55
(g71
g57
NtRp2651
(dp2652
g60
(dp2653
sg69
g65
sg62
(lp2654
g55
(g76
g57
NtRp2655
(dp2656
g60
(dp2657
g80
g81
ssg69
g2651
sg62
(lp2658
S'raw_args'
p2659
asbag55
(g76
g57
NtRp2660
(dp2661
g60
(dp2662
g87
g88
ssg69
g2651
sg62
(lp2663
S':'
asbag55
(g76
g57
NtRp2664
(dp2665
g60
(dp2666
sg69
g2651
sg62
(lp2667
g55
(g56
g57
NtRp2668
(dp2669
g60
(dp2670
g68
I5
ssg69
g2664
sg62
(lp2671
S'1'
asbasbasbag55
(g71
g57
NtRp2672
(dp2673
g60
(dp2674
sg69
g65
sg62
(lp2675
g55
(g76
g57
NtRp2676
(dp2677
g60
(dp2678
g80
g81
ssg69
g2672
sg62
(lp2679
S'url'
p2680
asbag55
(g76
g57
NtRp2681
(dp2682
g60
(dp2683
g87
g88
ssg69
g2672
sg62
(lp2684
S':'
asbag55
(g76
g57
NtRp2685
(dp2686
g60
(dp2687
sg69
g2672
sg62
(lp2688
g55
(g56
g57
NtRp2689
(dp2690
g60
(dp2691
g68
I5
ssg69
g2685
sg62
(lp2692
S'/synopsis/information/publication/1'
p2693
asbasbasbag55
(g71
g57
NtRp2694
(dp2695
g60
(dp2696
sg69
g65
sg62
(lp2697
g55
(g76
g57
NtRp2698
(dp2699
g60
(dp2700
g80
g81
ssg69
g2694
sg62
(lp2701
S'utcnow'
p2702
asbag55
(g76
g57
NtRp2703
(dp2704
g60
(dp2705
g87
g88
ssg69
g2694
sg62
(lp2706
S':'
asbag55
(g76
g57
NtRp2707
(dp2708
g60
(dp2709
sg69
g2694
sg62
(lp2710
g55
(g56
g57
NtRp2711
(dp2712
g60
(dp2713
g68
I5
ssg69
g2707
sg62
(lp2714
S'datetime.datetime(2012, 1, 14, 2, 33, 18, 116590)'
p2715
asbasbasbag55
(g71
g57
NtRp2716
(dp2717
g60
(dp2718
sg69
g65
sg62
(lp2719
g55
(g76
g57
NtRp2720
(dp2721
g60
(dp2722
g80
g81
ssg69
g2716
sg62
(lp2723
S'uuid'
p2724
asbag55
(g76
g57
NtRp2725
(dp2726
g60
(dp2727
g87
g88
ssg69
g2716
sg62
(lp2728
S':'
asbag55
(g76
g57
NtRp2729
(dp2730
g60
(dp2731
sg69
g2716
sg62
(lp2732
g55
(g56
g57
NtRp2733
(dp2734
g60
(dp2735
g68
I5
ssg69
g2729
sg62
(lp2736
S'synopsis/127.0.0.1.2012-01-14.00-33-18.13a3c038-0abb-4d07-b39d-61b3f179a604'
p2737
asbasbasbag55
(g71
g57
NtRp2738
(dp2739
g60
(dp2740
sg69
g65
sg62
(lp2741
g55
(g76
g57
NtRp2742
(dp2743
g60
(dp2744
g80
g81
ssg69
g2738
sg62
(lp2745
S'vars'
p2746
asbag55
(g76
g57
NtRp2747
(dp2748
g60
(dp2749
g87
g88
ssg69
g2738
sg62
(lp2750
S':'
asbag55
(g76
g57
NtRp2751
(dp2752
g60
(dp2753
sg69
g2738
sg62
(lp2754
g55
(g56
g57
NtRp2755
(dp2756
g60
(dp2757
g68
I5
ssg69
g2751
sg62
(lp2758
g55
(g64
g57
NtRp2759
(dp2760
g60
(dp2761
g68
I4
ssg69
Nsg62
(lp2762
sbasbasbasbag55
(g71
g57
NtRp2763
(dp2764
g60
(dp2765
sg69
g65
sg62
(lp2766
g55
(g76
g57
NtRp2767
(dp2768
g60
(dp2769
g80
g81
ssg69
g2763
sg62
(lp2770
S'wsgi'
p2771
asbag55
(g76
g57
NtRp2772
(dp2773
g60
(dp2774
g87
g88
ssg69
g2763
sg62
(lp2775
S':'
asbag55
(g76
g57
NtRp2776
(dp2777
g60
(dp2778
sg69
g2763
sg62
(lp2779
g55
(g56
g57
NtRp2780
(dp2781
g60
(dp2782
g68
I5
ssg69
g2776
sg62
(lp2783
g55
(g64
g57
NtRp2784
(dp2785
g60
(dp2786
g68
I4
ssg69
Nsg62
(lp2787
g55
(g71
g57
NtRp2788
(dp2789
g60
(dp2790
sg69
g2784
sg62
(lp2791
g55
(g76
g57
NtRp2792
(dp2793
g60
(dp2794
g80
g81
ssg69
g2788
sg62
(lp2795
S'environ'
p2796
asbag55
(g76
g57
NtRp2797
(dp2798
g60
(dp2799
g87
g88
ssg69
g2788
sg62
(lp2800
S':'
asbag55
(g76
g57
NtRp2801
(dp2802
g60
(dp2803
sg69
g2788
sg62
(lp2804
g55
(g56
g57
NtRp2805
(dp2806
g60
(dp2807
g68
I4
ssg69
g2801
sg62
(lp2808
g55
(g64
g57
NtRp2809
(dp2810
g60
(dp2811
g68
I3
ssg69
Nsg62
(lp2812
g55
(g71
g57
NtRp2813
(dp2814
g60
(dp2815
sg69
g2809
sg62
(lp2816
g55
(g76
g57
NtRp2817
(dp2818
g60
(dp2819
g80
g81
ssg69
g2813
sg62
(lp2820
S'HTTP_ACCEPT'
p2821
asbag55
(g76
g57
NtRp2822
(dp2823
g60
(dp2824
g87
g88
ssg69
g2813
sg62
(lp2825
S':'
asbag55
(g76
g57
NtRp2826
(dp2827
g60
(dp2828
sg69
g2813
sg62
(lp2829
g55
(g56
g57
NtRp2830
(dp2831
g60
(dp2832
g68
I3
ssg69
g2826
sg62
(lp2833
g1383
asbasbasbag55
(g71
g57
NtRp2834
(dp2835
g60
(dp2836
sg69
g2809
sg62
(lp2837
g55
(g76
g57
NtRp2838
(dp2839
g60
(dp2840
g80
g81
ssg69
g2834
sg62
(lp2841
S'HTTP_ACCEPT_CHARSET'
p2842
asbag55
(g76
g57
NtRp2843
(dp2844
g60
(dp2845
g87
g88
ssg69
g2834
sg62
(lp2846
S':'
asbag55
(g76
g57
NtRp2847
(dp2848
g60
(dp2849
sg69
g2834
sg62
(lp2850
g55
(g56
g57
NtRp2851
(dp2852
g60
(dp2853
g68
I3
ssg69
g2847
sg62
(lp2854
g1405
asbasbasbag55
(g71
g57
NtRp2855
(dp2856
g60
(dp2857
sg69
g2809
sg62
(lp2858
g55
(g76
g57
NtRp2859
(dp2860
g60
(dp2861
g80
g81
ssg69
g2855
sg62
(lp2862
S'HTTP_ACCEPT_ENCODING'
p2863
asbag55
(g76
g57
NtRp2864
(dp2865
g60
(dp2866
g87
g88
ssg69
g2855
sg62
(lp2867
S':'
asbag55
(g76
g57
NtRp2868
(dp2869
g60
(dp2870
sg69
g2855
sg62
(lp2871
g55
(g56
g57
NtRp2872
(dp2873
g60
(dp2874
g68
I3
ssg69
g2868
sg62
(lp2875
g1427
asbasbasbag55
(g71
g57
NtRp2876
(dp2877
g60
(dp2878
sg69
g2809
sg62
(lp2879
g55
(g76
g57
NtRp2880
(dp2881
g60
(dp2882
g80
g81
ssg69
g2876
sg62
(lp2883
S'HTTP_ACCEPT_LANGUAGE'
p2884
asbag55
(g76
g57
NtRp2885
(dp2886
g60
(dp2887
g87
g88
ssg69
g2876
sg62
(lp2888
S':'
asbag55
(g76
g57
NtRp2889
(dp2890
g60
(dp2891
sg69
g2876
sg62
(lp2892
g55
(g56
g57
NtRp2893
(dp2894
g60
(dp2895
g68
I3
ssg69
g2889
sg62
(lp2896
g1449
asbasbasbag55
(g71
g57
NtRp2897
(dp2898
g60
(dp2899
sg69
g2809
sg62
(lp2900
g55
(g76
g57
NtRp2901
(dp2902
g60
(dp2903
g80
g81
ssg69
g2897
sg62
(lp2904
S'HTTP_CACHE_CONTROL'
p2905
asbag55
(g76
g57
NtRp2906
(dp2907
g60
(dp2908
g87
g88
ssg69
g2897
sg62
(lp2909
S':'
asbag55
(g76
g57
NtRp2910
(dp2911
g60
(dp2912
sg69
g2897
sg62
(lp2913
g55
(g56
g57
NtRp2914
(dp2915
g60
(dp2916
g68
I3
ssg69
g2910
sg62
(lp2917
g1471
asbasbasbag55
(g71
g57
NtRp2918
(dp2919
g60
(dp2920
sg69
g2809
sg62
(lp2921
g55
(g76
g57
NtRp2922
(dp2923
g60
(dp2924
g80
g81
ssg69
g2918
sg62
(lp2925
S'HTTP_CONNECTION'
p2926
asbag55
(g76
g57
NtRp2927
(dp2928
g60
(dp2929
g87
g88
ssg69
g2918
sg62
(lp2930
S':'
asbag55
(g76
g57
NtRp2931
(dp2932
g60
(dp2933
sg69
g2918
sg62
(lp2934
g55
(g56
g57
NtRp2935
(dp2936
g60
(dp2937
g68
I3
ssg69
g2931
sg62
(lp2938
g1493
asbasbasbag55
(g71
g57
NtRp2939
(dp2940
g60
(dp2941
sg69
g2809
sg62
(lp2942
g55
(g76
g57
NtRp2943
(dp2944
g60
(dp2945
g80
g81
ssg69
g2939
sg62
(lp2946
S'HTTP_COOKIE'
p2947
asbag55
(g76
g57
NtRp2948
(dp2949
g60
(dp2950
g87
g88
ssg69
g2939
sg62
(lp2951
S':'
asbag55
(g76
g57
NtRp2952
(dp2953
g60
(dp2954
sg69
g2939
sg62
(lp2955
g55
(g56
g57
NtRp2956
(dp2957
g60
(dp2958
g68
I3
ssg69
g2952
sg62
(lp2959
g1515
asbasbasbag55
(g71
g57
NtRp2960
(dp2961
g60
(dp2962
sg69
g2809
sg62
(lp2963
g55
(g76
g57
NtRp2964
(dp2965
g60
(dp2966
g80
g81
ssg69
g2960
sg62
(lp2967
S'HTTP_HOST'
p2968
asbag55
(g76
g57
NtRp2969
(dp2970
g60
(dp2971
g87
g88
ssg69
g2960
sg62
(lp2972
S':'
asbag55
(g76
g57
NtRp2973
(dp2974
g60
(dp2975
sg69
g2960
sg62
(lp2976
g55
(g56
g57
NtRp2977
(dp2978
g60
(dp2979
g68
I3
ssg69
g2973
sg62
(lp2980
g1537
asbasbasbag55
(g71
g57
NtRp2981
(dp2982
g60
(dp2983
sg69
g2809
sg62
(lp2984
g55
(g76
g57
NtRp2985
(dp2986
g60
(dp2987
g80
g81
ssg69
g2981
sg62
(lp2988
S'HTTP_REFERER'
p2989
asbag55
(g76
g57
NtRp2990
(dp2991
g60
(dp2992
g87
g88
ssg69
g2981
sg62
(lp2993
S':'
asbag55
(g76
g57
NtRp2994
(dp2995
g60
(dp2996
sg69
g2981
sg62
(lp2997
g55
(g56
g57
NtRp2998
(dp2999
g60
(dp3000
g68
I3
ssg69
g2994
sg62
(lp3001
g1559
asbasbasbag55
(g71
g57
NtRp3002
(dp3003
g60
(dp3004
sg69
g2809
sg62
(lp3005
g55
(g76
g57
NtRp3006
(dp3007
g60
(dp3008
g80
g81
ssg69
g3002
sg62
(lp3009
S'HTTP_USER_AGENT'
p3010
asbag55
(g76
g57
NtRp3011
(dp3012
g60
(dp3013
g87
g88
ssg69
g3002
sg62
(lp3014
S':'
asbag55
(g76
g57
NtRp3015
(dp3016
g60
(dp3017
sg69
g3002
sg62
(lp3018
g55
(g56
g57
NtRp3019
(dp3020
g60
(dp3021
g68
I3
ssg69
g3015
sg62
(lp3022
g1581
asbasbasbag55
(g71
g57
NtRp3023
(dp3024
g60
(dp3025
sg69
g2809
sg62
(lp3026
g55
(g76
g57
NtRp3027
(dp3028
g60
(dp3029
g80
g81
ssg69
g3023
sg62
(lp3030
S'PATH_INFO'
p3031
asbag55
(g76
g57
NtRp3032
(dp3033
g60
(dp3034
g87
g88
ssg69
g3023
sg62
(lp3035
S':'
asbag55
(g76
g57
NtRp3036
(dp3037
g60
(dp3038
sg69
g3023
sg62
(lp3039
g55
(g56
g57
NtRp3040
(dp3041
g60
(dp3042
g68
I3
ssg69
g3036
sg62
(lp3043
g1624
asbasbasbag55
(g71
g57
NtRp3044
(dp3045
g60
(dp3046
sg69
g2809
sg62
(lp3047
g55
(g76
g57
NtRp3048
(dp3049
g60
(dp3050
g80
g81
ssg69
g3044
sg62
(lp3051
S'QUERY_STRING'
p3052
asbag55
(g76
g57
NtRp3053
(dp3054
g60
(dp3055
g87
g88
ssg69
g3044
sg62
(lp3056
S':'
asbag55
(g76
g57
NtRp3057
(dp3058
g60
(dp3059
sg69
g3044
sg62
(lp3060
g55
(g56
g57
NtRp3061
(dp3062
g60
(dp3063
g68
I3
ssg69
g3057
sg62
(lp3064
S''
asbasbasbag55
(g71
g57
NtRp3065
(dp3066
g60
(dp3067
sg69
g2809
sg62
(lp3068
g55
(g76
g57
NtRp3069
(dp3070
g60
(dp3071
g80
g81
ssg69
g3065
sg62
(lp3072
S'REMOTE_ADDR'
p3073
asbag55
(g76
g57
NtRp3074
(dp3075
g60
(dp3076
g87
g88
ssg69
g3065
sg62
(lp3077
S':'
asbag55
(g76
g57
NtRp3078
(dp3079
g60
(dp3080
sg69
g3065
sg62
(lp3081
g55
(g56
g57
NtRp3082
(dp3083
g60
(dp3084
g68
I3
ssg69
g3078
sg62
(lp3085
g200
asbasbasbag55
(g71
g57
NtRp3086
(dp3087
g60
(dp3088
sg69
g2809
sg62
(lp3089
g55
(g76
g57
NtRp3090
(dp3091
g60
(dp3092
g80
g81
ssg69
g3086
sg62
(lp3093
S'REMOTE_PORT'
p3094
asbag55
(g76
g57
NtRp3095
(dp3096
g60
(dp3097
g87
g88
ssg69
g3086
sg62
(lp3098
S':'
asbag55
(g76
g57
NtRp3099
(dp3100
g60
(dp3101
sg69
g3086
sg62
(lp3102
g55
(g56
g57
NtRp3103
(dp3104
g60
(dp3105
g68
I3
ssg69
g3099
sg62
(lp3106
g1688
asbasbasbag55
(g71
g57
NtRp3107
(dp3108
g60
(dp3109
sg69
g2809
sg62
(lp3110
g55
(g76
g57
NtRp3111
(dp3112
g60
(dp3113
g80
g81
ssg69
g3107
sg62
(lp3114
S'REQUEST_METHOD'
p3115
asbag55
(g76
g57
NtRp3116
(dp3117
g60
(dp3118
g87
g88
ssg69
g3107
sg62
(lp3119
S':'
asbag55
(g76
g57
NtRp3120
(dp3121
g60
(dp3122
sg69
g3107
sg62
(lp3123
g55
(g56
g57
NtRp3124
(dp3125
g60
(dp3126
g68
I3
ssg69
g3120
sg62
(lp3127
g1710
asbasbasbag55
(g71
g57
NtRp3128
(dp3129
g60
(dp3130
sg69
g2809
sg62
(lp3131
g55
(g76
g57
NtRp3132
(dp3133
g60
(dp3134
g80
g81
ssg69
g3128
sg62
(lp3135
S'SCRIPT_NAME'
p3136
asbag55
(g76
g57
NtRp3137
(dp3138
g60
(dp3139
g87
g88
ssg69
g3128
sg62
(lp3140
S':'
asbag55
(g76
g57
NtRp3141
(dp3142
g60
(dp3143
sg69
g3128
sg62
(lp3144
g55
(g56
g57
NtRp3145
(dp3146
g60
(dp3147
g68
I3
ssg69
g3141
sg62
(lp3148
S''
asbasbasbag55
(g71
g57
NtRp3149
(dp3150
g60
(dp3151
sg69
g2809
sg62
(lp3152
g55
(g76
g57
NtRp3153
(dp3154
g60
(dp3155
g80
g81
ssg69
g3149
sg62
(lp3156
S'SERVER_NAME'
p3157
asbag55
(g76
g57
NtRp3158
(dp3159
g60
(dp3160
g87
g88
ssg69
g3149
sg62
(lp3161
S':'
asbag55
(g76
g57
NtRp3162
(dp3163
g60
(dp3164
sg69
g3149
sg62
(lp3165
g55
(g56
g57
NtRp3166
(dp3167
g60
(dp3168
g68
I3
ssg69
g3162
sg62
(lp3169
g1753
asbasbasbag55
(g71
g57
NtRp3170
(dp3171
g60
(dp3172
sg69
g2809
sg62
(lp3173
g55
(g76
g57
NtRp3174
(dp3175
g60
(dp3176
g80
g81
ssg69
g3170
sg62
(lp3177
S'SERVER_PORT'
p3178
asbag55
(g76
g57
NtRp3179
(dp3180
g60
(dp3181
g87
g88
ssg69
g3170
sg62
(lp3182
S':'
asbag55
(g76
g57
NtRp3183
(dp3184
g60
(dp3185
sg69
g3170
sg62
(lp3186
g55
(g56
g57
NtRp3187
(dp3188
g60
(dp3189
g68
I3
ssg69
g3183
sg62
(lp3190
g1775
asbasbasbag55
(g71
g57
NtRp3191
(dp3192
g60
(dp3193
sg69
g2809
sg62
(lp3194
g55
(g76
g57
NtRp3195
(dp3196
g60
(dp3197
g80
g81
ssg69
g3191
sg62
(lp3198
S'SERVER_PROTOCOL'
p3199
asbag55
(g76
g57
NtRp3200
(dp3201
g60
(dp3202
g87
g88
ssg69
g3191
sg62
(lp3203
S':'
asbag55
(g76
g57
NtRp3204
(dp3205
g60
(dp3206
sg69
g3191
sg62
(lp3207
g55
(g56
g57
NtRp3208
(dp3209
g60
(dp3210
g68
I3
ssg69
g3204
sg62
(lp3211
g1797
asbasbasbag55
(g71
g57
NtRp3212
(dp3213
g60
(dp3214
sg69
g2809
sg62
(lp3215
g55
(g76
g57
NtRp3216
(dp3217
g60
(dp3218
g80
g81
ssg69
g3212
sg62
(lp3219
S'SERVER_SOFTWARE'
p3220
asbag55
(g76
g57
NtRp3221
(dp3222
g60
(dp3223
g87
g88
ssg69
g3212
sg62
(lp3224
S':'
asbag55
(g76
g57
NtRp3225
(dp3226
g60
(dp3227
sg69
g3212
sg62
(lp3228
g55
(g56
g57
NtRp3229
(dp3230
g60
(dp3231
g68
I3
ssg69
g3225
sg62
(lp3232
g1819
asbasbasbag55
(g71
g57
NtRp3233
(dp3234
g60
(dp3235
sg69
g2809
sg62
(lp3236
g55
(g76
g57
NtRp3237
(dp3238
g60
(dp3239
g80
g81
ssg69
g3233
sg62
(lp3240
S'wsgi.errors'
p3241
asbag55
(g76
g57
NtRp3242
(dp3243
g60
(dp3244
g87
g88
ssg69
g3233
sg62
(lp3245
S':'
asbag55
(g76
g57
NtRp3246
(dp3247
g60
(dp3248
sg69
g3233
sg62
(lp3249
g55
(g56
g57
NtRp3250
(dp3251
g60
(dp3252
g68
I3
ssg69
g3246
sg62
(lp3253
S"<open file '<stderr>', mode 'w' at 0x7f6e78474270>"
p3254
asbasbasbag55
(g71
g57
NtRp3255
(dp3256
g60
(dp3257
sg69
g2809
sg62
(lp3258
g55
(g76
g57
NtRp3259
(dp3260
g60
(dp3261
g80
g81
ssg69
g3255
sg62
(lp3262
S'wsgi.file_wrapper'
p3263
asbag55
(g76
g57
NtRp3264
(dp3265
g60
(dp3266
g87
g88
ssg69
g3255
sg62
(lp3267
S':'
asbag55
(g76
g57
NtRp3268
(dp3269
g60
(dp3270
sg69
g3255
sg62
(lp3271
g55
(g56
g57
NtRp3272
(dp3273
g60
(dp3274
g68
I3
ssg69
g3268
sg62
(lp3275
S'<class wsgiref.util.FileWrapper at 0x2425ef0>'
p3276
asbasbasbag55
(g71
g57
NtRp3277
(dp3278
g60
(dp3279
sg69
g2809
sg62
(lp3280
g55
(g76
g57
NtRp3281
(dp3282
g60
(dp3283
g80
g81
ssg69
g3277
sg62
(lp3284
S'wsgi.input'
p3285
asbag55
(g76
g57
NtRp3286
(dp3287
g60
(dp3288
g87
g88
ssg69
g3277
sg62
(lp3289
S':'
asbag55
(g76
g57
NtRp3290
(dp3291
g60
(dp3292
sg69
g3277
sg62
(lp3293
g55
(g56
g57
NtRp3294
(dp3295
g60
(dp3296
g68
I3
ssg69
g3290
sg62
(lp3297
S'<cStringIO.StringO object at 0x2a8bc70>'
p3298
asbasbasbag55
(g71
g57
NtRp3299
(dp3300
g60
(dp3301
sg69
g2809
sg62
(lp3302
g55
(g76
g57
NtRp3303
(dp3304
g60
(dp3305
g80
g81
ssg69
g3299
sg62
(lp3306
S'wsgi.multiprocess'
p3307
asbag55
(g76
g57
NtRp3308
(dp3309
g60
(dp3310
g87
g88
ssg69
g3299
sg62
(lp3311
S':'
asbag55
(g76
g57
NtRp3312
(dp3313
g60
(dp3314
sg69
g3299
sg62
(lp3315
g55
(g56
g57
NtRp3316
(dp3317
g60
(dp3318
g68
I3
ssg69
g3312
sg62
(lp3319
g98
asbasbasbag55
(g71
g57
NtRp3320
(dp3321
g60
(dp3322
sg69
g2809
sg62
(lp3323
g55
(g76
g57
NtRp3324
(dp3325
g60
(dp3326
g80
g81
ssg69
g3320
sg62
(lp3327
S'wsgi.multithread'
p3328
asbag55
(g76
g57
NtRp3329
(dp3330
g60
(dp3331
g87
g88
ssg69
g3320
sg62
(lp3332
S':'
asbag55
(g76
g57
NtRp3333
(dp3334
g60
(dp3335
sg69
g3320
sg62
(lp3336
g55
(g56
g57
NtRp3337
(dp3338
g60
(dp3339
g68
I3
ssg69
g3333
sg62
(lp3340
g2059
asbasbasbag55
(g71
g57
NtRp3341
(dp3342
g60
(dp3343
sg69
g2809
sg62
(lp3344
g55
(g76
g57
NtRp3345
(dp3346
g60
(dp3347
g80
g81
ssg69
g3341
sg62
(lp3348
S'wsgi.run_once'
p3349
asbag55
(g76
g57
NtRp3350
(dp3351
g60
(dp3352
g87
g88
ssg69
g3341
sg62
(lp3353
S':'
asbag55
(g76
g57
NtRp3354
(dp3355
g60
(dp3356
sg69
g3341
sg62
(lp3357
g55
(g56
g57
NtRp3358
(dp3359
g60
(dp3360
g68
I3
ssg69
g3354
sg62
(lp3361
g98
asbasbasbag55
(g71
g57
NtRp3362
(dp3363
g60
(dp3364
sg69
g2809
sg62
(lp3365
g55
(g76
g57
NtRp3366
(dp3367
g60
(dp3368
g80
g81
ssg69
g3362
sg62
(lp3369
S'wsgi.url_scheme'
p3370
asbag55
(g76
g57
NtRp3371
(dp3372
g60
(dp3373
g87
g88
ssg69
g3362
sg62
(lp3374
S':'
asbag55
(g76
g57
NtRp3375
(dp3376
g60
(dp3377
sg69
g3362
sg62
(lp3378
g55
(g56
g57
NtRp3379
(dp3380
g60
(dp3381
g68
I3
ssg69
g3375
sg62
(lp3382
g2102
asbasbasbag55
(g71
g57
NtRp3383
(dp3384
g60
(dp3385
sg69
g2809
sg62
(lp3386
g55
(g76
g57
NtRp3387
(dp3388
g60
(dp3389
g80
g81
ssg69
g3383
sg62
(lp3390
S'wsgi.version'
p3391
asbag55
(g76
g57
NtRp3392
(dp3393
g60
(dp3394
g87
g88
ssg69
g3383
sg62
(lp3395
S':'
asbag55
(g76
g57
NtRp3396
(dp3397
g60
(dp3398
sg69
g3383
sg62
(lp3399
g55
(g56
g57
NtRp3400
(dp3401
g60
(dp3402
g68
I3
ssg69
g3396
sg62
(lp3403
S'1'
asbasbasbasbasbasbasbasbasbasbasbasbasbsS'frames'
p3404
(lp3405
(dp3406
S'file'
p3407
S'/home/kaique/Projects/web2py/gluon/restricted.py'
p3408
sS'dump'
p3409
(dp3410
S'environment'
p3411
S"{'A': <class 'gluon.html.A'>, 'Auth': <class 'gluon.tools.Auth'>, 'B': <class 'gluon.html.B'>, 'BEAUTIFY': <class 'gluon.html.BEAUTIFY'>, 'BODY': <class 'gluon.html.BODY'>, 'BR': <class 'gluon.html.BR'>, 'BUTTON': <class 'gluon.html.BUTTON'>, 'CAT': <class 'gluon.html.CAT'>, 'CENTER': <class 'gluon.html.CENTER'>, 'CLEANUP': <class 'gluon.validators.CLEANUP'>, ...}"
p3412
sS'ccode'
p3413
S'<code object <module> at 0x333fc30, file "/home/...psis/views/information/publication.html", line 1>'
p3414
ssS'lnum'
p3415
I194
sS'lines'
p3416
(dp3417
I192
S'        else:'
p3418
sI193
S'            ccode = compile2(code,layer)'
p3419
sI194
S'        exec ccode in environment'
p3420
sI195
S'    except HTTP:'
p3421
sI196
S'        raise'
p3422
sI197
S'    except Exception, error:'
p3423
sI198
S'        # XXX Show exception in Wing IDE if running in debugger'
p3424
sI189
S'    try:'
p3425
sI190
S'        if type(code) == types.CodeType:'
p3426
sI191
S'            ccode = code'
p3427
ssS'call'
p3428
S'(code=\'response.write(\\\'<!DOCTYPE html>\\\\n<html lang="\\\', ...nse.write(\\\'\\\\n  </body>\\\\n</html>\\\\n\\\', escape=False)\', environment={\'A\': <class \'gluon.html.A\'>, \'Auth\': <class \'gluon.tools.Auth\'>, \'B\': <class \'gluon.html.B\'>, \'BEAUTIFY\': <class \'gluon.html.BEAUTIFY\'>, \'BODY\': <class \'gluon.html.BODY\'>, \'BR\': <class \'gluon.html.BR\'>, \'BUTTON\': <class \'gluon.html.BUTTON\'>, \'CAT\': <class \'gluon.html.CAT\'>, \'CENTER\': <class \'gluon.html.CENTER\'>, \'CLEANUP\': <class \'gluon.validators.CLEANUP\'>, ...}, layer=\'/home/kaique/Projects/web2py/applications/synopsis/views/information/publication.html\')'
p3429
sS'func'
p3430
S'restricted'
p3431
sa(dp3432
g3407
S'/home/kaique/Projects/web2py/applications/synopsis/views/information/publication.html'
p3433
sg3409
(dp3434
sg3415
I108
sg3416
(dp3435
I99
S"        response.write('</td>\\n\\t\\t\\t\\t\\t\\t\\t', escape=False)"
p3436
sI100
S'        pass'
p3437
sI101
S"    response.write('\\t\\t\\t\\t\\t\\t\\t\\n\\t\\t\\t\\t\\t\\t</tr>\\n\\t\\t\\t\\t\\t</thead>\\n\\t\\t\\t\\t\\t<tbody>\\n\\t\\t\\t\\t\\t\\t', escape=False)"
p3438
sI102
S'    lines = {}'
p3439
sI103
S"    response.write('\\n\\t\\t\\t\\t\\t\\t', escape=False)"
p3440
sI104
S'    for column in detail.column.select():'
p3441
sI105
S"        response.write('\\n\\t\\t\\t\\t\\t\\t\\t', escape=False)"
p3442
sI106
S'        for row in column.row.select():'
p3443
sI107
S"            response.write('\\n\\t\\t\\t\\t\\t\\t\\t\\t', escape=False)"
p3444
sI108
S'            if lines[row.column_id]:'
p3445
sI109
S"                response.write('\\n\\t\\t\\t\\t\\t\\t\\t\\t\\t', escape=False)"
p3446
sI110
S'                lines[row.column_id] = TR(row.content)'
p3447
sI111
S"                response.write('\\n\\t\\t\\t\\t\\t\\t\\t\\t', escape=False)"
p3448
sI112
S'            else:'
p3449
sI113
S"                response.write('\\n\\t\\t\\t\\t\\t\\t\\t\\t\\t', escape=False)"
p3450
sI114
S'                lines[row.column_id].append(row.content)'
p3451
sI115
S"                response.write('\\n\\t\\t\\t\\t\\t\\t\\t\\t', escape=False)"
p3452
sI116
S'                pass'
p3453
sI117
S"            response.write('\\n\\t\\t\\t\\t\\t\\t\\t', escape=False)"
p3454
sI118
S'            pass'
p3455
ssg3428
S'()'
p3456
sg3430
S'<module>'
p3457
sasS'pyver'
p3458
S'Python 2.7.2+: /usr/bin/python'
p3459
sS'session'
p3460
g55
(g56
g57
NtRp3461
(dp3462
g60
(dp3463
sg62
(lp3464
g55
(g64
g57
NtRp3465
(dp3466
g60
(dp3467
g68
I5
ssg69
Nsg62
(lp3468
g55
(g71
g57
NtRp3469
(dp3470
g60
(dp3471
sg69
g3465
sg62
(lp3472
g55
(g76
g57
NtRp3473
(dp3474
g60
(dp3475
g80
g81
ssg69
g3469
sg62
(lp3476
S'auth'
p3477
asbag55
(g76
g57
NtRp3478
(dp3479
g60
(dp3480
g87
g88
ssg69
g3469
sg62
(lp3481
S':'
asbag55
(g76
g57
NtRp3482
(dp3483
g60
(dp3484
sg69
g3469
sg62
(lp3485
g55
(g56
g57
NtRp3486
(dp3487
g60
(dp3488
g68
I5
ssg69
g3482
sg62
(lp3489
g55
(g64
g57
NtRp3490
(dp3491
g60
(dp3492
g68
I4
ssg69
Nsg62
(lp3493
g55
(g71
g57
NtRp3494
(dp3495
g60
(dp3496
sg69
g3490
sg62
(lp3497
g55
(g76
g57
NtRp3498
(dp3499
g60
(dp3500
g80
g81
ssg69
g3494
sg62
(lp3501
S'expiration'
p3502
asbag55
(g76
g57
NtRp3503
(dp3504
g60
(dp3505
g87
g88
ssg69
g3494
sg62
(lp3506
S':'
asbag55
(g76
g57
NtRp3507
(dp3508
g60
(dp3509
sg69
g3494
sg62
(lp3510
g55
(g56
g57
NtRp3511
(dp3512
g60
(dp3513
g68
I4
ssg69
g3507
sg62
(lp3514
S'2592000'
p3515
asbasbasbag55
(g71
g57
NtRp3516
(dp3517
g60
(dp3518
sg69
g3490
sg62
(lp3519
g55
(g76
g57
NtRp3520
(dp3521
g60
(dp3522
g80
g81
ssg69
g3516
sg62
(lp3523
S'hmac_key'
p3524
asbag55
(g76
g57
NtRp3525
(dp3526
g60
(dp3527
g87
g88
ssg69
g3516
sg62
(lp3528
S':'
asbag55
(g76
g57
NtRp3529
(dp3530
g60
(dp3531
sg69
g3516
sg62
(lp3532
g55
(g56
g57
NtRp3533
(dp3534
g60
(dp3535
g68
I4
ssg69
g3529
sg62
(lp3536
S'63ff9364-0b36-492d-81fa-9c003e42e522'
p3537
asbasbasbag55
(g71
g57
NtRp3538
(dp3539
g60
(dp3540
sg69
g3490
sg62
(lp3541
g55
(g76
g57
NtRp3542
(dp3543
g60
(dp3544
g80
g81
ssg69
g3538
sg62
(lp3545
S'last_visit'
p3546
asbag55
(g76
g57
NtRp3547
(dp3548
g60
(dp3549
g87
g88
ssg69
g3538
sg62
(lp3550
S':'
asbag55
(g76
g57
NtRp3551
(dp3552
g60
(dp3553
sg69
g3538
sg62
(lp3554
g55
(g56
g57
NtRp3555
(dp3556
g60
(dp3557
g68
I4
ssg69
g3551
sg62
(lp3558
S'datetime.datetime(2012, 1, 13, 22, 9, 29, 822346)'
p3559
asbasbasbag55
(g71
g57
NtRp3560
(dp3561
g60
(dp3562
sg69
g3490
sg62
(lp3563
g55
(g76
g57
NtRp3564
(dp3565
g60
(dp3566
g80
g81
ssg69
g3560
sg62
(lp3567
S'remember'
p3568
asbag55
(g76
g57
NtRp3569
(dp3570
g60
(dp3571
g87
g88
ssg69
g3560
sg62
(lp3572
S':'
asbag55
(g76
g57
NtRp3573
(dp3574
g60
(dp3575
sg69
g3560
sg62
(lp3576
g55
(g56
g57
NtRp3577
(dp3578
g60
(dp3579
g68
I4
ssg69
g3573
sg62
(lp3580
g98
asbasbasbag55
(g71
g57
NtRp3581
(dp3582
g60
(dp3583
sg69
g3490
sg62
(lp3584
g55
(g76
g57
NtRp3585
(dp3586
g60
(dp3587
g80
g81
ssg69
g3581
sg62
(lp3588
S'user'
p3589
asbag55
(g76
g57
NtRp3590
(dp3591
g60
(dp3592
g87
g88
ssg69
g3581
sg62
(lp3593
S':'
asbag55
(g76
g57
NtRp3594
(dp3595
g60
(dp3596
sg69
g3581
sg62
(lp3597
g55
(g56
g57
NtRp3598
(dp3599
g60
(dp3600
g68
I4
ssg69
g3594
sg62
(lp3601
g55
(g64
g57
NtRp3602
(dp3603
g60
(dp3604
g68
I3
ssg69
Nsg62
(lp3605
g55
(g71
g57
NtRp3606
(dp3607
g60
(dp3608
sg69
g3602
sg62
(lp3609
g55
(g76
g57
NtRp3610
(dp3611
g60
(dp3612
g80
g81
ssg69
g3606
sg62
(lp3613
S'email'
p3614
asbag55
(g76
g57
NtRp3615
(dp3616
g60
(dp3617
g87
g88
ssg69
g3606
sg62
(lp3618
S':'
asbag55
(g76
g57
NtRp3619
(dp3620
g60
(dp3621
sg69
g3606
sg62
(lp3622
g55
(g56
g57
NtRp3623
(dp3624
g60
(dp3625
g68
I3
ssg69
g3619
sg62
(lp3626
S'kaique.developer@gmail.com'
p3627
asbasbasbag55
(g71
g57
NtRp3628
(dp3629
g60
(dp3630
sg69
g3602
sg62
(lp3631
g55
(g76
g57
NtRp3632
(dp3633
g60
(dp3634
g80
g81
ssg69
g3628
sg62
(lp3635
S'first_name'
p3636
asbag55
(g76
g57
NtRp3637
(dp3638
g60
(dp3639
g87
g88
ssg69
g3628
sg62
(lp3640
S':'
asbag55
(g76
g57
NtRp3641
(dp3642
g60
(dp3643
sg69
g3628
sg62
(lp3644
g55
(g56
g57
NtRp3645
(dp3646
g60
(dp3647
g68
I3
ssg69
g3641
sg62
(lp3648
S'kaique'
p3649
asbasbasbag55
(g71
g57
NtRp3650
(dp3651
g60
(dp3652
sg69
g3602
sg62
(lp3653
g55
(g76
g57
NtRp3654
(dp3655
g60
(dp3656
g80
g81
ssg69
g3650
sg62
(lp3657
S'id'
p3658
asbag55
(g76
g57
NtRp3659
(dp3660
g60
(dp3661
g87
g88
ssg69
g3650
sg62
(lp3662
S':'
asbag55
(g76
g57
NtRp3663
(dp3664
g60
(dp3665
sg69
g3650
sg62
(lp3666
g55
(g56
g57
NtRp3667
(dp3668
g60
(dp3669
g68
I3
ssg69
g3663
sg62
(lp3670
S'1'
asbasbasbag55
(g71
g57
NtRp3671
(dp3672
g60
(dp3673
sg69
g3602
sg62
(lp3674
g55
(g76
g57
NtRp3675
(dp3676
g60
(dp3677
g80
g81
ssg69
g3671
sg62
(lp3678
S'last_name'
p3679
asbag55
(g76
g57
NtRp3680
(dp3681
g60
(dp3682
g87
g88
ssg69
g3671
sg62
(lp3683
S':'
asbag55
(g76
g57
NtRp3684
(dp3685
g60
(dp3686
sg69
g3671
sg62
(lp3687
g55
(g56
g57
NtRp3688
(dp3689
g60
(dp3690
g68
I3
ssg69
g3684
sg62
(lp3691
S'silva'
p3692
asbasbasbag55
(g71
g57
NtRp3693
(dp3694
g60
(dp3695
sg69
g3602
sg62
(lp3696
g55
(g76
g57
NtRp3697
(dp3698
g60
(dp3699
g80
g81
ssg69
g3693
sg62
(lp3700
S'password'
p3701
asbag55
(g76
g57
NtRp3702
(dp3703
g60
(dp3704
g87
g88
ssg69
g3693
sg62
(lp3705
S':'
asbag55
(g76
g57
NtRp3706
(dp3707
g60
(dp3708
sg69
g3693
sg62
(lp3709
g55
(g56
g57
NtRp3710
(dp3711
g60
(dp3712
g68
I3
ssg69
g3706
sg62
(lp3713
S'72c6a018d62d3fb47d95389e4a062cd2'
p3714
asbasbasbag55
(g71
g57
NtRp3715
(dp3716
g60
(dp3717
sg69
g3602
sg62
(lp3718
g55
(g76
g57
NtRp3719
(dp3720
g60
(dp3721
g80
g81
ssg69
g3715
sg62
(lp3722
S'registration_key'
p3723
asbag55
(g76
g57
NtRp3724
(dp3725
g60
(dp3726
g87
g88
ssg69
g3715
sg62
(lp3727
S':'
asbag55
(g76
g57
NtRp3728
(dp3729
g60
(dp3730
sg69
g3715
sg62
(lp3731
g55
(g56
g57
NtRp3732
(dp3733
g60
(dp3734
g68
I3
ssg69
g3728
sg62
(lp3735
S''
asbasbasbag55
(g71
g57
NtRp3736
(dp3737
g60
(dp3738
sg69
g3602
sg62
(lp3739
g55
(g76
g57
NtRp3740
(dp3741
g60
(dp3742
g80
g81
ssg69
g3736
sg62
(lp3743
S'reset_password_key'
p3744
asbag55
(g76
g57
NtRp3745
(dp3746
g60
(dp3747
g87
g88
ssg69
g3736
sg62
(lp3748
S':'
asbag55
(g76
g57
NtRp3749
(dp3750
g60
(dp3751
sg69
g3736
sg62
(lp3752
g55
(g56
g57
NtRp3753
(dp3754
g60
(dp3755
g68
I3
ssg69
g3749
sg62
(lp3756
S''
asbasbasbasbasbasbasbasbasbasbasbag55
(g71
g57
NtRp3757
(dp3758
g60
(dp3759
sg69
g3465
sg62
(lp3760
g55
(g76
g57
NtRp3761
(dp3762
g60
(dp3763
g80
g81
ssg69
g3757
sg62
(lp3764
S'back'
p3765
asbag55
(g76
g57
NtRp3766
(dp3767
g60
(dp3768
g87
g88
ssg69
g3757
sg62
(lp3769
S':'
asbag55
(g76
g57
NtRp3770
(dp3771
g60
(dp3772
sg69
g3757
sg62
(lp3773
g55
(g56
g57
NtRp3774
(dp3775
g60
(dp3776
g68
I5
ssg69
g3770
sg62
(lp3777
S'1'
asbasbasbag55
(g71
g57
NtRp3778
(dp3779
g60
(dp3780
sg69
g3465
sg62
(lp3781
g55
(g76
g57
NtRp3782
(dp3783
g60
(dp3784
g80
g81
ssg69
g3778
sg62
(lp3785
S'index'
p3786
asbag55
(g76
g57
NtRp3787
(dp3788
g60
(dp3789
g87
g88
ssg69
g3778
sg62
(lp3790
S':'
asbag55
(g76
g57
NtRp3791
(dp3792
g60
(dp3793
sg69
g3778
sg62
(lp3794
g55
(g56
g57
NtRp3795
(dp3796
g60
(dp3797
g68
I5
ssg69
g3791
sg62
(lp3798
S'1'
asbasbasbag55
(g71
g57
NtRp3799
(dp3800
g60
(dp3801
sg69
g3465
sg62
(lp3802
g55
(g76
g57
NtRp3803
(dp3804
g60
(dp3805
g80
g81
ssg69
g3799
sg62
(lp3806
S'last_query'
p3807
asbag55
(g76
g57
NtRp3808
(dp3809
g60
(dp3810
g87
g88
ssg69
g3799
sg62
(lp3811
S':'
asbag55
(g76
g57
NtRp3812
(dp3813
g60
(dp3814
sg69
g3799
sg62
(lp3815
g55
(g56
g57
NtRp3816
(dp3817
g60
(dp3818
g68
I5
ssg69
g3812
sg62
(lp3819
S'db.row.id>0'
p3820
asbasbasbasbasbsS'etype'
p3821
S"<type 'exceptions.KeyError'>"
p3822
sS'date'
p3823
S'Sat Jan 14 00:33:18 2012'
p3824
sS'response'
p3825
g55
(g56
g57
NtRp3826
(dp3827
g60
(dp3828
sg62
(lp3829
g55
(g64
g57
NtRp3830
(dp3831
g60
(dp3832
g68
I5
ssg69
Nsg62
(lp3833
g55
(g71
g57
NtRp3834
(dp3835
g60
(dp3836
sg69
g3830
sg62
(lp3837
g55
(g76
g57
NtRp3838
(dp3839
g60
(dp3840
g80
g81
ssg69
g3834
sg62
(lp3841
g165
asbag55
(g76
g57
NtRp3842
(dp3843
g60
(dp3844
g87
g88
ssg69
g3834
sg62
(lp3845
S':'
asbag55
(g76
g57
NtRp3846
(dp3847
g60
(dp3848
sg69
g3834
sg62
(lp3849
g55
(g56
g57
NtRp3850
(dp3851
g60
(dp3852
g68
I5
ssg69
g3846
sg62
(lp3853
S'<cStringIO.StringO object at 0x2a42228>'
p3854
asbasbasbag55
(g71
g57
NtRp3855
(dp3856
g60
(dp3857
sg69
g3830
sg62
(lp3858
g55
(g76
g57
NtRp3859
(dp3860
g60
(dp3861
g80
g81
ssg69
g3855
sg62
(lp3862
g231
asbag55
(g76
g57
NtRp3863
(dp3864
g60
(dp3865
g87
g88
ssg69
g3855
sg62
(lp3866
S':'
asbag55
(g76
g57
NtRp3867
(dp3868
g60
(dp3869
sg69
g3855
sg62
(lp3870
g55
(g56
g57
NtRp3871
(dp3872
g60
(dp3873
g68
I5
ssg69
g3867
sg62
(lp3874
g55
(g64
g57
NtRp3875
(dp3876
g60
(dp3877
g68
I4
ssg69
Nsg62
(lp3878
g55
(g71
g57
NtRp3879
(dp3880
g60
(dp3881
sg69
g3875
sg62
(lp3882
g55
(g76
g57
NtRp3883
(dp3884
g60
(dp3885
g80
g81
ssg69
g3879
sg62
(lp3886
S'session_id_synopsis'
p3887
asbag55
(g76
g57
NtRp3888
(dp3889
g60
(dp3890
g87
g88
ssg69
g3879
sg62
(lp3891
S':'
asbag55
(g76
g57
NtRp3892
(dp3893
g60
(dp3894
sg69
g3879
sg62
(lp3895
g55
(g56
g57
NtRp3896
(dp3897
g60
(dp3898
g68
I4
ssg69
g3892
sg62
(lp3899
g55
(g64
g57
NtRp3900
(dp3901
g60
(dp3902
g68
I3
ssg69
Nsg62
(lp3903
g55
(g71
g57
NtRp3904
(dp3905
g60
(dp3906
sg69
g3900
sg62
(lp3907
g55
(g76
g57
NtRp3908
(dp3909
g60
(dp3910
g80
g81
ssg69
g3904
sg62
(lp3911
g281
asbag55
(g76
g57
NtRp3912
(dp3913
g60
(dp3914
g87
g88
ssg69
g3904
sg62
(lp3915
S':'
asbag55
(g76
g57
NtRp3916
(dp3917
g60
(dp3918
sg69
g3904
sg62
(lp3919
g55
(g56
g57
NtRp3920
(dp3921
g60
(dp3922
g68
I3
ssg69
g3916
sg62
(lp3923
S''
asbasbasbag55
(g71
g57
NtRp3924
(dp3925
g60
(dp3926
sg69
g3900
sg62
(lp3927
g55
(g76
g57
NtRp3928
(dp3929
g60
(dp3930
g80
g81
ssg69
g3924
sg62
(lp3931
g302
asbag55
(g76
g57
NtRp3932
(dp3933
g60
(dp3934
g87
g88
ssg69
g3924
sg62
(lp3935
S':'
asbag55
(g76
g57
NtRp3936
(dp3937
g60
(dp3938
sg69
g3924
sg62
(lp3939
g55
(g56
g57
NtRp3940
(dp3941
g60
(dp3942
g68
I3
ssg69
g3936
sg62
(lp3943
S''
asbasbasbag55
(g71
g57
NtRp3944
(dp3945
g60
(dp3946
sg69
g3900
sg62
(lp3947
g55
(g76
g57
NtRp3948
(dp3949
g60
(dp3950
g80
g81
ssg69
g3944
sg62
(lp3951
g323
asbag55
(g76
g57
NtRp3952
(dp3953
g60
(dp3954
g87
g88
ssg69
g3944
sg62
(lp3955
S':'
asbag55
(g76
g57
NtRp3956
(dp3957
g60
(dp3958
sg69
g3944
sg62
(lp3959
g55
(g56
g57
NtRp3960
(dp3961
g60
(dp3962
g68
I3
ssg69
g3956
sg62
(lp3963
S''
asbasbasbag55
(g71
g57
NtRp3964
(dp3965
g60
(dp3966
sg69
g3900
sg62
(lp3967
g55
(g76
g57
NtRp3968
(dp3969
g60
(dp3970
g80
g81
ssg69
g3964
sg62
(lp3971
g344
asbag55
(g76
g57
NtRp3972
(dp3973
g60
(dp3974
g87
g88
ssg69
g3964
sg62
(lp3975
S':'
asbag55
(g76
g57
NtRp3976
(dp3977
g60
(dp3978
sg69
g3964
sg62
(lp3979
g55
(g56
g57
NtRp3980
(dp3981
g60
(dp3982
g68
I3
ssg69
g3976
sg62
(lp3983
S''
asbasbasbag55
(g71
g57
NtRp3984
(dp3985
g60
(dp3986
sg69
g3900
sg62
(lp3987
g55
(g76
g57
NtRp3988
(dp3989
g60
(dp3990
g80
g81
ssg69
g3984
sg62
(lp3991
g365
asbag55
(g76
g57
NtRp3992
(dp3993
g60
(dp3994
g87
g88
ssg69
g3984
sg62
(lp3995
S':'
asbag55
(g76
g57
NtRp3996
(dp3997
g60
(dp3998
sg69
g3984
sg62
(lp3999
g55
(g56
g57
NtRp4000
(dp4001
g60
(dp4002
g68
I3
ssg69
g3996
sg62
(lp4003
S''
asbasbasbag55
(g71
g57
NtRp4004
(dp4005
g60
(dp4006
sg69
g3900
sg62
(lp4007
g55
(g76
g57
NtRp4008
(dp4009
g60
(dp4010
g80
g81
ssg69
g4004
sg62
(lp4011
g386
asbag55
(g76
g57
NtRp4012
(dp4013
g60
(dp4014
g87
g88
ssg69
g4004
sg62
(lp4015
S':'
asbag55
(g76
g57
NtRp4016
(dp4017
g60
(dp4018
sg69
g4004
sg62
(lp4019
g55
(g56
g57
NtRp4020
(dp4021
g60
(dp4022
g68
I3
ssg69
g4016
sg62
(lp4023
S'/'
asbasbasbag55
(g71
g57
NtRp4024
(dp4025
g60
(dp4026
sg69
g3900
sg62
(lp4027
g55
(g76
g57
NtRp4028
(dp4029
g60
(dp4030
g80
g81
ssg69
g4024
sg62
(lp4031
g407
asbag55
(g76
g57
NtRp4032
(dp4033
g60
(dp4034
g87
g88
ssg69
g4024
sg62
(lp4035
S':'
asbag55
(g76
g57
NtRp4036
(dp4037
g60
(dp4038
sg69
g4024
sg62
(lp4039
g55
(g56
g57
NtRp4040
(dp4041
g60
(dp4042
g68
I3
ssg69
g4036
sg62
(lp4043
S''
asbasbasbag55
(g71
g57
NtRp4044
(dp4045
g60
(dp4046
sg69
g3900
sg62
(lp4047
g55
(g76
g57
NtRp4048
(dp4049
g60
(dp4050
g80
g81
ssg69
g4044
sg62
(lp4051
g428
asbag55
(g76
g57
NtRp4052
(dp4053
g60
(dp4054
g87
g88
ssg69
g4044
sg62
(lp4055
S':'
asbag55
(g76
g57
NtRp4056
(dp4057
g60
(dp4058
sg69
g4044
sg62
(lp4059
g55
(g56
g57
NtRp4060
(dp4061
g60
(dp4062
g68
I3
ssg69
g4056
sg62
(lp4063
S''
asbasbasbasbasbasbasbasbasbasbasbag55
(g71
g57
NtRp4064
(dp4065
g60
(dp4066
sg69
g3830
sg62
(lp4067
g55
(g76
g57
NtRp4068
(dp4069
g60
(dp4070
g80
g81
ssg69
g4064
sg62
(lp4071
S'files'
p4072
asbag55
(g76
g57
NtRp4073
(dp4074
g60
(dp4075
g87
g88
ssg69
g4064
sg62
(lp4076
S':'
asbag55
(g76
g57
NtRp4077
(dp4078
g60
(dp4079
sg69
g4064
sg62
(lp4080
g55
(g56
g57
NtRp4081
(dp4082
g60
(dp4083
g68
I5
ssg69
g4077
sg62
(lp4084
g55
(g64
g57
NtRp4085
(dp4086
g60
(dp4087
g68
I4
ssg69
Nsg62
(lp4088
g55
(g71
g57
NtRp4089
(dp4090
g60
(dp4091
sg69
g4085
sg62
(lp4092
g55
(g76
g57
NtRp4093
(dp4094
g60
(dp4095
sg69
g4089
sg62
(lp4096
g55
(g56
g57
NtRp4097
(dp4098
g60
(dp4099
g68
I4
ssg69
g4093
sg62
(lp4100
S'/synopsis/static/js/jquery.js'
p4101
asbasbasbag55
(g71
g57
NtRp4102
(dp4103
g60
(dp4104
sg69
g4085
sg62
(lp4105
g55
(g76
g57
NtRp4106
(dp4107
g60
(dp4108
sg69
g4102
sg62
(lp4109
g55
(g56
g57
NtRp4110
(dp4111
g60
(dp4112
g68
I4
ssg69
g4106
sg62
(lp4113
S'/synopsis/static/css/anytime.css'
p4114
asbasbasbag55
(g71
g57
NtRp4115
(dp4116
g60
(dp4117
sg69
g4085
sg62
(lp4118
g55
(g76
g57
NtRp4119
(dp4120
g60
(dp4121
sg69
g4115
sg62
(lp4122
g55
(g56
g57
NtRp4123
(dp4124
g60
(dp4125
g68
I4
ssg69
g4119
sg62
(lp4126
S'/synopsis/static/js/anytime.js'
p4127
asbasbasbag55
(g71
g57
NtRp4128
(dp4129
g60
(dp4130
sg69
g4085
sg62
(lp4131
g55
(g76
g57
NtRp4132
(dp4133
g60
(dp4134
sg69
g4128
sg62
(lp4135
g55
(g56
g57
NtRp4136
(dp4137
g60
(dp4138
g68
I4
ssg69
g4132
sg62
(lp4139
S'/synopsis/static/css/base.css'
p4140
asbasbasbag55
(g71
g57
NtRp4141
(dp4142
g60
(dp4143
sg69
g4085
sg62
(lp4144
g55
(g76
g57
NtRp4145
(dp4146
g60
(dp4147
sg69
g4141
sg62
(lp4148
g55
(g56
g57
NtRp4149
(dp4150
g60
(dp4151
g68
I4
ssg69
g4145
sg62
(lp4152
S'/synopsis/static/css/superfish.css'
p4153
asbasbasbag55
(g71
g57
NtRp4154
(dp4155
g60
(dp4156
sg69
g4085
sg62
(lp4157
g55
(g76
g57
NtRp4158
(dp4159
g60
(dp4160
sg69
g4154
sg62
(lp4161
g55
(g56
g57
NtRp4162
(dp4163
g60
(dp4164
g68
I4
ssg69
g4158
sg62
(lp4165
S'/synopsis/static/js/superfish.js'
p4166
asbasbasbasbasbasbasbag55
(g71
g57
NtRp4167
(dp4168
g60
(dp4169
sg69
g3830
sg62
(lp4170
g55
(g76
g57
NtRp4171
(dp4172
g60
(dp4173
g80
g81
ssg69
g4167
sg62
(lp4174
S'flash'
p4175
asbag55
(g76
g57
NtRp4176
(dp4177
g60
(dp4178
g87
g88
ssg69
g4167
sg62
(lp4179
S':'
asbag55
(g76
g57
NtRp4180
(dp4181
g60
(dp4182
sg69
g4167
sg62
(lp4183
g55
(g56
g57
NtRp4184
(dp4185
g60
(dp4186
g68
I5
ssg69
g4180
sg62
(lp4187
S''
asbasbasbag55
(g71
g57
NtRp4188
(dp4189
g60
(dp4190
sg69
g3830
sg62
(lp4191
g55
(g76
g57
NtRp4192
(dp4193
g60
(dp4194
g80
g81
ssg69
g4188
sg62
(lp4195
S'generic_patterns'
p4196
asbag55
(g76
g57
NtRp4197
(dp4198
g60
(dp4199
g87
g88
ssg69
g4188
sg62
(lp4200
S':'
asbag55
(g76
g57
NtRp4201
(dp4202
g60
(dp4203
sg69
g4188
sg62
(lp4204
g55
(g56
g57
NtRp4205
(dp4206
g60
(dp4207
g68
I5
ssg69
g4201
sg62
(lp4208
g55
(g64
g57
NtRp4209
(dp4210
g60
(dp4211
g68
I4
ssg69
Nsg62
(lp4212
g55
(g71
g57
NtRp4213
(dp4214
g60
(dp4215
sg69
g4209
sg62
(lp4216
g55
(g76
g57
NtRp4217
(dp4218
g60
(dp4219
sg69
g4213
sg62
(lp4220
g55
(g56
g57
NtRp4221
(dp4222
g60
(dp4223
g68
I4
ssg69
g4217
sg62
(lp4224
S'*'
asbasbasbasbasbasbasbag55
(g71
g57
NtRp4225
(dp4226
g60
(dp4227
sg69
g3830
sg62
(lp4228
g55
(g76
g57
NtRp4229
(dp4230
g60
(dp4231
g80
g81
ssg69
g4225
sg62
(lp4232
S'headers'
p4233
asbag55
(g76
g57
NtRp4234
(dp4235
g60
(dp4236
g87
g88
ssg69
g4225
sg62
(lp4237
S':'
asbag55
(g76
g57
NtRp4238
(dp4239
g60
(dp4240
sg69
g4225
sg62
(lp4241
g55
(g56
g57
NtRp4242
(dp4243
g60
(dp4244
g68
I5
ssg69
g4238
sg62
(lp4245
g55
(g64
g57
NtRp4246
(dp4247
g60
(dp4248
g68
I4
ssg69
Nsg62
(lp4249
g55
(g71
g57
NtRp4250
(dp4251
g60
(dp4252
sg69
g4246
sg62
(lp4253
g55
(g76
g57
NtRp4254
(dp4255
g60
(dp4256
g80
g81
ssg69
g4250
sg62
(lp4257
S'Cache-Control'
p4258
asbag55
(g76
g57
NtRp4259
(dp4260
g60
(dp4261
g87
g88
ssg69
g4250
sg62
(lp4262
S':'
asbag55
(g76
g57
NtRp4263
(dp4264
g60
(dp4265
sg69
g4250
sg62
(lp4266
g55
(g56
g57
NtRp4267
(dp4268
g60
(dp4269
g68
I4
ssg69
g4263
sg62
(lp4270
S'no-store, no-cache, must-revalidate, post-check=0, pre-check=0'
p4271
asbasbasbag55
(g71
g57
NtRp4272
(dp4273
g60
(dp4274
sg69
g4246
sg62
(lp4275
g55
(g76
g57
NtRp4276
(dp4277
g60
(dp4278
g80
g81
ssg69
g4272
sg62
(lp4279
S'Content-Type'
p4280
asbag55
(g76
g57
NtRp4281
(dp4282
g60
(dp4283
g87
g88
ssg69
g4272
sg62
(lp4284
S':'
asbag55
(g76
g57
NtRp4285
(dp4286
g60
(dp4287
sg69
g4272
sg62
(lp4288
g55
(g56
g57
NtRp4289
(dp4290
g60
(dp4291
g68
I4
ssg69
g4285
sg62
(lp4292
S'text/html; charset=utf-8'
p4293
asbasbasbag55
(g71
g57
NtRp4294
(dp4295
g60
(dp4296
sg69
g4246
sg62
(lp4297
g55
(g76
g57
NtRp4298
(dp4299
g60
(dp4300
g80
g81
ssg69
g4294
sg62
(lp4301
S'Expires'
p4302
asbag55
(g76
g57
NtRp4303
(dp4304
g60
(dp4305
g87
g88
ssg69
g4294
sg62
(lp4306
S':'
asbag55
(g76
g57
NtRp4307
(dp4308
g60
(dp4309
sg69
g4294
sg62
(lp4310
g55
(g56
g57
NtRp4311
(dp4312
g60
(dp4313
g68
I4
ssg69
g4307
sg62
(lp4314
S'Sat, 14 Jan 2012 02:33:18 GMT'
p4315
asbasbasbag55
(g71
g57
NtRp4316
(dp4317
g60
(dp4318
sg69
g4246
sg62
(lp4319
g55
(g76
g57
NtRp4320
(dp4321
g60
(dp4322
g80
g81
ssg69
g4316
sg62
(lp4323
S'Pragma'
p4324
asbag55
(g76
g57
NtRp4325
(dp4326
g60
(dp4327
g87
g88
ssg69
g4316
sg62
(lp4328
S':'
asbag55
(g76
g57
NtRp4329
(dp4330
g60
(dp4331
sg69
g4316
sg62
(lp4332
g55
(g56
g57
NtRp4333
(dp4334
g60
(dp4335
g68
I4
ssg69
g4329
sg62
(lp4336
S'no-cache'
p4337
asbasbasbag55
(g71
g57
NtRp4338
(dp4339
g60
(dp4340
sg69
g4246
sg62
(lp4341
g55
(g76
g57
NtRp4342
(dp4343
g60
(dp4344
g80
g81
ssg69
g4338
sg62
(lp4345
S'X-Powered-By'
p4346
asbag55
(g76
g57
NtRp4347
(dp4348
g60
(dp4349
g87
g88
ssg69
g4338
sg62
(lp4350
S':'
asbag55
(g76
g57
NtRp4351
(dp4352
g60
(dp4353
sg69
g4338
sg62
(lp4354
g55
(g56
g57
NtRp4355
(dp4356
g60
(dp4357
g68
I4
ssg69
g4351
sg62
(lp4358
S'web2py'
p4359
asbasbasbasbasbasbasbag55
(g71
g57
NtRp4360
(dp4361
g60
(dp4362
sg69
g3830
sg62
(lp4363
g55
(g76
g57
NtRp4364
(dp4365
g60
(dp4366
g80
g81
ssg69
g4360
sg62
(lp4367
S'menu'
p4368
asbag55
(g76
g57
NtRp4369
(dp4370
g60
(dp4371
g87
g88
ssg69
g4360
sg62
(lp4372
S':'
asbag55
(g76
g57
NtRp4373
(dp4374
g60
(dp4375
sg69
g4360
sg62
(lp4376
g55
(g56
g57
NtRp4377
(dp4378
g60
(dp4379
g68
I5
ssg69
g4373
sg62
(lp4380
g55
(g64
g57
NtRp4381
(dp4382
g60
(dp4383
g68
I4
ssg69
Nsg62
(lp4384
g55
(g71
g57
NtRp4385
(dp4386
g60
(dp4387
sg69
g4381
sg62
(lp4388
g55
(g76
g57
NtRp4389
(dp4390
g60
(dp4391
sg69
g4385
sg62
(lp4392
g55
(g56
g57
NtRp4393
(dp4394
g60
(dp4395
g68
I4
ssg69
g4389
sg62
(lp4396
g55
(g64
g57
NtRp4397
(dp4398
g60
(dp4399
g68
I3
ssg69
Nsg62
(lp4400
g55
(g71
g57
NtRp4401
(dp4402
g60
(dp4403
sg69
g4397
sg62
(lp4404
g55
(g76
g57
NtRp4405
(dp4406
g60
(dp4407
sg69
g4401
sg62
(lp4408
g55
(g56
g57
NtRp4409
(dp4410
g60
(dp4411
g68
I3
ssg69
g4405
sg62
(lp4412
cgluon.languages
lazyT_unpickle
p4413
(S't\x04\x00\x00\x00Home'
tRp4414
asbasbasbag55
(g71
g57
NtRp4415
(dp4416
g60
(dp4417
sg69
g4397
sg62
(lp4418
g55
(g76
g57
NtRp4419
(dp4420
g60
(dp4421
sg69
g4415
sg62
(lp4422
g55
(g56
g57
NtRp4423
(dp4424
g60
(dp4425
g68
I3
ssg69
g4419
sg62
(lp4426
g98
asbasbasbag55
(g71
g57
NtRp4427
(dp4428
g60
(dp4429
sg69
g4397
sg62
(lp4430
g55
(g76
g57
NtRp4431
(dp4432
g60
(dp4433
sg69
g4427
sg62
(lp4434
g55
(g56
g57
NtRp4435
(dp4436
g60
(dp4437
g68
I3
ssg69
g4431
sg62
(lp4438
S'/synopsis/default/index'
p4439
asbasbasbag55
(g71
g57
NtRp4440
(dp4441
g60
(dp4442
sg69
g4397
sg62
(lp4443
g55
(g76
g57
NtRp4444
(dp4445
g60
(dp4446
sg69
g4440
sg62
(lp4447
g55
(g56
g57
NtRp4448
(dp4449
g60
(dp4450
g68
I3
ssg69
g4444
sg62
(lp4451
g55
(g64
g57
NtRp4452
(dp4453
g60
(dp4454
g68
I2
ssg69
Nsg62
(lp4455
sbasbasbasbasbasbasbasbag55
(g71
g57
NtRp4456
(dp4457
g60
(dp4458
sg69
g4381
sg62
(lp4459
g55
(g76
g57
NtRp4460
(dp4461
g60
(dp4462
sg69
g4456
sg62
(lp4463
g55
(g56
g57
NtRp4464
(dp4465
g60
(dp4466
g68
I4
ssg69
g4460
sg62
(lp4467
g55
(g64
g57
NtRp4468
(dp4469
g60
(dp4470
g68
I3
ssg69
Nsg62
(lp4471
g55
(g71
g57
NtRp4472
(dp4473
g60
(dp4474
sg69
g4468
sg62
(lp4475
g55
(g76
g57
NtRp4476
(dp4477
g60
(dp4478
sg69
g4472
sg62
(lp4479
g55
(g56
g57
NtRp4480
(dp4481
g60
(dp4482
g68
I3
ssg69
g4476
sg62
(lp4483
g4413
(S't\x0b\x00\x00\x00Information'
tRp4484
asbasbasbag55
(g71
g57
NtRp4485
(dp4486
g60
(dp4487
sg69
g4468
sg62
(lp4488
g55
(g76
g57
NtRp4489
(dp4490
g60
(dp4491
sg69
g4485
sg62
(lp4492
g55
(g56
g57
NtRp4493
(dp4494
g60
(dp4495
g68
I3
ssg69
g4489
sg62
(lp4496
g98
asbasbasbag55
(g71
g57
NtRp4497
(dp4498
g60
(dp4499
sg69
g4468
sg62
(lp4500
g55
(g76
g57
NtRp4501
(dp4502
g60
(dp4503
sg69
g4497
sg62
(lp4504
g55
(g56
g57
NtRp4505
(dp4506
g60
(dp4507
g68
I3
ssg69
g4501
sg62
(lp4508
S'/synopsis/information/index'
p4509
asbasbasbag55
(g71
g57
NtRp4510
(dp4511
g60
(dp4512
sg69
g4468
sg62
(lp4513
g55
(g76
g57
NtRp4514
(dp4515
g60
(dp4516
sg69
g4510
sg62
(lp4517
g55
(g56
g57
NtRp4518
(dp4519
g60
(dp4520
g68
I3
ssg69
g4514
sg62
(lp4521
g55
(g64
g57
NtRp4522
(dp4523
g60
(dp4524
g68
I2
ssg69
Nsg62
(lp4525
sbasbasbasbasbasbasbasbag55
(g71
g57
NtRp4526
(dp4527
g60
(dp4528
sg69
g4381
sg62
(lp4529
g55
(g76
g57
NtRp4530
(dp4531
g60
(dp4532
sg69
g4526
sg62
(lp4533
g55
(g56
g57
NtRp4534
(dp4535
g60
(dp4536
g68
I4
ssg69
g4530
sg62
(lp4537
g55
(g64
g57
NtRp4538
(dp4539
g60
(dp4540
g68
I3
ssg69
Nsg62
(lp4541
g55
(g71
g57
NtRp4542
(dp4543
g60
(dp4544
sg69
g4538
sg62
(lp4545
g55
(g76
g57
NtRp4546
(dp4547
g60
(dp4548
sg69
g4542
sg62
(lp4549
g55
(g56
g57
NtRp4550
(dp4551
g60
(dp4552
g68
I3
ssg69
g4546
sg62
(lp4553
g4413
(S't\x05\x00\x00\x00About'
tRp4554
asbasbasbag55
(g71
g57
NtRp4555
(dp4556
g60
(dp4557
sg69
g4538
sg62
(lp4558
g55
(g76
g57
NtRp4559
(dp4560
g60
(dp4561
sg69
g4555
sg62
(lp4562
g55
(g56
g57
NtRp4563
(dp4564
g60
(dp4565
g68
I3
ssg69
g4559
sg62
(lp4566
g98
asbasbasbag55
(g71
g57
NtRp4567
(dp4568
g60
(dp4569
sg69
g4538
sg62
(lp4570
g55
(g76
g57
NtRp4571
(dp4572
g60
(dp4573
sg69
g4567
sg62
(lp4574
g55
(g56
g57
NtRp4575
(dp4576
g60
(dp4577
g68
I3
ssg69
g4571
sg62
(lp4578
S'/synopsis/about/index'
p4579
asbasbasbag55
(g71
g57
NtRp4580
(dp4581
g60
(dp4582
sg69
g4538
sg62
(lp4583
g55
(g76
g57
NtRp4584
(dp4585
g60
(dp4586
sg69
g4580
sg62
(lp4587
g55
(g56
g57
NtRp4588
(dp4589
g60
(dp4590
g68
I3
ssg69
g4584
sg62
(lp4591
g55
(g64
g57
NtRp4592
(dp4593
g60
(dp4594
g68
I2
ssg69
Nsg62
(lp4595
sbasbasbasbasbasbasbasbasbasbasbasbag55
(g71
g57
NtRp4596
(dp4597
g60
(dp4598
sg69
g3830
sg62
(lp4599
g55
(g76
g57
NtRp4600
(dp4601
g60
(dp4602
g80
g81
ssg69
g4596
sg62
(lp4603
S'meta'
p4604
asbag55
(g76
g57
NtRp4605
(dp4606
g60
(dp4607
g87
g88
ssg69
g4596
sg62
(lp4608
S':'
asbag55
(g76
g57
NtRp4609
(dp4610
g60
(dp4611
sg69
g4596
sg62
(lp4612
g55
(g56
g57
NtRp4613
(dp4614
g60
(dp4615
g68
I5
ssg69
g4609
sg62
(lp4616
g55
(g64
g57
NtRp4617
(dp4618
g60
(dp4619
g68
I4
ssg69
Nsg62
(lp4620
g55
(g71
g57
NtRp4621
(dp4622
g60
(dp4623
sg69
g4617
sg62
(lp4624
g55
(g76
g57
NtRp4625
(dp4626
g60
(dp4627
g80
g81
ssg69
g4621
sg62
(lp4628
S'author'
p4629
asbag55
(g76
g57
NtRp4630
(dp4631
g60
(dp4632
g87
g88
ssg69
g4621
sg62
(lp4633
S':'
asbag55
(g76
g57
NtRp4634
(dp4635
g60
(dp4636
sg69
g4621
sg62
(lp4637
g55
(g56
g57
NtRp4638
(dp4639
g60
(dp4640
g68
I4
ssg69
g4634
sg62
(lp4641
S'Your Name <you@example.com>'
p4642
asbasbasbag55
(g71
g57
NtRp4643
(dp4644
g60
(dp4645
sg69
g4617
sg62
(lp4646
g55
(g76
g57
NtRp4647
(dp4648
g60
(dp4649
g80
g81
ssg69
g4643
sg62
(lp4650
S'copyright'
p4651
asbag55
(g76
g57
NtRp4652
(dp4653
g60
(dp4654
g87
g88
ssg69
g4643
sg62
(lp4655
S':'
asbag55
(g76
g57
NtRp4656
(dp4657
g60
(dp4658
sg69
g4643
sg62
(lp4659
g55
(g56
g57
NtRp4660
(dp4661
g60
(dp4662
g68
I4
ssg69
g4656
sg62
(lp4663
S'Copyright 2011'
p4664
asbasbasbag55
(g71
g57
NtRp4665
(dp4666
g60
(dp4667
sg69
g4617
sg62
(lp4668
g55
(g76
g57
NtRp4669
(dp4670
g60
(dp4671
g80
g81
ssg69
g4665
sg62
(lp4672
S'description'
p4673
asbag55
(g76
g57
NtRp4674
(dp4675
g60
(dp4676
g87
g88
ssg69
g4665
sg62
(lp4677
S':'
asbag55
(g76
g57
NtRp4678
(dp4679
g60
(dp4680
sg69
g4665
sg62
(lp4681
g55
(g56
g57
NtRp4682
(dp4683
g60
(dp4684
g68
I4
ssg69
g4678
sg62
(lp4685
S'a cool new app'
p4686
asbasbasbag55
(g71
g57
NtRp4687
(dp4688
g60
(dp4689
sg69
g4617
sg62
(lp4690
g55
(g76
g57
NtRp4691
(dp4692
g60
(dp4693
g80
g81
ssg69
g4687
sg62
(lp4694
S'generator'
p4695
asbag55
(g76
g57
NtRp4696
(dp4697
g60
(dp4698
g87
g88
ssg69
g4687
sg62
(lp4699
S':'
asbag55
(g76
g57
NtRp4700
(dp4701
g60
(dp4702
sg69
g4687
sg62
(lp4703
g55
(g56
g57
NtRp4704
(dp4705
g60
(dp4706
g68
I4
ssg69
g4700
sg62
(lp4707
S'Web2py Web Framework'
p4708
asbasbasbag55
(g71
g57
NtRp4709
(dp4710
g60
(dp4711
sg69
g4617
sg62
(lp4712
g55
(g76
g57
NtRp4713
(dp4714
g60
(dp4715
g80
g81
ssg69
g4709
sg62
(lp4716
S'keywords'
p4717
asbag55
(g76
g57
NtRp4718
(dp4719
g60
(dp4720
g87
g88
ssg69
g4709
sg62
(lp4721
S':'
asbag55
(g76
g57
NtRp4722
(dp4723
g60
(dp4724
sg69
g4709
sg62
(lp4725
g55
(g56
g57
NtRp4726
(dp4727
g60
(dp4728
g68
I4
ssg69
g4722
sg62
(lp4729
S'web2py, python, framework'
p4730
asbasbasbasbasbasbasbag55
(g71
g57
NtRp4731
(dp4732
g60
(dp4733
sg69
g3830
sg62
(lp4734
g55
(g76
g57
NtRp4735
(dp4736
g60
(dp4737
g80
g81
ssg69
g4731
sg62
(lp4738
S'postprocessing'
p4739
asbag55
(g76
g57
NtRp4740
(dp4741
g60
(dp4742
g87
g88
ssg69
g4731
sg62
(lp4743
S':'
asbag55
(g76
g57
NtRp4744
(dp4745
g60
(dp4746
sg69
g4731
sg62
(lp4747
g55
(g56
g57
NtRp4748
(dp4749
g60
(dp4750
g68
I5
ssg69
g4744
sg62
(lp4751
g55
(g64
g57
NtRp4752
(dp4753
g60
(dp4754
g68
I4
ssg69
Nsg62
(lp4755
sbasbasbasbag55
(g71
g57
NtRp4756
(dp4757
g60
(dp4758
sg69
g3830
sg62
(lp4759
g55
(g76
g57
NtRp4760
(dp4761
g60
(dp4762
g80
g81
ssg69
g4756
sg62
(lp4763
S'session_file'
p4764
asbag55
(g76
g57
NtRp4765
(dp4766
g60
(dp4767
g87
g88
ssg69
g4756
sg62
(lp4768
S':'
asbag55
(g76
g57
NtRp4769
(dp4770
g60
(dp4771
sg69
g4756
sg62
(lp4772
g55
(g56
g57
NtRp4773
(dp4774
g60
(dp4775
g68
I5
ssg69
g4769
sg62
(lp4776
S"<open file '/home/kaique/Projects/web2py/applications/synopsis/sessions/127.0.0.1-22caa4ed-0448-4782-a756-bcb437fd81d3', mode 'rb+' at 0x27ddc90>"
p4777
asbasbasbag55
(g71
g57
NtRp4778
(dp4779
g60
(dp4780
sg69
g3830
sg62
(lp4781
g55
(g76
g57
NtRp4782
(dp4783
g60
(dp4784
g80
g81
ssg69
g4778
sg62
(lp4785
S'session_filename'
p4786
asbag55
(g76
g57
NtRp4787
(dp4788
g60
(dp4789
g87
g88
ssg69
g4778
sg62
(lp4790
S':'
asbag55
(g76
g57
NtRp4791
(dp4792
g60
(dp4793
sg69
g4778
sg62
(lp4794
g55
(g56
g57
NtRp4795
(dp4796
g60
(dp4797
g68
I5
ssg69
g4791
sg62
(lp4798
S'/home/kaique/Projects/web2py/applications/synopsis/sessions/127.0.0.1-22caa4ed-0448-4782-a756-bcb437fd81d3'
p4799
asbasbasbag55
(g71
g57
NtRp4800
(dp4801
g60
(dp4802
sg69
g3830
sg62
(lp4803
g55
(g76
g57
NtRp4804
(dp4805
g60
(dp4806
g80
g81
ssg69
g4800
sg62
(lp4807
S'session_id'
p4808
asbag55
(g76
g57
NtRp4809
(dp4810
g60
(dp4811
g87
g88
ssg69
g4800
sg62
(lp4812
S':'
asbag55
(g76
g57
NtRp4813
(dp4814
g60
(dp4815
sg69
g4800
sg62
(lp4816
g55
(g56
g57
NtRp4817
(dp4818
g60
(dp4819
g68
I5
ssg69
g4813
sg62
(lp4820
S'127.0.0.1-22caa4ed-0448-4782-a756-bcb437fd81d3'
p4821
asbasbasbag55
(g71
g57
NtRp4822
(dp4823
g60
(dp4824
sg69
g3830
sg62
(lp4825
g55
(g76
g57
NtRp4826
(dp4827
g60
(dp4828
g80
g81
ssg69
g4822
sg62
(lp4829
S'session_id_name'
p4830
asbag55
(g76
g57
NtRp4831
(dp4832
g60
(dp4833
g87
g88
ssg69
g4822
sg62
(lp4834
S':'
asbag55
(g76
g57
NtRp4835
(dp4836
g60
(dp4837
sg69
g4822
sg62
(lp4838
g55
(g56
g57
NtRp4839
(dp4840
g60
(dp4841
g68
I5
ssg69
g4835
sg62
(lp4842
g3887
asbasbasbag55
(g71
g57
NtRp4843
(dp4844
g60
(dp4845
sg69
g3830
sg62
(lp4846
g55
(g76
g57
NtRp4847
(dp4848
g60
(dp4849
g80
g81
ssg69
g4843
sg62
(lp4850
S'session_locked'
p4851
asbag55
(g76
g57
NtRp4852
(dp4853
g60
(dp4854
g87
g88
ssg69
g4843
sg62
(lp4855
S':'
asbag55
(g76
g57
NtRp4856
(dp4857
g60
(dp4858
sg69
g4843
sg62
(lp4859
g55
(g56
g57
NtRp4860
(dp4861
g60
(dp4862
g68
I5
ssg69
g4856
sg62
(lp4863
g2059
asbasbasbag55
(g71
g57
NtRp4864
(dp4865
g60
(dp4866
sg69
g3830
sg62
(lp4867
g55
(g76
g57
NtRp4868
(dp4869
g60
(dp4870
g80
g81
ssg69
g4864
sg62
(lp4871
S'session_new'
p4872
asbag55
(g76
g57
NtRp4873
(dp4874
g60
(dp4875
g87
g88
ssg69
g4864
sg62
(lp4876
S':'
asbag55
(g76
g57
NtRp4877
(dp4878
g60
(dp4879
sg69
g4864
sg62
(lp4880
g55
(g56
g57
NtRp4881
(dp4882
g60
(dp4883
g68
I5
ssg69
g4877
sg62
(lp4884
g98
asbasbasbag55
(g71
g57
NtRp4885
(dp4886
g60
(dp4887
sg69
g3830
sg62
(lp4888
g55
(g76
g57
NtRp4889
(dp4890
g60
(dp4891
g80
g81
ssg69
g4885
sg62
(lp4892
S'status'
p4893
asbag55
(g76
g57
NtRp4894
(dp4895
g60
(dp4896
g87
g88
ssg69
g4885
sg62
(lp4897
S':'
asbag55
(g76
g57
NtRp4898
(dp4899
g60
(dp4900
sg69
g4885
sg62
(lp4901
g55
(g56
g57
NtRp4902
(dp4903
g60
(dp4904
g68
I5
ssg69
g4898
sg62
(lp4905
S'200'
p4906
asbasbasbag55
(g71
g57
NtRp4907
(dp4908
g60
(dp4909
sg69
g3830
sg62
(lp4910
g55
(g76
g57
NtRp4911
(dp4912
g60
(dp4913
g80
g81
ssg69
g4907
sg62
(lp4914
S'subtitle'
p4915
asbag55
(g76
g57
NtRp4916
(dp4917
g60
(dp4918
g87
g88
ssg69
g4907
sg62
(lp4919
S':'
asbag55
(g76
g57
NtRp4920
(dp4921
g60
(dp4922
sg69
g4907
sg62
(lp4923
g55
(g56
g57
NtRp4924
(dp4925
g60
(dp4926
g68
I5
ssg69
g4920
sg62
(lp4927
g4413
(S's\x0f\x00\x00\x00Personalize-me!'
tRp4928
asbasbasbag55
(g71
g57
NtRp4929
(dp4930
g60
(dp4931
sg69
g3830
sg62
(lp4932
g55
(g76
g57
NtRp4933
(dp4934
g60
(dp4935
g80
g81
ssg69
g4929
sg62
(lp4936
S'title'
p4937
asbag55
(g76
g57
NtRp4938
(dp4939
g60
(dp4940
g87
g88
ssg69
g4929
sg62
(lp4941
S':'
asbag55
(g76
g57
NtRp4942
(dp4943
g60
(dp4944
sg69
g4929
sg62
(lp4945
g55
(g56
g57
NtRp4946
(dp4947
g60
(dp4948
g68
I5
ssg69
g4942
sg62
(lp4949
g120
asbasbasbag55
(g71
g57
NtRp4950
(dp4951
g60
(dp4952
sg69
g3830
sg62
(lp4953
g55
(g76
g57
NtRp4954
(dp4955
g60
(dp4956
g80
g81
ssg69
g4950
sg62
(lp4957
g2724
asbag55
(g76
g57
NtRp4958
(dp4959
g60
(dp4960
g87
g88
ssg69
g4950
sg62
(lp4961
S':'
asbag55
(g76
g57
NtRp4962
(dp4963
g60
(dp4964
sg69
g4950
sg62
(lp4965
g55
(g56
g57
NtRp4966
(dp4967
g60
(dp4968
g68
I5
ssg69
g4962
sg62
(lp4969
g2737
asbasbasbag55
(g71
g57
NtRp4970
(dp4971
g60
(dp4972
sg69
g3830
sg62
(lp4973
g55
(g76
g57
NtRp4974
(dp4975
g60
(dp4976
g80
g81
ssg69
g4970
sg62
(lp4977
S'view'
p4978
asbag55
(g76
g57
NtRp4979
(dp4980
g60
(dp4981
g87
g88
ssg69
g4970
sg62
(lp4982
S':'
asbag55
(g76
g57
NtRp4983
(dp4984
g60
(dp4985
sg69
g4970
sg62
(lp4986
g55
(g56
g57
NtRp4987
(dp4988
g60
(dp4989
g68
I5
ssg69
g4983
sg62
(lp4990
S'information/publication.html'
p4991
asbasbasbasbasbsS'locals'
p4992
(dp4993
S'Service'
p4994
S"<class 'gluon.tools.Service'>"
p4995
sS'OBJECT'
p4996
S"<class 'gluon.html.OBJECT'>"
p4997
sS'SQLDB'
p4998
S"<class 'gluon.dal.DAL'>"
p4999
sg3460
S"<Storage {'_formkey[column/create]': '1eacf8d1-e...login]': '373ec251-09b0-45fd-a73b-82a6eedd1b21'}>"
p5000
sS'LINK'
p5001
S"<class 'gluon.html.LINK'>"
p5002
sS'BR'
p5003
S"<class 'gluon.html.BR'>"
p5004
sS'local_import'
p5005
S'<function <lambda>>'
p5006
sS'OPTGROUP'
p5007
S"<class 'gluon.html.OPTGROUP'>"
p5008
sS'row'
p5009
S"<Row {'updated_by': 1, 'update_record': <functio...elete_record': <function <lambda> at 0x3471c80>}>"
p5010
sS'PRE'
p5011
S"<class 'gluon.html.PRE'>"
p5012
sS'IS_INT_IN_RANGE'
p5013
S"<class 'gluon.validators.IS_INT_IN_RANGE'>"
p5014
sS'left_sidebar_enabled'
p5015
g98
sS'IS_LOWER'
p5016
S"<class 'gluon.validators.IS_LOWER'>"
p5017
sS'IS_STRONG'
p5018
S"<class 'gluon.validators.IS_STRONG'>"
p5019
sS'cache'
p5020
S'<gluon.cache.Cache object>'
p5021
sS'IS_IN_DB'
p5022
S"<class 'gluon.validators.IS_IN_DB'>"
p5023
sS'TAG'
p5024
S'<gluon.html.__TAG__ object>'
p5025
sS'SQLField'
p5026
S"<class 'gluon.dal.Field'>"
p5027
sS'mail'
p5028
S'<gluon.tools.Mail object>'
p5029
sS'BODY'
p5030
S"<class 'gluon.html.BODY'>"
p5031
sS'IS_DATE_IN_RANGE'
p5032
S"<class 'gluon.validators.IS_DATE_IN_RANGE'>"
p5033
sS'TH'
p5034
S"<class 'gluon.html.TH'>"
p5035
sS'URL'
p5036
S'<function URL>'
p5037
sS'__file__'
p5038
S"'/home/kaique/Projects/web2py/applications/synopsis/views/information/publication.html'"
p5039
sS'db'
p5040
S"<DAL {'auth_event': <Table {'origin': <gluon.dal..., 'id': <gluon.dal.Field object at 0x347c310>}>}>"
p5041
sS'auth'
p5042
S'<gluon.tools.Auth object>'
p5043
sS'P'
S"<class 'gluon.html.P'>"
p5044
sS'TFOOT'
p5045
S"<class 'gluon.html.TFOOT'>"
p5046
sS'count_equals'
p5047
S'<function count_equals>'
p5048
sS'XHTML'
p5049
S"<class 'gluon.html.XHTML'>"
p5050
sS'ON'
p5051
g2059
sS'OL'
p5052
S"<class 'gluon.html.OL'>"
p5053
sS'TEXTAREA'
p5054
S"<class 'gluon.html.TEXTAREA'>"
p5055
sS'MENU'
p5056
S"<class 'gluon.html.MENU'>"
p5057
sg3416
g44
sS'LOAD'
p5058
S'<gluon.compileapp.LoadFactory object>'
p5059
sS'CODE'
p5060
S"<class 'gluon.html.CODE'>"
p5061
sS'HTTP'
p5062
S"<class 'gluon.http.HTTP'>"
p5063
sS'HR'
p5064
S"<class 'gluon.html.HR'>"
p5065
sS'IS_DATETIME'
p5066
S"<class 'gluon.validators.IS_DATETIME'>"
p5067
sS'HEAD'
p5068
S"<class 'gluon.html.HEAD'>"
p5069
sS'LABEL'
p5070
S"<class 'gluon.html.LABEL'>"
p5071
sS'CLEANUP'
p5072
S"<class 'gluon.validators.CLEANUP'>"
p5073
sS'plugins'
p5074
S'<gluon.tools.PluginManager object>'
p5075
sS'SELECT'
p5076
S"<class 'gluon.html.SELECT'>"
p5077
sS'use_janrain'
p5078
S'<function use_janrain>'
p5079
sS'CENTER'
p5080
S"<class 'gluon.html.CENTER'>"
p5081
sS'prettydate'
p5082
S'<function prettydate>'
p5083
sS'Crud'
p5084
S"<class 'gluon.tools.Crud'>"
p5085
sS'Auth'
p5086
S"<class 'gluon.tools.Auth'>"
p5087
sS'__builtins__'
p5088
S"{'ArithmeticError': <type 'exceptions.ArithmeticError'>, 'AssertionError': <type 'exceptions.AssertionError'>, 'AttributeError': <type 'exceptions.AttributeError'>, 'BaseException': <type 'exceptions.BaseException'>, 'BufferError': <type 'exceptions.BufferError'>, 'BytesWarning': <type 'exceptions.BytesWarning'>, 'DeprecationWarning': <type 'exceptions.DeprecationWarning'>, 'EOFError': <type 'exceptions.EOFError'>, 'Ellipsis': Ellipsis, 'EnvironmentError': <type 'exceptions.EnvironmentError'>, ...}"
p5089
sS'HTML'
p5090
S"<class 'gluon.html.HTML'>"
p5091
sS'SQLFORM'
p5092
S"<class 'gluon.sqlhtml.SQLFORM'>"
p5093
sS'EM'
p5094
S"<class 'gluon.html.EM'>"
p5095
sS'redirect'
p5096
S'<function redirect>'
p5097
sS'FIELDSET'
p5098
S"<class 'gluon.html.FIELDSET'>"
p5099
sS'IS_EQUAL_TO'
p5100
S"<class 'gluon.validators.IS_EQUAL_TO'>"
p5101
sS'embed64'
p5102
S'<function embed64>'
p5103
sS'IS_LIST_OF'
p5104
S"<class 'gluon.validators.IS_LIST_OF'>"
p5105
sS'INPUT'
p5106
S"<class 'gluon.html.INPUT'>"
p5107
sS'EMBED'
p5108
S"<class 'gluon.html.EMBED'>"
p5109
sS'FORM'
p5110
S"<class 'gluon.html.FORM'>"
p5111
sS'width_content'
p5112
S"'100%'"
p5113
sS'column'
p5114
S"<Row {'updated_by': 1, 'title': 'Test', 'update_...58>, 'row': <gluon.dal.Set object at 0x34742d0>}>"
p5115
sS'H3'
p5116
S"<class 'gluon.html.H3'>"
p5117
sS'BUTTON'
p5118
S"<class 'gluon.html.BUTTON'>"
p5119
sS'H1'
p5120
S"<class 'gluon.html.H1'>"
p5121
sS'H6'
p5122
S"<class 'gluon.html.H6'>"
p5123
sS'H4'
p5124
S"<class 'gluon.html.H4'>"
p5125
sS'H5'
p5126
S"<class 'gluon.html.H5'>"
p5127
sS'UL'
p5128
S"<class 'gluon.html.UL'>"
p5129
sS'IS_UPPER'
p5130
S"<class 'gluon.validators.IS_UPPER'>"
p5131
sS'signature'
p5132
S"<Table {'ALL': <gluon.dal.SQLALL object at 0x346...0>, 'id': <gluon.dal.Field object at 0x346c550>}>"
p5133
sS'IS_TIME'
p5134
S"<class 'gluon.validators.IS_TIME'>"
p5135
sS'OPTION'
p5136
S"<class 'gluon.html.OPTION'>"
p5137
sS'TITLE'
p5138
S"<class 'gluon.html.TITLE'>"
p5139
sS'CRYPT'
p5140
S"<class 'gluon.validators.CRYPT'>"
p5141
sS'IS_EMPTY_OR'
p5142
S"<class 'gluon.validators.IS_EMPTY_OR'>"
p5143
sS'MARKMIN'
p5144
S"<class 'gluon.html.MARKMIN'>"
p5145
sS'COL'
p5146
S"<class 'gluon.html.COL'>"
p5147
sS'publication'
p5148
S'<gluon.dal.Rows object>'
p5149
sS'service'
p5150
S'<gluon.tools.Service object>'
p5151
sS'SCRIPT'
p5152
S"<class 'gluon.html.SCRIPT'>"
p5153
sS'TABLE'
p5154
S"<class 'gluon.html.TABLE'>"
p5155
sS'IS_IPV4'
p5156
S"<class 'gluon.validators.IS_IPV4'>"
p5157
sS'IS_LENGTH'
p5158
S"<class 'gluon.validators.IS_LENGTH'>"
p5159
sS'XML'
p5160
S"<class 'gluon.html.XML'>"
p5161
sS'B'
S"<class 'gluon.html.B'>"
p5162
sS'IMG'
p5163
S"<class 'gluon.html.IMG'>"
p5164
sS'SQLTABLE'
p5165
S"<class 'gluon.sqlhtml.SQLTABLE'>"
p5166
sS'IS_MATCH'
p5167
S"<class 'gluon.validators.IS_MATCH'>"
p5168
sS'IS_ALPHANUMERIC'
p5169
S"<class 'gluon.validators.IS_ALPHANUMERIC'>"
p5170
sS'SPAN'
p5171
S"<class 'gluon.html.SPAN'>"
p5172
sS'IS_SLUG'
p5173
S"<class 'gluon.validators.IS_SLUG'>"
p5174
sS'H2'
p5175
S"<class 'gluon.html.H2'>"
p5176
sS'BEAUTIFY'
p5177
S"<class 'gluon.html.BEAUTIFY'>"
p5178
sS'META'
p5179
S"<class 'gluon.html.META'>"
p5180
sS'IS_DATE'
p5181
S"<class 'gluon.validators.IS_DATE'>"
p5182
sS'IS_EMAIL'
p5183
S"<class 'gluon.validators.IS_EMAIL'>"
p5184
sS'IS_NOT_EMPTY'
p5185
S"<class 'gluon.validators.IS_NOT_EMPTY'>"
p5186
sS'IS_FLOAT_IN_RANGE'
p5187
S"<class 'gluon.validators.IS_FLOAT_IN_RANGE'>"
p5188
sS'TBODY'
p5189
S"<class 'gluon.html.TBODY'>"
p5190
sS'CAT'
p5191
S"<class 'gluon.html.CAT'>"
p5192
sS'Field'
p5193
S"<class 'gluon.dal.Field'>"
p5194
sS'DIV'
p5195
S"<class 'gluon.html.DIV'>"
p5196
sS'LEGEND'
p5197
S"<class 'gluon.html.LEGEND'>"
p5198
sS'COLGROUP'
p5199
S"<class 'gluon.html.COLGROUP'>"
p5200
sS'DAL'
p5201
S"<class 'gluon.dal.DAL'>"
p5202
sS'TT'
p5203
S"<class 'gluon.html.TT'>"
p5204
sS'TR'
p5205
S"<class 'gluon.html.TR'>"
p5206
sS'detail'
p5207
S"<Row {'updated_by': 1, 'title': 'My test', 'upda...elete_record': <function <lambda> at 0x2a90b90>}>"
p5208
sS'LI'
p5209
S"<class 'gluon.html.LI'>"
p5210
sS'right_sidebar_enabled'
p5211
g98
sS'IFRAME'
p5212
S"<class 'gluon.html.IFRAME'>"
p5213
sS'TD'
p5214
S"<class 'gluon.html.TD'>"
p5215
sS'PluginManager'
p5216
S"<class 'gluon.tools.PluginManager'>"
p5217
sS'IS_URL'
p5218
S"<class 'gluon.validators.IS_URL'>"
p5219
sS'A'
S"<class 'gluon.html.A'>"
p5220
sS'STYLE'
p5221
S"<class 'gluon.html.STYLE'>"
p5222
sS'IS_DATETIME_IN_RANGE'
p5223
S"<class 'gluon.validators.IS_DATETIME_IN_RANGE'>"
p5224
sS'IS_IMAGE'
p5225
S"<class 'gluon.validators.IS_IMAGE'>"
p5226
sS'I'
S"<class 'gluon.html.I'>"
p5227
sS'crud'
p5228
S'<gluon.tools.Crud object>'
p5229
sS'xmlescape'
p5230
S'<function xmlescape>'
p5231
sS'right_sidebar_style'
p5232
S'\'style="display: none;"\''
p5233
sS'IS_NOT_IN_DB'
p5234
S"<class 'gluon.validators.IS_NOT_IN_DB'>"
p5235
sg3825
S"<Storage {'body': <cStringIO.StringO object at 0...a41f50>, 'view': 'information/publication.html'}>"
p5236
sS'THEAD'
p5237
S"<class 'gluon.html.THEAD'>"
p5238
sS'IS_NULL_OR'
p5239
S"<class 'gluon.validators.IS_EMPTY_OR'>"
p5240
sS'left_sidebar_style'
p5241
S'\'style="display: none;"\''
p5242
sg54
S"<Storage {'body': <cStringIO.StringO object at 0..._vars': <Storage {}>, 'post_vars': <Storage {}>}>"
p5243
sS'IS_EXPR'
p5244
S"<class 'gluon.validators.IS_EXPR'>"
p5245
sS'T'
S'<gluon.languages.translator object>'
p5246
sS'IS_IN_SET'
p5247
S"<class 'gluon.validators.IS_IN_SET'>"
p5248
sS'IS_UPLOAD_FILENAME'
p5249
S"<class 'gluon.validators.IS_UPLOAD_FILENAME'>"
p5250
sS'style_content'
p5251
S'\'style="width: 100%"\''
p5252
sS'IS_DECIMAL_IN_RANGE'
p5253
S"<class 'gluon.validators.IS_DECIMAL_IN_RANGE'>"
p5254
sssS'traceback'
p5255
S'Traceback (most recent call last):\n  File "/home/kaique/Projects/web2py/gluon/restricted.py", line 194, in restricted\n    exec ccode in environment\n  File "/home/kaique/Projects/web2py/applications/synopsis/views/information/publication.html", line 108, in <module>\nKeyError: 1\n'
p5256
s.